ARM GAS  C:\Users\info\AppData\Local\Temp\ccQPGqkW.s 			page 1


   1              		.syntax unified
   2              		.cpu cortex-m3
   3              		.fpu softvfp
   4              		.eabi_attribute 20, 1
   5              		.eabi_attribute 21, 1
   6              		.eabi_attribute 23, 3
   7              		.eabi_attribute 24, 1
   8              		.eabi_attribute 25, 1
   9              		.eabi_attribute 26, 1
  10              		.eabi_attribute 30, 2
  11              		.eabi_attribute 34, 1
  12              		.eabi_attribute 18, 4
  13              		.thumb
  14              		.syntax unified
  15              		.file	"u8x8_d_st7565.c"
  16              		.text
  17              	.Ltext0:
  18              		.cfi_sections	.debug_frame
  19              		.section	.text.u8x8_d_st7565_common,"ax",%progbits
  20              		.align	2
  21              		.global	u8x8_d_st7565_common
  22              		.thumb
  23              		.thumb_func
  24              		.type	u8x8_d_st7565_common, %function
  25              	u8x8_d_st7565_common:
  26              	.LFB0:
  27              		.file 1 "..\\u8g2-master\\csrc\\u8x8_d_st7565.c"
   1:..\u8g2-master\csrc/u8x8_d_st7565.c **** /*
   2:..\u8g2-master\csrc/u8x8_d_st7565.c **** 
   3:..\u8g2-master\csrc/u8x8_d_st7565.c ****   u8x8_d_st7565.c
   4:..\u8g2-master\csrc/u8x8_d_st7565.c ****   also includes support for nt7534 
   5:..\u8g2-master\csrc/u8x8_d_st7565.c ****   
   6:..\u8g2-master\csrc/u8x8_d_st7565.c ****   Universal 8bit Graphics Library (https://github.com/olikraus/u8g2/)
   7:..\u8g2-master\csrc/u8x8_d_st7565.c **** 
   8:..\u8g2-master\csrc/u8x8_d_st7565.c ****   Copyright (c) 2016, olikraus@gmail.com
   9:..\u8g2-master\csrc/u8x8_d_st7565.c ****   All rights reserved.
  10:..\u8g2-master\csrc/u8x8_d_st7565.c **** 
  11:..\u8g2-master\csrc/u8x8_d_st7565.c ****   Redistribution and use in source and binary forms, with or without modification, 
  12:..\u8g2-master\csrc/u8x8_d_st7565.c ****   are permitted provided that the following conditions are met:
  13:..\u8g2-master\csrc/u8x8_d_st7565.c **** 
  14:..\u8g2-master\csrc/u8x8_d_st7565.c ****   * Redistributions of source code must retain the above copyright notice, this list 
  15:..\u8g2-master\csrc/u8x8_d_st7565.c ****     of conditions and the following disclaimer.
  16:..\u8g2-master\csrc/u8x8_d_st7565.c ****     
  17:..\u8g2-master\csrc/u8x8_d_st7565.c ****   * Redistributions in binary form must reproduce the above copyright notice, this 
  18:..\u8g2-master\csrc/u8x8_d_st7565.c ****     list of conditions and the following disclaimer in the documentation and/or other 
  19:..\u8g2-master\csrc/u8x8_d_st7565.c ****     materials provided with the distribution.
  20:..\u8g2-master\csrc/u8x8_d_st7565.c **** 
  21:..\u8g2-master\csrc/u8x8_d_st7565.c ****   THIS SOFTWARE IS PROVIDED BY THE COPYRIGHT HOLDERS AND 
  22:..\u8g2-master\csrc/u8x8_d_st7565.c ****   CONTRIBUTORS "AS IS" AND ANY EXPRESS OR IMPLIED WARRANTIES, 
  23:..\u8g2-master\csrc/u8x8_d_st7565.c ****   INCLUDING, BUT NOT LIMITED TO, THE IMPLIED WARRANTIES OF 
  24:..\u8g2-master\csrc/u8x8_d_st7565.c ****   MERCHANTABILITY AND FITNESS FOR A PARTICULAR PURPOSE ARE 
  25:..\u8g2-master\csrc/u8x8_d_st7565.c ****   DISCLAIMED. IN NO EVENT SHALL THE COPYRIGHT HOLDER OR 
  26:..\u8g2-master\csrc/u8x8_d_st7565.c ****   CONTRIBUTORS BE LIABLE FOR ANY DIRECT, INDIRECT, INCIDENTAL, 
  27:..\u8g2-master\csrc/u8x8_d_st7565.c ****   SPECIAL, EXEMPLARY, OR CONSEQUENTIAL DAMAGES (INCLUDING, BUT 
  28:..\u8g2-master\csrc/u8x8_d_st7565.c ****   NOT LIMITED TO, PROCUREMENT OF SUBSTITUTE GOODS OR SERVICES; 
  29:..\u8g2-master\csrc/u8x8_d_st7565.c ****   LOSS OF USE, DATA, OR PROFITS; OR BUSINESS INTERRUPTION) HOWEVER 
  30:..\u8g2-master\csrc/u8x8_d_st7565.c ****   CAUSED AND ON ANY THEORY OF LIABILITY, WHETHER IN CONTRACT, 
ARM GAS  C:\Users\info\AppData\Local\Temp\ccQPGqkW.s 			page 2


  31:..\u8g2-master\csrc/u8x8_d_st7565.c ****   STRICT LIABILITY, OR TORT (INCLUDING NEGLIGENCE OR OTHERWISE) 
  32:..\u8g2-master\csrc/u8x8_d_st7565.c ****   ARISING IN ANY WAY OUT OF THE USE OF THIS SOFTWARE, EVEN IF 
  33:..\u8g2-master\csrc/u8x8_d_st7565.c ****   ADVISED OF THE POSSIBILITY OF SUCH DAMAGE.  
  34:..\u8g2-master\csrc/u8x8_d_st7565.c **** 
  35:..\u8g2-master\csrc/u8x8_d_st7565.c ****   
  36:..\u8g2-master\csrc/u8x8_d_st7565.c **** */
  37:..\u8g2-master\csrc/u8x8_d_st7565.c **** #include "u8x8.h"
  38:..\u8g2-master\csrc/u8x8_d_st7565.c **** 
  39:..\u8g2-master\csrc/u8x8_d_st7565.c **** 
  40:..\u8g2-master\csrc/u8x8_d_st7565.c **** 
  41:..\u8g2-master\csrc/u8x8_d_st7565.c **** 
  42:..\u8g2-master\csrc/u8x8_d_st7565.c **** 
  43:..\u8g2-master\csrc/u8x8_d_st7565.c **** static const uint8_t u8x8_d_st7565_powersave0_seq[] = {
  44:..\u8g2-master\csrc/u8x8_d_st7565.c ****   U8X8_START_TRANSFER(),             	/* enable chip, delay is part of the transfer start */
  45:..\u8g2-master\csrc/u8x8_d_st7565.c ****   U8X8_C(0x0a4),		                /* all pixel off, issue 142 */
  46:..\u8g2-master\csrc/u8x8_d_st7565.c ****   U8X8_C(0x0af),		                /* display on */
  47:..\u8g2-master\csrc/u8x8_d_st7565.c ****   U8X8_END_TRANSFER(),             	/* disable chip */
  48:..\u8g2-master\csrc/u8x8_d_st7565.c ****   U8X8_END()             			/* end of sequence */
  49:..\u8g2-master\csrc/u8x8_d_st7565.c **** };
  50:..\u8g2-master\csrc/u8x8_d_st7565.c **** 
  51:..\u8g2-master\csrc/u8x8_d_st7565.c **** static const uint8_t u8x8_d_st7565_powersave1_seq[] = {
  52:..\u8g2-master\csrc/u8x8_d_st7565.c ****   U8X8_START_TRANSFER(),             	/* enable chip, delay is part of the transfer start */
  53:..\u8g2-master\csrc/u8x8_d_st7565.c ****   U8X8_C(0x0ae),		                /* display off */
  54:..\u8g2-master\csrc/u8x8_d_st7565.c ****   U8X8_C(0x0a5),		                /* enter powersafe: all pixel on, issue 142 */
  55:..\u8g2-master\csrc/u8x8_d_st7565.c ****   U8X8_END_TRANSFER(),             	/* disable chip */
  56:..\u8g2-master\csrc/u8x8_d_st7565.c ****   U8X8_END()             			/* end of sequence */
  57:..\u8g2-master\csrc/u8x8_d_st7565.c **** };
  58:..\u8g2-master\csrc/u8x8_d_st7565.c **** 
  59:..\u8g2-master\csrc/u8x8_d_st7565.c **** static const uint8_t u8x8_d_st7565_flip0_seq[] = {
  60:..\u8g2-master\csrc/u8x8_d_st7565.c ****   U8X8_START_TRANSFER(),             	/* enable chip, delay is part of the transfer start */
  61:..\u8g2-master\csrc/u8x8_d_st7565.c ****   U8X8_C(0x0a1),				/* segment remap a0/a1*/
  62:..\u8g2-master\csrc/u8x8_d_st7565.c ****   U8X8_C(0x0c0),				/* c0: scan dir normal, c8: reverse */
  63:..\u8g2-master\csrc/u8x8_d_st7565.c ****   U8X8_END_TRANSFER(),             	/* disable chip */
  64:..\u8g2-master\csrc/u8x8_d_st7565.c ****   U8X8_END()             			/* end of sequence */
  65:..\u8g2-master\csrc/u8x8_d_st7565.c **** };
  66:..\u8g2-master\csrc/u8x8_d_st7565.c **** 
  67:..\u8g2-master\csrc/u8x8_d_st7565.c **** static const uint8_t u8x8_d_st7565_flip1_seq[] = {
  68:..\u8g2-master\csrc/u8x8_d_st7565.c ****   U8X8_START_TRANSFER(),             	/* enable chip, delay is part of the transfer start */
  69:..\u8g2-master\csrc/u8x8_d_st7565.c ****   U8X8_C(0x0a0),				/* segment remap a0/a1*/
  70:..\u8g2-master\csrc/u8x8_d_st7565.c ****   U8X8_C(0x0c8),				/* c0: scan dir normal, c8: reverse */
  71:..\u8g2-master\csrc/u8x8_d_st7565.c ****   U8X8_END_TRANSFER(),             	/* disable chip */
  72:..\u8g2-master\csrc/u8x8_d_st7565.c ****   U8X8_END()             			/* end of sequence */
  73:..\u8g2-master\csrc/u8x8_d_st7565.c **** };
  74:..\u8g2-master\csrc/u8x8_d_st7565.c **** 
  75:..\u8g2-master\csrc/u8x8_d_st7565.c **** static const uint8_t u8x8_d_st7565_zflip0_seq[] = {
  76:..\u8g2-master\csrc/u8x8_d_st7565.c ****   U8X8_START_TRANSFER(),             	/* enable chip, delay is part of the transfer start */
  77:..\u8g2-master\csrc/u8x8_d_st7565.c ****   U8X8_C(0x0a1),				/* segment remap a0/a1*/
  78:..\u8g2-master\csrc/u8x8_d_st7565.c ****   U8X8_C(0x0c8),				/* c0: scan dir normal, c8: reverse */
  79:..\u8g2-master\csrc/u8x8_d_st7565.c ****   U8X8_END_TRANSFER(),             	/* disable chip */
  80:..\u8g2-master\csrc/u8x8_d_st7565.c ****   U8X8_END()             			/* end of sequence */
  81:..\u8g2-master\csrc/u8x8_d_st7565.c **** };
  82:..\u8g2-master\csrc/u8x8_d_st7565.c **** 
  83:..\u8g2-master\csrc/u8x8_d_st7565.c **** static const uint8_t u8x8_d_st7565_zflip1_seq[] = {
  84:..\u8g2-master\csrc/u8x8_d_st7565.c ****   U8X8_START_TRANSFER(),             	/* enable chip, delay is part of the transfer start */
  85:..\u8g2-master\csrc/u8x8_d_st7565.c ****   U8X8_C(0x0a0),				/* segment remap a0/a1*/
  86:..\u8g2-master\csrc/u8x8_d_st7565.c ****   U8X8_C(0x0c0),				/* c0: scan dir normal, c8: reverse */
  87:..\u8g2-master\csrc/u8x8_d_st7565.c ****   U8X8_END_TRANSFER(),             	/* disable chip */
ARM GAS  C:\Users\info\AppData\Local\Temp\ccQPGqkW.s 			page 3


  88:..\u8g2-master\csrc/u8x8_d_st7565.c ****   U8X8_END()             			/* end of sequence */
  89:..\u8g2-master\csrc/u8x8_d_st7565.c **** };
  90:..\u8g2-master\csrc/u8x8_d_st7565.c **** 
  91:..\u8g2-master\csrc/u8x8_d_st7565.c **** static const u8x8_display_info_t u8x8_st7565_128x64_display_info =
  92:..\u8g2-master\csrc/u8x8_d_st7565.c **** {
  93:..\u8g2-master\csrc/u8x8_d_st7565.c ****   /* chip_enable_level = */ 0,
  94:..\u8g2-master\csrc/u8x8_d_st7565.c ****   /* chip_disable_level = */ 1,
  95:..\u8g2-master\csrc/u8x8_d_st7565.c ****   
  96:..\u8g2-master\csrc/u8x8_d_st7565.c ****   /* post_chip_enable_wait_ns = */ 150,	/* st7565 datasheet, table 26, tcsh */
  97:..\u8g2-master\csrc/u8x8_d_st7565.c ****   /* pre_chip_disable_wait_ns = */ 50,	/* st7565 datasheet, table 26, tcss */
  98:..\u8g2-master\csrc/u8x8_d_st7565.c ****   /* reset_pulse_width_ms = */ 1, 
  99:..\u8g2-master\csrc/u8x8_d_st7565.c ****   /* post_reset_wait_ms = */ 1, 
 100:..\u8g2-master\csrc/u8x8_d_st7565.c ****   /* sda_setup_time_ns = */ 50,		/* st7565 datasheet, table 26, tsds */
 101:..\u8g2-master\csrc/u8x8_d_st7565.c ****   /* sck_pulse_width_ns = */ 120,	/* half of cycle time (100ns according to datasheet), AVR: below 
 102:..\u8g2-master\csrc/u8x8_d_st7565.c ****   /* sck_clock_hz = */ 4000000UL,	/* since Arduino 1.6.0, the SPI bus speed in Hz. Should be  10000
 103:..\u8g2-master\csrc/u8x8_d_st7565.c ****   /* spi_mode = */ 0,		/* active high, rising edge */
 104:..\u8g2-master\csrc/u8x8_d_st7565.c ****   /* i2c_bus_clock_100kHz = */ 4,
 105:..\u8g2-master\csrc/u8x8_d_st7565.c ****   /* data_setup_time_ns = */ 40,	/* st7565 datasheet, table 24, tds8 */
 106:..\u8g2-master\csrc/u8x8_d_st7565.c ****   /* write_pulse_width_ns = */ 80,	/* st7565 datasheet, table 24, tcclw */
 107:..\u8g2-master\csrc/u8x8_d_st7565.c ****   /* tile_width = */ 16,		/* width of 16*8=128 pixel */
 108:..\u8g2-master\csrc/u8x8_d_st7565.c ****   /* tile_hight = */ 8,
 109:..\u8g2-master\csrc/u8x8_d_st7565.c ****   /* default_x_offset = */ 0,
 110:..\u8g2-master\csrc/u8x8_d_st7565.c ****   /* flipmode_x_offset = */ 4,
 111:..\u8g2-master\csrc/u8x8_d_st7565.c ****   /* pixel_width = */ 128,
 112:..\u8g2-master\csrc/u8x8_d_st7565.c ****   /* pixel_height = */ 64
 113:..\u8g2-master\csrc/u8x8_d_st7565.c **** };
 114:..\u8g2-master\csrc/u8x8_d_st7565.c **** 
 115:..\u8g2-master\csrc/u8x8_d_st7565.c **** uint8_t u8x8_d_st7565_common(u8x8_t *u8x8, uint8_t msg, uint8_t arg_int, void *arg_ptr)
 116:..\u8g2-master\csrc/u8x8_d_st7565.c **** {
  28              		.loc 1 116 0
  29              		.cfi_startproc
  30              		@ args = 0, pretend = 0, frame = 0
  31              		@ frame_needed = 0, uses_anonymous_args = 0
  32              	.LVL0:
 117:..\u8g2-master\csrc/u8x8_d_st7565.c ****   uint8_t x, c;
 118:..\u8g2-master\csrc/u8x8_d_st7565.c ****   uint8_t *ptr;
 119:..\u8g2-master\csrc/u8x8_d_st7565.c ****   switch(msg)
  33              		.loc 1 119 0
  34 0000 0E29     		cmp	r1, #14
 116:..\u8g2-master\csrc/u8x8_d_st7565.c ****   uint8_t x, c;
  35              		.loc 1 116 0
  36 0002 2DE9F041 		push	{r4, r5, r6, r7, r8, lr}
  37              		.cfi_def_cfa_offset 24
  38              		.cfi_offset 4, -24
  39              		.cfi_offset 5, -20
  40              		.cfi_offset 6, -16
  41              		.cfi_offset 7, -12
  42              		.cfi_offset 8, -8
  43              		.cfi_offset 14, -4
 116:..\u8g2-master\csrc/u8x8_d_st7565.c ****   uint8_t x, c;
  44              		.loc 1 116 0
  45 0006 1446     		mov	r4, r2
  46 0008 0546     		mov	r5, r0
  47              		.loc 1 119 0
  48 000a 45D0     		beq	.L3
  49 000c 0F29     		cmp	r1, #15
  50 000e 0CD0     		beq	.L4
ARM GAS  C:\Users\info\AppData\Local\Temp\ccQPGqkW.s 			page 4


  51 0010 0B29     		cmp	r1, #11
  52 0012 02D0     		beq	.L16
 120:..\u8g2-master\csrc/u8x8_d_st7565.c ****   {
 121:..\u8g2-master\csrc/u8x8_d_st7565.c ****     case U8X8_MSG_DISPLAY_DRAW_TILE:
 122:..\u8g2-master\csrc/u8x8_d_st7565.c ****       u8x8_cad_StartTransfer(u8x8);
 123:..\u8g2-master\csrc/u8x8_d_st7565.c ****     
 124:..\u8g2-master\csrc/u8x8_d_st7565.c ****       x = ((u8x8_tile_t *)arg_ptr)->x_pos;
 125:..\u8g2-master\csrc/u8x8_d_st7565.c ****       x *= 8;
 126:..\u8g2-master\csrc/u8x8_d_st7565.c ****       x += u8x8->x_offset;
 127:..\u8g2-master\csrc/u8x8_d_st7565.c ****       u8x8_cad_SendCmd(u8x8, 0x010 | (x>>4) );
 128:..\u8g2-master\csrc/u8x8_d_st7565.c ****       u8x8_cad_SendCmd(u8x8, 0x000 | ((x&15)));
 129:..\u8g2-master\csrc/u8x8_d_st7565.c ****       u8x8_cad_SendCmd(u8x8, 0x0b0 | (((u8x8_tile_t *)arg_ptr)->y_pos));
 130:..\u8g2-master\csrc/u8x8_d_st7565.c ****     
 131:..\u8g2-master\csrc/u8x8_d_st7565.c ****       c = ((u8x8_tile_t *)arg_ptr)->cnt;
 132:..\u8g2-master\csrc/u8x8_d_st7565.c ****       c *= 8;
 133:..\u8g2-master\csrc/u8x8_d_st7565.c ****       ptr = ((u8x8_tile_t *)arg_ptr)->tile_ptr;
 134:..\u8g2-master\csrc/u8x8_d_st7565.c ****       /* 
 135:..\u8g2-master\csrc/u8x8_d_st7565.c **** 	The following if condition checks the hardware limits of the st7565 
 136:..\u8g2-master\csrc/u8x8_d_st7565.c **** 	controller: It is not allowed to write beyond the display limits.
 137:..\u8g2-master\csrc/u8x8_d_st7565.c **** 	This is in fact an issue within flip mode.
 138:..\u8g2-master\csrc/u8x8_d_st7565.c ****       */
 139:..\u8g2-master\csrc/u8x8_d_st7565.c ****       if ( c + x > 132u )
 140:..\u8g2-master\csrc/u8x8_d_st7565.c ****       {
 141:..\u8g2-master\csrc/u8x8_d_st7565.c **** 	c = 132u;
 142:..\u8g2-master\csrc/u8x8_d_st7565.c **** 	c -= x;
 143:..\u8g2-master\csrc/u8x8_d_st7565.c ****       }
 144:..\u8g2-master\csrc/u8x8_d_st7565.c ****       do
 145:..\u8g2-master\csrc/u8x8_d_st7565.c ****       {
 146:..\u8g2-master\csrc/u8x8_d_st7565.c **** 	u8x8_cad_SendData(u8x8, c, ptr);	/* note: SendData can not handle more than 255 bytes */
 147:..\u8g2-master\csrc/u8x8_d_st7565.c **** 	arg_int--;
 148:..\u8g2-master\csrc/u8x8_d_st7565.c ****       } while( arg_int > 0 );
 149:..\u8g2-master\csrc/u8x8_d_st7565.c ****       
 150:..\u8g2-master\csrc/u8x8_d_st7565.c ****       u8x8_cad_EndTransfer(u8x8);
 151:..\u8g2-master\csrc/u8x8_d_st7565.c ****       break;
 152:..\u8g2-master\csrc/u8x8_d_st7565.c ****     /*	handled in the calling procedure 
 153:..\u8g2-master\csrc/u8x8_d_st7565.c ****     case U8X8_MSG_DISPLAY_SETUP_MEMORY:
 154:..\u8g2-master\csrc/u8x8_d_st7565.c ****       u8x8_d_helper_display_setup_memory(u8x8, &u8x8_st7565_128x64_display_info);
 155:..\u8g2-master\csrc/u8x8_d_st7565.c ****       break;
 156:..\u8g2-master\csrc/u8x8_d_st7565.c ****     case U8X8_MSG_DISPLAY_INIT:
 157:..\u8g2-master\csrc/u8x8_d_st7565.c ****       u8x8_d_helper_display_init(u8x8);
 158:..\u8g2-master\csrc/u8x8_d_st7565.c ****       u8x8_cad_SendSequence(u8x8, u8x8_d_uc1701_dogs102_init_seq);
 159:..\u8g2-master\csrc/u8x8_d_st7565.c ****       break;
 160:..\u8g2-master\csrc/u8x8_d_st7565.c ****     */
 161:..\u8g2-master\csrc/u8x8_d_st7565.c ****     case U8X8_MSG_DISPLAY_SET_POWER_SAVE:
 162:..\u8g2-master\csrc/u8x8_d_st7565.c ****       if ( arg_int == 0 )
 163:..\u8g2-master\csrc/u8x8_d_st7565.c **** 	u8x8_cad_SendSequence(u8x8, u8x8_d_st7565_powersave0_seq);
 164:..\u8g2-master\csrc/u8x8_d_st7565.c ****       else
 165:..\u8g2-master\csrc/u8x8_d_st7565.c **** 	u8x8_cad_SendSequence(u8x8, u8x8_d_st7565_powersave1_seq);
 166:..\u8g2-master\csrc/u8x8_d_st7565.c ****       break;
 167:..\u8g2-master\csrc/u8x8_d_st7565.c **** #ifdef U8X8_WITH_SET_CONTRAST
 168:..\u8g2-master\csrc/u8x8_d_st7565.c ****     case U8X8_MSG_DISPLAY_SET_CONTRAST:
 169:..\u8g2-master\csrc/u8x8_d_st7565.c ****       u8x8_cad_StartTransfer(u8x8);
 170:..\u8g2-master\csrc/u8x8_d_st7565.c ****       u8x8_cad_SendCmd(u8x8, 0x081 );
 171:..\u8g2-master\csrc/u8x8_d_st7565.c ****       u8x8_cad_SendArg(u8x8, arg_int >> 2 );	/* st7565 has range from 0 to 63 */
 172:..\u8g2-master\csrc/u8x8_d_st7565.c ****       u8x8_cad_EndTransfer(u8x8);
 173:..\u8g2-master\csrc/u8x8_d_st7565.c ****       break;
 174:..\u8g2-master\csrc/u8x8_d_st7565.c **** #endif
ARM GAS  C:\Users\info\AppData\Local\Temp\ccQPGqkW.s 			page 5


 175:..\u8g2-master\csrc/u8x8_d_st7565.c ****     default:
 176:..\u8g2-master\csrc/u8x8_d_st7565.c ****       return 0;
  53              		.loc 1 176 0
  54 0014 0020     		movs	r0, #0
  55              	.LVL1:
 177:..\u8g2-master\csrc/u8x8_d_st7565.c ****   }
 178:..\u8g2-master\csrc/u8x8_d_st7565.c ****   return 1;
 179:..\u8g2-master\csrc/u8x8_d_st7565.c **** }
  56              		.loc 1 179 0
  57 0016 BDE8F081 		pop	{r4, r5, r6, r7, r8, pc}
  58              	.LVL2:
  59              	.L16:
 162:..\u8g2-master\csrc/u8x8_d_st7565.c **** 	u8x8_cad_SendSequence(u8x8, u8x8_d_st7565_powersave0_seq);
  60              		.loc 1 162 0
  61 001a 002A     		cmp	r2, #0
  62 001c 4CD1     		bne	.L8
 163:..\u8g2-master\csrc/u8x8_d_st7565.c ****       else
  63              		.loc 1 163 0
  64 001e 2949     		ldr	r1, .L17
  65              	.LVL3:
  66 0020 FFF7FEFF 		bl	u8x8_cad_SendSequence
  67              	.LVL4:
 178:..\u8g2-master\csrc/u8x8_d_st7565.c **** }
  68              		.loc 1 178 0
  69 0024 0120     		movs	r0, #1
  70 0026 BDE8F081 		pop	{r4, r5, r6, r7, r8, pc}
  71              	.LVL5:
  72              	.L4:
  73 002a 1F46     		mov	r7, r3
  74              	.LVL6:
  75              	.LBB4:
  76              	.LBB5:
 122:..\u8g2-master\csrc/u8x8_d_st7565.c ****     
  77              		.loc 1 122 0
  78 002c FFF7FEFF 		bl	u8x8_cad_StartTransfer
  79              	.LVL7:
 126:..\u8g2-master\csrc/u8x8_d_st7565.c ****       u8x8_cad_SendCmd(u8x8, 0x010 | (x>>4) );
  80              		.loc 1 126 0
  81 0030 95F82230 		ldrb	r3, [r5, #34]	@ zero_extendqisi2
 124:..\u8g2-master\csrc/u8x8_d_st7565.c ****       x *= 8;
  82              		.loc 1 124 0
  83 0034 97F80580 		ldrb	r8, [r7, #5]	@ zero_extendqisi2
  84              	.LVL8:
 127:..\u8g2-master\csrc/u8x8_d_st7565.c ****       u8x8_cad_SendCmd(u8x8, 0x000 | ((x&15)));
  85              		.loc 1 127 0
  86 0038 2846     		mov	r0, r5
 126:..\u8g2-master\csrc/u8x8_d_st7565.c ****       u8x8_cad_SendCmd(u8x8, 0x010 | (x>>4) );
  87              		.loc 1 126 0
  88 003a 03EBC808 		add	r8, r3, r8, lsl #3
  89              	.LVL9:
  90 003e 08F0FF08 		and	r8, r8, #255
  91              	.LVL10:
 127:..\u8g2-master\csrc/u8x8_d_st7565.c ****       u8x8_cad_SendCmd(u8x8, 0x000 | ((x&15)));
  92              		.loc 1 127 0
  93 0042 4FEA1811 		lsr	r1, r8, #4
  94 0046 41F01001 		orr	r1, r1, #16
  95 004a FFF7FEFF 		bl	u8x8_cad_SendCmd
ARM GAS  C:\Users\info\AppData\Local\Temp\ccQPGqkW.s 			page 6


  96              	.LVL11:
 128:..\u8g2-master\csrc/u8x8_d_st7565.c ****       u8x8_cad_SendCmd(u8x8, 0x0b0 | (((u8x8_tile_t *)arg_ptr)->y_pos));
  97              		.loc 1 128 0
  98 004e 08F00F01 		and	r1, r8, #15
  99 0052 2846     		mov	r0, r5
 100 0054 FFF7FEFF 		bl	u8x8_cad_SendCmd
 101              	.LVL12:
 129:..\u8g2-master\csrc/u8x8_d_st7565.c ****     
 102              		.loc 1 129 0
 103 0058 B979     		ldrb	r1, [r7, #6]	@ zero_extendqisi2
 104 005a 2846     		mov	r0, r5
 105 005c 41F0B001 		orr	r1, r1, #176
 106 0060 FFF7FEFF 		bl	u8x8_cad_SendCmd
 107              	.LVL13:
 131:..\u8g2-master\csrc/u8x8_d_st7565.c ****       c *= 8;
 108              		.loc 1 131 0
 109 0064 3E79     		ldrb	r6, [r7, #4]	@ zero_extendqisi2
 110              	.LVL14:
 133:..\u8g2-master\csrc/u8x8_d_st7565.c ****       /* 
 111              		.loc 1 133 0
 112 0066 3F68     		ldr	r7, [r7]
 113              	.LVL15:
 132:..\u8g2-master\csrc/u8x8_d_st7565.c ****       ptr = ((u8x8_tile_t *)arg_ptr)->tile_ptr;
 114              		.loc 1 132 0
 115 0068 F600     		lsls	r6, r6, #3
 116              	.LVL16:
 117 006a F6B2     		uxtb	r6, r6
 118              	.LVL17:
 139:..\u8g2-master\csrc/u8x8_d_st7565.c ****       {
 119              		.loc 1 139 0
 120 006c 06EB0803 		add	r3, r6, r8
 121 0070 842B     		cmp	r3, #132
 122              	.LVL18:
 142:..\u8g2-master\csrc/u8x8_d_st7565.c ****       }
 123              		.loc 1 142 0
 124 0072 C4BF     		itt	gt
 125 0074 C8F18406 		rsbgt	r6, r8, #132
 126 0078 F6B2     		uxtbgt	r6, r6
 127              	.LVL19:
 128              	.L7:
 146:..\u8g2-master\csrc/u8x8_d_st7565.c **** 	arg_int--;
 129              		.loc 1 146 0
 130 007a 3A46     		mov	r2, r7
 131 007c 3146     		mov	r1, r6
 132 007e 2846     		mov	r0, r5
 133 0080 FFF7FEFF 		bl	u8x8_cad_SendData
 134              	.LVL20:
 147:..\u8g2-master\csrc/u8x8_d_st7565.c ****       } while( arg_int > 0 );
 135              		.loc 1 147 0
 136 0084 621E     		subs	r2, r4, #1
 137              	.LVL21:
 148:..\u8g2-master\csrc/u8x8_d_st7565.c ****       
 138              		.loc 1 148 0
 139 0086 12F0FF04 		ands	r4, r2, #255
 140 008a F6D1     		bne	.L7
 141              	.LBE5:
 142              	.LBE4:
ARM GAS  C:\Users\info\AppData\Local\Temp\ccQPGqkW.s 			page 7


 172:..\u8g2-master\csrc/u8x8_d_st7565.c ****       break;
 143              		.loc 1 172 0
 144 008c 2846     		mov	r0, r5
 145 008e FFF7FEFF 		bl	u8x8_cad_EndTransfer
 146              	.LVL22:
 178:..\u8g2-master\csrc/u8x8_d_st7565.c **** }
 147              		.loc 1 178 0
 148 0092 0120     		movs	r0, #1
 173:..\u8g2-master\csrc/u8x8_d_st7565.c **** #endif
 149              		.loc 1 173 0
 150 0094 BDE8F081 		pop	{r4, r5, r6, r7, r8, pc}
 151              	.LVL23:
 152              	.L3:
 169:..\u8g2-master\csrc/u8x8_d_st7565.c ****       u8x8_cad_SendCmd(u8x8, 0x081 );
 153              		.loc 1 169 0
 154 0098 FFF7FEFF 		bl	u8x8_cad_StartTransfer
 155              	.LVL24:
 170:..\u8g2-master\csrc/u8x8_d_st7565.c ****       u8x8_cad_SendArg(u8x8, arg_int >> 2 );	/* st7565 has range from 0 to 63 */
 156              		.loc 1 170 0
 157 009c 8121     		movs	r1, #129
 158 009e 2846     		mov	r0, r5
 159 00a0 FFF7FEFF 		bl	u8x8_cad_SendCmd
 160              	.LVL25:
 171:..\u8g2-master\csrc/u8x8_d_st7565.c ****       u8x8_cad_EndTransfer(u8x8);
 161              		.loc 1 171 0
 162 00a4 A108     		lsrs	r1, r4, #2
 163 00a6 2846     		mov	r0, r5
 164 00a8 FFF7FEFF 		bl	u8x8_cad_SendArg
 165              	.LVL26:
 172:..\u8g2-master\csrc/u8x8_d_st7565.c ****       break;
 166              		.loc 1 172 0
 167 00ac 2846     		mov	r0, r5
 168 00ae FFF7FEFF 		bl	u8x8_cad_EndTransfer
 169              	.LVL27:
 178:..\u8g2-master\csrc/u8x8_d_st7565.c **** }
 170              		.loc 1 178 0
 171 00b2 0120     		movs	r0, #1
 173:..\u8g2-master\csrc/u8x8_d_st7565.c **** #endif
 172              		.loc 1 173 0
 173 00b4 BDE8F081 		pop	{r4, r5, r6, r7, r8, pc}
 174              	.LVL28:
 175              	.L8:
 165:..\u8g2-master\csrc/u8x8_d_st7565.c ****       break;
 176              		.loc 1 165 0
 177 00b8 0349     		ldr	r1, .L17+4
 178              	.LVL29:
 179 00ba FFF7FEFF 		bl	u8x8_cad_SendSequence
 180              	.LVL30:
 178:..\u8g2-master\csrc/u8x8_d_st7565.c **** }
 181              		.loc 1 178 0
 182 00be 0120     		movs	r0, #1
 183 00c0 BDE8F081 		pop	{r4, r5, r6, r7, r8, pc}
 184              	.LVL31:
 185              	.L18:
 186              		.align	2
 187              	.L17:
 188 00c4 00000000 		.word	.LANCHOR0
ARM GAS  C:\Users\info\AppData\Local\Temp\ccQPGqkW.s 			page 8


 189 00c8 08000000 		.word	.LANCHOR0+8
 190              		.cfi_endproc
 191              	.LFE0:
 192              		.size	u8x8_d_st7565_common, .-u8x8_d_st7565_common
 193              		.section	.text.u8x8_d_st7565_ea_dogm128,"ax",%progbits
 194              		.align	2
 195              		.global	u8x8_d_st7565_ea_dogm128
 196              		.thumb
 197              		.thumb_func
 198              		.type	u8x8_d_st7565_ea_dogm128, %function
 199              	u8x8_d_st7565_ea_dogm128:
 200              	.LFB1:
 180:..\u8g2-master\csrc/u8x8_d_st7565.c **** 
 181:..\u8g2-master\csrc/u8x8_d_st7565.c **** /*================================================*/
 182:..\u8g2-master\csrc/u8x8_d_st7565.c **** /* DOGM128 */
 183:..\u8g2-master\csrc/u8x8_d_st7565.c **** 
 184:..\u8g2-master\csrc/u8x8_d_st7565.c **** static const uint8_t u8x8_d_st7565_dogm128_init_seq[] = {
 185:..\u8g2-master\csrc/u8x8_d_st7565.c ****     
 186:..\u8g2-master\csrc/u8x8_d_st7565.c ****   U8X8_START_TRANSFER(),             	/* enable chip, delay is part of the transfer start */
 187:..\u8g2-master\csrc/u8x8_d_st7565.c ****   
 188:..\u8g2-master\csrc/u8x8_d_st7565.c ****   U8X8_C(0x0e2),            			/* soft reset */
 189:..\u8g2-master\csrc/u8x8_d_st7565.c ****   U8X8_C(0x0ae),		                /* display off */
 190:..\u8g2-master\csrc/u8x8_d_st7565.c ****   U8X8_C(0x040),		                /* set display start line to 0 */
 191:..\u8g2-master\csrc/u8x8_d_st7565.c ****   
 192:..\u8g2-master\csrc/u8x8_d_st7565.c ****   U8X8_C(0x0a1),		                /* ADC set to reverse */
 193:..\u8g2-master\csrc/u8x8_d_st7565.c ****   U8X8_C(0x0c0),		                /* common output mode */
 194:..\u8g2-master\csrc/u8x8_d_st7565.c ****   // Flipmode
 195:..\u8g2-master\csrc/u8x8_d_st7565.c ****   // U8X8_C(0x0a0),		                /* ADC set to reverse */
 196:..\u8g2-master\csrc/u8x8_d_st7565.c ****   // U8X8_C(0x0c8),		                /* common output mode */
 197:..\u8g2-master\csrc/u8x8_d_st7565.c ****   
 198:..\u8g2-master\csrc/u8x8_d_st7565.c ****   U8X8_C(0x0a6),		                /* display normal, bit val 0: LCD pixel off. */
 199:..\u8g2-master\csrc/u8x8_d_st7565.c ****   U8X8_C(0x0a2),		                /* LCD bias 1/9 */
 200:..\u8g2-master\csrc/u8x8_d_st7565.c ****   U8X8_C(0x02f),		                /* all power  control circuits on (regulator, booster and followe
 201:..\u8g2-master\csrc/u8x8_d_st7565.c ****   U8X8_CA(0x0f8, 0x000),		/* set booster ratio to 4x */
 202:..\u8g2-master\csrc/u8x8_d_st7565.c ****   U8X8_C(0x027),		                /* set V0 voltage resistor ratio to max  */
 203:..\u8g2-master\csrc/u8x8_d_st7565.c ****   U8X8_CA(0x081, 0x018),		/* set contrast, contrast value, EA default: 0x016 */
 204:..\u8g2-master\csrc/u8x8_d_st7565.c ****   
 205:..\u8g2-master\csrc/u8x8_d_st7565.c ****   U8X8_C(0x0ae),		                /* display off */
 206:..\u8g2-master\csrc/u8x8_d_st7565.c ****   U8X8_C(0x0a5),		                /* enter powersafe: all pixel on, issue 142 */
 207:..\u8g2-master\csrc/u8x8_d_st7565.c ****   
 208:..\u8g2-master\csrc/u8x8_d_st7565.c ****   U8X8_END_TRANSFER(),             	/* disable chip */
 209:..\u8g2-master\csrc/u8x8_d_st7565.c ****   U8X8_END()             			/* end of sequence */
 210:..\u8g2-master\csrc/u8x8_d_st7565.c **** };
 211:..\u8g2-master\csrc/u8x8_d_st7565.c **** 
 212:..\u8g2-master\csrc/u8x8_d_st7565.c **** uint8_t u8x8_d_st7565_ea_dogm128(u8x8_t *u8x8, uint8_t msg, uint8_t arg_int, void *arg_ptr)
 213:..\u8g2-master\csrc/u8x8_d_st7565.c **** {
 201              		.loc 1 213 0
 202              		.cfi_startproc
 203              		@ args = 0, pretend = 0, frame = 0
 204              		@ frame_needed = 0, uses_anonymous_args = 0
 205              	.LVL32:
 206              	.LBB10:
 207              	.LBB11:
 119:..\u8g2-master\csrc/u8x8_d_st7565.c ****   {
 208              		.loc 1 119 0
 209 0000 0E29     		cmp	r1, #14
 210              	.LBE11:
ARM GAS  C:\Users\info\AppData\Local\Temp\ccQPGqkW.s 			page 9


 211              	.LBE10:
 212              		.loc 1 213 0
 213 0002 2DE9F041 		push	{r4, r5, r6, r7, r8, lr}
 214              		.cfi_def_cfa_offset 24
 215              		.cfi_offset 4, -24
 216              		.cfi_offset 5, -20
 217              		.cfi_offset 6, -16
 218              		.cfi_offset 7, -12
 219              		.cfi_offset 8, -8
 220              		.cfi_offset 14, -4
 221              		.loc 1 213 0
 222 0006 1446     		mov	r4, r2
 223 0008 0546     		mov	r5, r0
 224              	.LVL33:
 225              	.LBB19:
 226              	.LBB14:
 119:..\u8g2-master\csrc/u8x8_d_st7565.c ****   {
 227              		.loc 1 119 0
 228 000a 4BD0     		beq	.L21
 229 000c 0F29     		cmp	r1, #15
 230 000e 12D0     		beq	.L22
 231 0010 0B29     		cmp	r1, #11
 232 0012 08D0     		beq	.L42
 233              	.LVL34:
 234              	.LBE14:
 235              	.LBE19:
 214:..\u8g2-master\csrc/u8x8_d_st7565.c ****   /* call common procedure first and handle messages there */
 215:..\u8g2-master\csrc/u8x8_d_st7565.c ****   if ( u8x8_d_st7565_common(u8x8, msg, arg_int, arg_ptr) == 0 )
 216:..\u8g2-master\csrc/u8x8_d_st7565.c ****   {
 217:..\u8g2-master\csrc/u8x8_d_st7565.c ****     /* msg not handled, then try here */
 218:..\u8g2-master\csrc/u8x8_d_st7565.c ****     switch(msg)
 236              		.loc 1 218 0
 237 0014 0A29     		cmp	r1, #10
 238 0016 50D0     		beq	.L30
 239 0018 0D29     		cmp	r1, #13
 240 001a 63D0     		beq	.L31
 241 001c 0929     		cmp	r1, #9
 242 001e 5BD0     		beq	.L43
 219:..\u8g2-master\csrc/u8x8_d_st7565.c ****     {
 220:..\u8g2-master\csrc/u8x8_d_st7565.c ****       case U8X8_MSG_DISPLAY_SETUP_MEMORY:
 221:..\u8g2-master\csrc/u8x8_d_st7565.c **** 	u8x8_d_helper_display_setup_memory(u8x8, &u8x8_st7565_128x64_display_info);
 222:..\u8g2-master\csrc/u8x8_d_st7565.c **** 	break;
 223:..\u8g2-master\csrc/u8x8_d_st7565.c ****       case U8X8_MSG_DISPLAY_INIT:
 224:..\u8g2-master\csrc/u8x8_d_st7565.c **** 	u8x8_d_helper_display_init(u8x8);
 225:..\u8g2-master\csrc/u8x8_d_st7565.c **** 	u8x8_cad_SendSequence(u8x8, u8x8_d_st7565_dogm128_init_seq);
 226:..\u8g2-master\csrc/u8x8_d_st7565.c **** 	break;
 227:..\u8g2-master\csrc/u8x8_d_st7565.c ****       case U8X8_MSG_DISPLAY_SET_FLIP_MODE:
 228:..\u8g2-master\csrc/u8x8_d_st7565.c **** 	if ( arg_int == 0 )
 229:..\u8g2-master\csrc/u8x8_d_st7565.c **** 	{
 230:..\u8g2-master\csrc/u8x8_d_st7565.c **** 	  u8x8_cad_SendSequence(u8x8, u8x8_d_st7565_flip0_seq);
 231:..\u8g2-master\csrc/u8x8_d_st7565.c **** 	  u8x8->x_offset = u8x8->display_info->default_x_offset;
 232:..\u8g2-master\csrc/u8x8_d_st7565.c **** 	}
 233:..\u8g2-master\csrc/u8x8_d_st7565.c **** 	else
 234:..\u8g2-master\csrc/u8x8_d_st7565.c **** 	{
 235:..\u8g2-master\csrc/u8x8_d_st7565.c **** 	  u8x8_cad_SendSequence(u8x8, u8x8_d_st7565_flip1_seq);
 236:..\u8g2-master\csrc/u8x8_d_st7565.c **** 	  u8x8->x_offset = u8x8->display_info->flipmode_x_offset;
 237:..\u8g2-master\csrc/u8x8_d_st7565.c **** 	}	
ARM GAS  C:\Users\info\AppData\Local\Temp\ccQPGqkW.s 			page 10


 238:..\u8g2-master\csrc/u8x8_d_st7565.c **** 	break;
 239:..\u8g2-master\csrc/u8x8_d_st7565.c ****       default:
 240:..\u8g2-master\csrc/u8x8_d_st7565.c **** 	return 0;		/* msg unknown */
 243              		.loc 1 240 0
 244 0020 0020     		movs	r0, #0
 245              	.LVL35:
 246 0022 BDE8F081 		pop	{r4, r5, r6, r7, r8, pc}
 247              	.LVL36:
 248              	.L42:
 249              	.LBB20:
 250              	.LBB15:
 162:..\u8g2-master\csrc/u8x8_d_st7565.c **** 	u8x8_cad_SendSequence(u8x8, u8x8_d_st7565_powersave0_seq);
 251              		.loc 1 162 0
 252 0026 002A     		cmp	r2, #0
 253 0028 50D1     		bne	.L27
 163:..\u8g2-master\csrc/u8x8_d_st7565.c ****       else
 254              		.loc 1 163 0
 255 002a 3949     		ldr	r1, .L45
 256              	.LVL37:
 257 002c FFF7FEFF 		bl	u8x8_cad_SendSequence
 258              	.LVL38:
 259              	.LBE15:
 260              	.LBE20:
 241:..\u8g2-master\csrc/u8x8_d_st7565.c ****     }
 242:..\u8g2-master\csrc/u8x8_d_st7565.c ****   }
 243:..\u8g2-master\csrc/u8x8_d_st7565.c ****   return 1;
 261              		.loc 1 243 0
 262 0030 0120     		movs	r0, #1
 263 0032 BDE8F081 		pop	{r4, r5, r6, r7, r8, pc}
 264              	.LVL39:
 265              	.L22:
 266 0036 1F46     		mov	r7, r3
 267              	.LVL40:
 268              	.LBB21:
 269              	.LBB16:
 270              	.LBB12:
 271              	.LBB13:
 122:..\u8g2-master\csrc/u8x8_d_st7565.c ****     
 272              		.loc 1 122 0
 273 0038 FFF7FEFF 		bl	u8x8_cad_StartTransfer
 274              	.LVL41:
 126:..\u8g2-master\csrc/u8x8_d_st7565.c ****       u8x8_cad_SendCmd(u8x8, 0x010 | (x>>4) );
 275              		.loc 1 126 0
 276 003c 95F82230 		ldrb	r3, [r5, #34]	@ zero_extendqisi2
 124:..\u8g2-master\csrc/u8x8_d_st7565.c ****       x *= 8;
 277              		.loc 1 124 0
 278 0040 97F80580 		ldrb	r8, [r7, #5]	@ zero_extendqisi2
 279              	.LVL42:
 127:..\u8g2-master\csrc/u8x8_d_st7565.c ****       u8x8_cad_SendCmd(u8x8, 0x000 | ((x&15)));
 280              		.loc 1 127 0
 281 0044 2846     		mov	r0, r5
 126:..\u8g2-master\csrc/u8x8_d_st7565.c ****       u8x8_cad_SendCmd(u8x8, 0x010 | (x>>4) );
 282              		.loc 1 126 0
 283 0046 03EBC808 		add	r8, r3, r8, lsl #3
 284              	.LVL43:
 285 004a 08F0FF08 		and	r8, r8, #255
 286              	.LVL44:
ARM GAS  C:\Users\info\AppData\Local\Temp\ccQPGqkW.s 			page 11


 127:..\u8g2-master\csrc/u8x8_d_st7565.c ****       u8x8_cad_SendCmd(u8x8, 0x000 | ((x&15)));
 287              		.loc 1 127 0
 288 004e 4FEA1811 		lsr	r1, r8, #4
 289 0052 41F01001 		orr	r1, r1, #16
 290 0056 FFF7FEFF 		bl	u8x8_cad_SendCmd
 291              	.LVL45:
 128:..\u8g2-master\csrc/u8x8_d_st7565.c ****       u8x8_cad_SendCmd(u8x8, 0x0b0 | (((u8x8_tile_t *)arg_ptr)->y_pos));
 292              		.loc 1 128 0
 293 005a 08F00F01 		and	r1, r8, #15
 294 005e 2846     		mov	r0, r5
 295 0060 FFF7FEFF 		bl	u8x8_cad_SendCmd
 296              	.LVL46:
 129:..\u8g2-master\csrc/u8x8_d_st7565.c ****     
 297              		.loc 1 129 0
 298 0064 B979     		ldrb	r1, [r7, #6]	@ zero_extendqisi2
 299 0066 2846     		mov	r0, r5
 300 0068 41F0B001 		orr	r1, r1, #176
 301 006c FFF7FEFF 		bl	u8x8_cad_SendCmd
 302              	.LVL47:
 131:..\u8g2-master\csrc/u8x8_d_st7565.c ****       c *= 8;
 303              		.loc 1 131 0
 304 0070 3E79     		ldrb	r6, [r7, #4]	@ zero_extendqisi2
 305              	.LVL48:
 133:..\u8g2-master\csrc/u8x8_d_st7565.c ****       /* 
 306              		.loc 1 133 0
 307 0072 3F68     		ldr	r7, [r7]
 308              	.LVL49:
 132:..\u8g2-master\csrc/u8x8_d_st7565.c ****       ptr = ((u8x8_tile_t *)arg_ptr)->tile_ptr;
 309              		.loc 1 132 0
 310 0074 F600     		lsls	r6, r6, #3
 311              	.LVL50:
 312 0076 F6B2     		uxtb	r6, r6
 313              	.LVL51:
 139:..\u8g2-master\csrc/u8x8_d_st7565.c ****       {
 314              		.loc 1 139 0
 315 0078 06EB0803 		add	r3, r6, r8
 316 007c 842B     		cmp	r3, #132
 317              	.LVL52:
 142:..\u8g2-master\csrc/u8x8_d_st7565.c ****       }
 318              		.loc 1 142 0
 319 007e C4BF     		itt	gt
 320 0080 C8F18406 		rsbgt	r6, r8, #132
 321 0084 F6B2     		uxtbgt	r6, r6
 322              	.LVL53:
 323              	.L25:
 146:..\u8g2-master\csrc/u8x8_d_st7565.c **** 	arg_int--;
 324              		.loc 1 146 0
 325 0086 3A46     		mov	r2, r7
 326 0088 3146     		mov	r1, r6
 327 008a 2846     		mov	r0, r5
 328 008c FFF7FEFF 		bl	u8x8_cad_SendData
 329              	.LVL54:
 147:..\u8g2-master\csrc/u8x8_d_st7565.c ****       } while( arg_int > 0 );
 330              		.loc 1 147 0
 331 0090 621E     		subs	r2, r4, #1
 332              	.LVL55:
 148:..\u8g2-master\csrc/u8x8_d_st7565.c ****       
ARM GAS  C:\Users\info\AppData\Local\Temp\ccQPGqkW.s 			page 12


 333              		.loc 1 148 0
 334 0092 12F0FF04 		ands	r4, r2, #255
 335 0096 F6D1     		bne	.L25
 336              	.LVL56:
 337              	.L39:
 338              	.LBE13:
 339              	.LBE12:
 172:..\u8g2-master\csrc/u8x8_d_st7565.c ****       break;
 340              		.loc 1 172 0
 341 0098 2846     		mov	r0, r5
 342 009a FFF7FEFF 		bl	u8x8_cad_EndTransfer
 343              	.LVL57:
 344              	.LBE16:
 345              	.LBE21:
 346              		.loc 1 243 0
 347 009e 0120     		movs	r0, #1
 348 00a0 BDE8F081 		pop	{r4, r5, r6, r7, r8, pc}
 349              	.LVL58:
 350              	.L21:
 351              	.LBB22:
 352              	.LBB17:
 169:..\u8g2-master\csrc/u8x8_d_st7565.c ****       u8x8_cad_SendCmd(u8x8, 0x081 );
 353              		.loc 1 169 0
 354 00a4 FFF7FEFF 		bl	u8x8_cad_StartTransfer
 355              	.LVL59:
 170:..\u8g2-master\csrc/u8x8_d_st7565.c ****       u8x8_cad_SendArg(u8x8, arg_int >> 2 );	/* st7565 has range from 0 to 63 */
 356              		.loc 1 170 0
 357 00a8 8121     		movs	r1, #129
 358 00aa 2846     		mov	r0, r5
 359 00ac FFF7FEFF 		bl	u8x8_cad_SendCmd
 360              	.LVL60:
 171:..\u8g2-master\csrc/u8x8_d_st7565.c ****       u8x8_cad_EndTransfer(u8x8);
 361              		.loc 1 171 0
 362 00b0 A108     		lsrs	r1, r4, #2
 363 00b2 2846     		mov	r0, r5
 364 00b4 FFF7FEFF 		bl	u8x8_cad_SendArg
 365              	.LVL61:
 366 00b8 EEE7     		b	.L39
 367              	.LVL62:
 368              	.L30:
 369              	.LBE17:
 370              	.LBE22:
 224:..\u8g2-master\csrc/u8x8_d_st7565.c **** 	u8x8_cad_SendSequence(u8x8, u8x8_d_st7565_dogm128_init_seq);
 371              		.loc 1 224 0
 372 00ba FFF7FEFF 		bl	u8x8_d_helper_display_init
 373              	.LVL63:
 225:..\u8g2-master\csrc/u8x8_d_st7565.c **** 	break;
 374              		.loc 1 225 0
 375 00be 2846     		mov	r0, r5
 376 00c0 1449     		ldr	r1, .L45+4
 377 00c2 FFF7FEFF 		bl	u8x8_cad_SendSequence
 378              	.LVL64:
 379              		.loc 1 243 0
 380 00c6 0120     		movs	r0, #1
 226:..\u8g2-master\csrc/u8x8_d_st7565.c ****       case U8X8_MSG_DISPLAY_SET_FLIP_MODE:
 381              		.loc 1 226 0
 382 00c8 BDE8F081 		pop	{r4, r5, r6, r7, r8, pc}
ARM GAS  C:\Users\info\AppData\Local\Temp\ccQPGqkW.s 			page 13


 383              	.LVL65:
 384              	.L27:
 385              	.LBB23:
 386              	.LBB18:
 165:..\u8g2-master\csrc/u8x8_d_st7565.c ****       break;
 387              		.loc 1 165 0
 388 00cc 1249     		ldr	r1, .L45+8
 389              	.LVL66:
 390 00ce FFF7FEFF 		bl	u8x8_cad_SendSequence
 391              	.LVL67:
 392              	.LBE18:
 393              	.LBE23:
 394              		.loc 1 243 0
 395 00d2 0120     		movs	r0, #1
 396 00d4 BDE8F081 		pop	{r4, r5, r6, r7, r8, pc}
 397              	.LVL68:
 398              	.L43:
 221:..\u8g2-master\csrc/u8x8_d_st7565.c **** 	break;
 399              		.loc 1 221 0
 400 00d8 1049     		ldr	r1, .L45+12
 401              	.LVL69:
 402 00da FFF7FEFF 		bl	u8x8_d_helper_display_setup_memory
 403              	.LVL70:
 404              		.loc 1 243 0
 405 00de 0120     		movs	r0, #1
 222:..\u8g2-master\csrc/u8x8_d_st7565.c ****       case U8X8_MSG_DISPLAY_INIT:
 406              		.loc 1 222 0
 407 00e0 BDE8F081 		pop	{r4, r5, r6, r7, r8, pc}
 408              	.LVL71:
 409              	.L31:
 228:..\u8g2-master\csrc/u8x8_d_st7565.c **** 	{
 410              		.loc 1 228 0
 411 00e4 4CB1     		cbz	r4, .L44
 235:..\u8g2-master\csrc/u8x8_d_st7565.c **** 	  u8x8->x_offset = u8x8->display_info->flipmode_x_offset;
 412              		.loc 1 235 0
 413 00e6 0E49     		ldr	r1, .L45+16
 414              	.LVL72:
 415 00e8 FFF7FEFF 		bl	u8x8_cad_SendSequence
 416              	.LVL73:
 236:..\u8g2-master\csrc/u8x8_d_st7565.c **** 	}	
 417              		.loc 1 236 0
 418 00ec 2B68     		ldr	r3, [r5]
 419              		.loc 1 243 0
 420 00ee 0120     		movs	r0, #1
 236:..\u8g2-master\csrc/u8x8_d_st7565.c **** 	}	
 421              		.loc 1 236 0
 422 00f0 DB7C     		ldrb	r3, [r3, #19]	@ zero_extendqisi2
 423 00f2 85F82230 		strb	r3, [r5, #34]
 424 00f6 BDE8F081 		pop	{r4, r5, r6, r7, r8, pc}
 425              	.LVL74:
 426              	.L44:
 230:..\u8g2-master\csrc/u8x8_d_st7565.c **** 	  u8x8->x_offset = u8x8->display_info->default_x_offset;
 427              		.loc 1 230 0
 428 00fa 0A49     		ldr	r1, .L45+20
 429              	.LVL75:
 430 00fc FFF7FEFF 		bl	u8x8_cad_SendSequence
 431              	.LVL76:
ARM GAS  C:\Users\info\AppData\Local\Temp\ccQPGqkW.s 			page 14


 231:..\u8g2-master\csrc/u8x8_d_st7565.c **** 	}
 432              		.loc 1 231 0
 433 0100 2B68     		ldr	r3, [r5]
 434              		.loc 1 243 0
 435 0102 0120     		movs	r0, #1
 231:..\u8g2-master\csrc/u8x8_d_st7565.c **** 	}
 436              		.loc 1 231 0
 437 0104 9B7C     		ldrb	r3, [r3, #18]	@ zero_extendqisi2
 438 0106 85F82230 		strb	r3, [r5, #34]
 439 010a BDE8F081 		pop	{r4, r5, r6, r7, r8, pc}
 440              	.LVL77:
 441              	.L46:
 442 010e 00BF     		.align	2
 443              	.L45:
 444 0110 00000000 		.word	.LANCHOR0
 445 0114 28000000 		.word	.LANCHOR0+40
 446 0118 08000000 		.word	.LANCHOR0+8
 447 011c 10000000 		.word	.LANCHOR0+16
 448 0120 54000000 		.word	.LANCHOR0+84
 449 0124 4C000000 		.word	.LANCHOR0+76
 450              		.cfi_endproc
 451              	.LFE1:
 452              		.size	u8x8_d_st7565_ea_dogm128, .-u8x8_d_st7565_ea_dogm128
 453              		.section	.text.u8x8_d_st7565_64128n,"ax",%progbits
 454              		.align	2
 455              		.global	u8x8_d_st7565_64128n
 456              		.thumb
 457              		.thumb_func
 458              		.type	u8x8_d_st7565_64128n, %function
 459              	u8x8_d_st7565_64128n:
 460              	.LFB2:
 244:..\u8g2-master\csrc/u8x8_d_st7565.c **** }
 245:..\u8g2-master\csrc/u8x8_d_st7565.c **** 
 246:..\u8g2-master\csrc/u8x8_d_st7565.c **** /*================================================*/
 247:..\u8g2-master\csrc/u8x8_d_st7565.c **** /* Displaytech 64128n */
 248:..\u8g2-master\csrc/u8x8_d_st7565.c **** 
 249:..\u8g2-master\csrc/u8x8_d_st7565.c **** static const uint8_t u8x8_d_st7565_64128n_init_seq[] = {
 250:..\u8g2-master\csrc/u8x8_d_st7565.c ****     
 251:..\u8g2-master\csrc/u8x8_d_st7565.c ****   U8X8_START_TRANSFER(),             	/* enable chip, delay is part of the transfer start */
 252:..\u8g2-master\csrc/u8x8_d_st7565.c **** 
 253:..\u8g2-master\csrc/u8x8_d_st7565.c ****   #ifdef NOT_WORKING
 254:..\u8g2-master\csrc/u8x8_d_st7565.c ****   
 255:..\u8g2-master\csrc/u8x8_d_st7565.c ****   U8X8_C(0x0e2),            			/* soft reset */
 256:..\u8g2-master\csrc/u8x8_d_st7565.c ****   U8X8_C(0x0ae),		                /* display off */
 257:..\u8g2-master\csrc/u8x8_d_st7565.c ****   U8X8_C(0x040),		                /* set display start line to 0 */
 258:..\u8g2-master\csrc/u8x8_d_st7565.c ****   
 259:..\u8g2-master\csrc/u8x8_d_st7565.c ****   U8X8_C(0x0a1),		                /* ADC set to reverse */
 260:..\u8g2-master\csrc/u8x8_d_st7565.c ****   U8X8_C(0x0c0),		                /* common output mode */
 261:..\u8g2-master\csrc/u8x8_d_st7565.c ****   // Flipmode
 262:..\u8g2-master\csrc/u8x8_d_st7565.c ****   // U8X8_C(0x0a0),		                /* ADC set to reverse */
 263:..\u8g2-master\csrc/u8x8_d_st7565.c ****   // U8X8_C(0x0c8),		                /* common output mode */
 264:..\u8g2-master\csrc/u8x8_d_st7565.c ****   
 265:..\u8g2-master\csrc/u8x8_d_st7565.c ****   U8X8_C(0x0a6),		                /* display normal, bit val 0: LCD pixel off. */
 266:..\u8g2-master\csrc/u8x8_d_st7565.c ****   U8X8_C(0x0a2),		                /* LCD bias 1/9 */
 267:..\u8g2-master\csrc/u8x8_d_st7565.c ****   U8X8_C(0x02f),		                /* all power  control circuits on */
 268:..\u8g2-master\csrc/u8x8_d_st7565.c ****   //U8X8_CA(0x0f8, 0x000),		/* set booster ratio to 4x */
 269:..\u8g2-master\csrc/u8x8_d_st7565.c ****   //U8X8_C(0x027),		                /* set V0 voltage resistor ratio to max  */
ARM GAS  C:\Users\info\AppData\Local\Temp\ccQPGqkW.s 			page 15


 270:..\u8g2-master\csrc/u8x8_d_st7565.c **** 
 271:..\u8g2-master\csrc/u8x8_d_st7565.c ****   U8X8_C(0x010),                   		/* Set V0 voltage resistor ratio. Setting for controlling brig
 272:..\u8g2-master\csrc/u8x8_d_st7565.c ****   
 273:..\u8g2-master\csrc/u8x8_d_st7565.c ****   
 274:..\u8g2-master\csrc/u8x8_d_st7565.c ****   U8X8_CA(0x081, 0x01e),		/* set contrast, contrast value */
 275:..\u8g2-master\csrc/u8x8_d_st7565.c ****   
 276:..\u8g2-master\csrc/u8x8_d_st7565.c ****   U8X8_C(0x0ae),		                /* display off */
 277:..\u8g2-master\csrc/u8x8_d_st7565.c ****   U8X8_C(0x0a5),		                /* enter powersafe: all pixel on, issue 142 */
 278:..\u8g2-master\csrc/u8x8_d_st7565.c **** #else
 279:..\u8g2-master\csrc/u8x8_d_st7565.c **** 
 280:..\u8g2-master\csrc/u8x8_d_st7565.c **** 
 281:..\u8g2-master\csrc/u8x8_d_st7565.c ****   U8X8_C(0x0e2),            	   /* soft reset */
 282:..\u8g2-master\csrc/u8x8_d_st7565.c ****   U8X8_C(0x0A2),   				   /* 0x0a2: LCD bias 1/9 (according to Displaytech 64128N datasheet) */
 283:..\u8g2-master\csrc/u8x8_d_st7565.c ****   
 284:..\u8g2-master\csrc/u8x8_d_st7565.c ****   U8X8_C(0x0a1),		                /* ADC set to reverse */
 285:..\u8g2-master\csrc/u8x8_d_st7565.c ****   U8X8_C(0x0c0),		                /* common output mode */
 286:..\u8g2-master\csrc/u8x8_d_st7565.c ****   //U8X8_C(0x0A0),  				   /* Normal ADC Select (according to Displaytech 64128N datasheet) */
 287:..\u8g2-master\csrc/u8x8_d_st7565.c ****   //U8X8_C(0x0c8),                   /* common output mode: set scan direction normal operation/SHL
 288:..\u8g2-master\csrc/u8x8_d_st7565.c ****   
 289:..\u8g2-master\csrc/u8x8_d_st7565.c ****   U8X8_C(0x040),		           /* Display start line for Displaytech 64128N */
 290:..\u8g2-master\csrc/u8x8_d_st7565.c ****   U8X8_C(0x028 | 0x04),            /* power control: turn on voltage converter */
 291:..\u8g2-master\csrc/u8x8_d_st7565.c ****   U8X8_C(0x028 | 0x06),            /* power control: turn on voltage regulator */
 292:..\u8g2-master\csrc/u8x8_d_st7565.c ****   U8X8_C(0x028 | 0x07),            /* power control: turn on voltage follower */
 293:..\u8g2-master\csrc/u8x8_d_st7565.c ****   U8X8_C(0x010),                   /* Set V0 voltage resistor ratio. Setting for controlling bright
 294:..\u8g2-master\csrc/u8x8_d_st7565.c **** 					      /* 19 Jul 17: Not sure if this is true, cmd 0x1? is used to set the column */
 295:..\u8g2-master\csrc/u8x8_d_st7565.c ****   U8X8_C(0x0a6),                   /* display normal, bit val 0: LCD pixel off. */
 296:..\u8g2-master\csrc/u8x8_d_st7565.c ****   U8X8_C(0x081),      	           /* set contrast */
 297:..\u8g2-master\csrc/u8x8_d_st7565.c ****   U8X8_C(0x01e),        	       /* Contrast value. Setting for controlling brightness of Displaytec
 298:..\u8g2-master\csrc/u8x8_d_st7565.c ****   //U8X8_C(0x0af),		           /* display on */
 299:..\u8g2-master\csrc/u8x8_d_st7565.c ****   //U8X8_C(0x0a5),		           /* display all points, ST7565 */
 300:..\u8g2-master\csrc/u8x8_d_st7565.c ****   //U8X8_C(0x0a4),		           /* normal display */
 301:..\u8g2-master\csrc/u8x8_d_st7565.c **** 
 302:..\u8g2-master\csrc/u8x8_d_st7565.c ****   U8X8_C(0x0ae),		                /* display off */
 303:..\u8g2-master\csrc/u8x8_d_st7565.c **** 
 304:..\u8g2-master\csrc/u8x8_d_st7565.c **** 
 305:..\u8g2-master\csrc/u8x8_d_st7565.c **** #endif
 306:..\u8g2-master\csrc/u8x8_d_st7565.c **** 
 307:..\u8g2-master\csrc/u8x8_d_st7565.c ****   U8X8_END_TRANSFER(),             	/* disable chip */
 308:..\u8g2-master\csrc/u8x8_d_st7565.c ****   U8X8_END()             			/* end of sequence */
 309:..\u8g2-master\csrc/u8x8_d_st7565.c **** };
 310:..\u8g2-master\csrc/u8x8_d_st7565.c **** 
 311:..\u8g2-master\csrc/u8x8_d_st7565.c **** static const u8x8_display_info_t u8x8_st7565_64128n_display_info =
 312:..\u8g2-master\csrc/u8x8_d_st7565.c **** {
 313:..\u8g2-master\csrc/u8x8_d_st7565.c ****   /* chip_enable_level = */ 0,
 314:..\u8g2-master\csrc/u8x8_d_st7565.c ****   /* chip_disable_level = */ 1,
 315:..\u8g2-master\csrc/u8x8_d_st7565.c ****   
 316:..\u8g2-master\csrc/u8x8_d_st7565.c ****   /* post_chip_enable_wait_ns = */ 150,	/* st7565 datasheet, table 26, tcsh */
 317:..\u8g2-master\csrc/u8x8_d_st7565.c ****   /* pre_chip_disable_wait_ns = */ 50,	/* st7565 datasheet, table 26, tcss */
 318:..\u8g2-master\csrc/u8x8_d_st7565.c ****   /* reset_pulse_width_ms = */ 1, 
 319:..\u8g2-master\csrc/u8x8_d_st7565.c ****   /* post_reset_wait_ms = */ 1, 
 320:..\u8g2-master\csrc/u8x8_d_st7565.c ****   /* sda_setup_time_ns = */ 50,		/* st7565 datasheet, table 26, tsds */
 321:..\u8g2-master\csrc/u8x8_d_st7565.c ****   /* sck_pulse_width_ns = */ 120,	/* half of cycle time (100ns according to datasheet), AVR: below 
 322:..\u8g2-master\csrc/u8x8_d_st7565.c ****   /* sck_clock_hz = */ 4000000UL,	/* since Arduino 1.6.0, the SPI bus speed in Hz. Should be  10000
 323:..\u8g2-master\csrc/u8x8_d_st7565.c ****   /* spi_mode = */ 0,		/* active high, rising edge */
 324:..\u8g2-master\csrc/u8x8_d_st7565.c ****   /* i2c_bus_clock_100kHz = */ 4,
 325:..\u8g2-master\csrc/u8x8_d_st7565.c ****   /* data_setup_time_ns = */ 40,	/* st7565 datasheet, table 24, tds8 */
 326:..\u8g2-master\csrc/u8x8_d_st7565.c ****   /* write_pulse_width_ns = */ 80,	/* st7565 datasheet, table 24, tcclw */
ARM GAS  C:\Users\info\AppData\Local\Temp\ccQPGqkW.s 			page 16


 327:..\u8g2-master\csrc/u8x8_d_st7565.c ****   /* tile_width = */ 16,		/* width of 16*8=128 pixel */
 328:..\u8g2-master\csrc/u8x8_d_st7565.c ****   /* tile_hight = */ 8,
 329:..\u8g2-master\csrc/u8x8_d_st7565.c ****   /* default_x_offset = */ 4,
 330:..\u8g2-master\csrc/u8x8_d_st7565.c ****   /* flipmode_x_offset = */ 0,
 331:..\u8g2-master\csrc/u8x8_d_st7565.c ****   /* pixel_width = */ 128,
 332:..\u8g2-master\csrc/u8x8_d_st7565.c ****   /* pixel_height = */ 64
 333:..\u8g2-master\csrc/u8x8_d_st7565.c **** };
 334:..\u8g2-master\csrc/u8x8_d_st7565.c **** 
 335:..\u8g2-master\csrc/u8x8_d_st7565.c **** uint8_t u8x8_d_st7565_64128n(u8x8_t *u8x8, uint8_t msg, uint8_t arg_int, void *arg_ptr)
 336:..\u8g2-master\csrc/u8x8_d_st7565.c **** {
 461              		.loc 1 336 0
 462              		.cfi_startproc
 463              		@ args = 0, pretend = 0, frame = 0
 464              		@ frame_needed = 0, uses_anonymous_args = 0
 465              	.LVL78:
 466              	.LBB28:
 467              	.LBB29:
 119:..\u8g2-master\csrc/u8x8_d_st7565.c ****   {
 468              		.loc 1 119 0
 469 0000 0E29     		cmp	r1, #14
 470              	.LBE29:
 471              	.LBE28:
 472              		.loc 1 336 0
 473 0002 2DE9F041 		push	{r4, r5, r6, r7, r8, lr}
 474              		.cfi_def_cfa_offset 24
 475              		.cfi_offset 4, -24
 476              		.cfi_offset 5, -20
 477              		.cfi_offset 6, -16
 478              		.cfi_offset 7, -12
 479              		.cfi_offset 8, -8
 480              		.cfi_offset 14, -4
 481              		.loc 1 336 0
 482 0006 1446     		mov	r4, r2
 483 0008 0546     		mov	r5, r0
 484              	.LVL79:
 485              	.LBB37:
 486              	.LBB32:
 119:..\u8g2-master\csrc/u8x8_d_st7565.c ****   {
 487              		.loc 1 119 0
 488 000a 4BD0     		beq	.L49
 489 000c 0F29     		cmp	r1, #15
 490 000e 12D0     		beq	.L50
 491 0010 0B29     		cmp	r1, #11
 492 0012 08D0     		beq	.L70
 493              	.LVL80:
 494              	.LBE32:
 495              	.LBE37:
 337:..\u8g2-master\csrc/u8x8_d_st7565.c ****   /* call common procedure first and handle messages there */
 338:..\u8g2-master\csrc/u8x8_d_st7565.c ****   if ( u8x8_d_st7565_common(u8x8, msg, arg_int, arg_ptr) == 0 )
 339:..\u8g2-master\csrc/u8x8_d_st7565.c ****   {
 340:..\u8g2-master\csrc/u8x8_d_st7565.c ****     /* msg not handled, then try here */
 341:..\u8g2-master\csrc/u8x8_d_st7565.c ****     switch(msg)
 496              		.loc 1 341 0
 497 0014 0A29     		cmp	r1, #10
 498 0016 50D0     		beq	.L58
 499 0018 0D29     		cmp	r1, #13
 500 001a 63D0     		beq	.L59
ARM GAS  C:\Users\info\AppData\Local\Temp\ccQPGqkW.s 			page 17


 501 001c 0929     		cmp	r1, #9
 502 001e 5BD0     		beq	.L71
 342:..\u8g2-master\csrc/u8x8_d_st7565.c ****     {
 343:..\u8g2-master\csrc/u8x8_d_st7565.c ****       case U8X8_MSG_DISPLAY_SETUP_MEMORY:
 344:..\u8g2-master\csrc/u8x8_d_st7565.c **** 	u8x8_d_helper_display_setup_memory(u8x8, &u8x8_st7565_64128n_display_info);
 345:..\u8g2-master\csrc/u8x8_d_st7565.c **** 	break;
 346:..\u8g2-master\csrc/u8x8_d_st7565.c ****       case U8X8_MSG_DISPLAY_INIT:
 347:..\u8g2-master\csrc/u8x8_d_st7565.c **** 	u8x8_d_helper_display_init(u8x8);
 348:..\u8g2-master\csrc/u8x8_d_st7565.c **** 	u8x8_cad_SendSequence(u8x8, u8x8_d_st7565_64128n_init_seq);
 349:..\u8g2-master\csrc/u8x8_d_st7565.c **** 	break;
 350:..\u8g2-master\csrc/u8x8_d_st7565.c ****       case U8X8_MSG_DISPLAY_SET_FLIP_MODE:
 351:..\u8g2-master\csrc/u8x8_d_st7565.c **** 	if ( arg_int == 0 )
 352:..\u8g2-master\csrc/u8x8_d_st7565.c **** 	{
 353:..\u8g2-master\csrc/u8x8_d_st7565.c **** 	  u8x8_cad_SendSequence(u8x8, u8x8_d_st7565_flip0_seq);
 354:..\u8g2-master\csrc/u8x8_d_st7565.c **** 	  u8x8->x_offset = u8x8->display_info->default_x_offset;
 355:..\u8g2-master\csrc/u8x8_d_st7565.c **** 	}
 356:..\u8g2-master\csrc/u8x8_d_st7565.c **** 	else
 357:..\u8g2-master\csrc/u8x8_d_st7565.c **** 	{
 358:..\u8g2-master\csrc/u8x8_d_st7565.c **** 	  u8x8_cad_SendSequence(u8x8, u8x8_d_st7565_flip1_seq);
 359:..\u8g2-master\csrc/u8x8_d_st7565.c **** 	  u8x8->x_offset = u8x8->display_info->flipmode_x_offset;
 360:..\u8g2-master\csrc/u8x8_d_st7565.c **** 	}	
 361:..\u8g2-master\csrc/u8x8_d_st7565.c **** 	break;
 362:..\u8g2-master\csrc/u8x8_d_st7565.c ****       default:
 363:..\u8g2-master\csrc/u8x8_d_st7565.c **** 	return 0;		/* msg unknown */
 503              		.loc 1 363 0
 504 0020 0020     		movs	r0, #0
 505              	.LVL81:
 506 0022 BDE8F081 		pop	{r4, r5, r6, r7, r8, pc}
 507              	.LVL82:
 508              	.L70:
 509              	.LBB38:
 510              	.LBB33:
 162:..\u8g2-master\csrc/u8x8_d_st7565.c **** 	u8x8_cad_SendSequence(u8x8, u8x8_d_st7565_powersave0_seq);
 511              		.loc 1 162 0
 512 0026 002A     		cmp	r2, #0
 513 0028 50D1     		bne	.L55
 163:..\u8g2-master\csrc/u8x8_d_st7565.c ****       else
 514              		.loc 1 163 0
 515 002a 3949     		ldr	r1, .L73
 516              	.LVL83:
 517 002c FFF7FEFF 		bl	u8x8_cad_SendSequence
 518              	.LVL84:
 519              	.LBE33:
 520              	.LBE38:
 364:..\u8g2-master\csrc/u8x8_d_st7565.c ****     }
 365:..\u8g2-master\csrc/u8x8_d_st7565.c ****   }
 366:..\u8g2-master\csrc/u8x8_d_st7565.c ****   return 1;
 521              		.loc 1 366 0
 522 0030 0120     		movs	r0, #1
 523 0032 BDE8F081 		pop	{r4, r5, r6, r7, r8, pc}
 524              	.LVL85:
 525              	.L50:
 526 0036 1F46     		mov	r7, r3
 527              	.LVL86:
 528              	.LBB39:
 529              	.LBB34:
 530              	.LBB30:
ARM GAS  C:\Users\info\AppData\Local\Temp\ccQPGqkW.s 			page 18


 531              	.LBB31:
 122:..\u8g2-master\csrc/u8x8_d_st7565.c ****     
 532              		.loc 1 122 0
 533 0038 FFF7FEFF 		bl	u8x8_cad_StartTransfer
 534              	.LVL87:
 126:..\u8g2-master\csrc/u8x8_d_st7565.c ****       u8x8_cad_SendCmd(u8x8, 0x010 | (x>>4) );
 535              		.loc 1 126 0
 536 003c 95F82230 		ldrb	r3, [r5, #34]	@ zero_extendqisi2
 124:..\u8g2-master\csrc/u8x8_d_st7565.c ****       x *= 8;
 537              		.loc 1 124 0
 538 0040 97F80580 		ldrb	r8, [r7, #5]	@ zero_extendqisi2
 539              	.LVL88:
 127:..\u8g2-master\csrc/u8x8_d_st7565.c ****       u8x8_cad_SendCmd(u8x8, 0x000 | ((x&15)));
 540              		.loc 1 127 0
 541 0044 2846     		mov	r0, r5
 126:..\u8g2-master\csrc/u8x8_d_st7565.c ****       u8x8_cad_SendCmd(u8x8, 0x010 | (x>>4) );
 542              		.loc 1 126 0
 543 0046 03EBC808 		add	r8, r3, r8, lsl #3
 544              	.LVL89:
 545 004a 08F0FF08 		and	r8, r8, #255
 546              	.LVL90:
 127:..\u8g2-master\csrc/u8x8_d_st7565.c ****       u8x8_cad_SendCmd(u8x8, 0x000 | ((x&15)));
 547              		.loc 1 127 0
 548 004e 4FEA1811 		lsr	r1, r8, #4
 549 0052 41F01001 		orr	r1, r1, #16
 550 0056 FFF7FEFF 		bl	u8x8_cad_SendCmd
 551              	.LVL91:
 128:..\u8g2-master\csrc/u8x8_d_st7565.c ****       u8x8_cad_SendCmd(u8x8, 0x0b0 | (((u8x8_tile_t *)arg_ptr)->y_pos));
 552              		.loc 1 128 0
 553 005a 08F00F01 		and	r1, r8, #15
 554 005e 2846     		mov	r0, r5
 555 0060 FFF7FEFF 		bl	u8x8_cad_SendCmd
 556              	.LVL92:
 129:..\u8g2-master\csrc/u8x8_d_st7565.c ****     
 557              		.loc 1 129 0
 558 0064 B979     		ldrb	r1, [r7, #6]	@ zero_extendqisi2
 559 0066 2846     		mov	r0, r5
 560 0068 41F0B001 		orr	r1, r1, #176
 561 006c FFF7FEFF 		bl	u8x8_cad_SendCmd
 562              	.LVL93:
 131:..\u8g2-master\csrc/u8x8_d_st7565.c ****       c *= 8;
 563              		.loc 1 131 0
 564 0070 3E79     		ldrb	r6, [r7, #4]	@ zero_extendqisi2
 565              	.LVL94:
 133:..\u8g2-master\csrc/u8x8_d_st7565.c ****       /* 
 566              		.loc 1 133 0
 567 0072 3F68     		ldr	r7, [r7]
 568              	.LVL95:
 132:..\u8g2-master\csrc/u8x8_d_st7565.c ****       ptr = ((u8x8_tile_t *)arg_ptr)->tile_ptr;
 569              		.loc 1 132 0
 570 0074 F600     		lsls	r6, r6, #3
 571              	.LVL96:
 572 0076 F6B2     		uxtb	r6, r6
 573              	.LVL97:
 139:..\u8g2-master\csrc/u8x8_d_st7565.c ****       {
 574              		.loc 1 139 0
 575 0078 06EB0803 		add	r3, r6, r8
ARM GAS  C:\Users\info\AppData\Local\Temp\ccQPGqkW.s 			page 19


 576 007c 842B     		cmp	r3, #132
 577              	.LVL98:
 142:..\u8g2-master\csrc/u8x8_d_st7565.c ****       }
 578              		.loc 1 142 0
 579 007e C4BF     		itt	gt
 580 0080 C8F18406 		rsbgt	r6, r8, #132
 581 0084 F6B2     		uxtbgt	r6, r6
 582              	.LVL99:
 583              	.L53:
 146:..\u8g2-master\csrc/u8x8_d_st7565.c **** 	arg_int--;
 584              		.loc 1 146 0
 585 0086 3A46     		mov	r2, r7
 586 0088 3146     		mov	r1, r6
 587 008a 2846     		mov	r0, r5
 588 008c FFF7FEFF 		bl	u8x8_cad_SendData
 589              	.LVL100:
 147:..\u8g2-master\csrc/u8x8_d_st7565.c ****       } while( arg_int > 0 );
 590              		.loc 1 147 0
 591 0090 621E     		subs	r2, r4, #1
 592              	.LVL101:
 148:..\u8g2-master\csrc/u8x8_d_st7565.c ****       
 593              		.loc 1 148 0
 594 0092 12F0FF04 		ands	r4, r2, #255
 595 0096 F6D1     		bne	.L53
 596              	.LVL102:
 597              	.L67:
 598              	.LBE31:
 599              	.LBE30:
 172:..\u8g2-master\csrc/u8x8_d_st7565.c ****       break;
 600              		.loc 1 172 0
 601 0098 2846     		mov	r0, r5
 602 009a FFF7FEFF 		bl	u8x8_cad_EndTransfer
 603              	.LVL103:
 604              	.LBE34:
 605              	.LBE39:
 606              		.loc 1 366 0
 607 009e 0120     		movs	r0, #1
 608 00a0 BDE8F081 		pop	{r4, r5, r6, r7, r8, pc}
 609              	.LVL104:
 610              	.L49:
 611              	.LBB40:
 612              	.LBB35:
 169:..\u8g2-master\csrc/u8x8_d_st7565.c ****       u8x8_cad_SendCmd(u8x8, 0x081 );
 613              		.loc 1 169 0
 614 00a4 FFF7FEFF 		bl	u8x8_cad_StartTransfer
 615              	.LVL105:
 170:..\u8g2-master\csrc/u8x8_d_st7565.c ****       u8x8_cad_SendArg(u8x8, arg_int >> 2 );	/* st7565 has range from 0 to 63 */
 616              		.loc 1 170 0
 617 00a8 8121     		movs	r1, #129
 618 00aa 2846     		mov	r0, r5
 619 00ac FFF7FEFF 		bl	u8x8_cad_SendCmd
 620              	.LVL106:
 171:..\u8g2-master\csrc/u8x8_d_st7565.c ****       u8x8_cad_EndTransfer(u8x8);
 621              		.loc 1 171 0
 622 00b0 A108     		lsrs	r1, r4, #2
 623 00b2 2846     		mov	r0, r5
 624 00b4 FFF7FEFF 		bl	u8x8_cad_SendArg
ARM GAS  C:\Users\info\AppData\Local\Temp\ccQPGqkW.s 			page 20


 625              	.LVL107:
 626 00b8 EEE7     		b	.L67
 627              	.LVL108:
 628              	.L58:
 629              	.LBE35:
 630              	.LBE40:
 347:..\u8g2-master\csrc/u8x8_d_st7565.c **** 	u8x8_cad_SendSequence(u8x8, u8x8_d_st7565_64128n_init_seq);
 631              		.loc 1 347 0
 632 00ba FFF7FEFF 		bl	u8x8_d_helper_display_init
 633              	.LVL109:
 348:..\u8g2-master\csrc/u8x8_d_st7565.c **** 	break;
 634              		.loc 1 348 0
 635 00be 2846     		mov	r0, r5
 636 00c0 1449     		ldr	r1, .L73+4
 637 00c2 FFF7FEFF 		bl	u8x8_cad_SendSequence
 638              	.LVL110:
 639              		.loc 1 366 0
 640 00c6 0120     		movs	r0, #1
 349:..\u8g2-master\csrc/u8x8_d_st7565.c ****       case U8X8_MSG_DISPLAY_SET_FLIP_MODE:
 641              		.loc 1 349 0
 642 00c8 BDE8F081 		pop	{r4, r5, r6, r7, r8, pc}
 643              	.LVL111:
 644              	.L55:
 645              	.LBB41:
 646              	.LBB36:
 165:..\u8g2-master\csrc/u8x8_d_st7565.c ****       break;
 647              		.loc 1 165 0
 648 00cc 1249     		ldr	r1, .L73+8
 649              	.LVL112:
 650 00ce FFF7FEFF 		bl	u8x8_cad_SendSequence
 651              	.LVL113:
 652              	.LBE36:
 653              	.LBE41:
 654              		.loc 1 366 0
 655 00d2 0120     		movs	r0, #1
 656 00d4 BDE8F081 		pop	{r4, r5, r6, r7, r8, pc}
 657              	.LVL114:
 658              	.L71:
 344:..\u8g2-master\csrc/u8x8_d_st7565.c **** 	break;
 659              		.loc 1 344 0
 660 00d8 1049     		ldr	r1, .L73+12
 661              	.LVL115:
 662 00da FFF7FEFF 		bl	u8x8_d_helper_display_setup_memory
 663              	.LVL116:
 664              		.loc 1 366 0
 665 00de 0120     		movs	r0, #1
 345:..\u8g2-master\csrc/u8x8_d_st7565.c ****       case U8X8_MSG_DISPLAY_INIT:
 666              		.loc 1 345 0
 667 00e0 BDE8F081 		pop	{r4, r5, r6, r7, r8, pc}
 668              	.LVL117:
 669              	.L59:
 351:..\u8g2-master\csrc/u8x8_d_st7565.c **** 	{
 670              		.loc 1 351 0
 671 00e4 4CB1     		cbz	r4, .L72
 358:..\u8g2-master\csrc/u8x8_d_st7565.c **** 	  u8x8->x_offset = u8x8->display_info->flipmode_x_offset;
 672              		.loc 1 358 0
 673 00e6 0E49     		ldr	r1, .L73+16
ARM GAS  C:\Users\info\AppData\Local\Temp\ccQPGqkW.s 			page 21


 674              	.LVL118:
 675 00e8 FFF7FEFF 		bl	u8x8_cad_SendSequence
 676              	.LVL119:
 359:..\u8g2-master\csrc/u8x8_d_st7565.c **** 	}	
 677              		.loc 1 359 0
 678 00ec 2B68     		ldr	r3, [r5]
 679              		.loc 1 366 0
 680 00ee 0120     		movs	r0, #1
 359:..\u8g2-master\csrc/u8x8_d_st7565.c **** 	}	
 681              		.loc 1 359 0
 682 00f0 DB7C     		ldrb	r3, [r3, #19]	@ zero_extendqisi2
 683 00f2 85F82230 		strb	r3, [r5, #34]
 684 00f6 BDE8F081 		pop	{r4, r5, r6, r7, r8, pc}
 685              	.LVL120:
 686              	.L72:
 353:..\u8g2-master\csrc/u8x8_d_st7565.c **** 	  u8x8->x_offset = u8x8->display_info->default_x_offset;
 687              		.loc 1 353 0
 688 00fa 0A49     		ldr	r1, .L73+20
 689              	.LVL121:
 690 00fc FFF7FEFF 		bl	u8x8_cad_SendSequence
 691              	.LVL122:
 354:..\u8g2-master\csrc/u8x8_d_st7565.c **** 	}
 692              		.loc 1 354 0
 693 0100 2B68     		ldr	r3, [r5]
 694              		.loc 1 366 0
 695 0102 0120     		movs	r0, #1
 354:..\u8g2-master\csrc/u8x8_d_st7565.c **** 	}
 696              		.loc 1 354 0
 697 0104 9B7C     		ldrb	r3, [r3, #18]	@ zero_extendqisi2
 698 0106 85F82230 		strb	r3, [r5, #34]
 699 010a BDE8F081 		pop	{r4, r5, r6, r7, r8, pc}
 700              	.LVL123:
 701              	.L74:
 702 010e 00BF     		.align	2
 703              	.L73:
 704 0110 00000000 		.word	.LANCHOR0
 705 0114 74000000 		.word	.LANCHOR0+116
 706 0118 08000000 		.word	.LANCHOR0+8
 707 011c 5C000000 		.word	.LANCHOR0+92
 708 0120 54000000 		.word	.LANCHOR0+84
 709 0124 4C000000 		.word	.LANCHOR0+76
 710              		.cfi_endproc
 711              	.LFE2:
 712              		.size	u8x8_d_st7565_64128n, .-u8x8_d_st7565_64128n
 713              		.section	.text.u8x8_d_st7565_zolen_128x64,"ax",%progbits
 714              		.align	2
 715              		.global	u8x8_d_st7565_zolen_128x64
 716              		.thumb
 717              		.thumb_func
 718              		.type	u8x8_d_st7565_zolen_128x64, %function
 719              	u8x8_d_st7565_zolen_128x64:
 720              	.LFB3:
 367:..\u8g2-master\csrc/u8x8_d_st7565.c **** }
 368:..\u8g2-master\csrc/u8x8_d_st7565.c **** 
 369:..\u8g2-master\csrc/u8x8_d_st7565.c **** /*================================================*/
 370:..\u8g2-master\csrc/u8x8_d_st7565.c **** /* ZOLEN 128x64  */
 371:..\u8g2-master\csrc/u8x8_d_st7565.c **** 
ARM GAS  C:\Users\info\AppData\Local\Temp\ccQPGqkW.s 			page 22


 372:..\u8g2-master\csrc/u8x8_d_st7565.c **** static const uint8_t u8x8_d_st7565_zolen_128x64_init_seq[] = {
 373:..\u8g2-master\csrc/u8x8_d_st7565.c ****     
 374:..\u8g2-master\csrc/u8x8_d_st7565.c ****   U8X8_START_TRANSFER(),             	/* enable chip, delay is part of the transfer start */
 375:..\u8g2-master\csrc/u8x8_d_st7565.c ****   
 376:..\u8g2-master\csrc/u8x8_d_st7565.c ****   U8X8_C(0x0e2),            			/* soft reset */
 377:..\u8g2-master\csrc/u8x8_d_st7565.c ****   U8X8_C(0x0ae),		                /* display off */
 378:..\u8g2-master\csrc/u8x8_d_st7565.c ****   U8X8_C(0x040),		                /* set display start line to 0 */
 379:..\u8g2-master\csrc/u8x8_d_st7565.c ****   
 380:..\u8g2-master\csrc/u8x8_d_st7565.c ****   U8X8_C(0x0a1),		                /* ADC set to reverse */
 381:..\u8g2-master\csrc/u8x8_d_st7565.c ****   U8X8_C(0x0c8),		                /* common output mode */
 382:..\u8g2-master\csrc/u8x8_d_st7565.c ****   // Flipmode
 383:..\u8g2-master\csrc/u8x8_d_st7565.c ****   // U8X8_C(0x0a0),		                /* ADC set to reverse */
 384:..\u8g2-master\csrc/u8x8_d_st7565.c ****   // U8X8_C(0x0c0),		                /* common output mode */
 385:..\u8g2-master\csrc/u8x8_d_st7565.c ****   
 386:..\u8g2-master\csrc/u8x8_d_st7565.c ****   U8X8_C(0x0a6),		                /* display normal, bit val 0: LCD pixel off. */
 387:..\u8g2-master\csrc/u8x8_d_st7565.c ****   U8X8_C(0x0a2),		                /* LCD bias 1/9 */
 388:..\u8g2-master\csrc/u8x8_d_st7565.c ****   U8X8_C(0x02f),		                /* all power  control circuits on (regulator, booster and followe
 389:..\u8g2-master\csrc/u8x8_d_st7565.c ****   U8X8_CA(0x0f8, 0x000),		/* set booster ratio to 4x */
 390:..\u8g2-master\csrc/u8x8_d_st7565.c ****   U8X8_C(0x027),		                /* set V0 voltage resistor ratio to max  */
 391:..\u8g2-master\csrc/u8x8_d_st7565.c ****   U8X8_CA(0x081, 0x007),		/* set contrast, contrast value, EA default: 0x016 */
 392:..\u8g2-master\csrc/u8x8_d_st7565.c ****   
 393:..\u8g2-master\csrc/u8x8_d_st7565.c ****   U8X8_C(0x0ae),		                /* display off */
 394:..\u8g2-master\csrc/u8x8_d_st7565.c ****   U8X8_C(0x0a5),		                /* enter powersafe: all pixel on, issue 142 */
 395:..\u8g2-master\csrc/u8x8_d_st7565.c ****   
 396:..\u8g2-master\csrc/u8x8_d_st7565.c ****   U8X8_END_TRANSFER(),             	/* disable chip */
 397:..\u8g2-master\csrc/u8x8_d_st7565.c ****   U8X8_END()             			/* end of sequence */
 398:..\u8g2-master\csrc/u8x8_d_st7565.c **** };
 399:..\u8g2-master\csrc/u8x8_d_st7565.c **** 
 400:..\u8g2-master\csrc/u8x8_d_st7565.c **** uint8_t u8x8_d_st7565_zolen_128x64(u8x8_t *u8x8, uint8_t msg, uint8_t arg_int, void *arg_ptr)
 401:..\u8g2-master\csrc/u8x8_d_st7565.c **** {
 721              		.loc 1 401 0
 722              		.cfi_startproc
 723              		@ args = 0, pretend = 0, frame = 0
 724              		@ frame_needed = 0, uses_anonymous_args = 0
 725              	.LVL124:
 726              	.LBB46:
 727              	.LBB47:
 119:..\u8g2-master\csrc/u8x8_d_st7565.c ****   {
 728              		.loc 1 119 0
 729 0000 0E29     		cmp	r1, #14
 730              	.LBE47:
 731              	.LBE46:
 732              		.loc 1 401 0
 733 0002 2DE9F041 		push	{r4, r5, r6, r7, r8, lr}
 734              		.cfi_def_cfa_offset 24
 735              		.cfi_offset 4, -24
 736              		.cfi_offset 5, -20
 737              		.cfi_offset 6, -16
 738              		.cfi_offset 7, -12
 739              		.cfi_offset 8, -8
 740              		.cfi_offset 14, -4
 741              		.loc 1 401 0
 742 0006 1446     		mov	r4, r2
 743 0008 0546     		mov	r5, r0
 744              	.LVL125:
 745              	.LBB55:
 746              	.LBB50:
ARM GAS  C:\Users\info\AppData\Local\Temp\ccQPGqkW.s 			page 23


 119:..\u8g2-master\csrc/u8x8_d_st7565.c ****   {
 747              		.loc 1 119 0
 748 000a 4BD0     		beq	.L77
 749 000c 0F29     		cmp	r1, #15
 750 000e 12D0     		beq	.L78
 751 0010 0B29     		cmp	r1, #11
 752 0012 08D0     		beq	.L98
 753              	.LVL126:
 754              	.LBE50:
 755              	.LBE55:
 402:..\u8g2-master\csrc/u8x8_d_st7565.c ****   /* call common procedure first and handle messages there */
 403:..\u8g2-master\csrc/u8x8_d_st7565.c ****   if ( u8x8_d_st7565_common(u8x8, msg, arg_int, arg_ptr) == 0 )
 404:..\u8g2-master\csrc/u8x8_d_st7565.c ****   {
 405:..\u8g2-master\csrc/u8x8_d_st7565.c ****     /* msg not handled, then try here */
 406:..\u8g2-master\csrc/u8x8_d_st7565.c ****     switch(msg)
 756              		.loc 1 406 0
 757 0014 0A29     		cmp	r1, #10
 758 0016 50D0     		beq	.L86
 759 0018 0D29     		cmp	r1, #13
 760 001a 63D0     		beq	.L87
 761 001c 0929     		cmp	r1, #9
 762 001e 5BD0     		beq	.L99
 407:..\u8g2-master\csrc/u8x8_d_st7565.c ****     {
 408:..\u8g2-master\csrc/u8x8_d_st7565.c ****       case U8X8_MSG_DISPLAY_SETUP_MEMORY:
 409:..\u8g2-master\csrc/u8x8_d_st7565.c **** 	u8x8_d_helper_display_setup_memory(u8x8, &u8x8_st7565_128x64_display_info);
 410:..\u8g2-master\csrc/u8x8_d_st7565.c **** 	break;
 411:..\u8g2-master\csrc/u8x8_d_st7565.c ****       case U8X8_MSG_DISPLAY_INIT:
 412:..\u8g2-master\csrc/u8x8_d_st7565.c **** 	u8x8_d_helper_display_init(u8x8);
 413:..\u8g2-master\csrc/u8x8_d_st7565.c **** 	u8x8_cad_SendSequence(u8x8, u8x8_d_st7565_zolen_128x64_init_seq);
 414:..\u8g2-master\csrc/u8x8_d_st7565.c **** 	break;
 415:..\u8g2-master\csrc/u8x8_d_st7565.c ****       case U8X8_MSG_DISPLAY_SET_FLIP_MODE:
 416:..\u8g2-master\csrc/u8x8_d_st7565.c **** 	if ( arg_int == 0 )
 417:..\u8g2-master\csrc/u8x8_d_st7565.c **** 	{
 418:..\u8g2-master\csrc/u8x8_d_st7565.c **** 	  u8x8_cad_SendSequence(u8x8, u8x8_d_st7565_zflip0_seq);
 419:..\u8g2-master\csrc/u8x8_d_st7565.c **** 	  u8x8->x_offset = u8x8->display_info->default_x_offset;
 420:..\u8g2-master\csrc/u8x8_d_st7565.c **** 	}
 421:..\u8g2-master\csrc/u8x8_d_st7565.c **** 	else
 422:..\u8g2-master\csrc/u8x8_d_st7565.c **** 	{
 423:..\u8g2-master\csrc/u8x8_d_st7565.c **** 	  u8x8_cad_SendSequence(u8x8, u8x8_d_st7565_zflip1_seq);
 424:..\u8g2-master\csrc/u8x8_d_st7565.c **** 	  u8x8->x_offset = u8x8->display_info->flipmode_x_offset;
 425:..\u8g2-master\csrc/u8x8_d_st7565.c **** 	}	
 426:..\u8g2-master\csrc/u8x8_d_st7565.c **** 	break;
 427:..\u8g2-master\csrc/u8x8_d_st7565.c ****       default:
 428:..\u8g2-master\csrc/u8x8_d_st7565.c **** 	return 0;		/* msg unknown */
 763              		.loc 1 428 0
 764 0020 0020     		movs	r0, #0
 765              	.LVL127:
 766 0022 BDE8F081 		pop	{r4, r5, r6, r7, r8, pc}
 767              	.LVL128:
 768              	.L98:
 769              	.LBB56:
 770              	.LBB51:
 162:..\u8g2-master\csrc/u8x8_d_st7565.c **** 	u8x8_cad_SendSequence(u8x8, u8x8_d_st7565_powersave0_seq);
 771              		.loc 1 162 0
 772 0026 002A     		cmp	r2, #0
 773 0028 50D1     		bne	.L83
 163:..\u8g2-master\csrc/u8x8_d_st7565.c ****       else
ARM GAS  C:\Users\info\AppData\Local\Temp\ccQPGqkW.s 			page 24


 774              		.loc 1 163 0
 775 002a 3949     		ldr	r1, .L101
 776              	.LVL129:
 777 002c FFF7FEFF 		bl	u8x8_cad_SendSequence
 778              	.LVL130:
 779              	.LBE51:
 780              	.LBE56:
 429:..\u8g2-master\csrc/u8x8_d_st7565.c ****     }
 430:..\u8g2-master\csrc/u8x8_d_st7565.c ****   }
 431:..\u8g2-master\csrc/u8x8_d_st7565.c ****   return 1;
 781              		.loc 1 431 0
 782 0030 0120     		movs	r0, #1
 783 0032 BDE8F081 		pop	{r4, r5, r6, r7, r8, pc}
 784              	.LVL131:
 785              	.L78:
 786 0036 1F46     		mov	r7, r3
 787              	.LVL132:
 788              	.LBB57:
 789              	.LBB52:
 790              	.LBB48:
 791              	.LBB49:
 122:..\u8g2-master\csrc/u8x8_d_st7565.c ****     
 792              		.loc 1 122 0
 793 0038 FFF7FEFF 		bl	u8x8_cad_StartTransfer
 794              	.LVL133:
 126:..\u8g2-master\csrc/u8x8_d_st7565.c ****       u8x8_cad_SendCmd(u8x8, 0x010 | (x>>4) );
 795              		.loc 1 126 0
 796 003c 95F82230 		ldrb	r3, [r5, #34]	@ zero_extendqisi2
 124:..\u8g2-master\csrc/u8x8_d_st7565.c ****       x *= 8;
 797              		.loc 1 124 0
 798 0040 97F80580 		ldrb	r8, [r7, #5]	@ zero_extendqisi2
 799              	.LVL134:
 127:..\u8g2-master\csrc/u8x8_d_st7565.c ****       u8x8_cad_SendCmd(u8x8, 0x000 | ((x&15)));
 800              		.loc 1 127 0
 801 0044 2846     		mov	r0, r5
 126:..\u8g2-master\csrc/u8x8_d_st7565.c ****       u8x8_cad_SendCmd(u8x8, 0x010 | (x>>4) );
 802              		.loc 1 126 0
 803 0046 03EBC808 		add	r8, r3, r8, lsl #3
 804              	.LVL135:
 805 004a 08F0FF08 		and	r8, r8, #255
 806              	.LVL136:
 127:..\u8g2-master\csrc/u8x8_d_st7565.c ****       u8x8_cad_SendCmd(u8x8, 0x000 | ((x&15)));
 807              		.loc 1 127 0
 808 004e 4FEA1811 		lsr	r1, r8, #4
 809 0052 41F01001 		orr	r1, r1, #16
 810 0056 FFF7FEFF 		bl	u8x8_cad_SendCmd
 811              	.LVL137:
 128:..\u8g2-master\csrc/u8x8_d_st7565.c ****       u8x8_cad_SendCmd(u8x8, 0x0b0 | (((u8x8_tile_t *)arg_ptr)->y_pos));
 812              		.loc 1 128 0
 813 005a 08F00F01 		and	r1, r8, #15
 814 005e 2846     		mov	r0, r5
 815 0060 FFF7FEFF 		bl	u8x8_cad_SendCmd
 816              	.LVL138:
 129:..\u8g2-master\csrc/u8x8_d_st7565.c ****     
 817              		.loc 1 129 0
 818 0064 B979     		ldrb	r1, [r7, #6]	@ zero_extendqisi2
 819 0066 2846     		mov	r0, r5
ARM GAS  C:\Users\info\AppData\Local\Temp\ccQPGqkW.s 			page 25


 820 0068 41F0B001 		orr	r1, r1, #176
 821 006c FFF7FEFF 		bl	u8x8_cad_SendCmd
 822              	.LVL139:
 131:..\u8g2-master\csrc/u8x8_d_st7565.c ****       c *= 8;
 823              		.loc 1 131 0
 824 0070 3E79     		ldrb	r6, [r7, #4]	@ zero_extendqisi2
 825              	.LVL140:
 133:..\u8g2-master\csrc/u8x8_d_st7565.c ****       /* 
 826              		.loc 1 133 0
 827 0072 3F68     		ldr	r7, [r7]
 828              	.LVL141:
 132:..\u8g2-master\csrc/u8x8_d_st7565.c ****       ptr = ((u8x8_tile_t *)arg_ptr)->tile_ptr;
 829              		.loc 1 132 0
 830 0074 F600     		lsls	r6, r6, #3
 831              	.LVL142:
 832 0076 F6B2     		uxtb	r6, r6
 833              	.LVL143:
 139:..\u8g2-master\csrc/u8x8_d_st7565.c ****       {
 834              		.loc 1 139 0
 835 0078 06EB0803 		add	r3, r6, r8
 836 007c 842B     		cmp	r3, #132
 837              	.LVL144:
 142:..\u8g2-master\csrc/u8x8_d_st7565.c ****       }
 838              		.loc 1 142 0
 839 007e C4BF     		itt	gt
 840 0080 C8F18406 		rsbgt	r6, r8, #132
 841 0084 F6B2     		uxtbgt	r6, r6
 842              	.LVL145:
 843              	.L81:
 146:..\u8g2-master\csrc/u8x8_d_st7565.c **** 	arg_int--;
 844              		.loc 1 146 0
 845 0086 3A46     		mov	r2, r7
 846 0088 3146     		mov	r1, r6
 847 008a 2846     		mov	r0, r5
 848 008c FFF7FEFF 		bl	u8x8_cad_SendData
 849              	.LVL146:
 147:..\u8g2-master\csrc/u8x8_d_st7565.c ****       } while( arg_int > 0 );
 850              		.loc 1 147 0
 851 0090 621E     		subs	r2, r4, #1
 852              	.LVL147:
 148:..\u8g2-master\csrc/u8x8_d_st7565.c ****       
 853              		.loc 1 148 0
 854 0092 12F0FF04 		ands	r4, r2, #255
 855 0096 F6D1     		bne	.L81
 856              	.LVL148:
 857              	.L95:
 858              	.LBE49:
 859              	.LBE48:
 172:..\u8g2-master\csrc/u8x8_d_st7565.c ****       break;
 860              		.loc 1 172 0
 861 0098 2846     		mov	r0, r5
 862 009a FFF7FEFF 		bl	u8x8_cad_EndTransfer
 863              	.LVL149:
 864              	.LBE52:
 865              	.LBE57:
 866              		.loc 1 431 0
 867 009e 0120     		movs	r0, #1
ARM GAS  C:\Users\info\AppData\Local\Temp\ccQPGqkW.s 			page 26


 868 00a0 BDE8F081 		pop	{r4, r5, r6, r7, r8, pc}
 869              	.LVL150:
 870              	.L77:
 871              	.LBB58:
 872              	.LBB53:
 169:..\u8g2-master\csrc/u8x8_d_st7565.c ****       u8x8_cad_SendCmd(u8x8, 0x081 );
 873              		.loc 1 169 0
 874 00a4 FFF7FEFF 		bl	u8x8_cad_StartTransfer
 875              	.LVL151:
 170:..\u8g2-master\csrc/u8x8_d_st7565.c ****       u8x8_cad_SendArg(u8x8, arg_int >> 2 );	/* st7565 has range from 0 to 63 */
 876              		.loc 1 170 0
 877 00a8 8121     		movs	r1, #129
 878 00aa 2846     		mov	r0, r5
 879 00ac FFF7FEFF 		bl	u8x8_cad_SendCmd
 880              	.LVL152:
 171:..\u8g2-master\csrc/u8x8_d_st7565.c ****       u8x8_cad_EndTransfer(u8x8);
 881              		.loc 1 171 0
 882 00b0 A108     		lsrs	r1, r4, #2
 883 00b2 2846     		mov	r0, r5
 884 00b4 FFF7FEFF 		bl	u8x8_cad_SendArg
 885              	.LVL153:
 886 00b8 EEE7     		b	.L95
 887              	.LVL154:
 888              	.L86:
 889              	.LBE53:
 890              	.LBE58:
 412:..\u8g2-master\csrc/u8x8_d_st7565.c **** 	u8x8_cad_SendSequence(u8x8, u8x8_d_st7565_zolen_128x64_init_seq);
 891              		.loc 1 412 0
 892 00ba FFF7FEFF 		bl	u8x8_d_helper_display_init
 893              	.LVL155:
 413:..\u8g2-master\csrc/u8x8_d_st7565.c **** 	break;
 894              		.loc 1 413 0
 895 00be 2846     		mov	r0, r5
 896 00c0 1449     		ldr	r1, .L101+4
 897 00c2 FFF7FEFF 		bl	u8x8_cad_SendSequence
 898              	.LVL156:
 899              		.loc 1 431 0
 900 00c6 0120     		movs	r0, #1
 414:..\u8g2-master\csrc/u8x8_d_st7565.c ****       case U8X8_MSG_DISPLAY_SET_FLIP_MODE:
 901              		.loc 1 414 0
 902 00c8 BDE8F081 		pop	{r4, r5, r6, r7, r8, pc}
 903              	.LVL157:
 904              	.L83:
 905              	.LBB59:
 906              	.LBB54:
 165:..\u8g2-master\csrc/u8x8_d_st7565.c ****       break;
 907              		.loc 1 165 0
 908 00cc 1249     		ldr	r1, .L101+8
 909              	.LVL158:
 910 00ce FFF7FEFF 		bl	u8x8_cad_SendSequence
 911              	.LVL159:
 912              	.LBE54:
 913              	.LBE59:
 914              		.loc 1 431 0
 915 00d2 0120     		movs	r0, #1
 916 00d4 BDE8F081 		pop	{r4, r5, r6, r7, r8, pc}
 917              	.LVL160:
ARM GAS  C:\Users\info\AppData\Local\Temp\ccQPGqkW.s 			page 27


 918              	.L99:
 409:..\u8g2-master\csrc/u8x8_d_st7565.c **** 	break;
 919              		.loc 1 409 0
 920 00d8 1049     		ldr	r1, .L101+12
 921              	.LVL161:
 922 00da FFF7FEFF 		bl	u8x8_d_helper_display_setup_memory
 923              	.LVL162:
 924              		.loc 1 431 0
 925 00de 0120     		movs	r0, #1
 410:..\u8g2-master\csrc/u8x8_d_st7565.c ****       case U8X8_MSG_DISPLAY_INIT:
 926              		.loc 1 410 0
 927 00e0 BDE8F081 		pop	{r4, r5, r6, r7, r8, pc}
 928              	.LVL163:
 929              	.L87:
 416:..\u8g2-master\csrc/u8x8_d_st7565.c **** 	{
 930              		.loc 1 416 0
 931 00e4 4CB1     		cbz	r4, .L100
 423:..\u8g2-master\csrc/u8x8_d_st7565.c **** 	  u8x8->x_offset = u8x8->display_info->flipmode_x_offset;
 932              		.loc 1 423 0
 933 00e6 0E49     		ldr	r1, .L101+16
 934              	.LVL164:
 935 00e8 FFF7FEFF 		bl	u8x8_cad_SendSequence
 936              	.LVL165:
 424:..\u8g2-master\csrc/u8x8_d_st7565.c **** 	}	
 937              		.loc 1 424 0
 938 00ec 2B68     		ldr	r3, [r5]
 939              		.loc 1 431 0
 940 00ee 0120     		movs	r0, #1
 424:..\u8g2-master\csrc/u8x8_d_st7565.c **** 	}	
 941              		.loc 1 424 0
 942 00f0 DB7C     		ldrb	r3, [r3, #19]	@ zero_extendqisi2
 943 00f2 85F82230 		strb	r3, [r5, #34]
 944 00f6 BDE8F081 		pop	{r4, r5, r6, r7, r8, pc}
 945              	.LVL166:
 946              	.L100:
 418:..\u8g2-master\csrc/u8x8_d_st7565.c **** 	  u8x8->x_offset = u8x8->display_info->default_x_offset;
 947              		.loc 1 418 0
 948 00fa 0A49     		ldr	r1, .L101+20
 949              	.LVL167:
 950 00fc FFF7FEFF 		bl	u8x8_cad_SendSequence
 951              	.LVL168:
 419:..\u8g2-master\csrc/u8x8_d_st7565.c **** 	}
 952              		.loc 1 419 0
 953 0100 2B68     		ldr	r3, [r5]
 954              		.loc 1 431 0
 955 0102 0120     		movs	r0, #1
 419:..\u8g2-master\csrc/u8x8_d_st7565.c **** 	}
 956              		.loc 1 419 0
 957 0104 9B7C     		ldrb	r3, [r3, #18]	@ zero_extendqisi2
 958 0106 85F82230 		strb	r3, [r5, #34]
 959 010a BDE8F081 		pop	{r4, r5, r6, r7, r8, pc}
 960              	.LVL169:
 961              	.L102:
 962 010e 00BF     		.align	2
 963              	.L101:
 964 0110 00000000 		.word	.LANCHOR0
 965 0114 94000000 		.word	.LANCHOR0+148
ARM GAS  C:\Users\info\AppData\Local\Temp\ccQPGqkW.s 			page 28


 966 0118 08000000 		.word	.LANCHOR0+8
 967 011c 10000000 		.word	.LANCHOR0+16
 968 0120 C0000000 		.word	.LANCHOR0+192
 969 0124 B8000000 		.word	.LANCHOR0+184
 970              		.cfi_endproc
 971              	.LFE3:
 972              		.size	u8x8_d_st7565_zolen_128x64, .-u8x8_d_st7565_zolen_128x64
 973              		.section	.text.u8x8_d_st7565_nhd_c12832,"ax",%progbits
 974              		.align	2
 975              		.global	u8x8_d_st7565_nhd_c12832
 976              		.thumb
 977              		.thumb_func
 978              		.type	u8x8_d_st7565_nhd_c12832, %function
 979              	u8x8_d_st7565_nhd_c12832:
 980              	.LFB4:
 432:..\u8g2-master\csrc/u8x8_d_st7565.c **** }
 433:..\u8g2-master\csrc/u8x8_d_st7565.c **** 
 434:..\u8g2-master\csrc/u8x8_d_st7565.c **** 
 435:..\u8g2-master\csrc/u8x8_d_st7565.c **** 
 436:..\u8g2-master\csrc/u8x8_d_st7565.c **** /*================================================*/
 437:..\u8g2-master\csrc/u8x8_d_st7565.c **** /* NHD-C12832 */
 438:..\u8g2-master\csrc/u8x8_d_st7565.c **** 
 439:..\u8g2-master\csrc/u8x8_d_st7565.c **** static const u8x8_display_info_t u8x8_st7565_128x32_display_info =
 440:..\u8g2-master\csrc/u8x8_d_st7565.c **** {
 441:..\u8g2-master\csrc/u8x8_d_st7565.c ****   /* chip_enable_level = */ 0,
 442:..\u8g2-master\csrc/u8x8_d_st7565.c ****   /* chip_disable_level = */ 1,
 443:..\u8g2-master\csrc/u8x8_d_st7565.c ****   
 444:..\u8g2-master\csrc/u8x8_d_st7565.c ****   /* post_chip_enable_wait_ns = */ 150,	/* st7565 datasheet, table 26, tcsh */
 445:..\u8g2-master\csrc/u8x8_d_st7565.c ****   /* pre_chip_disable_wait_ns = */ 50,	/* st7565 datasheet, table 26, tcss */
 446:..\u8g2-master\csrc/u8x8_d_st7565.c ****   /* reset_pulse_width_ms = */ 1, 
 447:..\u8g2-master\csrc/u8x8_d_st7565.c ****   /* post_reset_wait_ms = */ 1, 
 448:..\u8g2-master\csrc/u8x8_d_st7565.c ****   /* sda_setup_time_ns = */ 50,		/* st7565 datasheet, table 26, tsds */
 449:..\u8g2-master\csrc/u8x8_d_st7565.c ****   /* sck_pulse_width_ns = */ 120,	/* half of cycle time (100ns according to datasheet), AVR: below 
 450:..\u8g2-master\csrc/u8x8_d_st7565.c ****   /* sck_clock_hz = */ 4000000UL,	/* since Arduino 1.6.0, the SPI bus speed in Hz. Should be  10000
 451:..\u8g2-master\csrc/u8x8_d_st7565.c ****   /* spi_mode = */ 0,		/* active high, rising edge */
 452:..\u8g2-master\csrc/u8x8_d_st7565.c ****   /* i2c_bus_clock_100kHz = */ 4,
 453:..\u8g2-master\csrc/u8x8_d_st7565.c ****   /* data_setup_time_ns = */ 40,	/* st7565 datasheet, table 24, tds8 */
 454:..\u8g2-master\csrc/u8x8_d_st7565.c ****   /* write_pulse_width_ns = */ 80,	/* st7565 datasheet, table 24, tcclw */
 455:..\u8g2-master\csrc/u8x8_d_st7565.c ****   /* tile_width = */ 16,		/* width of 16*8=128 pixel */
 456:..\u8g2-master\csrc/u8x8_d_st7565.c ****   /* tile_hight = */ 4,
 457:..\u8g2-master\csrc/u8x8_d_st7565.c ****   /* default_x_offset = */ 4,
 458:..\u8g2-master\csrc/u8x8_d_st7565.c ****   /* flipmode_x_offset = */ 0,
 459:..\u8g2-master\csrc/u8x8_d_st7565.c ****   /* pixel_width = */ 128,
 460:..\u8g2-master\csrc/u8x8_d_st7565.c ****   /* pixel_height = */ 32
 461:..\u8g2-master\csrc/u8x8_d_st7565.c **** };
 462:..\u8g2-master\csrc/u8x8_d_st7565.c **** 
 463:..\u8g2-master\csrc/u8x8_d_st7565.c **** 
 464:..\u8g2-master\csrc/u8x8_d_st7565.c **** static const uint8_t u8x8_d_st7565_nhd_c12832_init_seq[] = {
 465:..\u8g2-master\csrc/u8x8_d_st7565.c ****     
 466:..\u8g2-master\csrc/u8x8_d_st7565.c ****   U8X8_START_TRANSFER(),             	/* enable chip, delay is part of the transfer start */
 467:..\u8g2-master\csrc/u8x8_d_st7565.c ****   
 468:..\u8g2-master\csrc/u8x8_d_st7565.c ****   U8X8_C(0x0e2),            			/* soft reset */
 469:..\u8g2-master\csrc/u8x8_d_st7565.c ****   U8X8_C(0x0ae),		                /* display off */
 470:..\u8g2-master\csrc/u8x8_d_st7565.c ****   U8X8_C(0x040),		                /* set display start line to 0 */
 471:..\u8g2-master\csrc/u8x8_d_st7565.c ****   
 472:..\u8g2-master\csrc/u8x8_d_st7565.c ****   U8X8_C(0x0a1),		                /* ADC set to reverse */
 473:..\u8g2-master\csrc/u8x8_d_st7565.c ****   U8X8_C(0x0c0),		                /* common output mode */
ARM GAS  C:\Users\info\AppData\Local\Temp\ccQPGqkW.s 			page 29


 474:..\u8g2-master\csrc/u8x8_d_st7565.c ****   // Flipmode
 475:..\u8g2-master\csrc/u8x8_d_st7565.c ****   //U8X8_C(0x0a0),		                /* ADC set to reverse */
 476:..\u8g2-master\csrc/u8x8_d_st7565.c ****   //U8X8_C(0x0c8),		                /* common output mode */
 477:..\u8g2-master\csrc/u8x8_d_st7565.c ****   
 478:..\u8g2-master\csrc/u8x8_d_st7565.c ****   U8X8_C(0x0a6),		                /* display normal, bit val 0: LCD pixel off. */
 479:..\u8g2-master\csrc/u8x8_d_st7565.c ****   U8X8_C(0x0a2),		                /* LCD bias 1/9 */
 480:..\u8g2-master\csrc/u8x8_d_st7565.c ****   U8X8_C(0x02f),		                /* all power  control circuits on */
 481:..\u8g2-master\csrc/u8x8_d_st7565.c ****   U8X8_CA(0x0f8, 0x000),		/* set booster ratio to 4x */
 482:..\u8g2-master\csrc/u8x8_d_st7565.c ****   U8X8_C(0x023),		                /* set V0 voltage resistor ratio to large*/
 483:..\u8g2-master\csrc/u8x8_d_st7565.c ****   U8X8_CA(0x081, 0x00a),		/* set contrast, contrast value NHD C12832 */
 484:..\u8g2-master\csrc/u8x8_d_st7565.c ****   
 485:..\u8g2-master\csrc/u8x8_d_st7565.c ****   U8X8_C(0x0ae),		                /* display off */
 486:..\u8g2-master\csrc/u8x8_d_st7565.c ****   U8X8_C(0x0a5),		                /* enter powersafe: all pixel on, issue 142 */
 487:..\u8g2-master\csrc/u8x8_d_st7565.c ****   
 488:..\u8g2-master\csrc/u8x8_d_st7565.c ****   U8X8_END_TRANSFER(),             	/* disable chip */
 489:..\u8g2-master\csrc/u8x8_d_st7565.c ****   U8X8_END()             			/* end of sequence */
 490:..\u8g2-master\csrc/u8x8_d_st7565.c **** };
 491:..\u8g2-master\csrc/u8x8_d_st7565.c **** 
 492:..\u8g2-master\csrc/u8x8_d_st7565.c **** uint8_t u8x8_d_st7565_nhd_c12832(u8x8_t *u8x8, uint8_t msg, uint8_t arg_int, void *arg_ptr)
 493:..\u8g2-master\csrc/u8x8_d_st7565.c **** {
 981              		.loc 1 493 0
 982              		.cfi_startproc
 983              		@ args = 0, pretend = 0, frame = 0
 984              		@ frame_needed = 0, uses_anonymous_args = 0
 985              	.LVL170:
 986              	.LBB64:
 987              	.LBB65:
 119:..\u8g2-master\csrc/u8x8_d_st7565.c ****   {
 988              		.loc 1 119 0
 989 0000 0E29     		cmp	r1, #14
 990              	.LBE65:
 991              	.LBE64:
 992              		.loc 1 493 0
 993 0002 2DE9F041 		push	{r4, r5, r6, r7, r8, lr}
 994              		.cfi_def_cfa_offset 24
 995              		.cfi_offset 4, -24
 996              		.cfi_offset 5, -20
 997              		.cfi_offset 6, -16
 998              		.cfi_offset 7, -12
 999              		.cfi_offset 8, -8
 1000              		.cfi_offset 14, -4
 1001              		.loc 1 493 0
 1002 0006 1446     		mov	r4, r2
 1003 0008 0546     		mov	r5, r0
 1004              	.LVL171:
 1005              	.LBB73:
 1006              	.LBB68:
 119:..\u8g2-master\csrc/u8x8_d_st7565.c ****   {
 1007              		.loc 1 119 0
 1008 000a 4BD0     		beq	.L105
 1009 000c 0F29     		cmp	r1, #15
 1010 000e 12D0     		beq	.L106
 1011 0010 0B29     		cmp	r1, #11
 1012 0012 08D0     		beq	.L126
 1013              	.LVL172:
 1014              	.LBE68:
 1015              	.LBE73:
ARM GAS  C:\Users\info\AppData\Local\Temp\ccQPGqkW.s 			page 30


 494:..\u8g2-master\csrc/u8x8_d_st7565.c ****   /* call common procedure first and handle messages there */
 495:..\u8g2-master\csrc/u8x8_d_st7565.c ****   if ( u8x8_d_st7565_common(u8x8, msg, arg_int, arg_ptr) == 0 )
 496:..\u8g2-master\csrc/u8x8_d_st7565.c ****   {
 497:..\u8g2-master\csrc/u8x8_d_st7565.c ****     /* msg not handled, then try here */
 498:..\u8g2-master\csrc/u8x8_d_st7565.c ****     switch(msg)
 1016              		.loc 1 498 0
 1017 0014 0A29     		cmp	r1, #10
 1018 0016 50D0     		beq	.L114
 1019 0018 0D29     		cmp	r1, #13
 1020 001a 63D0     		beq	.L115
 1021 001c 0929     		cmp	r1, #9
 1022 001e 5BD0     		beq	.L127
 499:..\u8g2-master\csrc/u8x8_d_st7565.c ****     {
 500:..\u8g2-master\csrc/u8x8_d_st7565.c ****       case U8X8_MSG_DISPLAY_SETUP_MEMORY:
 501:..\u8g2-master\csrc/u8x8_d_st7565.c **** 	u8x8_d_helper_display_setup_memory(u8x8, &u8x8_st7565_128x32_display_info);
 502:..\u8g2-master\csrc/u8x8_d_st7565.c **** 	break;
 503:..\u8g2-master\csrc/u8x8_d_st7565.c ****       case U8X8_MSG_DISPLAY_INIT:
 504:..\u8g2-master\csrc/u8x8_d_st7565.c **** 	u8x8_d_helper_display_init(u8x8);
 505:..\u8g2-master\csrc/u8x8_d_st7565.c **** 	u8x8_cad_SendSequence(u8x8, u8x8_d_st7565_nhd_c12832_init_seq);
 506:..\u8g2-master\csrc/u8x8_d_st7565.c **** 	break;
 507:..\u8g2-master\csrc/u8x8_d_st7565.c ****       case U8X8_MSG_DISPLAY_SET_FLIP_MODE:
 508:..\u8g2-master\csrc/u8x8_d_st7565.c **** 	if ( arg_int == 0 )
 509:..\u8g2-master\csrc/u8x8_d_st7565.c **** 	{
 510:..\u8g2-master\csrc/u8x8_d_st7565.c **** 	  u8x8_cad_SendSequence(u8x8, u8x8_d_st7565_flip0_seq);
 511:..\u8g2-master\csrc/u8x8_d_st7565.c **** 	  u8x8->x_offset = u8x8->display_info->default_x_offset;
 512:..\u8g2-master\csrc/u8x8_d_st7565.c **** 	}
 513:..\u8g2-master\csrc/u8x8_d_st7565.c **** 	else
 514:..\u8g2-master\csrc/u8x8_d_st7565.c **** 	{
 515:..\u8g2-master\csrc/u8x8_d_st7565.c **** 	  u8x8_cad_SendSequence(u8x8, u8x8_d_st7565_flip1_seq);
 516:..\u8g2-master\csrc/u8x8_d_st7565.c **** 	  u8x8->x_offset = u8x8->display_info->flipmode_x_offset;
 517:..\u8g2-master\csrc/u8x8_d_st7565.c **** 	}	
 518:..\u8g2-master\csrc/u8x8_d_st7565.c **** 	break;
 519:..\u8g2-master\csrc/u8x8_d_st7565.c ****       default:
 520:..\u8g2-master\csrc/u8x8_d_st7565.c **** 	return 0;		/* msg unknown */
 1023              		.loc 1 520 0
 1024 0020 0020     		movs	r0, #0
 1025              	.LVL173:
 1026 0022 BDE8F081 		pop	{r4, r5, r6, r7, r8, pc}
 1027              	.LVL174:
 1028              	.L126:
 1029              	.LBB74:
 1030              	.LBB69:
 162:..\u8g2-master\csrc/u8x8_d_st7565.c **** 	u8x8_cad_SendSequence(u8x8, u8x8_d_st7565_powersave0_seq);
 1031              		.loc 1 162 0
 1032 0026 002A     		cmp	r2, #0
 1033 0028 50D1     		bne	.L111
 163:..\u8g2-master\csrc/u8x8_d_st7565.c ****       else
 1034              		.loc 1 163 0
 1035 002a 3949     		ldr	r1, .L129
 1036              	.LVL175:
 1037 002c FFF7FEFF 		bl	u8x8_cad_SendSequence
 1038              	.LVL176:
 1039              	.LBE69:
 1040              	.LBE74:
 521:..\u8g2-master\csrc/u8x8_d_st7565.c ****     }
 522:..\u8g2-master\csrc/u8x8_d_st7565.c ****   }
 523:..\u8g2-master\csrc/u8x8_d_st7565.c ****   return 1;
ARM GAS  C:\Users\info\AppData\Local\Temp\ccQPGqkW.s 			page 31


 1041              		.loc 1 523 0
 1042 0030 0120     		movs	r0, #1
 1043 0032 BDE8F081 		pop	{r4, r5, r6, r7, r8, pc}
 1044              	.LVL177:
 1045              	.L106:
 1046 0036 1F46     		mov	r7, r3
 1047              	.LVL178:
 1048              	.LBB75:
 1049              	.LBB70:
 1050              	.LBB66:
 1051              	.LBB67:
 122:..\u8g2-master\csrc/u8x8_d_st7565.c ****     
 1052              		.loc 1 122 0
 1053 0038 FFF7FEFF 		bl	u8x8_cad_StartTransfer
 1054              	.LVL179:
 126:..\u8g2-master\csrc/u8x8_d_st7565.c ****       u8x8_cad_SendCmd(u8x8, 0x010 | (x>>4) );
 1055              		.loc 1 126 0
 1056 003c 95F82230 		ldrb	r3, [r5, #34]	@ zero_extendqisi2
 124:..\u8g2-master\csrc/u8x8_d_st7565.c ****       x *= 8;
 1057              		.loc 1 124 0
 1058 0040 97F80580 		ldrb	r8, [r7, #5]	@ zero_extendqisi2
 1059              	.LVL180:
 127:..\u8g2-master\csrc/u8x8_d_st7565.c ****       u8x8_cad_SendCmd(u8x8, 0x000 | ((x&15)));
 1060              		.loc 1 127 0
 1061 0044 2846     		mov	r0, r5
 126:..\u8g2-master\csrc/u8x8_d_st7565.c ****       u8x8_cad_SendCmd(u8x8, 0x010 | (x>>4) );
 1062              		.loc 1 126 0
 1063 0046 03EBC808 		add	r8, r3, r8, lsl #3
 1064              	.LVL181:
 1065 004a 08F0FF08 		and	r8, r8, #255
 1066              	.LVL182:
 127:..\u8g2-master\csrc/u8x8_d_st7565.c ****       u8x8_cad_SendCmd(u8x8, 0x000 | ((x&15)));
 1067              		.loc 1 127 0
 1068 004e 4FEA1811 		lsr	r1, r8, #4
 1069 0052 41F01001 		orr	r1, r1, #16
 1070 0056 FFF7FEFF 		bl	u8x8_cad_SendCmd
 1071              	.LVL183:
 128:..\u8g2-master\csrc/u8x8_d_st7565.c ****       u8x8_cad_SendCmd(u8x8, 0x0b0 | (((u8x8_tile_t *)arg_ptr)->y_pos));
 1072              		.loc 1 128 0
 1073 005a 08F00F01 		and	r1, r8, #15
 1074 005e 2846     		mov	r0, r5
 1075 0060 FFF7FEFF 		bl	u8x8_cad_SendCmd
 1076              	.LVL184:
 129:..\u8g2-master\csrc/u8x8_d_st7565.c ****     
 1077              		.loc 1 129 0
 1078 0064 B979     		ldrb	r1, [r7, #6]	@ zero_extendqisi2
 1079 0066 2846     		mov	r0, r5
 1080 0068 41F0B001 		orr	r1, r1, #176
 1081 006c FFF7FEFF 		bl	u8x8_cad_SendCmd
 1082              	.LVL185:
 131:..\u8g2-master\csrc/u8x8_d_st7565.c ****       c *= 8;
 1083              		.loc 1 131 0
 1084 0070 3E79     		ldrb	r6, [r7, #4]	@ zero_extendqisi2
 1085              	.LVL186:
 133:..\u8g2-master\csrc/u8x8_d_st7565.c ****       /* 
 1086              		.loc 1 133 0
 1087 0072 3F68     		ldr	r7, [r7]
ARM GAS  C:\Users\info\AppData\Local\Temp\ccQPGqkW.s 			page 32


 1088              	.LVL187:
 132:..\u8g2-master\csrc/u8x8_d_st7565.c ****       ptr = ((u8x8_tile_t *)arg_ptr)->tile_ptr;
 1089              		.loc 1 132 0
 1090 0074 F600     		lsls	r6, r6, #3
 1091              	.LVL188:
 1092 0076 F6B2     		uxtb	r6, r6
 1093              	.LVL189:
 139:..\u8g2-master\csrc/u8x8_d_st7565.c ****       {
 1094              		.loc 1 139 0
 1095 0078 06EB0803 		add	r3, r6, r8
 1096 007c 842B     		cmp	r3, #132
 1097              	.LVL190:
 142:..\u8g2-master\csrc/u8x8_d_st7565.c ****       }
 1098              		.loc 1 142 0
 1099 007e C4BF     		itt	gt
 1100 0080 C8F18406 		rsbgt	r6, r8, #132
 1101 0084 F6B2     		uxtbgt	r6, r6
 1102              	.LVL191:
 1103              	.L109:
 146:..\u8g2-master\csrc/u8x8_d_st7565.c **** 	arg_int--;
 1104              		.loc 1 146 0
 1105 0086 3A46     		mov	r2, r7
 1106 0088 3146     		mov	r1, r6
 1107 008a 2846     		mov	r0, r5
 1108 008c FFF7FEFF 		bl	u8x8_cad_SendData
 1109              	.LVL192:
 147:..\u8g2-master\csrc/u8x8_d_st7565.c ****       } while( arg_int > 0 );
 1110              		.loc 1 147 0
 1111 0090 621E     		subs	r2, r4, #1
 1112              	.LVL193:
 148:..\u8g2-master\csrc/u8x8_d_st7565.c ****       
 1113              		.loc 1 148 0
 1114 0092 12F0FF04 		ands	r4, r2, #255
 1115 0096 F6D1     		bne	.L109
 1116              	.LVL194:
 1117              	.L123:
 1118              	.LBE67:
 1119              	.LBE66:
 172:..\u8g2-master\csrc/u8x8_d_st7565.c ****       break;
 1120              		.loc 1 172 0
 1121 0098 2846     		mov	r0, r5
 1122 009a FFF7FEFF 		bl	u8x8_cad_EndTransfer
 1123              	.LVL195:
 1124              	.LBE70:
 1125              	.LBE75:
 1126              		.loc 1 523 0
 1127 009e 0120     		movs	r0, #1
 1128 00a0 BDE8F081 		pop	{r4, r5, r6, r7, r8, pc}
 1129              	.LVL196:
 1130              	.L105:
 1131              	.LBB76:
 1132              	.LBB71:
 169:..\u8g2-master\csrc/u8x8_d_st7565.c ****       u8x8_cad_SendCmd(u8x8, 0x081 );
 1133              		.loc 1 169 0
 1134 00a4 FFF7FEFF 		bl	u8x8_cad_StartTransfer
 1135              	.LVL197:
 170:..\u8g2-master\csrc/u8x8_d_st7565.c ****       u8x8_cad_SendArg(u8x8, arg_int >> 2 );	/* st7565 has range from 0 to 63 */
ARM GAS  C:\Users\info\AppData\Local\Temp\ccQPGqkW.s 			page 33


 1136              		.loc 1 170 0
 1137 00a8 8121     		movs	r1, #129
 1138 00aa 2846     		mov	r0, r5
 1139 00ac FFF7FEFF 		bl	u8x8_cad_SendCmd
 1140              	.LVL198:
 171:..\u8g2-master\csrc/u8x8_d_st7565.c ****       u8x8_cad_EndTransfer(u8x8);
 1141              		.loc 1 171 0
 1142 00b0 A108     		lsrs	r1, r4, #2
 1143 00b2 2846     		mov	r0, r5
 1144 00b4 FFF7FEFF 		bl	u8x8_cad_SendArg
 1145              	.LVL199:
 1146 00b8 EEE7     		b	.L123
 1147              	.LVL200:
 1148              	.L114:
 1149              	.LBE71:
 1150              	.LBE76:
 504:..\u8g2-master\csrc/u8x8_d_st7565.c **** 	u8x8_cad_SendSequence(u8x8, u8x8_d_st7565_nhd_c12832_init_seq);
 1151              		.loc 1 504 0
 1152 00ba FFF7FEFF 		bl	u8x8_d_helper_display_init
 1153              	.LVL201:
 505:..\u8g2-master\csrc/u8x8_d_st7565.c **** 	break;
 1154              		.loc 1 505 0
 1155 00be 2846     		mov	r0, r5
 1156 00c0 1449     		ldr	r1, .L129+4
 1157 00c2 FFF7FEFF 		bl	u8x8_cad_SendSequence
 1158              	.LVL202:
 1159              		.loc 1 523 0
 1160 00c6 0120     		movs	r0, #1
 506:..\u8g2-master\csrc/u8x8_d_st7565.c ****       case U8X8_MSG_DISPLAY_SET_FLIP_MODE:
 1161              		.loc 1 506 0
 1162 00c8 BDE8F081 		pop	{r4, r5, r6, r7, r8, pc}
 1163              	.LVL203:
 1164              	.L111:
 1165              	.LBB77:
 1166              	.LBB72:
 165:..\u8g2-master\csrc/u8x8_d_st7565.c ****       break;
 1167              		.loc 1 165 0
 1168 00cc 1249     		ldr	r1, .L129+8
 1169              	.LVL204:
 1170 00ce FFF7FEFF 		bl	u8x8_cad_SendSequence
 1171              	.LVL205:
 1172              	.LBE72:
 1173              	.LBE77:
 1174              		.loc 1 523 0
 1175 00d2 0120     		movs	r0, #1
 1176 00d4 BDE8F081 		pop	{r4, r5, r6, r7, r8, pc}
 1177              	.LVL206:
 1178              	.L127:
 501:..\u8g2-master\csrc/u8x8_d_st7565.c **** 	break;
 1179              		.loc 1 501 0
 1180 00d8 1049     		ldr	r1, .L129+12
 1181              	.LVL207:
 1182 00da FFF7FEFF 		bl	u8x8_d_helper_display_setup_memory
 1183              	.LVL208:
 1184              		.loc 1 523 0
 1185 00de 0120     		movs	r0, #1
 502:..\u8g2-master\csrc/u8x8_d_st7565.c ****       case U8X8_MSG_DISPLAY_INIT:
ARM GAS  C:\Users\info\AppData\Local\Temp\ccQPGqkW.s 			page 34


 1186              		.loc 1 502 0
 1187 00e0 BDE8F081 		pop	{r4, r5, r6, r7, r8, pc}
 1188              	.LVL209:
 1189              	.L115:
 508:..\u8g2-master\csrc/u8x8_d_st7565.c **** 	{
 1190              		.loc 1 508 0
 1191 00e4 4CB1     		cbz	r4, .L128
 515:..\u8g2-master\csrc/u8x8_d_st7565.c **** 	  u8x8->x_offset = u8x8->display_info->flipmode_x_offset;
 1192              		.loc 1 515 0
 1193 00e6 0E49     		ldr	r1, .L129+16
 1194              	.LVL210:
 1195 00e8 FFF7FEFF 		bl	u8x8_cad_SendSequence
 1196              	.LVL211:
 516:..\u8g2-master\csrc/u8x8_d_st7565.c **** 	}	
 1197              		.loc 1 516 0
 1198 00ec 2B68     		ldr	r3, [r5]
 1199              		.loc 1 523 0
 1200 00ee 0120     		movs	r0, #1
 516:..\u8g2-master\csrc/u8x8_d_st7565.c **** 	}	
 1201              		.loc 1 516 0
 1202 00f0 DB7C     		ldrb	r3, [r3, #19]	@ zero_extendqisi2
 1203 00f2 85F82230 		strb	r3, [r5, #34]
 1204 00f6 BDE8F081 		pop	{r4, r5, r6, r7, r8, pc}
 1205              	.LVL212:
 1206              	.L128:
 510:..\u8g2-master\csrc/u8x8_d_st7565.c **** 	  u8x8->x_offset = u8x8->display_info->default_x_offset;
 1207              		.loc 1 510 0
 1208 00fa 0A49     		ldr	r1, .L129+20
 1209              	.LVL213:
 1210 00fc FFF7FEFF 		bl	u8x8_cad_SendSequence
 1211              	.LVL214:
 511:..\u8g2-master\csrc/u8x8_d_st7565.c **** 	}
 1212              		.loc 1 511 0
 1213 0100 2B68     		ldr	r3, [r5]
 1214              		.loc 1 523 0
 1215 0102 0120     		movs	r0, #1
 511:..\u8g2-master\csrc/u8x8_d_st7565.c **** 	}
 1216              		.loc 1 511 0
 1217 0104 9B7C     		ldrb	r3, [r3, #18]	@ zero_extendqisi2
 1218 0106 85F82230 		strb	r3, [r5, #34]
 1219 010a BDE8F081 		pop	{r4, r5, r6, r7, r8, pc}
 1220              	.LVL215:
 1221              	.L130:
 1222 010e 00BF     		.align	2
 1223              	.L129:
 1224 0110 00000000 		.word	.LANCHOR0
 1225 0114 E0000000 		.word	.LANCHOR0+224
 1226 0118 08000000 		.word	.LANCHOR0+8
 1227 011c C8000000 		.word	.LANCHOR0+200
 1228 0120 54000000 		.word	.LANCHOR0+84
 1229 0124 4C000000 		.word	.LANCHOR0+76
 1230              		.cfi_endproc
 1231              	.LFE4:
 1232              		.size	u8x8_d_st7565_nhd_c12832, .-u8x8_d_st7565_nhd_c12832
 1233              		.section	.text.u8x8_d_st7565_nhd_c12864,"ax",%progbits
 1234              		.align	2
 1235              		.global	u8x8_d_st7565_nhd_c12864
ARM GAS  C:\Users\info\AppData\Local\Temp\ccQPGqkW.s 			page 35


 1236              		.thumb
 1237              		.thumb_func
 1238              		.type	u8x8_d_st7565_nhd_c12864, %function
 1239              	u8x8_d_st7565_nhd_c12864:
 1240              	.LFB5:
 524:..\u8g2-master\csrc/u8x8_d_st7565.c **** }
 525:..\u8g2-master\csrc/u8x8_d_st7565.c **** 
 526:..\u8g2-master\csrc/u8x8_d_st7565.c **** /*================================================*/
 527:..\u8g2-master\csrc/u8x8_d_st7565.c **** /* NHD-C12864 */
 528:..\u8g2-master\csrc/u8x8_d_st7565.c **** 
 529:..\u8g2-master\csrc/u8x8_d_st7565.c **** static const u8x8_display_info_t u8x8_st7565_nhd_c12864_display_info =
 530:..\u8g2-master\csrc/u8x8_d_st7565.c **** {
 531:..\u8g2-master\csrc/u8x8_d_st7565.c ****   /* chip_enable_level = */ 0,
 532:..\u8g2-master\csrc/u8x8_d_st7565.c ****   /* chip_disable_level = */ 1,
 533:..\u8g2-master\csrc/u8x8_d_st7565.c ****   
 534:..\u8g2-master\csrc/u8x8_d_st7565.c ****   /* post_chip_enable_wait_ns = */ 150,	/* st7565 datasheet, table 26, tcsh */
 535:..\u8g2-master\csrc/u8x8_d_st7565.c ****   /* pre_chip_disable_wait_ns = */ 50,	/* st7565 datasheet, table 26, tcss */
 536:..\u8g2-master\csrc/u8x8_d_st7565.c ****   /* reset_pulse_width_ms = */ 1, 
 537:..\u8g2-master\csrc/u8x8_d_st7565.c ****   /* post_reset_wait_ms = */ 1, 
 538:..\u8g2-master\csrc/u8x8_d_st7565.c ****   /* sda_setup_time_ns = */ 50,		/* st7565 datasheet, table 26, tsds */
 539:..\u8g2-master\csrc/u8x8_d_st7565.c ****   /* sck_pulse_width_ns = */ 120,	/* half of cycle time (100ns according to datasheet), AVR: below 
 540:..\u8g2-master\csrc/u8x8_d_st7565.c ****   /* sck_clock_hz = */ 4000000UL,	/* since Arduino 1.6.0, the SPI bus speed in Hz. Should be  10000
 541:..\u8g2-master\csrc/u8x8_d_st7565.c ****   /* spi_mode = */ 0,		/* active high, rising edge */
 542:..\u8g2-master\csrc/u8x8_d_st7565.c ****   /* i2c_bus_clock_100kHz = */ 4,
 543:..\u8g2-master\csrc/u8x8_d_st7565.c ****   /* data_setup_time_ns = */ 40,	/* st7565 datasheet, table 24, tds8 */
 544:..\u8g2-master\csrc/u8x8_d_st7565.c ****   /* write_pulse_width_ns = */ 80,	/* st7565 datasheet, table 24, tcclw */
 545:..\u8g2-master\csrc/u8x8_d_st7565.c ****   /* tile_width = */ 16,		/* width of 16*8=128 pixel */
 546:..\u8g2-master\csrc/u8x8_d_st7565.c ****   /* tile_hight = */ 8,
 547:..\u8g2-master\csrc/u8x8_d_st7565.c ****   /* default_x_offset = */ 4,
 548:..\u8g2-master\csrc/u8x8_d_st7565.c ****   /* flipmode_x_offset = */ 0,
 549:..\u8g2-master\csrc/u8x8_d_st7565.c ****   /* pixel_width = */ 128,
 550:..\u8g2-master\csrc/u8x8_d_st7565.c ****   /* pixel_height = */ 64
 551:..\u8g2-master\csrc/u8x8_d_st7565.c **** };
 552:..\u8g2-master\csrc/u8x8_d_st7565.c **** 
 553:..\u8g2-master\csrc/u8x8_d_st7565.c **** 
 554:..\u8g2-master\csrc/u8x8_d_st7565.c **** static const uint8_t u8x8_d_st7565_nhd_c12864_init_seq[] = {
 555:..\u8g2-master\csrc/u8x8_d_st7565.c ****     
 556:..\u8g2-master\csrc/u8x8_d_st7565.c ****   U8X8_START_TRANSFER(),             	/* enable chip, delay is part of the transfer start */
 557:..\u8g2-master\csrc/u8x8_d_st7565.c ****   
 558:..\u8g2-master\csrc/u8x8_d_st7565.c ****   U8X8_C(0x0e2),            			/* soft reset */
 559:..\u8g2-master\csrc/u8x8_d_st7565.c ****   U8X8_C(0x0ae),		                /* display off */
 560:..\u8g2-master\csrc/u8x8_d_st7565.c ****   U8X8_C(0x040),		                /* set display start line to 0 */
 561:..\u8g2-master\csrc/u8x8_d_st7565.c ****   
 562:..\u8g2-master\csrc/u8x8_d_st7565.c ****   U8X8_C(0x0a1),		                /* ADC set to reverse */
 563:..\u8g2-master\csrc/u8x8_d_st7565.c ****   U8X8_C(0x0c0),		                /* common output mode */
 564:..\u8g2-master\csrc/u8x8_d_st7565.c ****   // Flipmode
 565:..\u8g2-master\csrc/u8x8_d_st7565.c ****   //U8X8_C(0x0a0),		                /* ADC set to reverse */
 566:..\u8g2-master\csrc/u8x8_d_st7565.c ****   //U8X8_C(0x0c8),		                /* common output mode */
 567:..\u8g2-master\csrc/u8x8_d_st7565.c ****   
 568:..\u8g2-master\csrc/u8x8_d_st7565.c ****   U8X8_C(0x0a6),		                /* display normal, bit val 0: LCD pixel off. */
 569:..\u8g2-master\csrc/u8x8_d_st7565.c ****   U8X8_C(0x0a2),		                /* LCD bias 1/9 */
 570:..\u8g2-master\csrc/u8x8_d_st7565.c ****   U8X8_C(0x02f),		                /* all power  control circuits on */
 571:..\u8g2-master\csrc/u8x8_d_st7565.c ****   U8X8_CA(0x0f8, 0x000),		/* set booster ratio to 4x */
 572:..\u8g2-master\csrc/u8x8_d_st7565.c ****   U8X8_C(0x023),		                /* set V0 voltage resistor ratio to large*/
 573:..\u8g2-master\csrc/u8x8_d_st7565.c ****   U8X8_CA(0x081, 180),			/* set contrast, contrast value NHD C12864, see issue 186, increased contr
 574:..\u8g2-master\csrc/u8x8_d_st7565.c ****   
 575:..\u8g2-master\csrc/u8x8_d_st7565.c ****   U8X8_C(0x0ae),		                /* display off */
ARM GAS  C:\Users\info\AppData\Local\Temp\ccQPGqkW.s 			page 36


 576:..\u8g2-master\csrc/u8x8_d_st7565.c ****   U8X8_C(0x0a5),		                /* enter powersafe: all pixel on, issue 142 */
 577:..\u8g2-master\csrc/u8x8_d_st7565.c ****   
 578:..\u8g2-master\csrc/u8x8_d_st7565.c ****   U8X8_END_TRANSFER(),             	/* disable chip */
 579:..\u8g2-master\csrc/u8x8_d_st7565.c ****   U8X8_END()             			/* end of sequence */
 580:..\u8g2-master\csrc/u8x8_d_st7565.c **** };
 581:..\u8g2-master\csrc/u8x8_d_st7565.c **** 
 582:..\u8g2-master\csrc/u8x8_d_st7565.c **** uint8_t u8x8_d_st7565_nhd_c12864(u8x8_t *u8x8, uint8_t msg, uint8_t arg_int, void *arg_ptr)
 583:..\u8g2-master\csrc/u8x8_d_st7565.c **** {
 1241              		.loc 1 583 0
 1242              		.cfi_startproc
 1243              		@ args = 0, pretend = 0, frame = 0
 1244              		@ frame_needed = 0, uses_anonymous_args = 0
 1245              	.LVL216:
 1246              	.LBB84:
 1247              	.LBB85:
 119:..\u8g2-master\csrc/u8x8_d_st7565.c ****   {
 1248              		.loc 1 119 0
 1249 0000 0E29     		cmp	r1, #14
 1250              	.LBE85:
 1251              	.LBE84:
 1252              		.loc 1 583 0
 1253 0002 2DE9F041 		push	{r4, r5, r6, r7, r8, lr}
 1254              		.cfi_def_cfa_offset 24
 1255              		.cfi_offset 4, -24
 1256              		.cfi_offset 5, -20
 1257              		.cfi_offset 6, -16
 1258              		.cfi_offset 7, -12
 1259              		.cfi_offset 8, -8
 1260              		.cfi_offset 14, -4
 1261              		.loc 1 583 0
 1262 0006 1446     		mov	r4, r2
 1263 0008 0546     		mov	r5, r0
 1264              	.LVL217:
 1265              	.LBB93:
 1266              	.LBB88:
 119:..\u8g2-master\csrc/u8x8_d_st7565.c ****   {
 1267              		.loc 1 119 0
 1268 000a 4BD0     		beq	.L133
 1269 000c 0F29     		cmp	r1, #15
 1270 000e 12D0     		beq	.L134
 1271 0010 0B29     		cmp	r1, #11
 1272 0012 08D0     		beq	.L154
 1273              	.LVL218:
 1274              	.LBE88:
 1275              	.LBE93:
 584:..\u8g2-master\csrc/u8x8_d_st7565.c ****   /* call common procedure first and handle messages there */
 585:..\u8g2-master\csrc/u8x8_d_st7565.c ****   if ( u8x8_d_st7565_common(u8x8, msg, arg_int, arg_ptr) == 0 )
 586:..\u8g2-master\csrc/u8x8_d_st7565.c ****   {
 587:..\u8g2-master\csrc/u8x8_d_st7565.c ****     /* msg not handled, then try here */
 588:..\u8g2-master\csrc/u8x8_d_st7565.c ****     switch(msg)
 1276              		.loc 1 588 0
 1277 0014 0A29     		cmp	r1, #10
 1278 0016 50D0     		beq	.L142
 1279 0018 0D29     		cmp	r1, #13
 1280 001a 63D0     		beq	.L143
 1281 001c 0929     		cmp	r1, #9
 1282 001e 5BD0     		beq	.L155
ARM GAS  C:\Users\info\AppData\Local\Temp\ccQPGqkW.s 			page 37


 589:..\u8g2-master\csrc/u8x8_d_st7565.c ****     {
 590:..\u8g2-master\csrc/u8x8_d_st7565.c ****       case U8X8_MSG_DISPLAY_SETUP_MEMORY:
 591:..\u8g2-master\csrc/u8x8_d_st7565.c **** 	u8x8_d_helper_display_setup_memory(u8x8, &u8x8_st7565_nhd_c12864_display_info);
 592:..\u8g2-master\csrc/u8x8_d_st7565.c **** 	break;
 593:..\u8g2-master\csrc/u8x8_d_st7565.c ****       case U8X8_MSG_DISPLAY_INIT:
 594:..\u8g2-master\csrc/u8x8_d_st7565.c **** 	u8x8_d_helper_display_init(u8x8);
 595:..\u8g2-master\csrc/u8x8_d_st7565.c **** 	u8x8_cad_SendSequence(u8x8, u8x8_d_st7565_nhd_c12864_init_seq);
 596:..\u8g2-master\csrc/u8x8_d_st7565.c **** 	break;
 597:..\u8g2-master\csrc/u8x8_d_st7565.c ****       case U8X8_MSG_DISPLAY_SET_FLIP_MODE:
 598:..\u8g2-master\csrc/u8x8_d_st7565.c **** 	if ( arg_int == 0 )
 599:..\u8g2-master\csrc/u8x8_d_st7565.c **** 	{
 600:..\u8g2-master\csrc/u8x8_d_st7565.c **** 	  u8x8_cad_SendSequence(u8x8, u8x8_d_st7565_flip0_seq);
 601:..\u8g2-master\csrc/u8x8_d_st7565.c **** 	  u8x8->x_offset = u8x8->display_info->default_x_offset;
 602:..\u8g2-master\csrc/u8x8_d_st7565.c **** 	}
 603:..\u8g2-master\csrc/u8x8_d_st7565.c **** 	else
 604:..\u8g2-master\csrc/u8x8_d_st7565.c **** 	{
 605:..\u8g2-master\csrc/u8x8_d_st7565.c **** 	  u8x8_cad_SendSequence(u8x8, u8x8_d_st7565_flip1_seq);
 606:..\u8g2-master\csrc/u8x8_d_st7565.c **** 	  u8x8->x_offset = u8x8->display_info->flipmode_x_offset;
 607:..\u8g2-master\csrc/u8x8_d_st7565.c **** 	}	
 608:..\u8g2-master\csrc/u8x8_d_st7565.c **** 	break;
 609:..\u8g2-master\csrc/u8x8_d_st7565.c ****       default:
 610:..\u8g2-master\csrc/u8x8_d_st7565.c **** 	return 0;		/* msg unknown */
 1283              		.loc 1 610 0
 1284 0020 0020     		movs	r0, #0
 1285              	.LVL219:
 1286 0022 BDE8F081 		pop	{r4, r5, r6, r7, r8, pc}
 1287              	.LVL220:
 1288              	.L154:
 1289              	.LBB94:
 1290              	.LBB89:
 162:..\u8g2-master\csrc/u8x8_d_st7565.c **** 	u8x8_cad_SendSequence(u8x8, u8x8_d_st7565_powersave0_seq);
 1291              		.loc 1 162 0
 1292 0026 002A     		cmp	r2, #0
 1293 0028 50D1     		bne	.L139
 163:..\u8g2-master\csrc/u8x8_d_st7565.c ****       else
 1294              		.loc 1 163 0
 1295 002a 3949     		ldr	r1, .L157
 1296              	.LVL221:
 1297 002c FFF7FEFF 		bl	u8x8_cad_SendSequence
 1298              	.LVL222:
 1299              	.LBE89:
 1300              	.LBE94:
 611:..\u8g2-master\csrc/u8x8_d_st7565.c ****     }
 612:..\u8g2-master\csrc/u8x8_d_st7565.c ****   }
 613:..\u8g2-master\csrc/u8x8_d_st7565.c ****   return 1;
 1301              		.loc 1 613 0
 1302 0030 0120     		movs	r0, #1
 1303 0032 BDE8F081 		pop	{r4, r5, r6, r7, r8, pc}
 1304              	.LVL223:
 1305              	.L134:
 1306 0036 1F46     		mov	r7, r3
 1307              	.LBB95:
 1308              	.LBB90:
 1309              	.LBB86:
 1310              	.LBB87:
 122:..\u8g2-master\csrc/u8x8_d_st7565.c ****     
 1311              		.loc 1 122 0
ARM GAS  C:\Users\info\AppData\Local\Temp\ccQPGqkW.s 			page 38


 1312 0038 FFF7FEFF 		bl	u8x8_cad_StartTransfer
 1313              	.LVL224:
 126:..\u8g2-master\csrc/u8x8_d_st7565.c ****       u8x8_cad_SendCmd(u8x8, 0x010 | (x>>4) );
 1314              		.loc 1 126 0
 1315 003c 95F82230 		ldrb	r3, [r5, #34]	@ zero_extendqisi2
 124:..\u8g2-master\csrc/u8x8_d_st7565.c ****       x *= 8;
 1316              		.loc 1 124 0
 1317 0040 97F80580 		ldrb	r8, [r7, #5]	@ zero_extendqisi2
 1318              	.LVL225:
 127:..\u8g2-master\csrc/u8x8_d_st7565.c ****       u8x8_cad_SendCmd(u8x8, 0x000 | ((x&15)));
 1319              		.loc 1 127 0
 1320 0044 2846     		mov	r0, r5
 126:..\u8g2-master\csrc/u8x8_d_st7565.c ****       u8x8_cad_SendCmd(u8x8, 0x010 | (x>>4) );
 1321              		.loc 1 126 0
 1322 0046 03EBC808 		add	r8, r3, r8, lsl #3
 1323              	.LVL226:
 1324 004a 08F0FF08 		and	r8, r8, #255
 1325              	.LVL227:
 127:..\u8g2-master\csrc/u8x8_d_st7565.c ****       u8x8_cad_SendCmd(u8x8, 0x000 | ((x&15)));
 1326              		.loc 1 127 0
 1327 004e 4FEA1811 		lsr	r1, r8, #4
 1328 0052 41F01001 		orr	r1, r1, #16
 1329 0056 FFF7FEFF 		bl	u8x8_cad_SendCmd
 1330              	.LVL228:
 128:..\u8g2-master\csrc/u8x8_d_st7565.c ****       u8x8_cad_SendCmd(u8x8, 0x0b0 | (((u8x8_tile_t *)arg_ptr)->y_pos));
 1331              		.loc 1 128 0
 1332 005a 08F00F01 		and	r1, r8, #15
 1333 005e 2846     		mov	r0, r5
 1334 0060 FFF7FEFF 		bl	u8x8_cad_SendCmd
 1335              	.LVL229:
 129:..\u8g2-master\csrc/u8x8_d_st7565.c ****     
 1336              		.loc 1 129 0
 1337 0064 B979     		ldrb	r1, [r7, #6]	@ zero_extendqisi2
 1338 0066 2846     		mov	r0, r5
 1339 0068 41F0B001 		orr	r1, r1, #176
 1340 006c FFF7FEFF 		bl	u8x8_cad_SendCmd
 1341              	.LVL230:
 131:..\u8g2-master\csrc/u8x8_d_st7565.c ****       c *= 8;
 1342              		.loc 1 131 0
 1343 0070 3E79     		ldrb	r6, [r7, #4]	@ zero_extendqisi2
 1344              	.LVL231:
 133:..\u8g2-master\csrc/u8x8_d_st7565.c ****       /* 
 1345              		.loc 1 133 0
 1346 0072 3F68     		ldr	r7, [r7]
 1347              	.LVL232:
 132:..\u8g2-master\csrc/u8x8_d_st7565.c ****       ptr = ((u8x8_tile_t *)arg_ptr)->tile_ptr;
 1348              		.loc 1 132 0
 1349 0074 F600     		lsls	r6, r6, #3
 1350              	.LVL233:
 1351 0076 F6B2     		uxtb	r6, r6
 1352              	.LVL234:
 139:..\u8g2-master\csrc/u8x8_d_st7565.c ****       {
 1353              		.loc 1 139 0
 1354 0078 06EB0803 		add	r3, r6, r8
 1355 007c 842B     		cmp	r3, #132
 1356              	.LVL235:
 142:..\u8g2-master\csrc/u8x8_d_st7565.c ****       }
ARM GAS  C:\Users\info\AppData\Local\Temp\ccQPGqkW.s 			page 39


 1357              		.loc 1 142 0
 1358 007e C4BF     		itt	gt
 1359 0080 C8F18406 		rsbgt	r6, r8, #132
 1360 0084 F6B2     		uxtbgt	r6, r6
 1361              	.LVL236:
 1362              	.L137:
 146:..\u8g2-master\csrc/u8x8_d_st7565.c **** 	arg_int--;
 1363              		.loc 1 146 0
 1364 0086 3A46     		mov	r2, r7
 1365 0088 3146     		mov	r1, r6
 1366 008a 2846     		mov	r0, r5
 1367 008c FFF7FEFF 		bl	u8x8_cad_SendData
 1368              	.LVL237:
 147:..\u8g2-master\csrc/u8x8_d_st7565.c ****       } while( arg_int > 0 );
 1369              		.loc 1 147 0
 1370 0090 621E     		subs	r2, r4, #1
 1371              	.LVL238:
 148:..\u8g2-master\csrc/u8x8_d_st7565.c ****       
 1372              		.loc 1 148 0
 1373 0092 12F0FF04 		ands	r4, r2, #255
 1374 0096 F6D1     		bne	.L137
 1375              	.LVL239:
 1376              	.L151:
 1377              	.LBE87:
 1378              	.LBE86:
 172:..\u8g2-master\csrc/u8x8_d_st7565.c ****       break;
 1379              		.loc 1 172 0
 1380 0098 2846     		mov	r0, r5
 1381 009a FFF7FEFF 		bl	u8x8_cad_EndTransfer
 1382              	.LVL240:
 1383              	.LBE90:
 1384              	.LBE95:
 1385              		.loc 1 613 0
 1386 009e 0120     		movs	r0, #1
 1387 00a0 BDE8F081 		pop	{r4, r5, r6, r7, r8, pc}
 1388              	.LVL241:
 1389              	.L133:
 1390              	.LBB96:
 1391              	.LBB91:
 169:..\u8g2-master\csrc/u8x8_d_st7565.c ****       u8x8_cad_SendCmd(u8x8, 0x081 );
 1392              		.loc 1 169 0
 1393 00a4 FFF7FEFF 		bl	u8x8_cad_StartTransfer
 1394              	.LVL242:
 170:..\u8g2-master\csrc/u8x8_d_st7565.c ****       u8x8_cad_SendArg(u8x8, arg_int >> 2 );	/* st7565 has range from 0 to 63 */
 1395              		.loc 1 170 0
 1396 00a8 8121     		movs	r1, #129
 1397 00aa 2846     		mov	r0, r5
 1398 00ac FFF7FEFF 		bl	u8x8_cad_SendCmd
 1399              	.LVL243:
 171:..\u8g2-master\csrc/u8x8_d_st7565.c ****       u8x8_cad_EndTransfer(u8x8);
 1400              		.loc 1 171 0
 1401 00b0 A108     		lsrs	r1, r4, #2
 1402 00b2 2846     		mov	r0, r5
 1403 00b4 FFF7FEFF 		bl	u8x8_cad_SendArg
 1404              	.LVL244:
 1405 00b8 EEE7     		b	.L151
 1406              	.LVL245:
ARM GAS  C:\Users\info\AppData\Local\Temp\ccQPGqkW.s 			page 40


 1407              	.L142:
 1408              	.LBE91:
 1409              	.LBE96:
 594:..\u8g2-master\csrc/u8x8_d_st7565.c **** 	u8x8_cad_SendSequence(u8x8, u8x8_d_st7565_nhd_c12864_init_seq);
 1410              		.loc 1 594 0
 1411 00ba FFF7FEFF 		bl	u8x8_d_helper_display_init
 1412              	.LVL246:
 595:..\u8g2-master\csrc/u8x8_d_st7565.c **** 	break;
 1413              		.loc 1 595 0
 1414 00be 2846     		mov	r0, r5
 1415 00c0 1449     		ldr	r1, .L157+4
 1416 00c2 FFF7FEFF 		bl	u8x8_cad_SendSequence
 1417              	.LVL247:
 1418              		.loc 1 613 0
 1419 00c6 0120     		movs	r0, #1
 596:..\u8g2-master\csrc/u8x8_d_st7565.c ****       case U8X8_MSG_DISPLAY_SET_FLIP_MODE:
 1420              		.loc 1 596 0
 1421 00c8 BDE8F081 		pop	{r4, r5, r6, r7, r8, pc}
 1422              	.LVL248:
 1423              	.L139:
 1424              	.LBB97:
 1425              	.LBB92:
 165:..\u8g2-master\csrc/u8x8_d_st7565.c ****       break;
 1426              		.loc 1 165 0
 1427 00cc 1249     		ldr	r1, .L157+8
 1428              	.LVL249:
 1429 00ce FFF7FEFF 		bl	u8x8_cad_SendSequence
 1430              	.LVL250:
 1431              	.LBE92:
 1432              	.LBE97:
 1433              		.loc 1 613 0
 1434 00d2 0120     		movs	r0, #1
 1435 00d4 BDE8F081 		pop	{r4, r5, r6, r7, r8, pc}
 1436              	.LVL251:
 1437              	.L155:
 591:..\u8g2-master\csrc/u8x8_d_st7565.c **** 	break;
 1438              		.loc 1 591 0
 1439 00d8 1049     		ldr	r1, .L157+12
 1440              	.LVL252:
 1441 00da FFF7FEFF 		bl	u8x8_d_helper_display_setup_memory
 1442              	.LVL253:
 1443              		.loc 1 613 0
 1444 00de 0120     		movs	r0, #1
 592:..\u8g2-master\csrc/u8x8_d_st7565.c ****       case U8X8_MSG_DISPLAY_INIT:
 1445              		.loc 1 592 0
 1446 00e0 BDE8F081 		pop	{r4, r5, r6, r7, r8, pc}
 1447              	.LVL254:
 1448              	.L143:
 598:..\u8g2-master\csrc/u8x8_d_st7565.c **** 	{
 1449              		.loc 1 598 0
 1450 00e4 4CB1     		cbz	r4, .L156
 605:..\u8g2-master\csrc/u8x8_d_st7565.c **** 	  u8x8->x_offset = u8x8->display_info->flipmode_x_offset;
 1451              		.loc 1 605 0
 1452 00e6 0E49     		ldr	r1, .L157+16
 1453              	.LVL255:
 1454 00e8 FFF7FEFF 		bl	u8x8_cad_SendSequence
 1455              	.LVL256:
ARM GAS  C:\Users\info\AppData\Local\Temp\ccQPGqkW.s 			page 41


 606:..\u8g2-master\csrc/u8x8_d_st7565.c **** 	}	
 1456              		.loc 1 606 0
 1457 00ec 2B68     		ldr	r3, [r5]
 1458              		.loc 1 613 0
 1459 00ee 0120     		movs	r0, #1
 606:..\u8g2-master\csrc/u8x8_d_st7565.c **** 	}	
 1460              		.loc 1 606 0
 1461 00f0 DB7C     		ldrb	r3, [r3, #19]	@ zero_extendqisi2
 1462 00f2 85F82230 		strb	r3, [r5, #34]
 1463 00f6 BDE8F081 		pop	{r4, r5, r6, r7, r8, pc}
 1464              	.LVL257:
 1465              	.L156:
 1466              	.LBB98:
 1467              	.LBB99:
 600:..\u8g2-master\csrc/u8x8_d_st7565.c **** 	  u8x8->x_offset = u8x8->display_info->default_x_offset;
 1468              		.loc 1 600 0
 1469 00fa 0A49     		ldr	r1, .L157+20
 1470              	.LVL258:
 1471 00fc FFF7FEFF 		bl	u8x8_cad_SendSequence
 1472              	.LVL259:
 601:..\u8g2-master\csrc/u8x8_d_st7565.c **** 	}
 1473              		.loc 1 601 0
 1474 0100 2B68     		ldr	r3, [r5]
 1475 0102 0120     		movs	r0, #1
 1476 0104 9B7C     		ldrb	r3, [r3, #18]	@ zero_extendqisi2
 1477 0106 85F82230 		strb	r3, [r5, #34]
 1478              	.LVL260:
 1479 010a BDE8F081 		pop	{r4, r5, r6, r7, r8, pc}
 1480              	.LVL261:
 1481              	.L158:
 1482 010e 00BF     		.align	2
 1483              	.L157:
 1484 0110 00000000 		.word	.LANCHOR0
 1485 0114 1C010000 		.word	.LANCHOR0+284
 1486 0118 08000000 		.word	.LANCHOR0+8
 1487 011c 04010000 		.word	.LANCHOR0+260
 1488 0120 54000000 		.word	.LANCHOR0+84
 1489 0124 4C000000 		.word	.LANCHOR0+76
 1490              	.LBE99:
 1491              	.LBE98:
 1492              		.cfi_endproc
 1493              	.LFE5:
 1494              		.size	u8x8_d_st7565_nhd_c12864, .-u8x8_d_st7565_nhd_c12864
 1495              		.section	.text.u8x8_d_st7565_jlx12864,"ax",%progbits
 1496              		.align	2
 1497              		.global	u8x8_d_st7565_jlx12864
 1498              		.thumb
 1499              		.thumb_func
 1500              		.type	u8x8_d_st7565_jlx12864, %function
 1501              	u8x8_d_st7565_jlx12864:
 1502              	.LFB6:
 614:..\u8g2-master\csrc/u8x8_d_st7565.c **** }
 615:..\u8g2-master\csrc/u8x8_d_st7565.c **** /*================================================*/
 616:..\u8g2-master\csrc/u8x8_d_st7565.c **** /* JLX12864 */
 617:..\u8g2-master\csrc/u8x8_d_st7565.c **** 
 618:..\u8g2-master\csrc/u8x8_d_st7565.c **** uint8_t u8x8_d_st7565_jlx12864(u8x8_t *u8x8, uint8_t msg, uint8_t arg_int, void *arg_ptr)
 619:..\u8g2-master\csrc/u8x8_d_st7565.c **** {
ARM GAS  C:\Users\info\AppData\Local\Temp\ccQPGqkW.s 			page 42


 1503              		.loc 1 619 0
 1504              		.cfi_startproc
 1505              		@ args = 0, pretend = 0, frame = 0
 1506              		@ frame_needed = 0, uses_anonymous_args = 0
 1507              	.LVL262:
 1508              	.LBB108:
 1509              	.LBB109:
 1510              	.LBB110:
 1511              	.LBB111:
 119:..\u8g2-master\csrc/u8x8_d_st7565.c ****   {
 1512              		.loc 1 119 0
 1513 0000 0E29     		cmp	r1, #14
 1514              	.LBE111:
 1515              	.LBE110:
 1516              	.LBE109:
 1517              	.LBE108:
 1518              		.loc 1 619 0
 1519 0002 2DE9F041 		push	{r4, r5, r6, r7, r8, lr}
 1520              		.cfi_def_cfa_offset 24
 1521              		.cfi_offset 4, -24
 1522              		.cfi_offset 5, -20
 1523              		.cfi_offset 6, -16
 1524              		.cfi_offset 7, -12
 1525              		.cfi_offset 8, -8
 1526              		.cfi_offset 14, -4
 1527              		.loc 1 619 0
 1528 0006 1446     		mov	r4, r2
 1529 0008 0546     		mov	r5, r0
 1530              	.LVL263:
 1531              	.LBB130:
 1532              	.LBB126:
 1533              	.LBB119:
 1534              	.LBB114:
 119:..\u8g2-master\csrc/u8x8_d_st7565.c ****   {
 1535              		.loc 1 119 0
 1536 000a 4BD0     		beq	.L161
 1537 000c 0F29     		cmp	r1, #15
 1538 000e 12D0     		beq	.L162
 1539 0010 0B29     		cmp	r1, #11
 1540 0012 08D0     		beq	.L182
 1541              	.LVL264:
 1542              	.LBE114:
 1543              	.LBE119:
 588:..\u8g2-master\csrc/u8x8_d_st7565.c ****     {
 1544              		.loc 1 588 0
 1545 0014 0A29     		cmp	r1, #10
 1546 0016 50D0     		beq	.L170
 1547 0018 0D29     		cmp	r1, #13
 1548 001a 63D0     		beq	.L171
 1549 001c 0929     		cmp	r1, #9
 1550 001e 5BD0     		beq	.L183
 610:..\u8g2-master\csrc/u8x8_d_st7565.c ****     }
 1551              		.loc 1 610 0
 1552 0020 0020     		movs	r0, #0
 1553              	.LVL265:
 1554 0022 BDE8F081 		pop	{r4, r5, r6, r7, r8, pc}
 1555              	.LVL266:
ARM GAS  C:\Users\info\AppData\Local\Temp\ccQPGqkW.s 			page 43


 1556              	.L182:
 1557              	.LBB120:
 1558              	.LBB115:
 162:..\u8g2-master\csrc/u8x8_d_st7565.c **** 	u8x8_cad_SendSequence(u8x8, u8x8_d_st7565_powersave0_seq);
 1559              		.loc 1 162 0
 1560 0026 002A     		cmp	r2, #0
 1561 0028 50D1     		bne	.L167
 163:..\u8g2-master\csrc/u8x8_d_st7565.c ****       else
 1562              		.loc 1 163 0
 1563 002a 3949     		ldr	r1, .L185
 1564              	.LVL267:
 1565 002c FFF7FEFF 		bl	u8x8_cad_SendSequence
 1566              	.LVL268:
 1567              	.LBE115:
 1568              	.LBE120:
 613:..\u8g2-master\csrc/u8x8_d_st7565.c **** }
 1569              		.loc 1 613 0
 1570 0030 0120     		movs	r0, #1
 1571              	.LVL269:
 1572              	.LBE126:
 1573              	.LBE130:
 620:..\u8g2-master\csrc/u8x8_d_st7565.c ****   return u8x8_d_st7565_nhd_c12864(u8x8, msg, arg_int, arg_ptr);
 1574              		.loc 1 620 0
 1575 0032 BDE8F081 		pop	{r4, r5, r6, r7, r8, pc}
 1576              	.LVL270:
 1577              	.L162:
 1578 0036 1F46     		mov	r7, r3
 1579              	.LBB131:
 1580              	.LBB127:
 1581              	.LBB121:
 1582              	.LBB116:
 1583              	.LBB112:
 1584              	.LBB113:
 122:..\u8g2-master\csrc/u8x8_d_st7565.c ****     
 1585              		.loc 1 122 0
 1586 0038 FFF7FEFF 		bl	u8x8_cad_StartTransfer
 1587              	.LVL271:
 126:..\u8g2-master\csrc/u8x8_d_st7565.c ****       u8x8_cad_SendCmd(u8x8, 0x010 | (x>>4) );
 1588              		.loc 1 126 0
 1589 003c 95F82230 		ldrb	r3, [r5, #34]	@ zero_extendqisi2
 124:..\u8g2-master\csrc/u8x8_d_st7565.c ****       x *= 8;
 1590              		.loc 1 124 0
 1591 0040 97F80580 		ldrb	r8, [r7, #5]	@ zero_extendqisi2
 1592              	.LVL272:
 127:..\u8g2-master\csrc/u8x8_d_st7565.c ****       u8x8_cad_SendCmd(u8x8, 0x000 | ((x&15)));
 1593              		.loc 1 127 0
 1594 0044 2846     		mov	r0, r5
 126:..\u8g2-master\csrc/u8x8_d_st7565.c ****       u8x8_cad_SendCmd(u8x8, 0x010 | (x>>4) );
 1595              		.loc 1 126 0
 1596 0046 03EBC808 		add	r8, r3, r8, lsl #3
 1597              	.LVL273:
 1598 004a 08F0FF08 		and	r8, r8, #255
 1599              	.LVL274:
 127:..\u8g2-master\csrc/u8x8_d_st7565.c ****       u8x8_cad_SendCmd(u8x8, 0x000 | ((x&15)));
 1600              		.loc 1 127 0
 1601 004e 4FEA1811 		lsr	r1, r8, #4
 1602 0052 41F01001 		orr	r1, r1, #16
ARM GAS  C:\Users\info\AppData\Local\Temp\ccQPGqkW.s 			page 44


 1603 0056 FFF7FEFF 		bl	u8x8_cad_SendCmd
 1604              	.LVL275:
 128:..\u8g2-master\csrc/u8x8_d_st7565.c ****       u8x8_cad_SendCmd(u8x8, 0x0b0 | (((u8x8_tile_t *)arg_ptr)->y_pos));
 1605              		.loc 1 128 0
 1606 005a 08F00F01 		and	r1, r8, #15
 1607 005e 2846     		mov	r0, r5
 1608 0060 FFF7FEFF 		bl	u8x8_cad_SendCmd
 1609              	.LVL276:
 129:..\u8g2-master\csrc/u8x8_d_st7565.c ****     
 1610              		.loc 1 129 0
 1611 0064 B979     		ldrb	r1, [r7, #6]	@ zero_extendqisi2
 1612 0066 2846     		mov	r0, r5
 1613 0068 41F0B001 		orr	r1, r1, #176
 1614 006c FFF7FEFF 		bl	u8x8_cad_SendCmd
 1615              	.LVL277:
 131:..\u8g2-master\csrc/u8x8_d_st7565.c ****       c *= 8;
 1616              		.loc 1 131 0
 1617 0070 3E79     		ldrb	r6, [r7, #4]	@ zero_extendqisi2
 1618              	.LVL278:
 133:..\u8g2-master\csrc/u8x8_d_st7565.c ****       /* 
 1619              		.loc 1 133 0
 1620 0072 3F68     		ldr	r7, [r7]
 1621              	.LVL279:
 132:..\u8g2-master\csrc/u8x8_d_st7565.c ****       ptr = ((u8x8_tile_t *)arg_ptr)->tile_ptr;
 1622              		.loc 1 132 0
 1623 0074 F600     		lsls	r6, r6, #3
 1624              	.LVL280:
 1625 0076 F6B2     		uxtb	r6, r6
 1626              	.LVL281:
 139:..\u8g2-master\csrc/u8x8_d_st7565.c ****       {
 1627              		.loc 1 139 0
 1628 0078 06EB0803 		add	r3, r6, r8
 1629 007c 842B     		cmp	r3, #132
 1630              	.LVL282:
 142:..\u8g2-master\csrc/u8x8_d_st7565.c ****       }
 1631              		.loc 1 142 0
 1632 007e C4BF     		itt	gt
 1633 0080 C8F18406 		rsbgt	r6, r8, #132
 1634 0084 F6B2     		uxtbgt	r6, r6
 1635              	.LVL283:
 1636              	.L165:
 146:..\u8g2-master\csrc/u8x8_d_st7565.c **** 	arg_int--;
 1637              		.loc 1 146 0
 1638 0086 3A46     		mov	r2, r7
 1639 0088 3146     		mov	r1, r6
 1640 008a 2846     		mov	r0, r5
 1641 008c FFF7FEFF 		bl	u8x8_cad_SendData
 1642              	.LVL284:
 147:..\u8g2-master\csrc/u8x8_d_st7565.c ****       } while( arg_int > 0 );
 1643              		.loc 1 147 0
 1644 0090 621E     		subs	r2, r4, #1
 1645              	.LVL285:
 148:..\u8g2-master\csrc/u8x8_d_st7565.c ****       
 1646              		.loc 1 148 0
 1647 0092 12F0FF04 		ands	r4, r2, #255
 1648 0096 F6D1     		bne	.L165
 1649              	.LVL286:
ARM GAS  C:\Users\info\AppData\Local\Temp\ccQPGqkW.s 			page 45


 1650              	.L179:
 1651              	.LBE113:
 1652              	.LBE112:
 172:..\u8g2-master\csrc/u8x8_d_st7565.c ****       break;
 1653              		.loc 1 172 0
 1654 0098 2846     		mov	r0, r5
 1655 009a FFF7FEFF 		bl	u8x8_cad_EndTransfer
 1656              	.LVL287:
 1657              	.LBE116:
 1658              	.LBE121:
 613:..\u8g2-master\csrc/u8x8_d_st7565.c **** }
 1659              		.loc 1 613 0
 1660 009e 0120     		movs	r0, #1
 1661              	.LVL288:
 1662              	.LBE127:
 1663              	.LBE131:
 1664              		.loc 1 620 0
 1665 00a0 BDE8F081 		pop	{r4, r5, r6, r7, r8, pc}
 1666              	.LVL289:
 1667              	.L161:
 1668              	.LBB132:
 1669              	.LBB128:
 1670              	.LBB122:
 1671              	.LBB117:
 169:..\u8g2-master\csrc/u8x8_d_st7565.c ****       u8x8_cad_SendCmd(u8x8, 0x081 );
 1672              		.loc 1 169 0
 1673 00a4 FFF7FEFF 		bl	u8x8_cad_StartTransfer
 1674              	.LVL290:
 170:..\u8g2-master\csrc/u8x8_d_st7565.c ****       u8x8_cad_SendArg(u8x8, arg_int >> 2 );	/* st7565 has range from 0 to 63 */
 1675              		.loc 1 170 0
 1676 00a8 8121     		movs	r1, #129
 1677 00aa 2846     		mov	r0, r5
 1678 00ac FFF7FEFF 		bl	u8x8_cad_SendCmd
 1679              	.LVL291:
 171:..\u8g2-master\csrc/u8x8_d_st7565.c ****       u8x8_cad_EndTransfer(u8x8);
 1680              		.loc 1 171 0
 1681 00b0 A108     		lsrs	r1, r4, #2
 1682 00b2 2846     		mov	r0, r5
 1683 00b4 FFF7FEFF 		bl	u8x8_cad_SendArg
 1684              	.LVL292:
 1685 00b8 EEE7     		b	.L179
 1686              	.LVL293:
 1687              	.L170:
 1688              	.LBE117:
 1689              	.LBE122:
 594:..\u8g2-master\csrc/u8x8_d_st7565.c **** 	u8x8_cad_SendSequence(u8x8, u8x8_d_st7565_nhd_c12864_init_seq);
 1690              		.loc 1 594 0
 1691 00ba FFF7FEFF 		bl	u8x8_d_helper_display_init
 1692              	.LVL294:
 595:..\u8g2-master\csrc/u8x8_d_st7565.c **** 	break;
 1693              		.loc 1 595 0
 1694 00be 2846     		mov	r0, r5
 1695 00c0 1449     		ldr	r1, .L185+4
 1696 00c2 FFF7FEFF 		bl	u8x8_cad_SendSequence
 1697              	.LVL295:
 613:..\u8g2-master\csrc/u8x8_d_st7565.c **** }
 1698              		.loc 1 613 0
ARM GAS  C:\Users\info\AppData\Local\Temp\ccQPGqkW.s 			page 46


 1699 00c6 0120     		movs	r0, #1
 1700 00c8 BDE8F081 		pop	{r4, r5, r6, r7, r8, pc}
 1701              	.LVL296:
 1702              	.L167:
 1703              	.LBB123:
 1704              	.LBB118:
 165:..\u8g2-master\csrc/u8x8_d_st7565.c ****       break;
 1705              		.loc 1 165 0
 1706 00cc 1249     		ldr	r1, .L185+8
 1707              	.LVL297:
 1708 00ce FFF7FEFF 		bl	u8x8_cad_SendSequence
 1709              	.LVL298:
 1710              	.LBE118:
 1711              	.LBE123:
 613:..\u8g2-master\csrc/u8x8_d_st7565.c **** }
 1712              		.loc 1 613 0
 1713 00d2 0120     		movs	r0, #1
 1714              	.LVL299:
 1715              	.LBE128:
 1716              	.LBE132:
 1717              		.loc 1 620 0
 1718 00d4 BDE8F081 		pop	{r4, r5, r6, r7, r8, pc}
 1719              	.LVL300:
 1720              	.L183:
 1721              	.LBB133:
 1722              	.LBB129:
 591:..\u8g2-master\csrc/u8x8_d_st7565.c **** 	break;
 1723              		.loc 1 591 0
 1724 00d8 1049     		ldr	r1, .L185+12
 1725              	.LVL301:
 1726 00da FFF7FEFF 		bl	u8x8_d_helper_display_setup_memory
 1727              	.LVL302:
 613:..\u8g2-master\csrc/u8x8_d_st7565.c **** }
 1728              		.loc 1 613 0
 1729 00de 0120     		movs	r0, #1
 1730 00e0 BDE8F081 		pop	{r4, r5, r6, r7, r8, pc}
 1731              	.LVL303:
 1732              	.L171:
 598:..\u8g2-master\csrc/u8x8_d_st7565.c **** 	{
 1733              		.loc 1 598 0
 1734 00e4 4CB1     		cbz	r4, .L184
 605:..\u8g2-master\csrc/u8x8_d_st7565.c **** 	  u8x8->x_offset = u8x8->display_info->flipmode_x_offset;
 1735              		.loc 1 605 0
 1736 00e6 0E49     		ldr	r1, .L185+16
 1737              	.LVL304:
 1738 00e8 FFF7FEFF 		bl	u8x8_cad_SendSequence
 1739              	.LVL305:
 606:..\u8g2-master\csrc/u8x8_d_st7565.c **** 	}	
 1740              		.loc 1 606 0
 1741 00ec 2B68     		ldr	r3, [r5]
 613:..\u8g2-master\csrc/u8x8_d_st7565.c **** }
 1742              		.loc 1 613 0
 1743 00ee 0120     		movs	r0, #1
 606:..\u8g2-master\csrc/u8x8_d_st7565.c **** 	}	
 1744              		.loc 1 606 0
 1745 00f0 DB7C     		ldrb	r3, [r3, #19]	@ zero_extendqisi2
 1746 00f2 85F82230 		strb	r3, [r5, #34]
ARM GAS  C:\Users\info\AppData\Local\Temp\ccQPGqkW.s 			page 47


 1747 00f6 BDE8F081 		pop	{r4, r5, r6, r7, r8, pc}
 1748              	.LVL306:
 1749              	.L184:
 1750              	.LBB124:
 1751              	.LBB125:
 600:..\u8g2-master\csrc/u8x8_d_st7565.c **** 	  u8x8->x_offset = u8x8->display_info->default_x_offset;
 1752              		.loc 1 600 0
 1753 00fa 0A49     		ldr	r1, .L185+20
 1754              	.LVL307:
 1755 00fc FFF7FEFF 		bl	u8x8_cad_SendSequence
 1756              	.LVL308:
 601:..\u8g2-master\csrc/u8x8_d_st7565.c **** 	}
 1757              		.loc 1 601 0
 1758 0100 2B68     		ldr	r3, [r5]
 1759 0102 0120     		movs	r0, #1
 1760 0104 9B7C     		ldrb	r3, [r3, #18]	@ zero_extendqisi2
 1761 0106 85F82230 		strb	r3, [r5, #34]
 1762              	.LVL309:
 1763 010a BDE8F081 		pop	{r4, r5, r6, r7, r8, pc}
 1764              	.LVL310:
 1765              	.L186:
 1766 010e 00BF     		.align	2
 1767              	.L185:
 1768 0110 00000000 		.word	.LANCHOR0
 1769 0114 1C010000 		.word	.LANCHOR0+284
 1770 0118 08000000 		.word	.LANCHOR0+8
 1771 011c 04010000 		.word	.LANCHOR0+260
 1772 0120 54000000 		.word	.LANCHOR0+84
 1773 0124 4C000000 		.word	.LANCHOR0+76
 1774              	.LBE125:
 1775              	.LBE124:
 1776              	.LBE129:
 1777              	.LBE133:
 1778              		.cfi_endproc
 1779              	.LFE6:
 1780              		.size	u8x8_d_st7565_jlx12864, .-u8x8_d_st7565_jlx12864
 1781              		.section	.text.u8x8_d_st7565_lm6059,"ax",%progbits
 1782              		.align	2
 1783              		.global	u8x8_d_st7565_lm6059
 1784              		.thumb
 1785              		.thumb_func
 1786              		.type	u8x8_d_st7565_lm6059, %function
 1787              	u8x8_d_st7565_lm6059:
 1788              	.LFB7:
 621:..\u8g2-master\csrc/u8x8_d_st7565.c **** }
 622:..\u8g2-master\csrc/u8x8_d_st7565.c **** 
 623:..\u8g2-master\csrc/u8x8_d_st7565.c **** 
 624:..\u8g2-master\csrc/u8x8_d_st7565.c **** /*================================================*/
 625:..\u8g2-master\csrc/u8x8_d_st7565.c **** /* LM6059 (Adafruit)... probably this is a ST7567 display */
 626:..\u8g2-master\csrc/u8x8_d_st7565.c **** 
 627:..\u8g2-master\csrc/u8x8_d_st7565.c **** static const uint8_t u8x8_d_st7565_lm6059_init_seq[] = {
 628:..\u8g2-master\csrc/u8x8_d_st7565.c ****     
 629:..\u8g2-master\csrc/u8x8_d_st7565.c ****   U8X8_START_TRANSFER(),             	/* enable chip, delay is part of the transfer start */
 630:..\u8g2-master\csrc/u8x8_d_st7565.c ****   
 631:..\u8g2-master\csrc/u8x8_d_st7565.c ****   U8X8_C(0x0e2),            			/* soft reset */
 632:..\u8g2-master\csrc/u8x8_d_st7565.c ****   U8X8_C(0x0ae),		                /* display off */
 633:..\u8g2-master\csrc/u8x8_d_st7565.c ****   U8X8_C(0x060),		                /* set display start line to ... */
ARM GAS  C:\Users\info\AppData\Local\Temp\ccQPGqkW.s 			page 48


 634:..\u8g2-master\csrc/u8x8_d_st7565.c ****   
 635:..\u8g2-master\csrc/u8x8_d_st7565.c ****   U8X8_C(0x0a0),		                /* ADC set to reverse */
 636:..\u8g2-master\csrc/u8x8_d_st7565.c ****   U8X8_C(0x0c8),		                /* common output mode */
 637:..\u8g2-master\csrc/u8x8_d_st7565.c ****   //U8X8_C(0x0a1),		                /* ADC set to reverse */
 638:..\u8g2-master\csrc/u8x8_d_st7565.c ****   //U8X8_C(0x0c0),		                /* common output mode */
 639:..\u8g2-master\csrc/u8x8_d_st7565.c ****   // Flipmode
 640:..\u8g2-master\csrc/u8x8_d_st7565.c ****   // U8X8_C(0x0a0),		                /* ADC set to reverse */
 641:..\u8g2-master\csrc/u8x8_d_st7565.c ****   // U8X8_C(0x0c8),		                /* common output mode */
 642:..\u8g2-master\csrc/u8x8_d_st7565.c ****   
 643:..\u8g2-master\csrc/u8x8_d_st7565.c ****   U8X8_C(0x0a6),		                /* display normal, bit val 0: LCD pixel off. */
 644:..\u8g2-master\csrc/u8x8_d_st7565.c ****   U8X8_C(0x0a3),		                /* LCD bias 1/9 */
 645:..\u8g2-master\csrc/u8x8_d_st7565.c ****   U8X8_C(0x02f),		                /* all power  control circuits on (regulator, booster and followe
 646:..\u8g2-master\csrc/u8x8_d_st7565.c ****   U8X8_CA(0x0f8, 0x000),		/* set booster ratio to 4x (ST7567 feature) */
 647:..\u8g2-master\csrc/u8x8_d_st7565.c ****   U8X8_C(0x027),		                /* set V0 voltage resistor ratio to max  */
 648:..\u8g2-master\csrc/u8x8_d_st7565.c ****   U8X8_CA(0x081, 0x018),		/* set contrast, contrast value, EA default: 0x016 */
 649:..\u8g2-master\csrc/u8x8_d_st7565.c ****   
 650:..\u8g2-master\csrc/u8x8_d_st7565.c ****   U8X8_C(0x0ae),		                /* display off */
 651:..\u8g2-master\csrc/u8x8_d_st7565.c ****   U8X8_C(0x0a5),		                /* enter powersafe: all pixel on, issue 142 */
 652:..\u8g2-master\csrc/u8x8_d_st7565.c ****   
 653:..\u8g2-master\csrc/u8x8_d_st7565.c ****   U8X8_END_TRANSFER(),             	/* disable chip */
 654:..\u8g2-master\csrc/u8x8_d_st7565.c ****   U8X8_END()             			/* end of sequence */
 655:..\u8g2-master\csrc/u8x8_d_st7565.c **** };
 656:..\u8g2-master\csrc/u8x8_d_st7565.c **** 
 657:..\u8g2-master\csrc/u8x8_d_st7565.c **** static const u8x8_display_info_t u8x8_st7565_lm6059_display_info =
 658:..\u8g2-master\csrc/u8x8_d_st7565.c **** {
 659:..\u8g2-master\csrc/u8x8_d_st7565.c ****   /* chip_enable_level = */ 0,
 660:..\u8g2-master\csrc/u8x8_d_st7565.c ****   /* chip_disable_level = */ 1,
 661:..\u8g2-master\csrc/u8x8_d_st7565.c ****   
 662:..\u8g2-master\csrc/u8x8_d_st7565.c ****   /* post_chip_enable_wait_ns = */ 150,	/* st7565 datasheet, table 26, tcsh */
 663:..\u8g2-master\csrc/u8x8_d_st7565.c ****   /* pre_chip_disable_wait_ns = */ 50,	/* st7565 datasheet, table 26, tcss */
 664:..\u8g2-master\csrc/u8x8_d_st7565.c ****   /* reset_pulse_width_ms = */ 1, 
 665:..\u8g2-master\csrc/u8x8_d_st7565.c ****   /* post_reset_wait_ms = */ 1, 
 666:..\u8g2-master\csrc/u8x8_d_st7565.c ****   /* sda_setup_time_ns = */ 50,		/* st7565 datasheet, table 26, tsds */
 667:..\u8g2-master\csrc/u8x8_d_st7565.c ****   /* sck_pulse_width_ns = */ 120,	/* half of cycle time (100ns according to datasheet), AVR: below 
 668:..\u8g2-master\csrc/u8x8_d_st7565.c ****   /* sck_clock_hz = */ 4000000UL,	/* since Arduino 1.6.0, the SPI bus speed in Hz. Should be  10000
 669:..\u8g2-master\csrc/u8x8_d_st7565.c ****   /* spi_mode = */ 0,		/* active high, rising edge */
 670:..\u8g2-master\csrc/u8x8_d_st7565.c ****   /* i2c_bus_clock_100kHz = */ 4,
 671:..\u8g2-master\csrc/u8x8_d_st7565.c ****   /* data_setup_time_ns = */ 40,	/* st7565 datasheet, table 24, tds8 */
 672:..\u8g2-master\csrc/u8x8_d_st7565.c ****   /* write_pulse_width_ns = */ 80,	/* st7565 datasheet, table 24, tcclw */
 673:..\u8g2-master\csrc/u8x8_d_st7565.c ****   /* tile_width = */ 16,		/* width of 16*8=128 pixel */
 674:..\u8g2-master\csrc/u8x8_d_st7565.c ****   /* tile_hight = */ 8,
 675:..\u8g2-master\csrc/u8x8_d_st7565.c ****   /* default_x_offset = */ 1,	/* not sure... */
 676:..\u8g2-master\csrc/u8x8_d_st7565.c ****   /* flipmode_x_offset = */ 3,
 677:..\u8g2-master\csrc/u8x8_d_st7565.c ****   /* pixel_width = */ 128,
 678:..\u8g2-master\csrc/u8x8_d_st7565.c ****   /* pixel_height = */ 64
 679:..\u8g2-master\csrc/u8x8_d_st7565.c **** };
 680:..\u8g2-master\csrc/u8x8_d_st7565.c **** 
 681:..\u8g2-master\csrc/u8x8_d_st7565.c **** uint8_t u8x8_d_st7565_lm6059(u8x8_t *u8x8, uint8_t msg, uint8_t arg_int, void *arg_ptr)
 682:..\u8g2-master\csrc/u8x8_d_st7565.c **** {
 1789              		.loc 1 682 0
 1790              		.cfi_startproc
 1791              		@ args = 0, pretend = 0, frame = 0
 1792              		@ frame_needed = 0, uses_anonymous_args = 0
 1793              	.LVL311:
 1794              	.LBB138:
 1795              	.LBB139:
 119:..\u8g2-master\csrc/u8x8_d_st7565.c ****   {
ARM GAS  C:\Users\info\AppData\Local\Temp\ccQPGqkW.s 			page 49


 1796              		.loc 1 119 0
 1797 0000 0E29     		cmp	r1, #14
 1798              	.LBE139:
 1799              	.LBE138:
 1800              		.loc 1 682 0
 1801 0002 2DE9F041 		push	{r4, r5, r6, r7, r8, lr}
 1802              		.cfi_def_cfa_offset 24
 1803              		.cfi_offset 4, -24
 1804              		.cfi_offset 5, -20
 1805              		.cfi_offset 6, -16
 1806              		.cfi_offset 7, -12
 1807              		.cfi_offset 8, -8
 1808              		.cfi_offset 14, -4
 1809              		.loc 1 682 0
 1810 0006 1446     		mov	r4, r2
 1811 0008 0546     		mov	r5, r0
 1812              	.LVL312:
 1813              	.LBB147:
 1814              	.LBB142:
 119:..\u8g2-master\csrc/u8x8_d_st7565.c ****   {
 1815              		.loc 1 119 0
 1816 000a 4BD0     		beq	.L189
 1817 000c 0F29     		cmp	r1, #15
 1818 000e 12D0     		beq	.L190
 1819 0010 0B29     		cmp	r1, #11
 1820 0012 08D0     		beq	.L210
 1821              	.LVL313:
 1822              	.LBE142:
 1823              	.LBE147:
 683:..\u8g2-master\csrc/u8x8_d_st7565.c ****   /* call common procedure first and handle messages there */
 684:..\u8g2-master\csrc/u8x8_d_st7565.c ****   if ( u8x8_d_st7565_common(u8x8, msg, arg_int, arg_ptr) == 0 )
 685:..\u8g2-master\csrc/u8x8_d_st7565.c ****   {
 686:..\u8g2-master\csrc/u8x8_d_st7565.c ****     /* msg not handled, then try here */
 687:..\u8g2-master\csrc/u8x8_d_st7565.c ****     switch(msg)
 1824              		.loc 1 687 0
 1825 0014 0A29     		cmp	r1, #10
 1826 0016 50D0     		beq	.L198
 1827 0018 0D29     		cmp	r1, #13
 1828 001a 63D0     		beq	.L199
 1829 001c 0929     		cmp	r1, #9
 1830 001e 5BD0     		beq	.L211
 688:..\u8g2-master\csrc/u8x8_d_st7565.c ****     {
 689:..\u8g2-master\csrc/u8x8_d_st7565.c ****       case U8X8_MSG_DISPLAY_SETUP_MEMORY:
 690:..\u8g2-master\csrc/u8x8_d_st7565.c **** 	u8x8_d_helper_display_setup_memory(u8x8, &u8x8_st7565_lm6059_display_info);
 691:..\u8g2-master\csrc/u8x8_d_st7565.c **** 	break;
 692:..\u8g2-master\csrc/u8x8_d_st7565.c ****       case U8X8_MSG_DISPLAY_INIT:
 693:..\u8g2-master\csrc/u8x8_d_st7565.c **** 	u8x8_d_helper_display_init(u8x8);
 694:..\u8g2-master\csrc/u8x8_d_st7565.c **** 	u8x8_cad_SendSequence(u8x8, u8x8_d_st7565_lm6059_init_seq);
 695:..\u8g2-master\csrc/u8x8_d_st7565.c **** 	break;
 696:..\u8g2-master\csrc/u8x8_d_st7565.c ****       case U8X8_MSG_DISPLAY_SET_FLIP_MODE:
 697:..\u8g2-master\csrc/u8x8_d_st7565.c **** 	if ( arg_int == 0 )
 698:..\u8g2-master\csrc/u8x8_d_st7565.c **** 	{
 699:..\u8g2-master\csrc/u8x8_d_st7565.c **** 	  u8x8_cad_SendSequence(u8x8, u8x8_d_st7565_flip1_seq);
 700:..\u8g2-master\csrc/u8x8_d_st7565.c **** 	  u8x8->x_offset = u8x8->display_info->default_x_offset;
 701:..\u8g2-master\csrc/u8x8_d_st7565.c **** 	}
 702:..\u8g2-master\csrc/u8x8_d_st7565.c **** 	else
 703:..\u8g2-master\csrc/u8x8_d_st7565.c **** 	{
ARM GAS  C:\Users\info\AppData\Local\Temp\ccQPGqkW.s 			page 50


 704:..\u8g2-master\csrc/u8x8_d_st7565.c **** 	  u8x8_cad_SendSequence(u8x8, u8x8_d_st7565_flip0_seq);
 705:..\u8g2-master\csrc/u8x8_d_st7565.c **** 	  u8x8->x_offset = u8x8->display_info->flipmode_x_offset;
 706:..\u8g2-master\csrc/u8x8_d_st7565.c **** 	}	
 707:..\u8g2-master\csrc/u8x8_d_st7565.c **** 	break;
 708:..\u8g2-master\csrc/u8x8_d_st7565.c ****       default:
 709:..\u8g2-master\csrc/u8x8_d_st7565.c **** 	return 0;		/* msg unknown */
 1831              		.loc 1 709 0
 1832 0020 0020     		movs	r0, #0
 1833              	.LVL314:
 1834 0022 BDE8F081 		pop	{r4, r5, r6, r7, r8, pc}
 1835              	.LVL315:
 1836              	.L210:
 1837              	.LBB148:
 1838              	.LBB143:
 162:..\u8g2-master\csrc/u8x8_d_st7565.c **** 	u8x8_cad_SendSequence(u8x8, u8x8_d_st7565_powersave0_seq);
 1839              		.loc 1 162 0
 1840 0026 002A     		cmp	r2, #0
 1841 0028 50D1     		bne	.L195
 163:..\u8g2-master\csrc/u8x8_d_st7565.c ****       else
 1842              		.loc 1 163 0
 1843 002a 3949     		ldr	r1, .L213
 1844              	.LVL316:
 1845 002c FFF7FEFF 		bl	u8x8_cad_SendSequence
 1846              	.LVL317:
 1847              	.LBE143:
 1848              	.LBE148:
 710:..\u8g2-master\csrc/u8x8_d_st7565.c ****     }
 711:..\u8g2-master\csrc/u8x8_d_st7565.c ****   }
 712:..\u8g2-master\csrc/u8x8_d_st7565.c ****   return 1;
 1849              		.loc 1 712 0
 1850 0030 0120     		movs	r0, #1
 1851 0032 BDE8F081 		pop	{r4, r5, r6, r7, r8, pc}
 1852              	.LVL318:
 1853              	.L190:
 1854 0036 1F46     		mov	r7, r3
 1855              	.LVL319:
 1856              	.LBB149:
 1857              	.LBB144:
 1858              	.LBB140:
 1859              	.LBB141:
 122:..\u8g2-master\csrc/u8x8_d_st7565.c ****     
 1860              		.loc 1 122 0
 1861 0038 FFF7FEFF 		bl	u8x8_cad_StartTransfer
 1862              	.LVL320:
 126:..\u8g2-master\csrc/u8x8_d_st7565.c ****       u8x8_cad_SendCmd(u8x8, 0x010 | (x>>4) );
 1863              		.loc 1 126 0
 1864 003c 95F82230 		ldrb	r3, [r5, #34]	@ zero_extendqisi2
 124:..\u8g2-master\csrc/u8x8_d_st7565.c ****       x *= 8;
 1865              		.loc 1 124 0
 1866 0040 97F80580 		ldrb	r8, [r7, #5]	@ zero_extendqisi2
 1867              	.LVL321:
 127:..\u8g2-master\csrc/u8x8_d_st7565.c ****       u8x8_cad_SendCmd(u8x8, 0x000 | ((x&15)));
 1868              		.loc 1 127 0
 1869 0044 2846     		mov	r0, r5
 126:..\u8g2-master\csrc/u8x8_d_st7565.c ****       u8x8_cad_SendCmd(u8x8, 0x010 | (x>>4) );
 1870              		.loc 1 126 0
 1871 0046 03EBC808 		add	r8, r3, r8, lsl #3
ARM GAS  C:\Users\info\AppData\Local\Temp\ccQPGqkW.s 			page 51


 1872              	.LVL322:
 1873 004a 08F0FF08 		and	r8, r8, #255
 1874              	.LVL323:
 127:..\u8g2-master\csrc/u8x8_d_st7565.c ****       u8x8_cad_SendCmd(u8x8, 0x000 | ((x&15)));
 1875              		.loc 1 127 0
 1876 004e 4FEA1811 		lsr	r1, r8, #4
 1877 0052 41F01001 		orr	r1, r1, #16
 1878 0056 FFF7FEFF 		bl	u8x8_cad_SendCmd
 1879              	.LVL324:
 128:..\u8g2-master\csrc/u8x8_d_st7565.c ****       u8x8_cad_SendCmd(u8x8, 0x0b0 | (((u8x8_tile_t *)arg_ptr)->y_pos));
 1880              		.loc 1 128 0
 1881 005a 08F00F01 		and	r1, r8, #15
 1882 005e 2846     		mov	r0, r5
 1883 0060 FFF7FEFF 		bl	u8x8_cad_SendCmd
 1884              	.LVL325:
 129:..\u8g2-master\csrc/u8x8_d_st7565.c ****     
 1885              		.loc 1 129 0
 1886 0064 B979     		ldrb	r1, [r7, #6]	@ zero_extendqisi2
 1887 0066 2846     		mov	r0, r5
 1888 0068 41F0B001 		orr	r1, r1, #176
 1889 006c FFF7FEFF 		bl	u8x8_cad_SendCmd
 1890              	.LVL326:
 131:..\u8g2-master\csrc/u8x8_d_st7565.c ****       c *= 8;
 1891              		.loc 1 131 0
 1892 0070 3E79     		ldrb	r6, [r7, #4]	@ zero_extendqisi2
 1893              	.LVL327:
 133:..\u8g2-master\csrc/u8x8_d_st7565.c ****       /* 
 1894              		.loc 1 133 0
 1895 0072 3F68     		ldr	r7, [r7]
 1896              	.LVL328:
 132:..\u8g2-master\csrc/u8x8_d_st7565.c ****       ptr = ((u8x8_tile_t *)arg_ptr)->tile_ptr;
 1897              		.loc 1 132 0
 1898 0074 F600     		lsls	r6, r6, #3
 1899              	.LVL329:
 1900 0076 F6B2     		uxtb	r6, r6
 1901              	.LVL330:
 139:..\u8g2-master\csrc/u8x8_d_st7565.c ****       {
 1902              		.loc 1 139 0
 1903 0078 06EB0803 		add	r3, r6, r8
 1904 007c 842B     		cmp	r3, #132
 1905              	.LVL331:
 142:..\u8g2-master\csrc/u8x8_d_st7565.c ****       }
 1906              		.loc 1 142 0
 1907 007e C4BF     		itt	gt
 1908 0080 C8F18406 		rsbgt	r6, r8, #132
 1909 0084 F6B2     		uxtbgt	r6, r6
 1910              	.LVL332:
 1911              	.L193:
 146:..\u8g2-master\csrc/u8x8_d_st7565.c **** 	arg_int--;
 1912              		.loc 1 146 0
 1913 0086 3A46     		mov	r2, r7
 1914 0088 3146     		mov	r1, r6
 1915 008a 2846     		mov	r0, r5
 1916 008c FFF7FEFF 		bl	u8x8_cad_SendData
 1917              	.LVL333:
 147:..\u8g2-master\csrc/u8x8_d_st7565.c ****       } while( arg_int > 0 );
 1918              		.loc 1 147 0
ARM GAS  C:\Users\info\AppData\Local\Temp\ccQPGqkW.s 			page 52


 1919 0090 621E     		subs	r2, r4, #1
 1920              	.LVL334:
 148:..\u8g2-master\csrc/u8x8_d_st7565.c ****       
 1921              		.loc 1 148 0
 1922 0092 12F0FF04 		ands	r4, r2, #255
 1923 0096 F6D1     		bne	.L193
 1924              	.LVL335:
 1925              	.L207:
 1926              	.LBE141:
 1927              	.LBE140:
 172:..\u8g2-master\csrc/u8x8_d_st7565.c ****       break;
 1928              		.loc 1 172 0
 1929 0098 2846     		mov	r0, r5
 1930 009a FFF7FEFF 		bl	u8x8_cad_EndTransfer
 1931              	.LVL336:
 1932              	.LBE144:
 1933              	.LBE149:
 1934              		.loc 1 712 0
 1935 009e 0120     		movs	r0, #1
 1936 00a0 BDE8F081 		pop	{r4, r5, r6, r7, r8, pc}
 1937              	.LVL337:
 1938              	.L189:
 1939              	.LBB150:
 1940              	.LBB145:
 169:..\u8g2-master\csrc/u8x8_d_st7565.c ****       u8x8_cad_SendCmd(u8x8, 0x081 );
 1941              		.loc 1 169 0
 1942 00a4 FFF7FEFF 		bl	u8x8_cad_StartTransfer
 1943              	.LVL338:
 170:..\u8g2-master\csrc/u8x8_d_st7565.c ****       u8x8_cad_SendArg(u8x8, arg_int >> 2 );	/* st7565 has range from 0 to 63 */
 1944              		.loc 1 170 0
 1945 00a8 8121     		movs	r1, #129
 1946 00aa 2846     		mov	r0, r5
 1947 00ac FFF7FEFF 		bl	u8x8_cad_SendCmd
 1948              	.LVL339:
 171:..\u8g2-master\csrc/u8x8_d_st7565.c ****       u8x8_cad_EndTransfer(u8x8);
 1949              		.loc 1 171 0
 1950 00b0 A108     		lsrs	r1, r4, #2
 1951 00b2 2846     		mov	r0, r5
 1952 00b4 FFF7FEFF 		bl	u8x8_cad_SendArg
 1953              	.LVL340:
 1954 00b8 EEE7     		b	.L207
 1955              	.LVL341:
 1956              	.L198:
 1957              	.LBE145:
 1958              	.LBE150:
 693:..\u8g2-master\csrc/u8x8_d_st7565.c **** 	u8x8_cad_SendSequence(u8x8, u8x8_d_st7565_lm6059_init_seq);
 1959              		.loc 1 693 0
 1960 00ba FFF7FEFF 		bl	u8x8_d_helper_display_init
 1961              	.LVL342:
 694:..\u8g2-master\csrc/u8x8_d_st7565.c **** 	break;
 1962              		.loc 1 694 0
 1963 00be 2846     		mov	r0, r5
 1964 00c0 1449     		ldr	r1, .L213+4
 1965 00c2 FFF7FEFF 		bl	u8x8_cad_SendSequence
 1966              	.LVL343:
 1967              		.loc 1 712 0
 1968 00c6 0120     		movs	r0, #1
ARM GAS  C:\Users\info\AppData\Local\Temp\ccQPGqkW.s 			page 53


 695:..\u8g2-master\csrc/u8x8_d_st7565.c ****       case U8X8_MSG_DISPLAY_SET_FLIP_MODE:
 1969              		.loc 1 695 0
 1970 00c8 BDE8F081 		pop	{r4, r5, r6, r7, r8, pc}
 1971              	.LVL344:
 1972              	.L195:
 1973              	.LBB151:
 1974              	.LBB146:
 165:..\u8g2-master\csrc/u8x8_d_st7565.c ****       break;
 1975              		.loc 1 165 0
 1976 00cc 1249     		ldr	r1, .L213+8
 1977              	.LVL345:
 1978 00ce FFF7FEFF 		bl	u8x8_cad_SendSequence
 1979              	.LVL346:
 1980              	.LBE146:
 1981              	.LBE151:
 1982              		.loc 1 712 0
 1983 00d2 0120     		movs	r0, #1
 1984 00d4 BDE8F081 		pop	{r4, r5, r6, r7, r8, pc}
 1985              	.LVL347:
 1986              	.L211:
 690:..\u8g2-master\csrc/u8x8_d_st7565.c **** 	break;
 1987              		.loc 1 690 0
 1988 00d8 1049     		ldr	r1, .L213+12
 1989              	.LVL348:
 1990 00da FFF7FEFF 		bl	u8x8_d_helper_display_setup_memory
 1991              	.LVL349:
 1992              		.loc 1 712 0
 1993 00de 0120     		movs	r0, #1
 691:..\u8g2-master\csrc/u8x8_d_st7565.c ****       case U8X8_MSG_DISPLAY_INIT:
 1994              		.loc 1 691 0
 1995 00e0 BDE8F081 		pop	{r4, r5, r6, r7, r8, pc}
 1996              	.LVL350:
 1997              	.L199:
 697:..\u8g2-master\csrc/u8x8_d_st7565.c **** 	{
 1998              		.loc 1 697 0
 1999 00e4 4CB1     		cbz	r4, .L212
 704:..\u8g2-master\csrc/u8x8_d_st7565.c **** 	  u8x8->x_offset = u8x8->display_info->flipmode_x_offset;
 2000              		.loc 1 704 0
 2001 00e6 0E49     		ldr	r1, .L213+16
 2002              	.LVL351:
 2003 00e8 FFF7FEFF 		bl	u8x8_cad_SendSequence
 2004              	.LVL352:
 705:..\u8g2-master\csrc/u8x8_d_st7565.c **** 	}	
 2005              		.loc 1 705 0
 2006 00ec 2B68     		ldr	r3, [r5]
 2007              		.loc 1 712 0
 2008 00ee 0120     		movs	r0, #1
 705:..\u8g2-master\csrc/u8x8_d_st7565.c **** 	}	
 2009              		.loc 1 705 0
 2010 00f0 DB7C     		ldrb	r3, [r3, #19]	@ zero_extendqisi2
 2011 00f2 85F82230 		strb	r3, [r5, #34]
 2012 00f6 BDE8F081 		pop	{r4, r5, r6, r7, r8, pc}
 2013              	.LVL353:
 2014              	.L212:
 699:..\u8g2-master\csrc/u8x8_d_st7565.c **** 	  u8x8->x_offset = u8x8->display_info->default_x_offset;
 2015              		.loc 1 699 0
 2016 00fa 0A49     		ldr	r1, .L213+20
ARM GAS  C:\Users\info\AppData\Local\Temp\ccQPGqkW.s 			page 54


 2017              	.LVL354:
 2018 00fc FFF7FEFF 		bl	u8x8_cad_SendSequence
 2019              	.LVL355:
 700:..\u8g2-master\csrc/u8x8_d_st7565.c **** 	}
 2020              		.loc 1 700 0
 2021 0100 2B68     		ldr	r3, [r5]
 2022              		.loc 1 712 0
 2023 0102 0120     		movs	r0, #1
 700:..\u8g2-master\csrc/u8x8_d_st7565.c **** 	}
 2024              		.loc 1 700 0
 2025 0104 9B7C     		ldrb	r3, [r3, #18]	@ zero_extendqisi2
 2026 0106 85F82230 		strb	r3, [r5, #34]
 2027 010a BDE8F081 		pop	{r4, r5, r6, r7, r8, pc}
 2028              	.LVL356:
 2029              	.L214:
 2030 010e 00BF     		.align	2
 2031              	.L213:
 2032 0110 00000000 		.word	.LANCHOR0
 2033 0114 58010000 		.word	.LANCHOR0+344
 2034 0118 08000000 		.word	.LANCHOR0+8
 2035 011c 40010000 		.word	.LANCHOR0+320
 2036 0120 4C000000 		.word	.LANCHOR0+76
 2037 0124 54000000 		.word	.LANCHOR0+84
 2038              		.cfi_endproc
 2039              	.LFE7:
 2040              		.size	u8x8_d_st7565_lm6059, .-u8x8_d_st7565_lm6059
 2041              		.section	.text.u8x8_d_st7565_lx12864,"ax",%progbits
 2042              		.align	2
 2043              		.global	u8x8_d_st7565_lx12864
 2044              		.thumb
 2045              		.thumb_func
 2046              		.type	u8x8_d_st7565_lx12864, %function
 2047              	u8x8_d_st7565_lx12864:
 2048              	.LFB8:
 713:..\u8g2-master\csrc/u8x8_d_st7565.c **** }
 714:..\u8g2-master\csrc/u8x8_d_st7565.c **** 
 715:..\u8g2-master\csrc/u8x8_d_st7565.c **** /*================================================*/
 716:..\u8g2-master\csrc/u8x8_d_st7565.c **** /* LX12864 issue 576 */
 717:..\u8g2-master\csrc/u8x8_d_st7565.c **** 
 718:..\u8g2-master\csrc/u8x8_d_st7565.c **** static const uint8_t u8x8_d_st7565_lx12864_init_seq[] = {
 719:..\u8g2-master\csrc/u8x8_d_st7565.c ****     
 720:..\u8g2-master\csrc/u8x8_d_st7565.c ****   U8X8_START_TRANSFER(),             	/* enable chip, delay is part of the transfer start */
 721:..\u8g2-master\csrc/u8x8_d_st7565.c ****   
 722:..\u8g2-master\csrc/u8x8_d_st7565.c ****   U8X8_C(0x0e2),            			/* soft reset */
 723:..\u8g2-master\csrc/u8x8_d_st7565.c ****   U8X8_C(0x0ae),		                /* display off */
 724:..\u8g2-master\csrc/u8x8_d_st7565.c ****   U8X8_C(0x060),		                /* set display start line to ... */
 725:..\u8g2-master\csrc/u8x8_d_st7565.c ****   
 726:..\u8g2-master\csrc/u8x8_d_st7565.c ****   U8X8_C(0x0a0),		                /* ADC set to reverse */
 727:..\u8g2-master\csrc/u8x8_d_st7565.c ****   U8X8_C(0x0c8),		                /* common output mode */
 728:..\u8g2-master\csrc/u8x8_d_st7565.c ****   //U8X8_C(0x0a1),		                /* ADC set to reverse */
 729:..\u8g2-master\csrc/u8x8_d_st7565.c ****   //U8X8_C(0x0c0),		                /* common output mode */
 730:..\u8g2-master\csrc/u8x8_d_st7565.c ****   // Flipmode
 731:..\u8g2-master\csrc/u8x8_d_st7565.c ****   // U8X8_C(0x0a0),		                /* ADC set to reverse */
 732:..\u8g2-master\csrc/u8x8_d_st7565.c ****   // U8X8_C(0x0c8),		                /* common output mode */
 733:..\u8g2-master\csrc/u8x8_d_st7565.c ****   
 734:..\u8g2-master\csrc/u8x8_d_st7565.c ****   U8X8_C(0x0a6),		                /* display normal, bit val 0: LCD pixel off. */
 735:..\u8g2-master\csrc/u8x8_d_st7565.c ****   U8X8_C(0x0a2),		                /* LCD bias 1/9 */
ARM GAS  C:\Users\info\AppData\Local\Temp\ccQPGqkW.s 			page 55


 736:..\u8g2-master\csrc/u8x8_d_st7565.c ****   U8X8_C(0x02f),		                /* all power  control circuits on (regulator, booster and followe
 737:..\u8g2-master\csrc/u8x8_d_st7565.c ****   U8X8_CA(0x0f8, 0x000),		/* set booster ratio to 4x (ST7567 feature) */
 738:..\u8g2-master\csrc/u8x8_d_st7565.c ****   U8X8_C(0x027),		                /* set V0 voltage resistor ratio to max  */
 739:..\u8g2-master\csrc/u8x8_d_st7565.c ****   U8X8_CA(0x081, 0x008),		/* set contrast, contrast value */
 740:..\u8g2-master\csrc/u8x8_d_st7565.c ****   
 741:..\u8g2-master\csrc/u8x8_d_st7565.c ****   U8X8_C(0x0ae),		                /* display off */
 742:..\u8g2-master\csrc/u8x8_d_st7565.c ****   U8X8_C(0x0a5),		                /* enter powersafe: all pixel on, issue 142 */
 743:..\u8g2-master\csrc/u8x8_d_st7565.c ****   
 744:..\u8g2-master\csrc/u8x8_d_st7565.c ****   U8X8_END_TRANSFER(),             	/* disable chip */
 745:..\u8g2-master\csrc/u8x8_d_st7565.c ****   U8X8_END()             			/* end of sequence */
 746:..\u8g2-master\csrc/u8x8_d_st7565.c **** };
 747:..\u8g2-master\csrc/u8x8_d_st7565.c **** 
 748:..\u8g2-master\csrc/u8x8_d_st7565.c **** static const u8x8_display_info_t u8x8_st7565_lx12864_display_info =
 749:..\u8g2-master\csrc/u8x8_d_st7565.c **** {
 750:..\u8g2-master\csrc/u8x8_d_st7565.c ****   /* chip_enable_level = */ 0,
 751:..\u8g2-master\csrc/u8x8_d_st7565.c ****   /* chip_disable_level = */ 1,
 752:..\u8g2-master\csrc/u8x8_d_st7565.c ****   
 753:..\u8g2-master\csrc/u8x8_d_st7565.c ****   /* post_chip_enable_wait_ns = */ 150,	/* st7565 datasheet, table 26, tcsh */
 754:..\u8g2-master\csrc/u8x8_d_st7565.c ****   /* pre_chip_disable_wait_ns = */ 50,	/* st7565 datasheet, table 26, tcss */
 755:..\u8g2-master\csrc/u8x8_d_st7565.c ****   /* reset_pulse_width_ms = */ 1, 
 756:..\u8g2-master\csrc/u8x8_d_st7565.c ****   /* post_reset_wait_ms = */ 1, 
 757:..\u8g2-master\csrc/u8x8_d_st7565.c ****   /* sda_setup_time_ns = */ 50,		/* st7565 datasheet, table 26, tsds */
 758:..\u8g2-master\csrc/u8x8_d_st7565.c ****   /* sck_pulse_width_ns = */ 120,	/* half of cycle time (100ns according to datasheet), AVR: below 
 759:..\u8g2-master\csrc/u8x8_d_st7565.c ****   /* sck_clock_hz = */ 4000000UL,	/* since Arduino 1.6.0, the SPI bus speed in Hz. Should be  10000
 760:..\u8g2-master\csrc/u8x8_d_st7565.c ****   /* spi_mode = */ 0,		/* active high, rising edge */
 761:..\u8g2-master\csrc/u8x8_d_st7565.c ****   /* i2c_bus_clock_100kHz = */ 4,
 762:..\u8g2-master\csrc/u8x8_d_st7565.c ****   /* data_setup_time_ns = */ 40,	/* st7565 datasheet, table 24, tds8 */
 763:..\u8g2-master\csrc/u8x8_d_st7565.c ****   /* write_pulse_width_ns = */ 80,	/* st7565 datasheet, table 24, tcclw */
 764:..\u8g2-master\csrc/u8x8_d_st7565.c ****   /* tile_width = */ 16,		/* width of 16*8=128 pixel */
 765:..\u8g2-master\csrc/u8x8_d_st7565.c ****   /* tile_hight = */ 8,
 766:..\u8g2-master\csrc/u8x8_d_st7565.c ****   /* default_x_offset = */ 1,	/* not sure... */
 767:..\u8g2-master\csrc/u8x8_d_st7565.c ****   /* flipmode_x_offset = */ 3,
 768:..\u8g2-master\csrc/u8x8_d_st7565.c ****   /* pixel_width = */ 128,
 769:..\u8g2-master\csrc/u8x8_d_st7565.c ****   /* pixel_height = */ 64
 770:..\u8g2-master\csrc/u8x8_d_st7565.c **** };
 771:..\u8g2-master\csrc/u8x8_d_st7565.c **** 
 772:..\u8g2-master\csrc/u8x8_d_st7565.c **** uint8_t u8x8_d_st7565_lx12864(u8x8_t *u8x8, uint8_t msg, uint8_t arg_int, void *arg_ptr)
 773:..\u8g2-master\csrc/u8x8_d_st7565.c **** {
 2049              		.loc 1 773 0
 2050              		.cfi_startproc
 2051              		@ args = 0, pretend = 0, frame = 0
 2052              		@ frame_needed = 0, uses_anonymous_args = 0
 2053              	.LVL357:
 2054              	.LBB156:
 2055              	.LBB157:
 119:..\u8g2-master\csrc/u8x8_d_st7565.c ****   {
 2056              		.loc 1 119 0
 2057 0000 0E29     		cmp	r1, #14
 2058              	.LBE157:
 2059              	.LBE156:
 2060              		.loc 1 773 0
 2061 0002 2DE9F041 		push	{r4, r5, r6, r7, r8, lr}
 2062              		.cfi_def_cfa_offset 24
 2063              		.cfi_offset 4, -24
 2064              		.cfi_offset 5, -20
 2065              		.cfi_offset 6, -16
 2066              		.cfi_offset 7, -12
ARM GAS  C:\Users\info\AppData\Local\Temp\ccQPGqkW.s 			page 56


 2067              		.cfi_offset 8, -8
 2068              		.cfi_offset 14, -4
 2069              		.loc 1 773 0
 2070 0006 1446     		mov	r4, r2
 2071 0008 0546     		mov	r5, r0
 2072              	.LVL358:
 2073              	.LBB165:
 2074              	.LBB160:
 119:..\u8g2-master\csrc/u8x8_d_st7565.c ****   {
 2075              		.loc 1 119 0
 2076 000a 4BD0     		beq	.L217
 2077 000c 0F29     		cmp	r1, #15
 2078 000e 12D0     		beq	.L218
 2079 0010 0B29     		cmp	r1, #11
 2080 0012 08D0     		beq	.L238
 2081              	.LVL359:
 2082              	.LBE160:
 2083              	.LBE165:
 774:..\u8g2-master\csrc/u8x8_d_st7565.c ****   /* call common procedure first and handle messages there */
 775:..\u8g2-master\csrc/u8x8_d_st7565.c ****   if ( u8x8_d_st7565_common(u8x8, msg, arg_int, arg_ptr) == 0 )
 776:..\u8g2-master\csrc/u8x8_d_st7565.c ****   {
 777:..\u8g2-master\csrc/u8x8_d_st7565.c ****     /* msg not handled, then try here */
 778:..\u8g2-master\csrc/u8x8_d_st7565.c ****     switch(msg)
 2084              		.loc 1 778 0
 2085 0014 0A29     		cmp	r1, #10
 2086 0016 50D0     		beq	.L226
 2087 0018 0D29     		cmp	r1, #13
 2088 001a 63D0     		beq	.L227
 2089 001c 0929     		cmp	r1, #9
 2090 001e 5BD0     		beq	.L239
 779:..\u8g2-master\csrc/u8x8_d_st7565.c ****     {
 780:..\u8g2-master\csrc/u8x8_d_st7565.c ****       case U8X8_MSG_DISPLAY_SETUP_MEMORY:
 781:..\u8g2-master\csrc/u8x8_d_st7565.c **** 	u8x8_d_helper_display_setup_memory(u8x8, &u8x8_st7565_lx12864_display_info);
 782:..\u8g2-master\csrc/u8x8_d_st7565.c **** 	break;
 783:..\u8g2-master\csrc/u8x8_d_st7565.c ****       case U8X8_MSG_DISPLAY_INIT:
 784:..\u8g2-master\csrc/u8x8_d_st7565.c **** 	u8x8_d_helper_display_init(u8x8);
 785:..\u8g2-master\csrc/u8x8_d_st7565.c **** 	u8x8_cad_SendSequence(u8x8, u8x8_d_st7565_lx12864_init_seq);
 786:..\u8g2-master\csrc/u8x8_d_st7565.c **** 	break;
 787:..\u8g2-master\csrc/u8x8_d_st7565.c ****       case U8X8_MSG_DISPLAY_SET_FLIP_MODE:
 788:..\u8g2-master\csrc/u8x8_d_st7565.c **** 	if ( arg_int == 0 )
 789:..\u8g2-master\csrc/u8x8_d_st7565.c **** 	{
 790:..\u8g2-master\csrc/u8x8_d_st7565.c **** 	  u8x8_cad_SendSequence(u8x8, u8x8_d_st7565_flip1_seq);
 791:..\u8g2-master\csrc/u8x8_d_st7565.c **** 	  u8x8->x_offset = u8x8->display_info->default_x_offset;
 792:..\u8g2-master\csrc/u8x8_d_st7565.c **** 	}
 793:..\u8g2-master\csrc/u8x8_d_st7565.c **** 	else
 794:..\u8g2-master\csrc/u8x8_d_st7565.c **** 	{
 795:..\u8g2-master\csrc/u8x8_d_st7565.c **** 	  u8x8_cad_SendSequence(u8x8, u8x8_d_st7565_flip0_seq);
 796:..\u8g2-master\csrc/u8x8_d_st7565.c **** 	  u8x8->x_offset = u8x8->display_info->flipmode_x_offset;
 797:..\u8g2-master\csrc/u8x8_d_st7565.c **** 	}	
 798:..\u8g2-master\csrc/u8x8_d_st7565.c **** 	break;
 799:..\u8g2-master\csrc/u8x8_d_st7565.c ****       default:
 800:..\u8g2-master\csrc/u8x8_d_st7565.c **** 	return 0;		/* msg unknown */
 2091              		.loc 1 800 0
 2092 0020 0020     		movs	r0, #0
 2093              	.LVL360:
 2094 0022 BDE8F081 		pop	{r4, r5, r6, r7, r8, pc}
 2095              	.LVL361:
ARM GAS  C:\Users\info\AppData\Local\Temp\ccQPGqkW.s 			page 57


 2096              	.L238:
 2097              	.LBB166:
 2098              	.LBB161:
 162:..\u8g2-master\csrc/u8x8_d_st7565.c **** 	u8x8_cad_SendSequence(u8x8, u8x8_d_st7565_powersave0_seq);
 2099              		.loc 1 162 0
 2100 0026 002A     		cmp	r2, #0
 2101 0028 50D1     		bne	.L223
 163:..\u8g2-master\csrc/u8x8_d_st7565.c ****       else
 2102              		.loc 1 163 0
 2103 002a 3949     		ldr	r1, .L241
 2104              	.LVL362:
 2105 002c FFF7FEFF 		bl	u8x8_cad_SendSequence
 2106              	.LVL363:
 2107              	.LBE161:
 2108              	.LBE166:
 801:..\u8g2-master\csrc/u8x8_d_st7565.c ****     }
 802:..\u8g2-master\csrc/u8x8_d_st7565.c ****   }
 803:..\u8g2-master\csrc/u8x8_d_st7565.c ****   return 1;
 2109              		.loc 1 803 0
 2110 0030 0120     		movs	r0, #1
 2111 0032 BDE8F081 		pop	{r4, r5, r6, r7, r8, pc}
 2112              	.LVL364:
 2113              	.L218:
 2114 0036 1F46     		mov	r7, r3
 2115              	.LVL365:
 2116              	.LBB167:
 2117              	.LBB162:
 2118              	.LBB158:
 2119              	.LBB159:
 122:..\u8g2-master\csrc/u8x8_d_st7565.c ****     
 2120              		.loc 1 122 0
 2121 0038 FFF7FEFF 		bl	u8x8_cad_StartTransfer
 2122              	.LVL366:
 126:..\u8g2-master\csrc/u8x8_d_st7565.c ****       u8x8_cad_SendCmd(u8x8, 0x010 | (x>>4) );
 2123              		.loc 1 126 0
 2124 003c 95F82230 		ldrb	r3, [r5, #34]	@ zero_extendqisi2
 124:..\u8g2-master\csrc/u8x8_d_st7565.c ****       x *= 8;
 2125              		.loc 1 124 0
 2126 0040 97F80580 		ldrb	r8, [r7, #5]	@ zero_extendqisi2
 2127              	.LVL367:
 127:..\u8g2-master\csrc/u8x8_d_st7565.c ****       u8x8_cad_SendCmd(u8x8, 0x000 | ((x&15)));
 2128              		.loc 1 127 0
 2129 0044 2846     		mov	r0, r5
 126:..\u8g2-master\csrc/u8x8_d_st7565.c ****       u8x8_cad_SendCmd(u8x8, 0x010 | (x>>4) );
 2130              		.loc 1 126 0
 2131 0046 03EBC808 		add	r8, r3, r8, lsl #3
 2132              	.LVL368:
 2133 004a 08F0FF08 		and	r8, r8, #255
 2134              	.LVL369:
 127:..\u8g2-master\csrc/u8x8_d_st7565.c ****       u8x8_cad_SendCmd(u8x8, 0x000 | ((x&15)));
 2135              		.loc 1 127 0
 2136 004e 4FEA1811 		lsr	r1, r8, #4
 2137 0052 41F01001 		orr	r1, r1, #16
 2138 0056 FFF7FEFF 		bl	u8x8_cad_SendCmd
 2139              	.LVL370:
 128:..\u8g2-master\csrc/u8x8_d_st7565.c ****       u8x8_cad_SendCmd(u8x8, 0x0b0 | (((u8x8_tile_t *)arg_ptr)->y_pos));
 2140              		.loc 1 128 0
ARM GAS  C:\Users\info\AppData\Local\Temp\ccQPGqkW.s 			page 58


 2141 005a 08F00F01 		and	r1, r8, #15
 2142 005e 2846     		mov	r0, r5
 2143 0060 FFF7FEFF 		bl	u8x8_cad_SendCmd
 2144              	.LVL371:
 129:..\u8g2-master\csrc/u8x8_d_st7565.c ****     
 2145              		.loc 1 129 0
 2146 0064 B979     		ldrb	r1, [r7, #6]	@ zero_extendqisi2
 2147 0066 2846     		mov	r0, r5
 2148 0068 41F0B001 		orr	r1, r1, #176
 2149 006c FFF7FEFF 		bl	u8x8_cad_SendCmd
 2150              	.LVL372:
 131:..\u8g2-master\csrc/u8x8_d_st7565.c ****       c *= 8;
 2151              		.loc 1 131 0
 2152 0070 3E79     		ldrb	r6, [r7, #4]	@ zero_extendqisi2
 2153              	.LVL373:
 133:..\u8g2-master\csrc/u8x8_d_st7565.c ****       /* 
 2154              		.loc 1 133 0
 2155 0072 3F68     		ldr	r7, [r7]
 2156              	.LVL374:
 132:..\u8g2-master\csrc/u8x8_d_st7565.c ****       ptr = ((u8x8_tile_t *)arg_ptr)->tile_ptr;
 2157              		.loc 1 132 0
 2158 0074 F600     		lsls	r6, r6, #3
 2159              	.LVL375:
 2160 0076 F6B2     		uxtb	r6, r6
 2161              	.LVL376:
 139:..\u8g2-master\csrc/u8x8_d_st7565.c ****       {
 2162              		.loc 1 139 0
 2163 0078 06EB0803 		add	r3, r6, r8
 2164 007c 842B     		cmp	r3, #132
 2165              	.LVL377:
 142:..\u8g2-master\csrc/u8x8_d_st7565.c ****       }
 2166              		.loc 1 142 0
 2167 007e C4BF     		itt	gt
 2168 0080 C8F18406 		rsbgt	r6, r8, #132
 2169 0084 F6B2     		uxtbgt	r6, r6
 2170              	.LVL378:
 2171              	.L221:
 146:..\u8g2-master\csrc/u8x8_d_st7565.c **** 	arg_int--;
 2172              		.loc 1 146 0
 2173 0086 3A46     		mov	r2, r7
 2174 0088 3146     		mov	r1, r6
 2175 008a 2846     		mov	r0, r5
 2176 008c FFF7FEFF 		bl	u8x8_cad_SendData
 2177              	.LVL379:
 147:..\u8g2-master\csrc/u8x8_d_st7565.c ****       } while( arg_int > 0 );
 2178              		.loc 1 147 0
 2179 0090 621E     		subs	r2, r4, #1
 2180              	.LVL380:
 148:..\u8g2-master\csrc/u8x8_d_st7565.c ****       
 2181              		.loc 1 148 0
 2182 0092 12F0FF04 		ands	r4, r2, #255
 2183 0096 F6D1     		bne	.L221
 2184              	.LVL381:
 2185              	.L235:
 2186              	.LBE159:
 2187              	.LBE158:
 172:..\u8g2-master\csrc/u8x8_d_st7565.c ****       break;
ARM GAS  C:\Users\info\AppData\Local\Temp\ccQPGqkW.s 			page 59


 2188              		.loc 1 172 0
 2189 0098 2846     		mov	r0, r5
 2190 009a FFF7FEFF 		bl	u8x8_cad_EndTransfer
 2191              	.LVL382:
 2192              	.LBE162:
 2193              	.LBE167:
 2194              		.loc 1 803 0
 2195 009e 0120     		movs	r0, #1
 2196 00a0 BDE8F081 		pop	{r4, r5, r6, r7, r8, pc}
 2197              	.LVL383:
 2198              	.L217:
 2199              	.LBB168:
 2200              	.LBB163:
 169:..\u8g2-master\csrc/u8x8_d_st7565.c ****       u8x8_cad_SendCmd(u8x8, 0x081 );
 2201              		.loc 1 169 0
 2202 00a4 FFF7FEFF 		bl	u8x8_cad_StartTransfer
 2203              	.LVL384:
 170:..\u8g2-master\csrc/u8x8_d_st7565.c ****       u8x8_cad_SendArg(u8x8, arg_int >> 2 );	/* st7565 has range from 0 to 63 */
 2204              		.loc 1 170 0
 2205 00a8 8121     		movs	r1, #129
 2206 00aa 2846     		mov	r0, r5
 2207 00ac FFF7FEFF 		bl	u8x8_cad_SendCmd
 2208              	.LVL385:
 171:..\u8g2-master\csrc/u8x8_d_st7565.c ****       u8x8_cad_EndTransfer(u8x8);
 2209              		.loc 1 171 0
 2210 00b0 A108     		lsrs	r1, r4, #2
 2211 00b2 2846     		mov	r0, r5
 2212 00b4 FFF7FEFF 		bl	u8x8_cad_SendArg
 2213              	.LVL386:
 2214 00b8 EEE7     		b	.L235
 2215              	.LVL387:
 2216              	.L226:
 2217              	.LBE163:
 2218              	.LBE168:
 784:..\u8g2-master\csrc/u8x8_d_st7565.c **** 	u8x8_cad_SendSequence(u8x8, u8x8_d_st7565_lx12864_init_seq);
 2219              		.loc 1 784 0
 2220 00ba FFF7FEFF 		bl	u8x8_d_helper_display_init
 2221              	.LVL388:
 785:..\u8g2-master\csrc/u8x8_d_st7565.c **** 	break;
 2222              		.loc 1 785 0
 2223 00be 2846     		mov	r0, r5
 2224 00c0 1449     		ldr	r1, .L241+4
 2225 00c2 FFF7FEFF 		bl	u8x8_cad_SendSequence
 2226              	.LVL389:
 2227              		.loc 1 803 0
 2228 00c6 0120     		movs	r0, #1
 786:..\u8g2-master\csrc/u8x8_d_st7565.c ****       case U8X8_MSG_DISPLAY_SET_FLIP_MODE:
 2229              		.loc 1 786 0
 2230 00c8 BDE8F081 		pop	{r4, r5, r6, r7, r8, pc}
 2231              	.LVL390:
 2232              	.L223:
 2233              	.LBB169:
 2234              	.LBB164:
 165:..\u8g2-master\csrc/u8x8_d_st7565.c ****       break;
 2235              		.loc 1 165 0
 2236 00cc 1249     		ldr	r1, .L241+8
 2237              	.LVL391:
ARM GAS  C:\Users\info\AppData\Local\Temp\ccQPGqkW.s 			page 60


 2238 00ce FFF7FEFF 		bl	u8x8_cad_SendSequence
 2239              	.LVL392:
 2240              	.LBE164:
 2241              	.LBE169:
 2242              		.loc 1 803 0
 2243 00d2 0120     		movs	r0, #1
 2244 00d4 BDE8F081 		pop	{r4, r5, r6, r7, r8, pc}
 2245              	.LVL393:
 2246              	.L239:
 781:..\u8g2-master\csrc/u8x8_d_st7565.c **** 	break;
 2247              		.loc 1 781 0
 2248 00d8 1049     		ldr	r1, .L241+12
 2249              	.LVL394:
 2250 00da FFF7FEFF 		bl	u8x8_d_helper_display_setup_memory
 2251              	.LVL395:
 2252              		.loc 1 803 0
 2253 00de 0120     		movs	r0, #1
 782:..\u8g2-master\csrc/u8x8_d_st7565.c ****       case U8X8_MSG_DISPLAY_INIT:
 2254              		.loc 1 782 0
 2255 00e0 BDE8F081 		pop	{r4, r5, r6, r7, r8, pc}
 2256              	.LVL396:
 2257              	.L227:
 788:..\u8g2-master\csrc/u8x8_d_st7565.c **** 	{
 2258              		.loc 1 788 0
 2259 00e4 4CB1     		cbz	r4, .L240
 795:..\u8g2-master\csrc/u8x8_d_st7565.c **** 	  u8x8->x_offset = u8x8->display_info->flipmode_x_offset;
 2260              		.loc 1 795 0
 2261 00e6 0E49     		ldr	r1, .L241+16
 2262              	.LVL397:
 2263 00e8 FFF7FEFF 		bl	u8x8_cad_SendSequence
 2264              	.LVL398:
 796:..\u8g2-master\csrc/u8x8_d_st7565.c **** 	}	
 2265              		.loc 1 796 0
 2266 00ec 2B68     		ldr	r3, [r5]
 2267              		.loc 1 803 0
 2268 00ee 0120     		movs	r0, #1
 796:..\u8g2-master\csrc/u8x8_d_st7565.c **** 	}	
 2269              		.loc 1 796 0
 2270 00f0 DB7C     		ldrb	r3, [r3, #19]	@ zero_extendqisi2
 2271 00f2 85F82230 		strb	r3, [r5, #34]
 2272 00f6 BDE8F081 		pop	{r4, r5, r6, r7, r8, pc}
 2273              	.LVL399:
 2274              	.L240:
 790:..\u8g2-master\csrc/u8x8_d_st7565.c **** 	  u8x8->x_offset = u8x8->display_info->default_x_offset;
 2275              		.loc 1 790 0
 2276 00fa 0A49     		ldr	r1, .L241+20
 2277              	.LVL400:
 2278 00fc FFF7FEFF 		bl	u8x8_cad_SendSequence
 2279              	.LVL401:
 791:..\u8g2-master\csrc/u8x8_d_st7565.c **** 	}
 2280              		.loc 1 791 0
 2281 0100 2B68     		ldr	r3, [r5]
 2282              		.loc 1 803 0
 2283 0102 0120     		movs	r0, #1
 791:..\u8g2-master\csrc/u8x8_d_st7565.c **** 	}
 2284              		.loc 1 791 0
 2285 0104 9B7C     		ldrb	r3, [r3, #18]	@ zero_extendqisi2
ARM GAS  C:\Users\info\AppData\Local\Temp\ccQPGqkW.s 			page 61


 2286 0106 85F82230 		strb	r3, [r5, #34]
 2287 010a BDE8F081 		pop	{r4, r5, r6, r7, r8, pc}
 2288              	.LVL402:
 2289              	.L242:
 2290 010e 00BF     		.align	2
 2291              	.L241:
 2292 0110 00000000 		.word	.LANCHOR0
 2293 0114 94010000 		.word	.LANCHOR0+404
 2294 0118 08000000 		.word	.LANCHOR0+8
 2295 011c 7C010000 		.word	.LANCHOR0+380
 2296 0120 4C000000 		.word	.LANCHOR0+76
 2297 0124 54000000 		.word	.LANCHOR0+84
 2298              		.cfi_endproc
 2299              	.LFE8:
 2300              		.size	u8x8_d_st7565_lx12864, .-u8x8_d_st7565_lx12864
 2301              		.section	.text.u8x8_d_st7565_erc12864,"ax",%progbits
 2302              		.align	2
 2303              		.global	u8x8_d_st7565_erc12864
 2304              		.thumb
 2305              		.thumb_func
 2306              		.type	u8x8_d_st7565_erc12864, %function
 2307              	u8x8_d_st7565_erc12864:
 2308              	.LFB9:
 804:..\u8g2-master\csrc/u8x8_d_st7565.c **** }
 805:..\u8g2-master\csrc/u8x8_d_st7565.c **** 
 806:..\u8g2-master\csrc/u8x8_d_st7565.c **** 
 807:..\u8g2-master\csrc/u8x8_d_st7565.c **** /*================================================*/
 808:..\u8g2-master\csrc/u8x8_d_st7565.c **** /* ERC12864-1 (buydisplay.com) */
 809:..\u8g2-master\csrc/u8x8_d_st7565.c **** 
 810:..\u8g2-master\csrc/u8x8_d_st7565.c **** static const uint8_t u8x8_d_st7565_erc12864_init_seq[] = {
 811:..\u8g2-master\csrc/u8x8_d_st7565.c ****     
 812:..\u8g2-master\csrc/u8x8_d_st7565.c ****   U8X8_START_TRANSFER(),             	/* enable chip, delay is part of the transfer start */
 813:..\u8g2-master\csrc/u8x8_d_st7565.c ****   
 814:..\u8g2-master\csrc/u8x8_d_st7565.c ****   U8X8_C(0x0e2),            			/* soft reset */
 815:..\u8g2-master\csrc/u8x8_d_st7565.c ****   U8X8_C(0x0ae),		                /* display off */
 816:..\u8g2-master\csrc/u8x8_d_st7565.c ****   U8X8_C(0x040),		                /* set display start line to ... */
 817:..\u8g2-master\csrc/u8x8_d_st7565.c ****   
 818:..\u8g2-master\csrc/u8x8_d_st7565.c ****   U8X8_C(0x0a0),		                /* ADC set to reverse */
 819:..\u8g2-master\csrc/u8x8_d_st7565.c ****   U8X8_C(0x0c8),		                /* common output mode */
 820:..\u8g2-master\csrc/u8x8_d_st7565.c ****   //U8X8_C(0x0a1),		                /* ADC set to reverse */
 821:..\u8g2-master\csrc/u8x8_d_st7565.c ****   //U8X8_C(0x0c0),		                /* common output mode */
 822:..\u8g2-master\csrc/u8x8_d_st7565.c ****   // Flipmode
 823:..\u8g2-master\csrc/u8x8_d_st7565.c ****   // U8X8_C(0x0a0),		                /* ADC set to reverse */
 824:..\u8g2-master\csrc/u8x8_d_st7565.c ****   // U8X8_C(0x0c8),		                /* common output mode */
 825:..\u8g2-master\csrc/u8x8_d_st7565.c ****   
 826:..\u8g2-master\csrc/u8x8_d_st7565.c ****   U8X8_C(0x0a6),		                /* display normal, bit val 0: LCD pixel off. */
 827:..\u8g2-master\csrc/u8x8_d_st7565.c ****   U8X8_C(0x0a3),		                /* LCD bias 1/9 */
 828:..\u8g2-master\csrc/u8x8_d_st7565.c ****   U8X8_C(0x02f),		                /* all power  control circuits on (regulator, booster and followe
 829:..\u8g2-master\csrc/u8x8_d_st7565.c ****   U8X8_CA(0x0f8, 0x000),		/* set booster ratio to 4x (ST7567 feature)*/
 830:..\u8g2-master\csrc/u8x8_d_st7565.c ****   U8X8_C(0x027),		                /* set V0 voltage resistor ratio to max  */
 831:..\u8g2-master\csrc/u8x8_d_st7565.c ****   U8X8_CA(0x081, 0x018),		/* set contrast, contrast value, EA default: 0x016 */
 832:..\u8g2-master\csrc/u8x8_d_st7565.c ****   
 833:..\u8g2-master\csrc/u8x8_d_st7565.c ****   U8X8_C(0x0ae),		                /* display off */
 834:..\u8g2-master\csrc/u8x8_d_st7565.c ****   U8X8_C(0x0a5),		                /* enter powersafe: all pixel on, issue 142 */
 835:..\u8g2-master\csrc/u8x8_d_st7565.c ****   
 836:..\u8g2-master\csrc/u8x8_d_st7565.c ****   U8X8_END_TRANSFER(),             	/* disable chip */
 837:..\u8g2-master\csrc/u8x8_d_st7565.c ****   U8X8_END()             			/* end of sequence */
ARM GAS  C:\Users\info\AppData\Local\Temp\ccQPGqkW.s 			page 62


 838:..\u8g2-master\csrc/u8x8_d_st7565.c **** };
 839:..\u8g2-master\csrc/u8x8_d_st7565.c **** 
 840:..\u8g2-master\csrc/u8x8_d_st7565.c **** static const u8x8_display_info_t u8x8_st7565_erc12864_display_info =
 841:..\u8g2-master\csrc/u8x8_d_st7565.c **** {
 842:..\u8g2-master\csrc/u8x8_d_st7565.c ****   /* chip_enable_level = */ 0,
 843:..\u8g2-master\csrc/u8x8_d_st7565.c ****   /* chip_disable_level = */ 1,
 844:..\u8g2-master\csrc/u8x8_d_st7565.c ****   
 845:..\u8g2-master\csrc/u8x8_d_st7565.c ****   /* post_chip_enable_wait_ns = */ 150,	/* st7565 datasheet, table 26, tcsh */
 846:..\u8g2-master\csrc/u8x8_d_st7565.c ****   /* pre_chip_disable_wait_ns = */ 50,	/* st7565 datasheet, table 26, tcss */
 847:..\u8g2-master\csrc/u8x8_d_st7565.c ****   /* reset_pulse_width_ms = */ 1, 
 848:..\u8g2-master\csrc/u8x8_d_st7565.c ****   /* post_reset_wait_ms = */ 1, 
 849:..\u8g2-master\csrc/u8x8_d_st7565.c ****   /* sda_setup_time_ns = */ 50,		/* st7565 datasheet, table 26, tsds */
 850:..\u8g2-master\csrc/u8x8_d_st7565.c ****   /* sck_pulse_width_ns = */ 120,	/* half of cycle time (100ns according to datasheet), AVR: below 
 851:..\u8g2-master\csrc/u8x8_d_st7565.c ****   /* sck_clock_hz = */ 4000000UL,	/* since Arduino 1.6.0, the SPI bus speed in Hz. Should be  10000
 852:..\u8g2-master\csrc/u8x8_d_st7565.c ****   /* spi_mode = */ 0,		/* active high, rising edge */
 853:..\u8g2-master\csrc/u8x8_d_st7565.c ****   /* i2c_bus_clock_100kHz = */ 4,
 854:..\u8g2-master\csrc/u8x8_d_st7565.c ****   /* data_setup_time_ns = */ 40,	/* st7565 datasheet, table 24, tds8 */
 855:..\u8g2-master\csrc/u8x8_d_st7565.c ****   /* write_pulse_width_ns = */ 80,	/* st7565 datasheet, table 24, tcclw */
 856:..\u8g2-master\csrc/u8x8_d_st7565.c ****   /* tile_width = */ 16,		/* width of 16*8=128 pixel */
 857:..\u8g2-master\csrc/u8x8_d_st7565.c ****   /* tile_hight = */ 8,
 858:..\u8g2-master\csrc/u8x8_d_st7565.c ****   /* default_x_offset = */ 0,
 859:..\u8g2-master\csrc/u8x8_d_st7565.c ****   /* flipmode_x_offset = */ 4,
 860:..\u8g2-master\csrc/u8x8_d_st7565.c ****   /* pixel_width = */ 128,
 861:..\u8g2-master\csrc/u8x8_d_st7565.c ****   /* pixel_height = */ 64
 862:..\u8g2-master\csrc/u8x8_d_st7565.c **** };
 863:..\u8g2-master\csrc/u8x8_d_st7565.c **** 
 864:..\u8g2-master\csrc/u8x8_d_st7565.c **** uint8_t u8x8_d_st7565_erc12864(u8x8_t *u8x8, uint8_t msg, uint8_t arg_int, void *arg_ptr)
 865:..\u8g2-master\csrc/u8x8_d_st7565.c **** {
 2309              		.loc 1 865 0
 2310              		.cfi_startproc
 2311              		@ args = 0, pretend = 0, frame = 0
 2312              		@ frame_needed = 0, uses_anonymous_args = 0
 2313              	.LVL403:
 2314              	.LBB174:
 2315              	.LBB175:
 119:..\u8g2-master\csrc/u8x8_d_st7565.c ****   {
 2316              		.loc 1 119 0
 2317 0000 0E29     		cmp	r1, #14
 2318              	.LBE175:
 2319              	.LBE174:
 2320              		.loc 1 865 0
 2321 0002 2DE9F041 		push	{r4, r5, r6, r7, r8, lr}
 2322              		.cfi_def_cfa_offset 24
 2323              		.cfi_offset 4, -24
 2324              		.cfi_offset 5, -20
 2325              		.cfi_offset 6, -16
 2326              		.cfi_offset 7, -12
 2327              		.cfi_offset 8, -8
 2328              		.cfi_offset 14, -4
 2329              		.loc 1 865 0
 2330 0006 1446     		mov	r4, r2
 2331 0008 0546     		mov	r5, r0
 2332              	.LVL404:
 2333              	.LBB183:
 2334              	.LBB178:
 119:..\u8g2-master\csrc/u8x8_d_st7565.c ****   {
 2335              		.loc 1 119 0
ARM GAS  C:\Users\info\AppData\Local\Temp\ccQPGqkW.s 			page 63


 2336 000a 4BD0     		beq	.L245
 2337 000c 0F29     		cmp	r1, #15
 2338 000e 12D0     		beq	.L246
 2339 0010 0B29     		cmp	r1, #11
 2340 0012 08D0     		beq	.L266
 2341              	.LVL405:
 2342              	.LBE178:
 2343              	.LBE183:
 866:..\u8g2-master\csrc/u8x8_d_st7565.c ****   /* call common procedure first and handle messages there */
 867:..\u8g2-master\csrc/u8x8_d_st7565.c ****   if ( u8x8_d_st7565_common(u8x8, msg, arg_int, arg_ptr) == 0 )
 868:..\u8g2-master\csrc/u8x8_d_st7565.c ****   {
 869:..\u8g2-master\csrc/u8x8_d_st7565.c ****     /* msg not handled, then try here */
 870:..\u8g2-master\csrc/u8x8_d_st7565.c ****     switch(msg)
 2344              		.loc 1 870 0
 2345 0014 0A29     		cmp	r1, #10
 2346 0016 50D0     		beq	.L254
 2347 0018 0D29     		cmp	r1, #13
 2348 001a 63D0     		beq	.L255
 2349 001c 0929     		cmp	r1, #9
 2350 001e 5BD0     		beq	.L267
 871:..\u8g2-master\csrc/u8x8_d_st7565.c ****     {
 872:..\u8g2-master\csrc/u8x8_d_st7565.c ****       case U8X8_MSG_DISPLAY_SETUP_MEMORY:
 873:..\u8g2-master\csrc/u8x8_d_st7565.c **** 	u8x8_d_helper_display_setup_memory(u8x8, &u8x8_st7565_erc12864_display_info);
 874:..\u8g2-master\csrc/u8x8_d_st7565.c **** 	break;
 875:..\u8g2-master\csrc/u8x8_d_st7565.c ****       case U8X8_MSG_DISPLAY_INIT:
 876:..\u8g2-master\csrc/u8x8_d_st7565.c **** 	u8x8_d_helper_display_init(u8x8);
 877:..\u8g2-master\csrc/u8x8_d_st7565.c **** 	u8x8_cad_SendSequence(u8x8, u8x8_d_st7565_erc12864_init_seq);
 878:..\u8g2-master\csrc/u8x8_d_st7565.c **** 	break;
 879:..\u8g2-master\csrc/u8x8_d_st7565.c ****       case U8X8_MSG_DISPLAY_SET_FLIP_MODE:
 880:..\u8g2-master\csrc/u8x8_d_st7565.c **** 	if ( arg_int == 0 )
 881:..\u8g2-master\csrc/u8x8_d_st7565.c **** 	{
 882:..\u8g2-master\csrc/u8x8_d_st7565.c **** 	  u8x8_cad_SendSequence(u8x8, u8x8_d_st7565_flip1_seq);
 883:..\u8g2-master\csrc/u8x8_d_st7565.c **** 	  u8x8->x_offset = u8x8->display_info->default_x_offset;
 884:..\u8g2-master\csrc/u8x8_d_st7565.c **** 	}
 885:..\u8g2-master\csrc/u8x8_d_st7565.c **** 	else
 886:..\u8g2-master\csrc/u8x8_d_st7565.c **** 	{
 887:..\u8g2-master\csrc/u8x8_d_st7565.c **** 	  u8x8_cad_SendSequence(u8x8, u8x8_d_st7565_flip0_seq);
 888:..\u8g2-master\csrc/u8x8_d_st7565.c **** 	  u8x8->x_offset = u8x8->display_info->flipmode_x_offset;
 889:..\u8g2-master\csrc/u8x8_d_st7565.c **** 	}	
 890:..\u8g2-master\csrc/u8x8_d_st7565.c **** 	break;
 891:..\u8g2-master\csrc/u8x8_d_st7565.c ****       default:
 892:..\u8g2-master\csrc/u8x8_d_st7565.c **** 	return 0;		/* msg unknown */
 2351              		.loc 1 892 0
 2352 0020 0020     		movs	r0, #0
 2353              	.LVL406:
 2354 0022 BDE8F081 		pop	{r4, r5, r6, r7, r8, pc}
 2355              	.LVL407:
 2356              	.L266:
 2357              	.LBB184:
 2358              	.LBB179:
 162:..\u8g2-master\csrc/u8x8_d_st7565.c **** 	u8x8_cad_SendSequence(u8x8, u8x8_d_st7565_powersave0_seq);
 2359              		.loc 1 162 0
 2360 0026 002A     		cmp	r2, #0
 2361 0028 50D1     		bne	.L251
 163:..\u8g2-master\csrc/u8x8_d_st7565.c ****       else
 2362              		.loc 1 163 0
 2363 002a 3949     		ldr	r1, .L269
ARM GAS  C:\Users\info\AppData\Local\Temp\ccQPGqkW.s 			page 64


 2364              	.LVL408:
 2365 002c FFF7FEFF 		bl	u8x8_cad_SendSequence
 2366              	.LVL409:
 2367              	.LBE179:
 2368              	.LBE184:
 893:..\u8g2-master\csrc/u8x8_d_st7565.c ****     }
 894:..\u8g2-master\csrc/u8x8_d_st7565.c ****   }
 895:..\u8g2-master\csrc/u8x8_d_st7565.c ****   return 1;
 2369              		.loc 1 895 0
 2370 0030 0120     		movs	r0, #1
 2371 0032 BDE8F081 		pop	{r4, r5, r6, r7, r8, pc}
 2372              	.LVL410:
 2373              	.L246:
 2374 0036 1F46     		mov	r7, r3
 2375              	.LVL411:
 2376              	.LBB185:
 2377              	.LBB180:
 2378              	.LBB176:
 2379              	.LBB177:
 122:..\u8g2-master\csrc/u8x8_d_st7565.c ****     
 2380              		.loc 1 122 0
 2381 0038 FFF7FEFF 		bl	u8x8_cad_StartTransfer
 2382              	.LVL412:
 126:..\u8g2-master\csrc/u8x8_d_st7565.c ****       u8x8_cad_SendCmd(u8x8, 0x010 | (x>>4) );
 2383              		.loc 1 126 0
 2384 003c 95F82230 		ldrb	r3, [r5, #34]	@ zero_extendqisi2
 124:..\u8g2-master\csrc/u8x8_d_st7565.c ****       x *= 8;
 2385              		.loc 1 124 0
 2386 0040 97F80580 		ldrb	r8, [r7, #5]	@ zero_extendqisi2
 2387              	.LVL413:
 127:..\u8g2-master\csrc/u8x8_d_st7565.c ****       u8x8_cad_SendCmd(u8x8, 0x000 | ((x&15)));
 2388              		.loc 1 127 0
 2389 0044 2846     		mov	r0, r5
 126:..\u8g2-master\csrc/u8x8_d_st7565.c ****       u8x8_cad_SendCmd(u8x8, 0x010 | (x>>4) );
 2390              		.loc 1 126 0
 2391 0046 03EBC808 		add	r8, r3, r8, lsl #3
 2392              	.LVL414:
 2393 004a 08F0FF08 		and	r8, r8, #255
 2394              	.LVL415:
 127:..\u8g2-master\csrc/u8x8_d_st7565.c ****       u8x8_cad_SendCmd(u8x8, 0x000 | ((x&15)));
 2395              		.loc 1 127 0
 2396 004e 4FEA1811 		lsr	r1, r8, #4
 2397 0052 41F01001 		orr	r1, r1, #16
 2398 0056 FFF7FEFF 		bl	u8x8_cad_SendCmd
 2399              	.LVL416:
 128:..\u8g2-master\csrc/u8x8_d_st7565.c ****       u8x8_cad_SendCmd(u8x8, 0x0b0 | (((u8x8_tile_t *)arg_ptr)->y_pos));
 2400              		.loc 1 128 0
 2401 005a 08F00F01 		and	r1, r8, #15
 2402 005e 2846     		mov	r0, r5
 2403 0060 FFF7FEFF 		bl	u8x8_cad_SendCmd
 2404              	.LVL417:
 129:..\u8g2-master\csrc/u8x8_d_st7565.c ****     
 2405              		.loc 1 129 0
 2406 0064 B979     		ldrb	r1, [r7, #6]	@ zero_extendqisi2
 2407 0066 2846     		mov	r0, r5
 2408 0068 41F0B001 		orr	r1, r1, #176
 2409 006c FFF7FEFF 		bl	u8x8_cad_SendCmd
ARM GAS  C:\Users\info\AppData\Local\Temp\ccQPGqkW.s 			page 65


 2410              	.LVL418:
 131:..\u8g2-master\csrc/u8x8_d_st7565.c ****       c *= 8;
 2411              		.loc 1 131 0
 2412 0070 3E79     		ldrb	r6, [r7, #4]	@ zero_extendqisi2
 2413              	.LVL419:
 133:..\u8g2-master\csrc/u8x8_d_st7565.c ****       /* 
 2414              		.loc 1 133 0
 2415 0072 3F68     		ldr	r7, [r7]
 2416              	.LVL420:
 132:..\u8g2-master\csrc/u8x8_d_st7565.c ****       ptr = ((u8x8_tile_t *)arg_ptr)->tile_ptr;
 2417              		.loc 1 132 0
 2418 0074 F600     		lsls	r6, r6, #3
 2419              	.LVL421:
 2420 0076 F6B2     		uxtb	r6, r6
 2421              	.LVL422:
 139:..\u8g2-master\csrc/u8x8_d_st7565.c ****       {
 2422              		.loc 1 139 0
 2423 0078 06EB0803 		add	r3, r6, r8
 2424 007c 842B     		cmp	r3, #132
 2425              	.LVL423:
 142:..\u8g2-master\csrc/u8x8_d_st7565.c ****       }
 2426              		.loc 1 142 0
 2427 007e C4BF     		itt	gt
 2428 0080 C8F18406 		rsbgt	r6, r8, #132
 2429 0084 F6B2     		uxtbgt	r6, r6
 2430              	.LVL424:
 2431              	.L249:
 146:..\u8g2-master\csrc/u8x8_d_st7565.c **** 	arg_int--;
 2432              		.loc 1 146 0
 2433 0086 3A46     		mov	r2, r7
 2434 0088 3146     		mov	r1, r6
 2435 008a 2846     		mov	r0, r5
 2436 008c FFF7FEFF 		bl	u8x8_cad_SendData
 2437              	.LVL425:
 147:..\u8g2-master\csrc/u8x8_d_st7565.c ****       } while( arg_int > 0 );
 2438              		.loc 1 147 0
 2439 0090 621E     		subs	r2, r4, #1
 2440              	.LVL426:
 148:..\u8g2-master\csrc/u8x8_d_st7565.c ****       
 2441              		.loc 1 148 0
 2442 0092 12F0FF04 		ands	r4, r2, #255
 2443 0096 F6D1     		bne	.L249
 2444              	.LVL427:
 2445              	.L263:
 2446              	.LBE177:
 2447              	.LBE176:
 172:..\u8g2-master\csrc/u8x8_d_st7565.c ****       break;
 2448              		.loc 1 172 0
 2449 0098 2846     		mov	r0, r5
 2450 009a FFF7FEFF 		bl	u8x8_cad_EndTransfer
 2451              	.LVL428:
 2452              	.LBE180:
 2453              	.LBE185:
 2454              		.loc 1 895 0
 2455 009e 0120     		movs	r0, #1
 2456 00a0 BDE8F081 		pop	{r4, r5, r6, r7, r8, pc}
 2457              	.LVL429:
ARM GAS  C:\Users\info\AppData\Local\Temp\ccQPGqkW.s 			page 66


 2458              	.L245:
 2459              	.LBB186:
 2460              	.LBB181:
 169:..\u8g2-master\csrc/u8x8_d_st7565.c ****       u8x8_cad_SendCmd(u8x8, 0x081 );
 2461              		.loc 1 169 0
 2462 00a4 FFF7FEFF 		bl	u8x8_cad_StartTransfer
 2463              	.LVL430:
 170:..\u8g2-master\csrc/u8x8_d_st7565.c ****       u8x8_cad_SendArg(u8x8, arg_int >> 2 );	/* st7565 has range from 0 to 63 */
 2464              		.loc 1 170 0
 2465 00a8 8121     		movs	r1, #129
 2466 00aa 2846     		mov	r0, r5
 2467 00ac FFF7FEFF 		bl	u8x8_cad_SendCmd
 2468              	.LVL431:
 171:..\u8g2-master\csrc/u8x8_d_st7565.c ****       u8x8_cad_EndTransfer(u8x8);
 2469              		.loc 1 171 0
 2470 00b0 A108     		lsrs	r1, r4, #2
 2471 00b2 2846     		mov	r0, r5
 2472 00b4 FFF7FEFF 		bl	u8x8_cad_SendArg
 2473              	.LVL432:
 2474 00b8 EEE7     		b	.L263
 2475              	.LVL433:
 2476              	.L254:
 2477              	.LBE181:
 2478              	.LBE186:
 876:..\u8g2-master\csrc/u8x8_d_st7565.c **** 	u8x8_cad_SendSequence(u8x8, u8x8_d_st7565_erc12864_init_seq);
 2479              		.loc 1 876 0
 2480 00ba FFF7FEFF 		bl	u8x8_d_helper_display_init
 2481              	.LVL434:
 877:..\u8g2-master\csrc/u8x8_d_st7565.c **** 	break;
 2482              		.loc 1 877 0
 2483 00be 2846     		mov	r0, r5
 2484 00c0 1449     		ldr	r1, .L269+4
 2485 00c2 FFF7FEFF 		bl	u8x8_cad_SendSequence
 2486              	.LVL435:
 2487              		.loc 1 895 0
 2488 00c6 0120     		movs	r0, #1
 878:..\u8g2-master\csrc/u8x8_d_st7565.c ****       case U8X8_MSG_DISPLAY_SET_FLIP_MODE:
 2489              		.loc 1 878 0
 2490 00c8 BDE8F081 		pop	{r4, r5, r6, r7, r8, pc}
 2491              	.LVL436:
 2492              	.L251:
 2493              	.LBB187:
 2494              	.LBB182:
 165:..\u8g2-master\csrc/u8x8_d_st7565.c ****       break;
 2495              		.loc 1 165 0
 2496 00cc 1249     		ldr	r1, .L269+8
 2497              	.LVL437:
 2498 00ce FFF7FEFF 		bl	u8x8_cad_SendSequence
 2499              	.LVL438:
 2500              	.LBE182:
 2501              	.LBE187:
 2502              		.loc 1 895 0
 2503 00d2 0120     		movs	r0, #1
 2504 00d4 BDE8F081 		pop	{r4, r5, r6, r7, r8, pc}
 2505              	.LVL439:
 2506              	.L267:
 873:..\u8g2-master\csrc/u8x8_d_st7565.c **** 	break;
ARM GAS  C:\Users\info\AppData\Local\Temp\ccQPGqkW.s 			page 67


 2507              		.loc 1 873 0
 2508 00d8 1049     		ldr	r1, .L269+12
 2509              	.LVL440:
 2510 00da FFF7FEFF 		bl	u8x8_d_helper_display_setup_memory
 2511              	.LVL441:
 2512              		.loc 1 895 0
 2513 00de 0120     		movs	r0, #1
 874:..\u8g2-master\csrc/u8x8_d_st7565.c ****       case U8X8_MSG_DISPLAY_INIT:
 2514              		.loc 1 874 0
 2515 00e0 BDE8F081 		pop	{r4, r5, r6, r7, r8, pc}
 2516              	.LVL442:
 2517              	.L255:
 880:..\u8g2-master\csrc/u8x8_d_st7565.c **** 	{
 2518              		.loc 1 880 0
 2519 00e4 4CB1     		cbz	r4, .L268
 887:..\u8g2-master\csrc/u8x8_d_st7565.c **** 	  u8x8->x_offset = u8x8->display_info->flipmode_x_offset;
 2520              		.loc 1 887 0
 2521 00e6 0E49     		ldr	r1, .L269+16
 2522              	.LVL443:
 2523 00e8 FFF7FEFF 		bl	u8x8_cad_SendSequence
 2524              	.LVL444:
 888:..\u8g2-master\csrc/u8x8_d_st7565.c **** 	}	
 2525              		.loc 1 888 0
 2526 00ec 2B68     		ldr	r3, [r5]
 2527              		.loc 1 895 0
 2528 00ee 0120     		movs	r0, #1
 888:..\u8g2-master\csrc/u8x8_d_st7565.c **** 	}	
 2529              		.loc 1 888 0
 2530 00f0 DB7C     		ldrb	r3, [r3, #19]	@ zero_extendqisi2
 2531 00f2 85F82230 		strb	r3, [r5, #34]
 2532 00f6 BDE8F081 		pop	{r4, r5, r6, r7, r8, pc}
 2533              	.LVL445:
 2534              	.L268:
 882:..\u8g2-master\csrc/u8x8_d_st7565.c **** 	  u8x8->x_offset = u8x8->display_info->default_x_offset;
 2535              		.loc 1 882 0
 2536 00fa 0A49     		ldr	r1, .L269+20
 2537              	.LVL446:
 2538 00fc FFF7FEFF 		bl	u8x8_cad_SendSequence
 2539              	.LVL447:
 883:..\u8g2-master\csrc/u8x8_d_st7565.c **** 	}
 2540              		.loc 1 883 0
 2541 0100 2B68     		ldr	r3, [r5]
 2542              		.loc 1 895 0
 2543 0102 0120     		movs	r0, #1
 883:..\u8g2-master\csrc/u8x8_d_st7565.c **** 	}
 2544              		.loc 1 883 0
 2545 0104 9B7C     		ldrb	r3, [r3, #18]	@ zero_extendqisi2
 2546 0106 85F82230 		strb	r3, [r5, #34]
 2547 010a BDE8F081 		pop	{r4, r5, r6, r7, r8, pc}
 2548              	.LVL448:
 2549              	.L270:
 2550 010e 00BF     		.align	2
 2551              	.L269:
 2552 0110 00000000 		.word	.LANCHOR0
 2553 0114 D0010000 		.word	.LANCHOR0+464
 2554 0118 08000000 		.word	.LANCHOR0+8
 2555 011c B8010000 		.word	.LANCHOR0+440
ARM GAS  C:\Users\info\AppData\Local\Temp\ccQPGqkW.s 			page 68


 2556 0120 4C000000 		.word	.LANCHOR0+76
 2557 0124 54000000 		.word	.LANCHOR0+84
 2558              		.cfi_endproc
 2559              	.LFE9:
 2560              		.size	u8x8_d_st7565_erc12864, .-u8x8_d_st7565_erc12864
 2561              		.section	.text.u8x8_d_st7565_erc12864_alt,"ax",%progbits
 2562              		.align	2
 2563              		.global	u8x8_d_st7565_erc12864_alt
 2564              		.thumb
 2565              		.thumb_func
 2566              		.type	u8x8_d_st7565_erc12864_alt, %function
 2567              	u8x8_d_st7565_erc12864_alt:
 2568              	.LFB10:
 896:..\u8g2-master\csrc/u8x8_d_st7565.c **** }
 897:..\u8g2-master\csrc/u8x8_d_st7565.c **** 
 898:..\u8g2-master\csrc/u8x8_d_st7565.c **** 
 899:..\u8g2-master\csrc/u8x8_d_st7565.c **** 
 900:..\u8g2-master\csrc/u8x8_d_st7565.c **** 
 901:..\u8g2-master\csrc/u8x8_d_st7565.c **** /*================================================*/
 902:..\u8g2-master\csrc/u8x8_d_st7565.c **** /* ERC12864-1 alternative version, suggested in issue 790 */
 903:..\u8g2-master\csrc/u8x8_d_st7565.c **** 
 904:..\u8g2-master\csrc/u8x8_d_st7565.c **** static const uint8_t u8x8_d_st7565_erc12864_alt_init_seq[] = {
 905:..\u8g2-master\csrc/u8x8_d_st7565.c **** 
 906:..\u8g2-master\csrc/u8x8_d_st7565.c **** 
 907:..\u8g2-master\csrc/u8x8_d_st7565.c ****   // original sequence 
 908:..\u8g2-master\csrc/u8x8_d_st7565.c ****   
 909:..\u8g2-master\csrc/u8x8_d_st7565.c ****   // U8X8_START_TRANSFER(),             	/* enable chip, delay is part of the transfer start */
 910:..\u8g2-master\csrc/u8x8_d_st7565.c ****   
 911:..\u8g2-master\csrc/u8x8_d_st7565.c ****   // U8X8_C(0x0e2),            			/* soft reset */
 912:..\u8g2-master\csrc/u8x8_d_st7565.c ****   // U8X8_C(0x0ae),		                /* display off */
 913:..\u8g2-master\csrc/u8x8_d_st7565.c ****   // U8X8_C(0x040),		                /* set display start line to ... */
 914:..\u8g2-master\csrc/u8x8_d_st7565.c ****   
 915:..\u8g2-master\csrc/u8x8_d_st7565.c ****   // U8X8_C(0x0a0),		                /* ADC set to reverse */
 916:..\u8g2-master\csrc/u8x8_d_st7565.c ****   // U8X8_C(0x0c8),		                /* common output mode */
 917:..\u8g2-master\csrc/u8x8_d_st7565.c ****   
 918:..\u8g2-master\csrc/u8x8_d_st7565.c ****   // U8X8_C(0x0a6),		                /* display normal, bit val 0: LCD pixel off. */
 919:..\u8g2-master\csrc/u8x8_d_st7565.c ****   // U8X8_C(0x0a3),		                /* LCD bias 1/9 */
 920:..\u8g2-master\csrc/u8x8_d_st7565.c ****   // U8X8_C(0x02f),		                /* all power  control circuits on (regulator, booster and foll
 921:..\u8g2-master\csrc/u8x8_d_st7565.c ****   // U8X8_CA(0x0f8, 0x000),		/* set booster ratio to 4x (ST7567 feature)*/
 922:..\u8g2-master\csrc/u8x8_d_st7565.c ****   // U8X8_C(0x027),		                /* set V0 voltage resistor ratio to max  */
 923:..\u8g2-master\csrc/u8x8_d_st7565.c ****   // U8X8_CA(0x081, 0x018),		/* set contrast, contrast value, EA default: 0x016 */
 924:..\u8g2-master\csrc/u8x8_d_st7565.c ****   
 925:..\u8g2-master\csrc/u8x8_d_st7565.c ****   // U8X8_C(0x0ae),		                /* display off */
 926:..\u8g2-master\csrc/u8x8_d_st7565.c ****   // U8X8_C(0x0a5),		                /* enter powersafe: all pixel on, issue 142 */
 927:..\u8g2-master\csrc/u8x8_d_st7565.c ****   
 928:..\u8g2-master\csrc/u8x8_d_st7565.c ****   // U8X8_END_TRANSFER(),             	/* disable chip */
 929:..\u8g2-master\csrc/u8x8_d_st7565.c ****   // U8X8_END()             			/* end of sequence */
 930:..\u8g2-master\csrc/u8x8_d_st7565.c ****   
 931:..\u8g2-master\csrc/u8x8_d_st7565.c **** 
 932:..\u8g2-master\csrc/u8x8_d_st7565.c **** 
 933:..\u8g2-master\csrc/u8x8_d_st7565.c ****   // suggested in https://github.com/olikraus/u8g2/issues/790
 934:..\u8g2-master\csrc/u8x8_d_st7565.c ****   
 935:..\u8g2-master\csrc/u8x8_d_st7565.c ****   U8X8_START_TRANSFER(),             	/* enable chip, delay is part of the transfer start */
 936:..\u8g2-master\csrc/u8x8_d_st7565.c ****   
 937:..\u8g2-master\csrc/u8x8_d_st7565.c ****   U8X8_C(0x0e2),            			/* soft reset */
 938:..\u8g2-master\csrc/u8x8_d_st7565.c ****   U8X8_C(0x0ae),		                /* display off */
 939:..\u8g2-master\csrc/u8x8_d_st7565.c ****   U8X8_C(0x040),		                /* set display start line to ... */
ARM GAS  C:\Users\info\AppData\Local\Temp\ccQPGqkW.s 			page 69


 940:..\u8g2-master\csrc/u8x8_d_st7565.c ****   
 941:..\u8g2-master\csrc/u8x8_d_st7565.c ****   U8X8_C(0x0a0),		                /* ADC set to reverse */
 942:..\u8g2-master\csrc/u8x8_d_st7565.c ****   U8X8_C(0x0c8),		                /* common output mode */
 943:..\u8g2-master\csrc/u8x8_d_st7565.c ****   
 944:..\u8g2-master\csrc/u8x8_d_st7565.c ****   U8X8_C(0x0a6),		                /* display normal, bit val 0: LCD pixel off. */
 945:..\u8g2-master\csrc/u8x8_d_st7565.c ****   U8X8_C(0x0a2),		                /* LCD bias 1/9 - *** Changed by Ismail - was 0xa3 - 1/7 bias we 
 946:..\u8g2-master\csrc/u8x8_d_st7565.c ****   U8X8_C(0x02f),		                /* all power  control circuits on (regulator, booster and followe
 947:..\u8g2-master\csrc/u8x8_d_st7565.c ****   U8X8_CA(0x0f8, 0x000),		/* set booster ratio to 4x (ST7567 feature)*/
 948:..\u8g2-master\csrc/u8x8_d_st7565.c ****   U8X8_C(0x027),		                /* set V0 voltage resistor ratio to max  */
 949:..\u8g2-master\csrc/u8x8_d_st7565.c ****   U8X8_CA(0x081, 0x05),		       /* set contrast, contrast value, EA default: 0x016 - *** Changed by
 950:..\u8g2-master\csrc/u8x8_d_st7565.c ****   
 951:..\u8g2-master\csrc/u8x8_d_st7565.c ****   U8X8_C(0x0ae),		                /* display off */
 952:..\u8g2-master\csrc/u8x8_d_st7565.c ****   U8X8_C(0x0a5),		                /* enter powersafe: all pixel on, issue 142 */
 953:..\u8g2-master\csrc/u8x8_d_st7565.c ****   
 954:..\u8g2-master\csrc/u8x8_d_st7565.c ****   U8X8_END_TRANSFER(),             	/* disable chip */
 955:..\u8g2-master\csrc/u8x8_d_st7565.c ****   U8X8_END()             			/* end of sequence */
 956:..\u8g2-master\csrc/u8x8_d_st7565.c ****   
 957:..\u8g2-master\csrc/u8x8_d_st7565.c **** };
 958:..\u8g2-master\csrc/u8x8_d_st7565.c **** 
 959:..\u8g2-master\csrc/u8x8_d_st7565.c **** 
 960:..\u8g2-master\csrc/u8x8_d_st7565.c **** uint8_t u8x8_d_st7565_erc12864_alt(u8x8_t *u8x8, uint8_t msg, uint8_t arg_int, void *arg_ptr)
 961:..\u8g2-master\csrc/u8x8_d_st7565.c **** {
 2569              		.loc 1 961 0
 2570              		.cfi_startproc
 2571              		@ args = 0, pretend = 0, frame = 0
 2572              		@ frame_needed = 0, uses_anonymous_args = 0
 2573              	.LVL449:
 2574              	.LBB192:
 2575              	.LBB193:
 119:..\u8g2-master\csrc/u8x8_d_st7565.c ****   {
 2576              		.loc 1 119 0
 2577 0000 0E29     		cmp	r1, #14
 2578              	.LBE193:
 2579              	.LBE192:
 2580              		.loc 1 961 0
 2581 0002 2DE9F041 		push	{r4, r5, r6, r7, r8, lr}
 2582              		.cfi_def_cfa_offset 24
 2583              		.cfi_offset 4, -24
 2584              		.cfi_offset 5, -20
 2585              		.cfi_offset 6, -16
 2586              		.cfi_offset 7, -12
 2587              		.cfi_offset 8, -8
 2588              		.cfi_offset 14, -4
 2589              		.loc 1 961 0
 2590 0006 1446     		mov	r4, r2
 2591 0008 0546     		mov	r5, r0
 2592              	.LVL450:
 2593              	.LBB201:
 2594              	.LBB196:
 119:..\u8g2-master\csrc/u8x8_d_st7565.c ****   {
 2595              		.loc 1 119 0
 2596 000a 4BD0     		beq	.L273
 2597 000c 0F29     		cmp	r1, #15
 2598 000e 12D0     		beq	.L274
 2599 0010 0B29     		cmp	r1, #11
 2600 0012 08D0     		beq	.L294
 2601              	.LVL451:
ARM GAS  C:\Users\info\AppData\Local\Temp\ccQPGqkW.s 			page 70


 2602              	.LBE196:
 2603              	.LBE201:
 962:..\u8g2-master\csrc/u8x8_d_st7565.c ****   /* call common procedure first and handle messages there */
 963:..\u8g2-master\csrc/u8x8_d_st7565.c ****   if ( u8x8_d_st7565_common(u8x8, msg, arg_int, arg_ptr) == 0 )
 964:..\u8g2-master\csrc/u8x8_d_st7565.c ****   {
 965:..\u8g2-master\csrc/u8x8_d_st7565.c ****     /* msg not handled, then try here */
 966:..\u8g2-master\csrc/u8x8_d_st7565.c ****     switch(msg)
 2604              		.loc 1 966 0
 2605 0014 0A29     		cmp	r1, #10
 2606 0016 50D0     		beq	.L282
 2607 0018 0D29     		cmp	r1, #13
 2608 001a 63D0     		beq	.L283
 2609 001c 0929     		cmp	r1, #9
 2610 001e 5BD0     		beq	.L295
 967:..\u8g2-master\csrc/u8x8_d_st7565.c ****     {
 968:..\u8g2-master\csrc/u8x8_d_st7565.c ****       case U8X8_MSG_DISPLAY_SETUP_MEMORY:
 969:..\u8g2-master\csrc/u8x8_d_st7565.c **** 	u8x8_d_helper_display_setup_memory(u8x8, &u8x8_st7565_erc12864_display_info);
 970:..\u8g2-master\csrc/u8x8_d_st7565.c **** 	break;
 971:..\u8g2-master\csrc/u8x8_d_st7565.c ****       case U8X8_MSG_DISPLAY_INIT:
 972:..\u8g2-master\csrc/u8x8_d_st7565.c **** 	u8x8_d_helper_display_init(u8x8);
 973:..\u8g2-master\csrc/u8x8_d_st7565.c **** 	u8x8_cad_SendSequence(u8x8, u8x8_d_st7565_erc12864_alt_init_seq);
 974:..\u8g2-master\csrc/u8x8_d_st7565.c **** 	break;
 975:..\u8g2-master\csrc/u8x8_d_st7565.c ****       case U8X8_MSG_DISPLAY_SET_FLIP_MODE:
 976:..\u8g2-master\csrc/u8x8_d_st7565.c **** 	if ( arg_int == 0 )
 977:..\u8g2-master\csrc/u8x8_d_st7565.c **** 	{
 978:..\u8g2-master\csrc/u8x8_d_st7565.c **** 	  u8x8_cad_SendSequence(u8x8, u8x8_d_st7565_flip1_seq);
 979:..\u8g2-master\csrc/u8x8_d_st7565.c **** 	  u8x8->x_offset = u8x8->display_info->default_x_offset;
 980:..\u8g2-master\csrc/u8x8_d_st7565.c **** 	}
 981:..\u8g2-master\csrc/u8x8_d_st7565.c **** 	else
 982:..\u8g2-master\csrc/u8x8_d_st7565.c **** 	{
 983:..\u8g2-master\csrc/u8x8_d_st7565.c **** 	  u8x8_cad_SendSequence(u8x8, u8x8_d_st7565_flip0_seq);
 984:..\u8g2-master\csrc/u8x8_d_st7565.c **** 	  u8x8->x_offset = u8x8->display_info->flipmode_x_offset;
 985:..\u8g2-master\csrc/u8x8_d_st7565.c **** 	}	
 986:..\u8g2-master\csrc/u8x8_d_st7565.c **** 	break;
 987:..\u8g2-master\csrc/u8x8_d_st7565.c ****       default:
 988:..\u8g2-master\csrc/u8x8_d_st7565.c **** 	return 0;		/* msg unknown */
 2611              		.loc 1 988 0
 2612 0020 0020     		movs	r0, #0
 2613              	.LVL452:
 2614 0022 BDE8F081 		pop	{r4, r5, r6, r7, r8, pc}
 2615              	.LVL453:
 2616              	.L294:
 2617              	.LBB202:
 2618              	.LBB197:
 162:..\u8g2-master\csrc/u8x8_d_st7565.c **** 	u8x8_cad_SendSequence(u8x8, u8x8_d_st7565_powersave0_seq);
 2619              		.loc 1 162 0
 2620 0026 002A     		cmp	r2, #0
 2621 0028 50D1     		bne	.L279
 163:..\u8g2-master\csrc/u8x8_d_st7565.c ****       else
 2622              		.loc 1 163 0
 2623 002a 3949     		ldr	r1, .L297
 2624              	.LVL454:
 2625 002c FFF7FEFF 		bl	u8x8_cad_SendSequence
 2626              	.LVL455:
 2627              	.LBE197:
 2628              	.LBE202:
 989:..\u8g2-master\csrc/u8x8_d_st7565.c ****     }
ARM GAS  C:\Users\info\AppData\Local\Temp\ccQPGqkW.s 			page 71


 990:..\u8g2-master\csrc/u8x8_d_st7565.c ****   }
 991:..\u8g2-master\csrc/u8x8_d_st7565.c ****   return 1;
 2629              		.loc 1 991 0
 2630 0030 0120     		movs	r0, #1
 2631 0032 BDE8F081 		pop	{r4, r5, r6, r7, r8, pc}
 2632              	.LVL456:
 2633              	.L274:
 2634 0036 1F46     		mov	r7, r3
 2635              	.LVL457:
 2636              	.LBB203:
 2637              	.LBB198:
 2638              	.LBB194:
 2639              	.LBB195:
 122:..\u8g2-master\csrc/u8x8_d_st7565.c ****     
 2640              		.loc 1 122 0
 2641 0038 FFF7FEFF 		bl	u8x8_cad_StartTransfer
 2642              	.LVL458:
 126:..\u8g2-master\csrc/u8x8_d_st7565.c ****       u8x8_cad_SendCmd(u8x8, 0x010 | (x>>4) );
 2643              		.loc 1 126 0
 2644 003c 95F82230 		ldrb	r3, [r5, #34]	@ zero_extendqisi2
 124:..\u8g2-master\csrc/u8x8_d_st7565.c ****       x *= 8;
 2645              		.loc 1 124 0
 2646 0040 97F80580 		ldrb	r8, [r7, #5]	@ zero_extendqisi2
 2647              	.LVL459:
 127:..\u8g2-master\csrc/u8x8_d_st7565.c ****       u8x8_cad_SendCmd(u8x8, 0x000 | ((x&15)));
 2648              		.loc 1 127 0
 2649 0044 2846     		mov	r0, r5
 126:..\u8g2-master\csrc/u8x8_d_st7565.c ****       u8x8_cad_SendCmd(u8x8, 0x010 | (x>>4) );
 2650              		.loc 1 126 0
 2651 0046 03EBC808 		add	r8, r3, r8, lsl #3
 2652              	.LVL460:
 2653 004a 08F0FF08 		and	r8, r8, #255
 2654              	.LVL461:
 127:..\u8g2-master\csrc/u8x8_d_st7565.c ****       u8x8_cad_SendCmd(u8x8, 0x000 | ((x&15)));
 2655              		.loc 1 127 0
 2656 004e 4FEA1811 		lsr	r1, r8, #4
 2657 0052 41F01001 		orr	r1, r1, #16
 2658 0056 FFF7FEFF 		bl	u8x8_cad_SendCmd
 2659              	.LVL462:
 128:..\u8g2-master\csrc/u8x8_d_st7565.c ****       u8x8_cad_SendCmd(u8x8, 0x0b0 | (((u8x8_tile_t *)arg_ptr)->y_pos));
 2660              		.loc 1 128 0
 2661 005a 08F00F01 		and	r1, r8, #15
 2662 005e 2846     		mov	r0, r5
 2663 0060 FFF7FEFF 		bl	u8x8_cad_SendCmd
 2664              	.LVL463:
 129:..\u8g2-master\csrc/u8x8_d_st7565.c ****     
 2665              		.loc 1 129 0
 2666 0064 B979     		ldrb	r1, [r7, #6]	@ zero_extendqisi2
 2667 0066 2846     		mov	r0, r5
 2668 0068 41F0B001 		orr	r1, r1, #176
 2669 006c FFF7FEFF 		bl	u8x8_cad_SendCmd
 2670              	.LVL464:
 131:..\u8g2-master\csrc/u8x8_d_st7565.c ****       c *= 8;
 2671              		.loc 1 131 0
 2672 0070 3E79     		ldrb	r6, [r7, #4]	@ zero_extendqisi2
 2673              	.LVL465:
 133:..\u8g2-master\csrc/u8x8_d_st7565.c ****       /* 
ARM GAS  C:\Users\info\AppData\Local\Temp\ccQPGqkW.s 			page 72


 2674              		.loc 1 133 0
 2675 0072 3F68     		ldr	r7, [r7]
 2676              	.LVL466:
 132:..\u8g2-master\csrc/u8x8_d_st7565.c ****       ptr = ((u8x8_tile_t *)arg_ptr)->tile_ptr;
 2677              		.loc 1 132 0
 2678 0074 F600     		lsls	r6, r6, #3
 2679              	.LVL467:
 2680 0076 F6B2     		uxtb	r6, r6
 2681              	.LVL468:
 139:..\u8g2-master\csrc/u8x8_d_st7565.c ****       {
 2682              		.loc 1 139 0
 2683 0078 06EB0803 		add	r3, r6, r8
 2684 007c 842B     		cmp	r3, #132
 2685              	.LVL469:
 142:..\u8g2-master\csrc/u8x8_d_st7565.c ****       }
 2686              		.loc 1 142 0
 2687 007e C4BF     		itt	gt
 2688 0080 C8F18406 		rsbgt	r6, r8, #132
 2689 0084 F6B2     		uxtbgt	r6, r6
 2690              	.LVL470:
 2691              	.L277:
 146:..\u8g2-master\csrc/u8x8_d_st7565.c **** 	arg_int--;
 2692              		.loc 1 146 0
 2693 0086 3A46     		mov	r2, r7
 2694 0088 3146     		mov	r1, r6
 2695 008a 2846     		mov	r0, r5
 2696 008c FFF7FEFF 		bl	u8x8_cad_SendData
 2697              	.LVL471:
 147:..\u8g2-master\csrc/u8x8_d_st7565.c ****       } while( arg_int > 0 );
 2698              		.loc 1 147 0
 2699 0090 621E     		subs	r2, r4, #1
 2700              	.LVL472:
 148:..\u8g2-master\csrc/u8x8_d_st7565.c ****       
 2701              		.loc 1 148 0
 2702 0092 12F0FF04 		ands	r4, r2, #255
 2703 0096 F6D1     		bne	.L277
 2704              	.LVL473:
 2705              	.L291:
 2706              	.LBE195:
 2707              	.LBE194:
 172:..\u8g2-master\csrc/u8x8_d_st7565.c ****       break;
 2708              		.loc 1 172 0
 2709 0098 2846     		mov	r0, r5
 2710 009a FFF7FEFF 		bl	u8x8_cad_EndTransfer
 2711              	.LVL474:
 2712              	.LBE198:
 2713              	.LBE203:
 2714              		.loc 1 991 0
 2715 009e 0120     		movs	r0, #1
 2716 00a0 BDE8F081 		pop	{r4, r5, r6, r7, r8, pc}
 2717              	.LVL475:
 2718              	.L273:
 2719              	.LBB204:
 2720              	.LBB199:
 169:..\u8g2-master\csrc/u8x8_d_st7565.c ****       u8x8_cad_SendCmd(u8x8, 0x081 );
 2721              		.loc 1 169 0
 2722 00a4 FFF7FEFF 		bl	u8x8_cad_StartTransfer
ARM GAS  C:\Users\info\AppData\Local\Temp\ccQPGqkW.s 			page 73


 2723              	.LVL476:
 170:..\u8g2-master\csrc/u8x8_d_st7565.c ****       u8x8_cad_SendArg(u8x8, arg_int >> 2 );	/* st7565 has range from 0 to 63 */
 2724              		.loc 1 170 0
 2725 00a8 8121     		movs	r1, #129
 2726 00aa 2846     		mov	r0, r5
 2727 00ac FFF7FEFF 		bl	u8x8_cad_SendCmd
 2728              	.LVL477:
 171:..\u8g2-master\csrc/u8x8_d_st7565.c ****       u8x8_cad_EndTransfer(u8x8);
 2729              		.loc 1 171 0
 2730 00b0 A108     		lsrs	r1, r4, #2
 2731 00b2 2846     		mov	r0, r5
 2732 00b4 FFF7FEFF 		bl	u8x8_cad_SendArg
 2733              	.LVL478:
 2734 00b8 EEE7     		b	.L291
 2735              	.LVL479:
 2736              	.L282:
 2737              	.LBE199:
 2738              	.LBE204:
 972:..\u8g2-master\csrc/u8x8_d_st7565.c **** 	u8x8_cad_SendSequence(u8x8, u8x8_d_st7565_erc12864_alt_init_seq);
 2739              		.loc 1 972 0
 2740 00ba FFF7FEFF 		bl	u8x8_d_helper_display_init
 2741              	.LVL480:
 973:..\u8g2-master\csrc/u8x8_d_st7565.c **** 	break;
 2742              		.loc 1 973 0
 2743 00be 2846     		mov	r0, r5
 2744 00c0 1449     		ldr	r1, .L297+4
 2745 00c2 FFF7FEFF 		bl	u8x8_cad_SendSequence
 2746              	.LVL481:
 2747              		.loc 1 991 0
 2748 00c6 0120     		movs	r0, #1
 974:..\u8g2-master\csrc/u8x8_d_st7565.c ****       case U8X8_MSG_DISPLAY_SET_FLIP_MODE:
 2749              		.loc 1 974 0
 2750 00c8 BDE8F081 		pop	{r4, r5, r6, r7, r8, pc}
 2751              	.LVL482:
 2752              	.L279:
 2753              	.LBB205:
 2754              	.LBB200:
 165:..\u8g2-master\csrc/u8x8_d_st7565.c ****       break;
 2755              		.loc 1 165 0
 2756 00cc 1249     		ldr	r1, .L297+8
 2757              	.LVL483:
 2758 00ce FFF7FEFF 		bl	u8x8_cad_SendSequence
 2759              	.LVL484:
 2760              	.LBE200:
 2761              	.LBE205:
 2762              		.loc 1 991 0
 2763 00d2 0120     		movs	r0, #1
 2764 00d4 BDE8F081 		pop	{r4, r5, r6, r7, r8, pc}
 2765              	.LVL485:
 2766              	.L295:
 969:..\u8g2-master\csrc/u8x8_d_st7565.c **** 	break;
 2767              		.loc 1 969 0
 2768 00d8 1049     		ldr	r1, .L297+12
 2769              	.LVL486:
 2770 00da FFF7FEFF 		bl	u8x8_d_helper_display_setup_memory
 2771              	.LVL487:
 2772              		.loc 1 991 0
ARM GAS  C:\Users\info\AppData\Local\Temp\ccQPGqkW.s 			page 74


 2773 00de 0120     		movs	r0, #1
 970:..\u8g2-master\csrc/u8x8_d_st7565.c ****       case U8X8_MSG_DISPLAY_INIT:
 2774              		.loc 1 970 0
 2775 00e0 BDE8F081 		pop	{r4, r5, r6, r7, r8, pc}
 2776              	.LVL488:
 2777              	.L283:
 976:..\u8g2-master\csrc/u8x8_d_st7565.c **** 	{
 2778              		.loc 1 976 0
 2779 00e4 4CB1     		cbz	r4, .L296
 983:..\u8g2-master\csrc/u8x8_d_st7565.c **** 	  u8x8->x_offset = u8x8->display_info->flipmode_x_offset;
 2780              		.loc 1 983 0
 2781 00e6 0E49     		ldr	r1, .L297+16
 2782              	.LVL489:
 2783 00e8 FFF7FEFF 		bl	u8x8_cad_SendSequence
 2784              	.LVL490:
 984:..\u8g2-master\csrc/u8x8_d_st7565.c **** 	}	
 2785              		.loc 1 984 0
 2786 00ec 2B68     		ldr	r3, [r5]
 2787              		.loc 1 991 0
 2788 00ee 0120     		movs	r0, #1
 984:..\u8g2-master\csrc/u8x8_d_st7565.c **** 	}	
 2789              		.loc 1 984 0
 2790 00f0 DB7C     		ldrb	r3, [r3, #19]	@ zero_extendqisi2
 2791 00f2 85F82230 		strb	r3, [r5, #34]
 2792 00f6 BDE8F081 		pop	{r4, r5, r6, r7, r8, pc}
 2793              	.LVL491:
 2794              	.L296:
 978:..\u8g2-master\csrc/u8x8_d_st7565.c **** 	  u8x8->x_offset = u8x8->display_info->default_x_offset;
 2795              		.loc 1 978 0
 2796 00fa 0A49     		ldr	r1, .L297+20
 2797              	.LVL492:
 2798 00fc FFF7FEFF 		bl	u8x8_cad_SendSequence
 2799              	.LVL493:
 979:..\u8g2-master\csrc/u8x8_d_st7565.c **** 	}
 2800              		.loc 1 979 0
 2801 0100 2B68     		ldr	r3, [r5]
 2802              		.loc 1 991 0
 2803 0102 0120     		movs	r0, #1
 979:..\u8g2-master\csrc/u8x8_d_st7565.c **** 	}
 2804              		.loc 1 979 0
 2805 0104 9B7C     		ldrb	r3, [r3, #18]	@ zero_extendqisi2
 2806 0106 85F82230 		strb	r3, [r5, #34]
 2807 010a BDE8F081 		pop	{r4, r5, r6, r7, r8, pc}
 2808              	.LVL494:
 2809              	.L298:
 2810 010e 00BF     		.align	2
 2811              	.L297:
 2812 0110 00000000 		.word	.LANCHOR0
 2813 0114 F4010000 		.word	.LANCHOR0+500
 2814 0118 08000000 		.word	.LANCHOR0+8
 2815 011c B8010000 		.word	.LANCHOR0+440
 2816 0120 4C000000 		.word	.LANCHOR0+76
 2817 0124 54000000 		.word	.LANCHOR0+84
 2818              		.cfi_endproc
 2819              	.LFE10:
 2820              		.size	u8x8_d_st7565_erc12864_alt, .-u8x8_d_st7565_erc12864_alt
 2821              		.section	.text.u8x8_d_nt7534_tg12864r,"ax",%progbits
ARM GAS  C:\Users\info\AppData\Local\Temp\ccQPGqkW.s 			page 75


 2822              		.align	2
 2823              		.global	u8x8_d_nt7534_tg12864r
 2824              		.thumb
 2825              		.thumb_func
 2826              		.type	u8x8_d_nt7534_tg12864r, %function
 2827              	u8x8_d_nt7534_tg12864r:
 2828              	.LFB11:
 992:..\u8g2-master\csrc/u8x8_d_st7565.c **** }
 993:..\u8g2-master\csrc/u8x8_d_st7565.c **** 
 994:..\u8g2-master\csrc/u8x8_d_st7565.c **** 
 995:..\u8g2-master\csrc/u8x8_d_st7565.c **** 
 996:..\u8g2-master\csrc/u8x8_d_st7565.c **** 
 997:..\u8g2-master\csrc/u8x8_d_st7565.c **** /*================================================*/
 998:..\u8g2-master\csrc/u8x8_d_st7565.c **** /* NT7534, TG12864R */
 999:..\u8g2-master\csrc/u8x8_d_st7565.c **** /* The NT7534 has an extended command set for the ST7565, however this is not used. */
1000:..\u8g2-master\csrc/u8x8_d_st7565.c **** /* The TG12864R display is also shifted in lines, like the LM6059/Adafruit display */
1001:..\u8g2-master\csrc/u8x8_d_st7565.c **** /* However contrast seems to be different */
1002:..\u8g2-master\csrc/u8x8_d_st7565.c **** 
1003:..\u8g2-master\csrc/u8x8_d_st7565.c **** static const uint8_t u8x8_d_nt7534_tg12864r_init_seq[] = {
1004:..\u8g2-master\csrc/u8x8_d_st7565.c ****     
1005:..\u8g2-master\csrc/u8x8_d_st7565.c ****   U8X8_START_TRANSFER(),             	/* enable chip, delay is part of the transfer start */
1006:..\u8g2-master\csrc/u8x8_d_st7565.c ****   
1007:..\u8g2-master\csrc/u8x8_d_st7565.c ****   U8X8_C(0x0e2),            			/* soft reset */
1008:..\u8g2-master\csrc/u8x8_d_st7565.c ****   U8X8_C(0x0ae),		                /* display off */
1009:..\u8g2-master\csrc/u8x8_d_st7565.c ****   U8X8_C(0x060),		                /* set display start line to ... */
1010:..\u8g2-master\csrc/u8x8_d_st7565.c ****   
1011:..\u8g2-master\csrc/u8x8_d_st7565.c ****   U8X8_C(0x0a0),		                /* ADC set to reverse */
1012:..\u8g2-master\csrc/u8x8_d_st7565.c ****   U8X8_C(0x0c8),		                /* common output mode */
1013:..\u8g2-master\csrc/u8x8_d_st7565.c ****   // Flipmode
1014:..\u8g2-master\csrc/u8x8_d_st7565.c ****   //U8X8_C(0x0a1),		                /* ADC set to reverse */
1015:..\u8g2-master\csrc/u8x8_d_st7565.c ****   //U8X8_C(0x0c0),		                /* common output mode */
1016:..\u8g2-master\csrc/u8x8_d_st7565.c ****   
1017:..\u8g2-master\csrc/u8x8_d_st7565.c ****   U8X8_C(0x0a6),		                /* display normal, bit val 0: LCD pixel off. */
1018:..\u8g2-master\csrc/u8x8_d_st7565.c ****   U8X8_C(0x0a3),		                /* LCD bias 1/9 */
1019:..\u8g2-master\csrc/u8x8_d_st7565.c ****   U8X8_C(0x02f),		                /* all power  control circuits on (regulator, booster and followe
1020:..\u8g2-master\csrc/u8x8_d_st7565.c ****   //U8X8_CA(0x0f8, 0x000),		/* set booster ratio to 4x (ST7567 feature)*/
1021:..\u8g2-master\csrc/u8x8_d_st7565.c ****   U8X8_C(0x027),		                /* set V0 voltage resistor ratio to max  */
1022:..\u8g2-master\csrc/u8x8_d_st7565.c ****   U8X8_CA(0x081, 0x009),		/* set contrast, contrast value, EA default: 0x016 */
1023:..\u8g2-master\csrc/u8x8_d_st7565.c ****   
1024:..\u8g2-master\csrc/u8x8_d_st7565.c ****   U8X8_C(0x0ae),		                /* display off */
1025:..\u8g2-master\csrc/u8x8_d_st7565.c ****   U8X8_C(0x0a5),		                /* enter powersafe: all pixel on, issue 142 */
1026:..\u8g2-master\csrc/u8x8_d_st7565.c ****   
1027:..\u8g2-master\csrc/u8x8_d_st7565.c ****   U8X8_END_TRANSFER(),             	/* disable chip */
1028:..\u8g2-master\csrc/u8x8_d_st7565.c ****   U8X8_END()             			/* end of sequence */
1029:..\u8g2-master\csrc/u8x8_d_st7565.c **** };
1030:..\u8g2-master\csrc/u8x8_d_st7565.c **** 
1031:..\u8g2-master\csrc/u8x8_d_st7565.c **** uint8_t u8x8_d_nt7534_tg12864r(u8x8_t *u8x8, uint8_t msg, uint8_t arg_int, void *arg_ptr)
1032:..\u8g2-master\csrc/u8x8_d_st7565.c **** {
 2829              		.loc 1 1032 0
 2830              		.cfi_startproc
 2831              		@ args = 0, pretend = 0, frame = 0
 2832              		@ frame_needed = 0, uses_anonymous_args = 0
 2833              	.LVL495:
 2834              	.LBB210:
 2835              	.LBB211:
 119:..\u8g2-master\csrc/u8x8_d_st7565.c ****   {
 2836              		.loc 1 119 0
ARM GAS  C:\Users\info\AppData\Local\Temp\ccQPGqkW.s 			page 76


 2837 0000 0E29     		cmp	r1, #14
 2838              	.LBE211:
 2839              	.LBE210:
 2840              		.loc 1 1032 0
 2841 0002 2DE9F041 		push	{r4, r5, r6, r7, r8, lr}
 2842              		.cfi_def_cfa_offset 24
 2843              		.cfi_offset 4, -24
 2844              		.cfi_offset 5, -20
 2845              		.cfi_offset 6, -16
 2846              		.cfi_offset 7, -12
 2847              		.cfi_offset 8, -8
 2848              		.cfi_offset 14, -4
 2849              		.loc 1 1032 0
 2850 0006 1446     		mov	r4, r2
 2851 0008 0546     		mov	r5, r0
 2852              	.LVL496:
 2853              	.LBB219:
 2854              	.LBB214:
 119:..\u8g2-master\csrc/u8x8_d_st7565.c ****   {
 2855              		.loc 1 119 0
 2856 000a 4BD0     		beq	.L301
 2857 000c 0F29     		cmp	r1, #15
 2858 000e 12D0     		beq	.L302
 2859 0010 0B29     		cmp	r1, #11
 2860 0012 08D0     		beq	.L322
 2861              	.LVL497:
 2862              	.LBE214:
 2863              	.LBE219:
1033:..\u8g2-master\csrc/u8x8_d_st7565.c ****   /* call common procedure first and handle messages there */
1034:..\u8g2-master\csrc/u8x8_d_st7565.c ****   if ( u8x8_d_st7565_common(u8x8, msg, arg_int, arg_ptr) == 0 )
1035:..\u8g2-master\csrc/u8x8_d_st7565.c ****   {
1036:..\u8g2-master\csrc/u8x8_d_st7565.c ****     /* msg not handled, then try here */
1037:..\u8g2-master\csrc/u8x8_d_st7565.c ****     switch(msg)
 2864              		.loc 1 1037 0
 2865 0014 0A29     		cmp	r1, #10
 2866 0016 50D0     		beq	.L310
 2867 0018 0D29     		cmp	r1, #13
 2868 001a 63D0     		beq	.L311
 2869 001c 0929     		cmp	r1, #9
 2870 001e 5BD0     		beq	.L323
1038:..\u8g2-master\csrc/u8x8_d_st7565.c ****     {
1039:..\u8g2-master\csrc/u8x8_d_st7565.c ****       case U8X8_MSG_DISPLAY_SETUP_MEMORY:
1040:..\u8g2-master\csrc/u8x8_d_st7565.c **** 	/* reuse the LM6059 data structure... this display seems to have similar shifts and offsets */
1041:..\u8g2-master\csrc/u8x8_d_st7565.c **** 	u8x8_d_helper_display_setup_memory(u8x8, &u8x8_st7565_lm6059_display_info);
1042:..\u8g2-master\csrc/u8x8_d_st7565.c **** 	break;
1043:..\u8g2-master\csrc/u8x8_d_st7565.c ****       case U8X8_MSG_DISPLAY_INIT:
1044:..\u8g2-master\csrc/u8x8_d_st7565.c **** 	u8x8_d_helper_display_init(u8x8);
1045:..\u8g2-master\csrc/u8x8_d_st7565.c ****       
1046:..\u8g2-master\csrc/u8x8_d_st7565.c **** 	//u8x8_cad_SendSequence(u8x8, u8x8_d_st7565_lm6059_init_seq);
1047:..\u8g2-master\csrc/u8x8_d_st7565.c **** 	u8x8_cad_SendSequence(u8x8, u8x8_d_nt7534_tg12864r_init_seq);
1048:..\u8g2-master\csrc/u8x8_d_st7565.c **** 	break;
1049:..\u8g2-master\csrc/u8x8_d_st7565.c ****       case U8X8_MSG_DISPLAY_SET_FLIP_MODE:
1050:..\u8g2-master\csrc/u8x8_d_st7565.c **** 	if ( arg_int == 0 )
1051:..\u8g2-master\csrc/u8x8_d_st7565.c **** 	{
1052:..\u8g2-master\csrc/u8x8_d_st7565.c **** 	  u8x8_cad_SendSequence(u8x8, u8x8_d_st7565_flip1_seq);
1053:..\u8g2-master\csrc/u8x8_d_st7565.c **** 	  u8x8->x_offset = u8x8->display_info->default_x_offset;
1054:..\u8g2-master\csrc/u8x8_d_st7565.c **** 	}
ARM GAS  C:\Users\info\AppData\Local\Temp\ccQPGqkW.s 			page 77


1055:..\u8g2-master\csrc/u8x8_d_st7565.c **** 	else
1056:..\u8g2-master\csrc/u8x8_d_st7565.c **** 	{
1057:..\u8g2-master\csrc/u8x8_d_st7565.c **** 	  u8x8_cad_SendSequence(u8x8, u8x8_d_st7565_flip0_seq);
1058:..\u8g2-master\csrc/u8x8_d_st7565.c **** 	  u8x8->x_offset = u8x8->display_info->flipmode_x_offset;
1059:..\u8g2-master\csrc/u8x8_d_st7565.c **** 	}	
1060:..\u8g2-master\csrc/u8x8_d_st7565.c **** 	break;
1061:..\u8g2-master\csrc/u8x8_d_st7565.c ****       default:
1062:..\u8g2-master\csrc/u8x8_d_st7565.c **** 	return 0;		/* msg unknown */
 2871              		.loc 1 1062 0
 2872 0020 0020     		movs	r0, #0
 2873              	.LVL498:
 2874 0022 BDE8F081 		pop	{r4, r5, r6, r7, r8, pc}
 2875              	.LVL499:
 2876              	.L322:
 2877              	.LBB220:
 2878              	.LBB215:
 162:..\u8g2-master\csrc/u8x8_d_st7565.c **** 	u8x8_cad_SendSequence(u8x8, u8x8_d_st7565_powersave0_seq);
 2879              		.loc 1 162 0
 2880 0026 002A     		cmp	r2, #0
 2881 0028 50D1     		bne	.L307
 163:..\u8g2-master\csrc/u8x8_d_st7565.c ****       else
 2882              		.loc 1 163 0
 2883 002a 3949     		ldr	r1, .L325
 2884              	.LVL500:
 2885 002c FFF7FEFF 		bl	u8x8_cad_SendSequence
 2886              	.LVL501:
 2887              	.LBE215:
 2888              	.LBE220:
1063:..\u8g2-master\csrc/u8x8_d_st7565.c ****     }
1064:..\u8g2-master\csrc/u8x8_d_st7565.c ****   }
1065:..\u8g2-master\csrc/u8x8_d_st7565.c ****   return 1;
 2889              		.loc 1 1065 0
 2890 0030 0120     		movs	r0, #1
 2891 0032 BDE8F081 		pop	{r4, r5, r6, r7, r8, pc}
 2892              	.LVL502:
 2893              	.L302:
 2894 0036 1F46     		mov	r7, r3
 2895              	.LVL503:
 2896              	.LBB221:
 2897              	.LBB216:
 2898              	.LBB212:
 2899              	.LBB213:
 122:..\u8g2-master\csrc/u8x8_d_st7565.c ****     
 2900              		.loc 1 122 0
 2901 0038 FFF7FEFF 		bl	u8x8_cad_StartTransfer
 2902              	.LVL504:
 126:..\u8g2-master\csrc/u8x8_d_st7565.c ****       u8x8_cad_SendCmd(u8x8, 0x010 | (x>>4) );
 2903              		.loc 1 126 0
 2904 003c 95F82230 		ldrb	r3, [r5, #34]	@ zero_extendqisi2
 124:..\u8g2-master\csrc/u8x8_d_st7565.c ****       x *= 8;
 2905              		.loc 1 124 0
 2906 0040 97F80580 		ldrb	r8, [r7, #5]	@ zero_extendqisi2
 2907              	.LVL505:
 127:..\u8g2-master\csrc/u8x8_d_st7565.c ****       u8x8_cad_SendCmd(u8x8, 0x000 | ((x&15)));
 2908              		.loc 1 127 0
 2909 0044 2846     		mov	r0, r5
 126:..\u8g2-master\csrc/u8x8_d_st7565.c ****       u8x8_cad_SendCmd(u8x8, 0x010 | (x>>4) );
ARM GAS  C:\Users\info\AppData\Local\Temp\ccQPGqkW.s 			page 78


 2910              		.loc 1 126 0
 2911 0046 03EBC808 		add	r8, r3, r8, lsl #3
 2912              	.LVL506:
 2913 004a 08F0FF08 		and	r8, r8, #255
 2914              	.LVL507:
 127:..\u8g2-master\csrc/u8x8_d_st7565.c ****       u8x8_cad_SendCmd(u8x8, 0x000 | ((x&15)));
 2915              		.loc 1 127 0
 2916 004e 4FEA1811 		lsr	r1, r8, #4
 2917 0052 41F01001 		orr	r1, r1, #16
 2918 0056 FFF7FEFF 		bl	u8x8_cad_SendCmd
 2919              	.LVL508:
 128:..\u8g2-master\csrc/u8x8_d_st7565.c ****       u8x8_cad_SendCmd(u8x8, 0x0b0 | (((u8x8_tile_t *)arg_ptr)->y_pos));
 2920              		.loc 1 128 0
 2921 005a 08F00F01 		and	r1, r8, #15
 2922 005e 2846     		mov	r0, r5
 2923 0060 FFF7FEFF 		bl	u8x8_cad_SendCmd
 2924              	.LVL509:
 129:..\u8g2-master\csrc/u8x8_d_st7565.c ****     
 2925              		.loc 1 129 0
 2926 0064 B979     		ldrb	r1, [r7, #6]	@ zero_extendqisi2
 2927 0066 2846     		mov	r0, r5
 2928 0068 41F0B001 		orr	r1, r1, #176
 2929 006c FFF7FEFF 		bl	u8x8_cad_SendCmd
 2930              	.LVL510:
 131:..\u8g2-master\csrc/u8x8_d_st7565.c ****       c *= 8;
 2931              		.loc 1 131 0
 2932 0070 3E79     		ldrb	r6, [r7, #4]	@ zero_extendqisi2
 2933              	.LVL511:
 133:..\u8g2-master\csrc/u8x8_d_st7565.c ****       /* 
 2934              		.loc 1 133 0
 2935 0072 3F68     		ldr	r7, [r7]
 2936              	.LVL512:
 132:..\u8g2-master\csrc/u8x8_d_st7565.c ****       ptr = ((u8x8_tile_t *)arg_ptr)->tile_ptr;
 2937              		.loc 1 132 0
 2938 0074 F600     		lsls	r6, r6, #3
 2939              	.LVL513:
 2940 0076 F6B2     		uxtb	r6, r6
 2941              	.LVL514:
 139:..\u8g2-master\csrc/u8x8_d_st7565.c ****       {
 2942              		.loc 1 139 0
 2943 0078 06EB0803 		add	r3, r6, r8
 2944 007c 842B     		cmp	r3, #132
 2945              	.LVL515:
 142:..\u8g2-master\csrc/u8x8_d_st7565.c ****       }
 2946              		.loc 1 142 0
 2947 007e C4BF     		itt	gt
 2948 0080 C8F18406 		rsbgt	r6, r8, #132
 2949 0084 F6B2     		uxtbgt	r6, r6
 2950              	.LVL516:
 2951              	.L305:
 146:..\u8g2-master\csrc/u8x8_d_st7565.c **** 	arg_int--;
 2952              		.loc 1 146 0
 2953 0086 3A46     		mov	r2, r7
 2954 0088 3146     		mov	r1, r6
 2955 008a 2846     		mov	r0, r5
 2956 008c FFF7FEFF 		bl	u8x8_cad_SendData
 2957              	.LVL517:
ARM GAS  C:\Users\info\AppData\Local\Temp\ccQPGqkW.s 			page 79


 147:..\u8g2-master\csrc/u8x8_d_st7565.c ****       } while( arg_int > 0 );
 2958              		.loc 1 147 0
 2959 0090 621E     		subs	r2, r4, #1
 2960              	.LVL518:
 148:..\u8g2-master\csrc/u8x8_d_st7565.c ****       
 2961              		.loc 1 148 0
 2962 0092 12F0FF04 		ands	r4, r2, #255
 2963 0096 F6D1     		bne	.L305
 2964              	.LVL519:
 2965              	.L319:
 2966              	.LBE213:
 2967              	.LBE212:
 172:..\u8g2-master\csrc/u8x8_d_st7565.c ****       break;
 2968              		.loc 1 172 0
 2969 0098 2846     		mov	r0, r5
 2970 009a FFF7FEFF 		bl	u8x8_cad_EndTransfer
 2971              	.LVL520:
 2972              	.LBE216:
 2973              	.LBE221:
 2974              		.loc 1 1065 0
 2975 009e 0120     		movs	r0, #1
 2976 00a0 BDE8F081 		pop	{r4, r5, r6, r7, r8, pc}
 2977              	.LVL521:
 2978              	.L301:
 2979              	.LBB222:
 2980              	.LBB217:
 169:..\u8g2-master\csrc/u8x8_d_st7565.c ****       u8x8_cad_SendCmd(u8x8, 0x081 );
 2981              		.loc 1 169 0
 2982 00a4 FFF7FEFF 		bl	u8x8_cad_StartTransfer
 2983              	.LVL522:
 170:..\u8g2-master\csrc/u8x8_d_st7565.c ****       u8x8_cad_SendArg(u8x8, arg_int >> 2 );	/* st7565 has range from 0 to 63 */
 2984              		.loc 1 170 0
 2985 00a8 8121     		movs	r1, #129
 2986 00aa 2846     		mov	r0, r5
 2987 00ac FFF7FEFF 		bl	u8x8_cad_SendCmd
 2988              	.LVL523:
 171:..\u8g2-master\csrc/u8x8_d_st7565.c ****       u8x8_cad_EndTransfer(u8x8);
 2989              		.loc 1 171 0
 2990 00b0 A108     		lsrs	r1, r4, #2
 2991 00b2 2846     		mov	r0, r5
 2992 00b4 FFF7FEFF 		bl	u8x8_cad_SendArg
 2993              	.LVL524:
 2994 00b8 EEE7     		b	.L319
 2995              	.LVL525:
 2996              	.L310:
 2997              	.LBE217:
 2998              	.LBE222:
1044:..\u8g2-master\csrc/u8x8_d_st7565.c ****       
 2999              		.loc 1 1044 0
 3000 00ba FFF7FEFF 		bl	u8x8_d_helper_display_init
 3001              	.LVL526:
1047:..\u8g2-master\csrc/u8x8_d_st7565.c **** 	break;
 3002              		.loc 1 1047 0
 3003 00be 2846     		mov	r0, r5
 3004 00c0 1449     		ldr	r1, .L325+4
 3005 00c2 FFF7FEFF 		bl	u8x8_cad_SendSequence
 3006              	.LVL527:
ARM GAS  C:\Users\info\AppData\Local\Temp\ccQPGqkW.s 			page 80


 3007              		.loc 1 1065 0
 3008 00c6 0120     		movs	r0, #1
1048:..\u8g2-master\csrc/u8x8_d_st7565.c ****       case U8X8_MSG_DISPLAY_SET_FLIP_MODE:
 3009              		.loc 1 1048 0
 3010 00c8 BDE8F081 		pop	{r4, r5, r6, r7, r8, pc}
 3011              	.LVL528:
 3012              	.L307:
 3013              	.LBB223:
 3014              	.LBB218:
 165:..\u8g2-master\csrc/u8x8_d_st7565.c ****       break;
 3015              		.loc 1 165 0
 3016 00cc 1249     		ldr	r1, .L325+8
 3017              	.LVL529:
 3018 00ce FFF7FEFF 		bl	u8x8_cad_SendSequence
 3019              	.LVL530:
 3020              	.LBE218:
 3021              	.LBE223:
 3022              		.loc 1 1065 0
 3023 00d2 0120     		movs	r0, #1
 3024 00d4 BDE8F081 		pop	{r4, r5, r6, r7, r8, pc}
 3025              	.LVL531:
 3026              	.L323:
1041:..\u8g2-master\csrc/u8x8_d_st7565.c **** 	break;
 3027              		.loc 1 1041 0
 3028 00d8 1049     		ldr	r1, .L325+12
 3029              	.LVL532:
 3030 00da FFF7FEFF 		bl	u8x8_d_helper_display_setup_memory
 3031              	.LVL533:
 3032              		.loc 1 1065 0
 3033 00de 0120     		movs	r0, #1
1042:..\u8g2-master\csrc/u8x8_d_st7565.c ****       case U8X8_MSG_DISPLAY_INIT:
 3034              		.loc 1 1042 0
 3035 00e0 BDE8F081 		pop	{r4, r5, r6, r7, r8, pc}
 3036              	.LVL534:
 3037              	.L311:
1050:..\u8g2-master\csrc/u8x8_d_st7565.c **** 	{
 3038              		.loc 1 1050 0
 3039 00e4 4CB1     		cbz	r4, .L324
1057:..\u8g2-master\csrc/u8x8_d_st7565.c **** 	  u8x8->x_offset = u8x8->display_info->flipmode_x_offset;
 3040              		.loc 1 1057 0
 3041 00e6 0E49     		ldr	r1, .L325+16
 3042              	.LVL535:
 3043 00e8 FFF7FEFF 		bl	u8x8_cad_SendSequence
 3044              	.LVL536:
1058:..\u8g2-master\csrc/u8x8_d_st7565.c **** 	}	
 3045              		.loc 1 1058 0
 3046 00ec 2B68     		ldr	r3, [r5]
 3047              		.loc 1 1065 0
 3048 00ee 0120     		movs	r0, #1
1058:..\u8g2-master\csrc/u8x8_d_st7565.c **** 	}	
 3049              		.loc 1 1058 0
 3050 00f0 DB7C     		ldrb	r3, [r3, #19]	@ zero_extendqisi2
 3051 00f2 85F82230 		strb	r3, [r5, #34]
 3052 00f6 BDE8F081 		pop	{r4, r5, r6, r7, r8, pc}
 3053              	.LVL537:
 3054              	.L324:
1052:..\u8g2-master\csrc/u8x8_d_st7565.c **** 	  u8x8->x_offset = u8x8->display_info->default_x_offset;
ARM GAS  C:\Users\info\AppData\Local\Temp\ccQPGqkW.s 			page 81


 3055              		.loc 1 1052 0
 3056 00fa 0A49     		ldr	r1, .L325+20
 3057              	.LVL538:
 3058 00fc FFF7FEFF 		bl	u8x8_cad_SendSequence
 3059              	.LVL539:
1053:..\u8g2-master\csrc/u8x8_d_st7565.c **** 	}
 3060              		.loc 1 1053 0
 3061 0100 2B68     		ldr	r3, [r5]
 3062              		.loc 1 1065 0
 3063 0102 0120     		movs	r0, #1
1053:..\u8g2-master\csrc/u8x8_d_st7565.c **** 	}
 3064              		.loc 1 1053 0
 3065 0104 9B7C     		ldrb	r3, [r3, #18]	@ zero_extendqisi2
 3066 0106 85F82230 		strb	r3, [r5, #34]
 3067 010a BDE8F081 		pop	{r4, r5, r6, r7, r8, pc}
 3068              	.LVL540:
 3069              	.L326:
 3070 010e 00BF     		.align	2
 3071              	.L325:
 3072 0110 00000000 		.word	.LANCHOR0
 3073 0114 18020000 		.word	.LANCHOR0+536
 3074 0118 08000000 		.word	.LANCHOR0+8
 3075 011c 40010000 		.word	.LANCHOR0+320
 3076 0120 4C000000 		.word	.LANCHOR0+76
 3077 0124 54000000 		.word	.LANCHOR0+84
 3078              		.cfi_endproc
 3079              	.LFE11:
 3080              		.size	u8x8_d_nt7534_tg12864r, .-u8x8_d_nt7534_tg12864r
 3081              		.section	.text.u8x8_d_st7565_ea_dogm132,"ax",%progbits
 3082              		.align	2
 3083              		.global	u8x8_d_st7565_ea_dogm132
 3084              		.thumb
 3085              		.thumb_func
 3086              		.type	u8x8_d_st7565_ea_dogm132, %function
 3087              	u8x8_d_st7565_ea_dogm132:
 3088              	.LFB12:
1066:..\u8g2-master\csrc/u8x8_d_st7565.c **** }
1067:..\u8g2-master\csrc/u8x8_d_st7565.c **** 
1068:..\u8g2-master\csrc/u8x8_d_st7565.c **** 
1069:..\u8g2-master\csrc/u8x8_d_st7565.c **** /*================================================*/
1070:..\u8g2-master\csrc/u8x8_d_st7565.c **** /* EA DOGM132 */
1071:..\u8g2-master\csrc/u8x8_d_st7565.c **** 
1072:..\u8g2-master\csrc/u8x8_d_st7565.c **** static const u8x8_display_info_t u8x8_st7565_dogm132_display_info =
1073:..\u8g2-master\csrc/u8x8_d_st7565.c **** {
1074:..\u8g2-master\csrc/u8x8_d_st7565.c ****   /* chip_enable_level = */ 0,
1075:..\u8g2-master\csrc/u8x8_d_st7565.c ****   /* chip_disable_level = */ 1,
1076:..\u8g2-master\csrc/u8x8_d_st7565.c ****   
1077:..\u8g2-master\csrc/u8x8_d_st7565.c ****   /* post_chip_enable_wait_ns = */ 150,	/* st7565 datasheet, table 26, tcsh */
1078:..\u8g2-master\csrc/u8x8_d_st7565.c ****   /* pre_chip_disable_wait_ns = */ 50,	/* st7565 datasheet, table 26, tcss */
1079:..\u8g2-master\csrc/u8x8_d_st7565.c ****   /* reset_pulse_width_ms = */ 1, 
1080:..\u8g2-master\csrc/u8x8_d_st7565.c ****   /* post_reset_wait_ms = */ 1, 
1081:..\u8g2-master\csrc/u8x8_d_st7565.c ****   /* sda_setup_time_ns = */ 50,		/* st7565 datasheet, table 26, tsds */
1082:..\u8g2-master\csrc/u8x8_d_st7565.c ****   /* sck_pulse_width_ns = */ 120,	/* half of cycle time (100ns according to datasheet), AVR: below 
1083:..\u8g2-master\csrc/u8x8_d_st7565.c ****   /* sck_clock_hz = */ 4000000UL,	/* since Arduino 1.6.0, the SPI bus speed in Hz. Should be  10000
1084:..\u8g2-master\csrc/u8x8_d_st7565.c ****   /* spi_mode = */ 0,		/* active high, rising edge */
1085:..\u8g2-master\csrc/u8x8_d_st7565.c ****   /* i2c_bus_clock_100kHz = */ 4,
1086:..\u8g2-master\csrc/u8x8_d_st7565.c ****   /* data_setup_time_ns = */ 40,	/* st7565 datasheet, table 24, tds8 */
ARM GAS  C:\Users\info\AppData\Local\Temp\ccQPGqkW.s 			page 82


1087:..\u8g2-master\csrc/u8x8_d_st7565.c ****   /* write_pulse_width_ns = */ 80,	/* st7565 datasheet, table 24, tcclw */
1088:..\u8g2-master\csrc/u8x8_d_st7565.c ****   /* tile_width = */ 17,		/* width of 16*8=136 pixel */
1089:..\u8g2-master\csrc/u8x8_d_st7565.c ****   /* tile_hight = */ 4,
1090:..\u8g2-master\csrc/u8x8_d_st7565.c ****   /* default_x_offset = */ 0,
1091:..\u8g2-master\csrc/u8x8_d_st7565.c ****   /* flipmode_x_offset = */ 0,
1092:..\u8g2-master\csrc/u8x8_d_st7565.c ****   /* pixel_width = */ 132,
1093:..\u8g2-master\csrc/u8x8_d_st7565.c ****   /* pixel_height = */ 32
1094:..\u8g2-master\csrc/u8x8_d_st7565.c **** };
1095:..\u8g2-master\csrc/u8x8_d_st7565.c **** 
1096:..\u8g2-master\csrc/u8x8_d_st7565.c **** 
1097:..\u8g2-master\csrc/u8x8_d_st7565.c **** static const uint8_t u8x8_d_st7565_dogm132_init_seq[] = {
1098:..\u8g2-master\csrc/u8x8_d_st7565.c ****     
1099:..\u8g2-master\csrc/u8x8_d_st7565.c ****   U8X8_START_TRANSFER(),             	/* enable chip, delay is part of the transfer start */
1100:..\u8g2-master\csrc/u8x8_d_st7565.c ****   
1101:..\u8g2-master\csrc/u8x8_d_st7565.c ****   U8X8_C(0x0e2),            			/* soft reset */
1102:..\u8g2-master\csrc/u8x8_d_st7565.c ****   U8X8_C(0x0ae),		                /* display off */
1103:..\u8g2-master\csrc/u8x8_d_st7565.c ****   U8X8_C(0x040),		                /* set display start line to 0 */
1104:..\u8g2-master\csrc/u8x8_d_st7565.c ****   
1105:..\u8g2-master\csrc/u8x8_d_st7565.c ****   U8X8_C(0x0a1),		                /* ADC set to reverse */
1106:..\u8g2-master\csrc/u8x8_d_st7565.c ****   U8X8_C(0x0c0),		                /* common output mode */
1107:..\u8g2-master\csrc/u8x8_d_st7565.c ****   // Flipmode
1108:..\u8g2-master\csrc/u8x8_d_st7565.c ****   //U8X8_C(0x0a0),		                /* ADC set to reverse */
1109:..\u8g2-master\csrc/u8x8_d_st7565.c ****   //U8X8_C(0x0c8),		                /* common output mode */
1110:..\u8g2-master\csrc/u8x8_d_st7565.c ****   
1111:..\u8g2-master\csrc/u8x8_d_st7565.c ****   U8X8_C(0x0a6),		                /* display normal, bit val 0: LCD pixel off. */
1112:..\u8g2-master\csrc/u8x8_d_st7565.c ****   U8X8_C(0x0a2),		                /* LCD bias 1/9 */
1113:..\u8g2-master\csrc/u8x8_d_st7565.c ****   U8X8_C(0x02f),		                /* all power  control circuits on */
1114:..\u8g2-master\csrc/u8x8_d_st7565.c ****   U8X8_CA(0x0f8, 0x000),		/* set booster ratio to 4x */
1115:..\u8g2-master\csrc/u8x8_d_st7565.c ****   U8X8_C(0x023),		                /* set V0 voltage resistor ratio to large*/
1116:..\u8g2-master\csrc/u8x8_d_st7565.c ****   U8X8_CA(0x081, 0x01f),		/* set contrast, contrast value EA DOGM132 */
1117:..\u8g2-master\csrc/u8x8_d_st7565.c ****   
1118:..\u8g2-master\csrc/u8x8_d_st7565.c ****   U8X8_C(0x0ae),		                /* display off */
1119:..\u8g2-master\csrc/u8x8_d_st7565.c ****   U8X8_C(0x0a5),		                /* enter powersafe: all pixel on, issue 142 */
1120:..\u8g2-master\csrc/u8x8_d_st7565.c ****   
1121:..\u8g2-master\csrc/u8x8_d_st7565.c ****   U8X8_END_TRANSFER(),             	/* disable chip */
1122:..\u8g2-master\csrc/u8x8_d_st7565.c ****   U8X8_END()             			/* end of sequence */
1123:..\u8g2-master\csrc/u8x8_d_st7565.c **** };
1124:..\u8g2-master\csrc/u8x8_d_st7565.c **** 
1125:..\u8g2-master\csrc/u8x8_d_st7565.c **** uint8_t u8x8_d_st7565_ea_dogm132(u8x8_t *u8x8, uint8_t msg, uint8_t arg_int, void *arg_ptr)
1126:..\u8g2-master\csrc/u8x8_d_st7565.c **** {
 3089              		.loc 1 1126 0
 3090              		.cfi_startproc
 3091              		@ args = 0, pretend = 0, frame = 0
 3092              		@ frame_needed = 0, uses_anonymous_args = 0
 3093              	.LVL541:
 3094              	.LBB228:
 3095              	.LBB229:
 119:..\u8g2-master\csrc/u8x8_d_st7565.c ****   {
 3096              		.loc 1 119 0
 3097 0000 0E29     		cmp	r1, #14
 3098              	.LBE229:
 3099              	.LBE228:
 3100              		.loc 1 1126 0
 3101 0002 2DE9F041 		push	{r4, r5, r6, r7, r8, lr}
 3102              		.cfi_def_cfa_offset 24
 3103              		.cfi_offset 4, -24
 3104              		.cfi_offset 5, -20
ARM GAS  C:\Users\info\AppData\Local\Temp\ccQPGqkW.s 			page 83


 3105              		.cfi_offset 6, -16
 3106              		.cfi_offset 7, -12
 3107              		.cfi_offset 8, -8
 3108              		.cfi_offset 14, -4
 3109              		.loc 1 1126 0
 3110 0006 1446     		mov	r4, r2
 3111 0008 0546     		mov	r5, r0
 3112              	.LVL542:
 3113              	.LBB237:
 3114              	.LBB232:
 119:..\u8g2-master\csrc/u8x8_d_st7565.c ****   {
 3115              		.loc 1 119 0
 3116 000a 4BD0     		beq	.L329
 3117 000c 0F29     		cmp	r1, #15
 3118 000e 12D0     		beq	.L330
 3119 0010 0B29     		cmp	r1, #11
 3120 0012 08D0     		beq	.L350
 3121              	.LVL543:
 3122              	.LBE232:
 3123              	.LBE237:
1127:..\u8g2-master\csrc/u8x8_d_st7565.c ****   /* call common procedure first and handle messages there */
1128:..\u8g2-master\csrc/u8x8_d_st7565.c ****   if ( u8x8_d_st7565_common(u8x8, msg, arg_int, arg_ptr) == 0 )
1129:..\u8g2-master\csrc/u8x8_d_st7565.c ****   {
1130:..\u8g2-master\csrc/u8x8_d_st7565.c ****     /* msg not handled, then try here */
1131:..\u8g2-master\csrc/u8x8_d_st7565.c ****     switch(msg)
 3124              		.loc 1 1131 0
 3125 0014 0A29     		cmp	r1, #10
 3126 0016 50D0     		beq	.L338
 3127 0018 0D29     		cmp	r1, #13
 3128 001a 63D0     		beq	.L339
 3129 001c 0929     		cmp	r1, #9
 3130 001e 5BD0     		beq	.L351
1132:..\u8g2-master\csrc/u8x8_d_st7565.c ****     {
1133:..\u8g2-master\csrc/u8x8_d_st7565.c ****       case U8X8_MSG_DISPLAY_SETUP_MEMORY:
1134:..\u8g2-master\csrc/u8x8_d_st7565.c **** 	u8x8_d_helper_display_setup_memory(u8x8, &u8x8_st7565_dogm132_display_info);
1135:..\u8g2-master\csrc/u8x8_d_st7565.c **** 	break;
1136:..\u8g2-master\csrc/u8x8_d_st7565.c ****       case U8X8_MSG_DISPLAY_INIT:
1137:..\u8g2-master\csrc/u8x8_d_st7565.c **** 	u8x8_d_helper_display_init(u8x8);
1138:..\u8g2-master\csrc/u8x8_d_st7565.c **** 	u8x8_cad_SendSequence(u8x8, u8x8_d_st7565_dogm132_init_seq);
1139:..\u8g2-master\csrc/u8x8_d_st7565.c **** 	break;
1140:..\u8g2-master\csrc/u8x8_d_st7565.c ****       case U8X8_MSG_DISPLAY_SET_FLIP_MODE:
1141:..\u8g2-master\csrc/u8x8_d_st7565.c **** 	if ( arg_int == 0 )
1142:..\u8g2-master\csrc/u8x8_d_st7565.c **** 	{
1143:..\u8g2-master\csrc/u8x8_d_st7565.c **** 	  u8x8_cad_SendSequence(u8x8, u8x8_d_st7565_flip0_seq);
1144:..\u8g2-master\csrc/u8x8_d_st7565.c **** 	  u8x8->x_offset = u8x8->display_info->default_x_offset;
1145:..\u8g2-master\csrc/u8x8_d_st7565.c **** 	}
1146:..\u8g2-master\csrc/u8x8_d_st7565.c **** 	else
1147:..\u8g2-master\csrc/u8x8_d_st7565.c **** 	{
1148:..\u8g2-master\csrc/u8x8_d_st7565.c **** 	  u8x8_cad_SendSequence(u8x8, u8x8_d_st7565_flip1_seq);
1149:..\u8g2-master\csrc/u8x8_d_st7565.c **** 	  u8x8->x_offset = u8x8->display_info->flipmode_x_offset;
1150:..\u8g2-master\csrc/u8x8_d_st7565.c **** 	}	
1151:..\u8g2-master\csrc/u8x8_d_st7565.c **** 	break;
1152:..\u8g2-master\csrc/u8x8_d_st7565.c ****       default:
1153:..\u8g2-master\csrc/u8x8_d_st7565.c **** 	return 0;		/* msg unknown */
 3131              		.loc 1 1153 0
 3132 0020 0020     		movs	r0, #0
 3133              	.LVL544:
ARM GAS  C:\Users\info\AppData\Local\Temp\ccQPGqkW.s 			page 84


 3134 0022 BDE8F081 		pop	{r4, r5, r6, r7, r8, pc}
 3135              	.LVL545:
 3136              	.L350:
 3137              	.LBB238:
 3138              	.LBB233:
 162:..\u8g2-master\csrc/u8x8_d_st7565.c **** 	u8x8_cad_SendSequence(u8x8, u8x8_d_st7565_powersave0_seq);
 3139              		.loc 1 162 0
 3140 0026 002A     		cmp	r2, #0
 3141 0028 50D1     		bne	.L335
 163:..\u8g2-master\csrc/u8x8_d_st7565.c ****       else
 3142              		.loc 1 163 0
 3143 002a 3949     		ldr	r1, .L353
 3144              	.LVL546:
 3145 002c FFF7FEFF 		bl	u8x8_cad_SendSequence
 3146              	.LVL547:
 3147              	.LBE233:
 3148              	.LBE238:
1154:..\u8g2-master\csrc/u8x8_d_st7565.c ****     }
1155:..\u8g2-master\csrc/u8x8_d_st7565.c ****   }
1156:..\u8g2-master\csrc/u8x8_d_st7565.c ****   return 1;
 3149              		.loc 1 1156 0
 3150 0030 0120     		movs	r0, #1
 3151 0032 BDE8F081 		pop	{r4, r5, r6, r7, r8, pc}
 3152              	.LVL548:
 3153              	.L330:
 3154 0036 1F46     		mov	r7, r3
 3155              	.LVL549:
 3156              	.LBB239:
 3157              	.LBB234:
 3158              	.LBB230:
 3159              	.LBB231:
 122:..\u8g2-master\csrc/u8x8_d_st7565.c ****     
 3160              		.loc 1 122 0
 3161 0038 FFF7FEFF 		bl	u8x8_cad_StartTransfer
 3162              	.LVL550:
 126:..\u8g2-master\csrc/u8x8_d_st7565.c ****       u8x8_cad_SendCmd(u8x8, 0x010 | (x>>4) );
 3163              		.loc 1 126 0
 3164 003c 95F82230 		ldrb	r3, [r5, #34]	@ zero_extendqisi2
 124:..\u8g2-master\csrc/u8x8_d_st7565.c ****       x *= 8;
 3165              		.loc 1 124 0
 3166 0040 97F80580 		ldrb	r8, [r7, #5]	@ zero_extendqisi2
 3167              	.LVL551:
 127:..\u8g2-master\csrc/u8x8_d_st7565.c ****       u8x8_cad_SendCmd(u8x8, 0x000 | ((x&15)));
 3168              		.loc 1 127 0
 3169 0044 2846     		mov	r0, r5
 126:..\u8g2-master\csrc/u8x8_d_st7565.c ****       u8x8_cad_SendCmd(u8x8, 0x010 | (x>>4) );
 3170              		.loc 1 126 0
 3171 0046 03EBC808 		add	r8, r3, r8, lsl #3
 3172              	.LVL552:
 3173 004a 08F0FF08 		and	r8, r8, #255
 3174              	.LVL553:
 127:..\u8g2-master\csrc/u8x8_d_st7565.c ****       u8x8_cad_SendCmd(u8x8, 0x000 | ((x&15)));
 3175              		.loc 1 127 0
 3176 004e 4FEA1811 		lsr	r1, r8, #4
 3177 0052 41F01001 		orr	r1, r1, #16
 3178 0056 FFF7FEFF 		bl	u8x8_cad_SendCmd
 3179              	.LVL554:
ARM GAS  C:\Users\info\AppData\Local\Temp\ccQPGqkW.s 			page 85


 128:..\u8g2-master\csrc/u8x8_d_st7565.c ****       u8x8_cad_SendCmd(u8x8, 0x0b0 | (((u8x8_tile_t *)arg_ptr)->y_pos));
 3180              		.loc 1 128 0
 3181 005a 08F00F01 		and	r1, r8, #15
 3182 005e 2846     		mov	r0, r5
 3183 0060 FFF7FEFF 		bl	u8x8_cad_SendCmd
 3184              	.LVL555:
 129:..\u8g2-master\csrc/u8x8_d_st7565.c ****     
 3185              		.loc 1 129 0
 3186 0064 B979     		ldrb	r1, [r7, #6]	@ zero_extendqisi2
 3187 0066 2846     		mov	r0, r5
 3188 0068 41F0B001 		orr	r1, r1, #176
 3189 006c FFF7FEFF 		bl	u8x8_cad_SendCmd
 3190              	.LVL556:
 131:..\u8g2-master\csrc/u8x8_d_st7565.c ****       c *= 8;
 3191              		.loc 1 131 0
 3192 0070 3E79     		ldrb	r6, [r7, #4]	@ zero_extendqisi2
 3193              	.LVL557:
 133:..\u8g2-master\csrc/u8x8_d_st7565.c ****       /* 
 3194              		.loc 1 133 0
 3195 0072 3F68     		ldr	r7, [r7]
 3196              	.LVL558:
 132:..\u8g2-master\csrc/u8x8_d_st7565.c ****       ptr = ((u8x8_tile_t *)arg_ptr)->tile_ptr;
 3197              		.loc 1 132 0
 3198 0074 F600     		lsls	r6, r6, #3
 3199              	.LVL559:
 3200 0076 F6B2     		uxtb	r6, r6
 3201              	.LVL560:
 139:..\u8g2-master\csrc/u8x8_d_st7565.c ****       {
 3202              		.loc 1 139 0
 3203 0078 06EB0803 		add	r3, r6, r8
 3204 007c 842B     		cmp	r3, #132
 3205              	.LVL561:
 142:..\u8g2-master\csrc/u8x8_d_st7565.c ****       }
 3206              		.loc 1 142 0
 3207 007e C4BF     		itt	gt
 3208 0080 C8F18406 		rsbgt	r6, r8, #132
 3209 0084 F6B2     		uxtbgt	r6, r6
 3210              	.LVL562:
 3211              	.L333:
 146:..\u8g2-master\csrc/u8x8_d_st7565.c **** 	arg_int--;
 3212              		.loc 1 146 0
 3213 0086 3A46     		mov	r2, r7
 3214 0088 3146     		mov	r1, r6
 3215 008a 2846     		mov	r0, r5
 3216 008c FFF7FEFF 		bl	u8x8_cad_SendData
 3217              	.LVL563:
 147:..\u8g2-master\csrc/u8x8_d_st7565.c ****       } while( arg_int > 0 );
 3218              		.loc 1 147 0
 3219 0090 621E     		subs	r2, r4, #1
 3220              	.LVL564:
 148:..\u8g2-master\csrc/u8x8_d_st7565.c ****       
 3221              		.loc 1 148 0
 3222 0092 12F0FF04 		ands	r4, r2, #255
 3223 0096 F6D1     		bne	.L333
 3224              	.LVL565:
 3225              	.L347:
 3226              	.LBE231:
ARM GAS  C:\Users\info\AppData\Local\Temp\ccQPGqkW.s 			page 86


 3227              	.LBE230:
 172:..\u8g2-master\csrc/u8x8_d_st7565.c ****       break;
 3228              		.loc 1 172 0
 3229 0098 2846     		mov	r0, r5
 3230 009a FFF7FEFF 		bl	u8x8_cad_EndTransfer
 3231              	.LVL566:
 3232              	.LBE234:
 3233              	.LBE239:
 3234              		.loc 1 1156 0
 3235 009e 0120     		movs	r0, #1
 3236 00a0 BDE8F081 		pop	{r4, r5, r6, r7, r8, pc}
 3237              	.LVL567:
 3238              	.L329:
 3239              	.LBB240:
 3240              	.LBB235:
 169:..\u8g2-master\csrc/u8x8_d_st7565.c ****       u8x8_cad_SendCmd(u8x8, 0x081 );
 3241              		.loc 1 169 0
 3242 00a4 FFF7FEFF 		bl	u8x8_cad_StartTransfer
 3243              	.LVL568:
 170:..\u8g2-master\csrc/u8x8_d_st7565.c ****       u8x8_cad_SendArg(u8x8, arg_int >> 2 );	/* st7565 has range from 0 to 63 */
 3244              		.loc 1 170 0
 3245 00a8 8121     		movs	r1, #129
 3246 00aa 2846     		mov	r0, r5
 3247 00ac FFF7FEFF 		bl	u8x8_cad_SendCmd
 3248              	.LVL569:
 171:..\u8g2-master\csrc/u8x8_d_st7565.c ****       u8x8_cad_EndTransfer(u8x8);
 3249              		.loc 1 171 0
 3250 00b0 A108     		lsrs	r1, r4, #2
 3251 00b2 2846     		mov	r0, r5
 3252 00b4 FFF7FEFF 		bl	u8x8_cad_SendArg
 3253              	.LVL570:
 3254 00b8 EEE7     		b	.L347
 3255              	.LVL571:
 3256              	.L338:
 3257              	.LBE235:
 3258              	.LBE240:
1137:..\u8g2-master\csrc/u8x8_d_st7565.c **** 	u8x8_cad_SendSequence(u8x8, u8x8_d_st7565_dogm132_init_seq);
 3259              		.loc 1 1137 0
 3260 00ba FFF7FEFF 		bl	u8x8_d_helper_display_init
 3261              	.LVL572:
1138:..\u8g2-master\csrc/u8x8_d_st7565.c **** 	break;
 3262              		.loc 1 1138 0
 3263 00be 2846     		mov	r0, r5
 3264 00c0 1449     		ldr	r1, .L353+4
 3265 00c2 FFF7FEFF 		bl	u8x8_cad_SendSequence
 3266              	.LVL573:
 3267              		.loc 1 1156 0
 3268 00c6 0120     		movs	r0, #1
1139:..\u8g2-master\csrc/u8x8_d_st7565.c ****       case U8X8_MSG_DISPLAY_SET_FLIP_MODE:
 3269              		.loc 1 1139 0
 3270 00c8 BDE8F081 		pop	{r4, r5, r6, r7, r8, pc}
 3271              	.LVL574:
 3272              	.L335:
 3273              	.LBB241:
 3274              	.LBB236:
 165:..\u8g2-master\csrc/u8x8_d_st7565.c ****       break;
 3275              		.loc 1 165 0
ARM GAS  C:\Users\info\AppData\Local\Temp\ccQPGqkW.s 			page 87


 3276 00cc 1249     		ldr	r1, .L353+8
 3277              	.LVL575:
 3278 00ce FFF7FEFF 		bl	u8x8_cad_SendSequence
 3279              	.LVL576:
 3280              	.LBE236:
 3281              	.LBE241:
 3282              		.loc 1 1156 0
 3283 00d2 0120     		movs	r0, #1
 3284 00d4 BDE8F081 		pop	{r4, r5, r6, r7, r8, pc}
 3285              	.LVL577:
 3286              	.L351:
1134:..\u8g2-master\csrc/u8x8_d_st7565.c **** 	break;
 3287              		.loc 1 1134 0
 3288 00d8 1049     		ldr	r1, .L353+12
 3289              	.LVL578:
 3290 00da FFF7FEFF 		bl	u8x8_d_helper_display_setup_memory
 3291              	.LVL579:
 3292              		.loc 1 1156 0
 3293 00de 0120     		movs	r0, #1
1135:..\u8g2-master\csrc/u8x8_d_st7565.c ****       case U8X8_MSG_DISPLAY_INIT:
 3294              		.loc 1 1135 0
 3295 00e0 BDE8F081 		pop	{r4, r5, r6, r7, r8, pc}
 3296              	.LVL580:
 3297              	.L339:
1141:..\u8g2-master\csrc/u8x8_d_st7565.c **** 	{
 3298              		.loc 1 1141 0
 3299 00e4 4CB1     		cbz	r4, .L352
1148:..\u8g2-master\csrc/u8x8_d_st7565.c **** 	  u8x8->x_offset = u8x8->display_info->flipmode_x_offset;
 3300              		.loc 1 1148 0
 3301 00e6 0E49     		ldr	r1, .L353+16
 3302              	.LVL581:
 3303 00e8 FFF7FEFF 		bl	u8x8_cad_SendSequence
 3304              	.LVL582:
1149:..\u8g2-master\csrc/u8x8_d_st7565.c **** 	}	
 3305              		.loc 1 1149 0
 3306 00ec 2B68     		ldr	r3, [r5]
 3307              		.loc 1 1156 0
 3308 00ee 0120     		movs	r0, #1
1149:..\u8g2-master\csrc/u8x8_d_st7565.c **** 	}	
 3309              		.loc 1 1149 0
 3310 00f0 DB7C     		ldrb	r3, [r3, #19]	@ zero_extendqisi2
 3311 00f2 85F82230 		strb	r3, [r5, #34]
 3312 00f6 BDE8F081 		pop	{r4, r5, r6, r7, r8, pc}
 3313              	.LVL583:
 3314              	.L352:
1143:..\u8g2-master\csrc/u8x8_d_st7565.c **** 	  u8x8->x_offset = u8x8->display_info->default_x_offset;
 3315              		.loc 1 1143 0
 3316 00fa 0A49     		ldr	r1, .L353+20
 3317              	.LVL584:
 3318 00fc FFF7FEFF 		bl	u8x8_cad_SendSequence
 3319              	.LVL585:
1144:..\u8g2-master\csrc/u8x8_d_st7565.c **** 	}
 3320              		.loc 1 1144 0
 3321 0100 2B68     		ldr	r3, [r5]
 3322              		.loc 1 1156 0
 3323 0102 0120     		movs	r0, #1
1144:..\u8g2-master\csrc/u8x8_d_st7565.c **** 	}
ARM GAS  C:\Users\info\AppData\Local\Temp\ccQPGqkW.s 			page 88


 3324              		.loc 1 1144 0
 3325 0104 9B7C     		ldrb	r3, [r3, #18]	@ zero_extendqisi2
 3326 0106 85F82230 		strb	r3, [r5, #34]
 3327 010a BDE8F081 		pop	{r4, r5, r6, r7, r8, pc}
 3328              	.LVL586:
 3329              	.L354:
 3330 010e 00BF     		.align	2
 3331              	.L353:
 3332 0110 00000000 		.word	.LANCHOR0
 3333 0114 50020000 		.word	.LANCHOR0+592
 3334 0118 08000000 		.word	.LANCHOR0+8
 3335 011c 38020000 		.word	.LANCHOR0+568
 3336 0120 54000000 		.word	.LANCHOR0+84
 3337 0124 4C000000 		.word	.LANCHOR0+76
 3338              		.cfi_endproc
 3339              	.LFE12:
 3340              		.size	u8x8_d_st7565_ea_dogm132, .-u8x8_d_st7565_ea_dogm132
 3341              		.section	.rodata
 3342              		.align	2
 3343              		.set	.LANCHOR0,. + 0
 3344              		.type	u8x8_d_st7565_powersave0_seq, %object
 3345              		.size	u8x8_d_st7565_powersave0_seq, 7
 3346              	u8x8_d_st7565_powersave0_seq:
 3347 0000 18       		.byte	24
 3348 0001 15       		.byte	21
 3349 0002 A4       		.byte	-92
 3350 0003 15       		.byte	21
 3351 0004 AF       		.byte	-81
 3352 0005 19       		.byte	25
 3353 0006 FF       		.byte	-1
 3354 0007 00       		.space	1
 3355              		.type	u8x8_d_st7565_powersave1_seq, %object
 3356              		.size	u8x8_d_st7565_powersave1_seq, 7
 3357              	u8x8_d_st7565_powersave1_seq:
 3358 0008 18       		.byte	24
 3359 0009 15       		.byte	21
 3360 000a AE       		.byte	-82
 3361 000b 15       		.byte	21
 3362 000c A5       		.byte	-91
 3363 000d 19       		.byte	25
 3364 000e FF       		.byte	-1
 3365 000f 00       		.space	1
 3366              		.type	u8x8_st7565_128x64_display_info, %object
 3367              		.size	u8x8_st7565_128x64_display_info, 24
 3368              	u8x8_st7565_128x64_display_info:
 3369 0010 00       		.byte	0
 3370 0011 01       		.byte	1
 3371 0012 96       		.byte	-106
 3372 0013 32       		.byte	50
 3373 0014 01       		.byte	1
 3374 0015 01       		.byte	1
 3375 0016 32       		.byte	50
 3376 0017 78       		.byte	120
 3377 0018 00093D00 		.word	4000000
 3378 001c 00       		.byte	0
 3379 001d 04       		.byte	4
 3380 001e 28       		.byte	40
ARM GAS  C:\Users\info\AppData\Local\Temp\ccQPGqkW.s 			page 89


 3381 001f 50       		.byte	80
 3382 0020 10       		.byte	16
 3383 0021 08       		.byte	8
 3384 0022 00       		.byte	0
 3385 0023 04       		.byte	4
 3386 0024 8000     		.short	128
 3387 0026 4000     		.short	64
 3388              		.type	u8x8_d_st7565_dogm128_init_seq, %object
 3389              		.size	u8x8_d_st7565_dogm128_init_seq, 33
 3390              	u8x8_d_st7565_dogm128_init_seq:
 3391 0028 18       		.byte	24
 3392 0029 15       		.byte	21
 3393 002a E2       		.byte	-30
 3394 002b 15       		.byte	21
 3395 002c AE       		.byte	-82
 3396 002d 15       		.byte	21
 3397 002e 40       		.byte	64
 3398 002f 15       		.byte	21
 3399 0030 A1       		.byte	-95
 3400 0031 15       		.byte	21
 3401 0032 C0       		.byte	-64
 3402 0033 15       		.byte	21
 3403 0034 A6       		.byte	-90
 3404 0035 15       		.byte	21
 3405 0036 A2       		.byte	-94
 3406 0037 15       		.byte	21
 3407 0038 2F       		.byte	47
 3408 0039 15       		.byte	21
 3409 003a F8       		.byte	-8
 3410 003b 16       		.byte	22
 3411 003c 00       		.byte	0
 3412 003d 15       		.byte	21
 3413 003e 27       		.byte	39
 3414 003f 15       		.byte	21
 3415 0040 81       		.byte	-127
 3416 0041 16       		.byte	22
 3417 0042 18       		.byte	24
 3418 0043 15       		.byte	21
 3419 0044 AE       		.byte	-82
 3420 0045 15       		.byte	21
 3421 0046 A5       		.byte	-91
 3422 0047 19       		.byte	25
 3423 0048 FF       		.byte	-1
 3424 0049 000000   		.space	3
 3425              		.type	u8x8_d_st7565_flip0_seq, %object
 3426              		.size	u8x8_d_st7565_flip0_seq, 7
 3427              	u8x8_d_st7565_flip0_seq:
 3428 004c 18       		.byte	24
 3429 004d 15       		.byte	21
 3430 004e A1       		.byte	-95
 3431 004f 15       		.byte	21
 3432 0050 C0       		.byte	-64
 3433 0051 19       		.byte	25
 3434 0052 FF       		.byte	-1
 3435 0053 00       		.space	1
 3436              		.type	u8x8_d_st7565_flip1_seq, %object
 3437              		.size	u8x8_d_st7565_flip1_seq, 7
ARM GAS  C:\Users\info\AppData\Local\Temp\ccQPGqkW.s 			page 90


 3438              	u8x8_d_st7565_flip1_seq:
 3439 0054 18       		.byte	24
 3440 0055 15       		.byte	21
 3441 0056 A0       		.byte	-96
 3442 0057 15       		.byte	21
 3443 0058 C8       		.byte	-56
 3444 0059 19       		.byte	25
 3445 005a FF       		.byte	-1
 3446 005b 00       		.space	1
 3447              		.type	u8x8_st7565_64128n_display_info, %object
 3448              		.size	u8x8_st7565_64128n_display_info, 24
 3449              	u8x8_st7565_64128n_display_info:
 3450 005c 00       		.byte	0
 3451 005d 01       		.byte	1
 3452 005e 96       		.byte	-106
 3453 005f 32       		.byte	50
 3454 0060 01       		.byte	1
 3455 0061 01       		.byte	1
 3456 0062 32       		.byte	50
 3457 0063 78       		.byte	120
 3458 0064 00093D00 		.word	4000000
 3459 0068 00       		.byte	0
 3460 0069 04       		.byte	4
 3461 006a 28       		.byte	40
 3462 006b 50       		.byte	80
 3463 006c 10       		.byte	16
 3464 006d 08       		.byte	8
 3465 006e 04       		.byte	4
 3466 006f 00       		.byte	0
 3467 0070 8000     		.short	128
 3468 0072 4000     		.short	64
 3469              		.type	u8x8_d_st7565_64128n_init_seq, %object
 3470              		.size	u8x8_d_st7565_64128n_init_seq, 29
 3471              	u8x8_d_st7565_64128n_init_seq:
 3472 0074 18       		.byte	24
 3473 0075 15       		.byte	21
 3474 0076 E2       		.byte	-30
 3475 0077 15       		.byte	21
 3476 0078 A2       		.byte	-94
 3477 0079 15       		.byte	21
 3478 007a A1       		.byte	-95
 3479 007b 15       		.byte	21
 3480 007c C0       		.byte	-64
 3481 007d 15       		.byte	21
 3482 007e 40       		.byte	64
 3483 007f 15       		.byte	21
 3484 0080 2C       		.byte	44
 3485 0081 15       		.byte	21
 3486 0082 2E       		.byte	46
 3487 0083 15       		.byte	21
 3488 0084 2F       		.byte	47
 3489 0085 15       		.byte	21
 3490 0086 10       		.byte	16
 3491 0087 15       		.byte	21
 3492 0088 A6       		.byte	-90
 3493 0089 15       		.byte	21
 3494 008a 81       		.byte	-127
ARM GAS  C:\Users\info\AppData\Local\Temp\ccQPGqkW.s 			page 91


 3495 008b 15       		.byte	21
 3496 008c 1E       		.byte	30
 3497 008d 15       		.byte	21
 3498 008e AE       		.byte	-82
 3499 008f 19       		.byte	25
 3500 0090 FF       		.byte	-1
 3501 0091 000000   		.space	3
 3502              		.type	u8x8_d_st7565_zolen_128x64_init_seq, %object
 3503              		.size	u8x8_d_st7565_zolen_128x64_init_seq, 33
 3504              	u8x8_d_st7565_zolen_128x64_init_seq:
 3505 0094 18       		.byte	24
 3506 0095 15       		.byte	21
 3507 0096 E2       		.byte	-30
 3508 0097 15       		.byte	21
 3509 0098 AE       		.byte	-82
 3510 0099 15       		.byte	21
 3511 009a 40       		.byte	64
 3512 009b 15       		.byte	21
 3513 009c A1       		.byte	-95
 3514 009d 15       		.byte	21
 3515 009e C8       		.byte	-56
 3516 009f 15       		.byte	21
 3517 00a0 A6       		.byte	-90
 3518 00a1 15       		.byte	21
 3519 00a2 A2       		.byte	-94
 3520 00a3 15       		.byte	21
 3521 00a4 2F       		.byte	47
 3522 00a5 15       		.byte	21
 3523 00a6 F8       		.byte	-8
 3524 00a7 16       		.byte	22
 3525 00a8 00       		.byte	0
 3526 00a9 15       		.byte	21
 3527 00aa 27       		.byte	39
 3528 00ab 15       		.byte	21
 3529 00ac 81       		.byte	-127
 3530 00ad 16       		.byte	22
 3531 00ae 07       		.byte	7
 3532 00af 15       		.byte	21
 3533 00b0 AE       		.byte	-82
 3534 00b1 15       		.byte	21
 3535 00b2 A5       		.byte	-91
 3536 00b3 19       		.byte	25
 3537 00b4 FF       		.byte	-1
 3538 00b5 000000   		.space	3
 3539              		.type	u8x8_d_st7565_zflip0_seq, %object
 3540              		.size	u8x8_d_st7565_zflip0_seq, 7
 3541              	u8x8_d_st7565_zflip0_seq:
 3542 00b8 18       		.byte	24
 3543 00b9 15       		.byte	21
 3544 00ba A1       		.byte	-95
 3545 00bb 15       		.byte	21
 3546 00bc C8       		.byte	-56
 3547 00bd 19       		.byte	25
 3548 00be FF       		.byte	-1
 3549 00bf 00       		.space	1
 3550              		.type	u8x8_d_st7565_zflip1_seq, %object
 3551              		.size	u8x8_d_st7565_zflip1_seq, 7
ARM GAS  C:\Users\info\AppData\Local\Temp\ccQPGqkW.s 			page 92


 3552              	u8x8_d_st7565_zflip1_seq:
 3553 00c0 18       		.byte	24
 3554 00c1 15       		.byte	21
 3555 00c2 A0       		.byte	-96
 3556 00c3 15       		.byte	21
 3557 00c4 C0       		.byte	-64
 3558 00c5 19       		.byte	25
 3559 00c6 FF       		.byte	-1
 3560 00c7 00       		.space	1
 3561              		.type	u8x8_st7565_128x32_display_info, %object
 3562              		.size	u8x8_st7565_128x32_display_info, 24
 3563              	u8x8_st7565_128x32_display_info:
 3564 00c8 00       		.byte	0
 3565 00c9 01       		.byte	1
 3566 00ca 96       		.byte	-106
 3567 00cb 32       		.byte	50
 3568 00cc 01       		.byte	1
 3569 00cd 01       		.byte	1
 3570 00ce 32       		.byte	50
 3571 00cf 78       		.byte	120
 3572 00d0 00093D00 		.word	4000000
 3573 00d4 00       		.byte	0
 3574 00d5 04       		.byte	4
 3575 00d6 28       		.byte	40
 3576 00d7 50       		.byte	80
 3577 00d8 10       		.byte	16
 3578 00d9 04       		.byte	4
 3579 00da 04       		.byte	4
 3580 00db 00       		.byte	0
 3581 00dc 8000     		.short	128
 3582 00de 2000     		.short	32
 3583              		.type	u8x8_d_st7565_nhd_c12832_init_seq, %object
 3584              		.size	u8x8_d_st7565_nhd_c12832_init_seq, 33
 3585              	u8x8_d_st7565_nhd_c12832_init_seq:
 3586 00e0 18       		.byte	24
 3587 00e1 15       		.byte	21
 3588 00e2 E2       		.byte	-30
 3589 00e3 15       		.byte	21
 3590 00e4 AE       		.byte	-82
 3591 00e5 15       		.byte	21
 3592 00e6 40       		.byte	64
 3593 00e7 15       		.byte	21
 3594 00e8 A1       		.byte	-95
 3595 00e9 15       		.byte	21
 3596 00ea C0       		.byte	-64
 3597 00eb 15       		.byte	21
 3598 00ec A6       		.byte	-90
 3599 00ed 15       		.byte	21
 3600 00ee A2       		.byte	-94
 3601 00ef 15       		.byte	21
 3602 00f0 2F       		.byte	47
 3603 00f1 15       		.byte	21
 3604 00f2 F8       		.byte	-8
 3605 00f3 16       		.byte	22
 3606 00f4 00       		.byte	0
 3607 00f5 15       		.byte	21
 3608 00f6 23       		.byte	35
ARM GAS  C:\Users\info\AppData\Local\Temp\ccQPGqkW.s 			page 93


 3609 00f7 15       		.byte	21
 3610 00f8 81       		.byte	-127
 3611 00f9 16       		.byte	22
 3612 00fa 0A       		.byte	10
 3613 00fb 15       		.byte	21
 3614 00fc AE       		.byte	-82
 3615 00fd 15       		.byte	21
 3616 00fe A5       		.byte	-91
 3617 00ff 19       		.byte	25
 3618 0100 FF       		.byte	-1
 3619 0101 000000   		.space	3
 3620              		.type	u8x8_st7565_nhd_c12864_display_info, %object
 3621              		.size	u8x8_st7565_nhd_c12864_display_info, 24
 3622              	u8x8_st7565_nhd_c12864_display_info:
 3623 0104 00       		.byte	0
 3624 0105 01       		.byte	1
 3625 0106 96       		.byte	-106
 3626 0107 32       		.byte	50
 3627 0108 01       		.byte	1
 3628 0109 01       		.byte	1
 3629 010a 32       		.byte	50
 3630 010b 78       		.byte	120
 3631 010c 00093D00 		.word	4000000
 3632 0110 00       		.byte	0
 3633 0111 04       		.byte	4
 3634 0112 28       		.byte	40
 3635 0113 50       		.byte	80
 3636 0114 10       		.byte	16
 3637 0115 08       		.byte	8
 3638 0116 04       		.byte	4
 3639 0117 00       		.byte	0
 3640 0118 8000     		.short	128
 3641 011a 4000     		.short	64
 3642              		.type	u8x8_d_st7565_nhd_c12864_init_seq, %object
 3643              		.size	u8x8_d_st7565_nhd_c12864_init_seq, 33
 3644              	u8x8_d_st7565_nhd_c12864_init_seq:
 3645 011c 18       		.byte	24
 3646 011d 15       		.byte	21
 3647 011e E2       		.byte	-30
 3648 011f 15       		.byte	21
 3649 0120 AE       		.byte	-82
 3650 0121 15       		.byte	21
 3651 0122 40       		.byte	64
 3652 0123 15       		.byte	21
 3653 0124 A1       		.byte	-95
 3654 0125 15       		.byte	21
 3655 0126 C0       		.byte	-64
 3656 0127 15       		.byte	21
 3657 0128 A6       		.byte	-90
 3658 0129 15       		.byte	21
 3659 012a A2       		.byte	-94
 3660 012b 15       		.byte	21
 3661 012c 2F       		.byte	47
 3662 012d 15       		.byte	21
 3663 012e F8       		.byte	-8
 3664 012f 16       		.byte	22
 3665 0130 00       		.byte	0
ARM GAS  C:\Users\info\AppData\Local\Temp\ccQPGqkW.s 			page 94


 3666 0131 15       		.byte	21
 3667 0132 23       		.byte	35
 3668 0133 15       		.byte	21
 3669 0134 81       		.byte	-127
 3670 0135 16       		.byte	22
 3671 0136 B4       		.byte	-76
 3672 0137 15       		.byte	21
 3673 0138 AE       		.byte	-82
 3674 0139 15       		.byte	21
 3675 013a A5       		.byte	-91
 3676 013b 19       		.byte	25
 3677 013c FF       		.byte	-1
 3678 013d 000000   		.space	3
 3679              		.type	u8x8_st7565_lm6059_display_info, %object
 3680              		.size	u8x8_st7565_lm6059_display_info, 24
 3681              	u8x8_st7565_lm6059_display_info:
 3682 0140 00       		.byte	0
 3683 0141 01       		.byte	1
 3684 0142 96       		.byte	-106
 3685 0143 32       		.byte	50
 3686 0144 01       		.byte	1
 3687 0145 01       		.byte	1
 3688 0146 32       		.byte	50
 3689 0147 78       		.byte	120
 3690 0148 00093D00 		.word	4000000
 3691 014c 00       		.byte	0
 3692 014d 04       		.byte	4
 3693 014e 28       		.byte	40
 3694 014f 50       		.byte	80
 3695 0150 10       		.byte	16
 3696 0151 08       		.byte	8
 3697 0152 01       		.byte	1
 3698 0153 03       		.byte	3
 3699 0154 8000     		.short	128
 3700 0156 4000     		.short	64
 3701              		.type	u8x8_d_st7565_lm6059_init_seq, %object
 3702              		.size	u8x8_d_st7565_lm6059_init_seq, 33
 3703              	u8x8_d_st7565_lm6059_init_seq:
 3704 0158 18       		.byte	24
 3705 0159 15       		.byte	21
 3706 015a E2       		.byte	-30
 3707 015b 15       		.byte	21
 3708 015c AE       		.byte	-82
 3709 015d 15       		.byte	21
 3710 015e 60       		.byte	96
 3711 015f 15       		.byte	21
 3712 0160 A0       		.byte	-96
 3713 0161 15       		.byte	21
 3714 0162 C8       		.byte	-56
 3715 0163 15       		.byte	21
 3716 0164 A6       		.byte	-90
 3717 0165 15       		.byte	21
 3718 0166 A3       		.byte	-93
 3719 0167 15       		.byte	21
 3720 0168 2F       		.byte	47
 3721 0169 15       		.byte	21
 3722 016a F8       		.byte	-8
ARM GAS  C:\Users\info\AppData\Local\Temp\ccQPGqkW.s 			page 95


 3723 016b 16       		.byte	22
 3724 016c 00       		.byte	0
 3725 016d 15       		.byte	21
 3726 016e 27       		.byte	39
 3727 016f 15       		.byte	21
 3728 0170 81       		.byte	-127
 3729 0171 16       		.byte	22
 3730 0172 18       		.byte	24
 3731 0173 15       		.byte	21
 3732 0174 AE       		.byte	-82
 3733 0175 15       		.byte	21
 3734 0176 A5       		.byte	-91
 3735 0177 19       		.byte	25
 3736 0178 FF       		.byte	-1
 3737 0179 000000   		.space	3
 3738              		.type	u8x8_st7565_lx12864_display_info, %object
 3739              		.size	u8x8_st7565_lx12864_display_info, 24
 3740              	u8x8_st7565_lx12864_display_info:
 3741 017c 00       		.byte	0
 3742 017d 01       		.byte	1
 3743 017e 96       		.byte	-106
 3744 017f 32       		.byte	50
 3745 0180 01       		.byte	1
 3746 0181 01       		.byte	1
 3747 0182 32       		.byte	50
 3748 0183 78       		.byte	120
 3749 0184 00093D00 		.word	4000000
 3750 0188 00       		.byte	0
 3751 0189 04       		.byte	4
 3752 018a 28       		.byte	40
 3753 018b 50       		.byte	80
 3754 018c 10       		.byte	16
 3755 018d 08       		.byte	8
 3756 018e 01       		.byte	1
 3757 018f 03       		.byte	3
 3758 0190 8000     		.short	128
 3759 0192 4000     		.short	64
 3760              		.type	u8x8_d_st7565_lx12864_init_seq, %object
 3761              		.size	u8x8_d_st7565_lx12864_init_seq, 33
 3762              	u8x8_d_st7565_lx12864_init_seq:
 3763 0194 18       		.byte	24
 3764 0195 15       		.byte	21
 3765 0196 E2       		.byte	-30
 3766 0197 15       		.byte	21
 3767 0198 AE       		.byte	-82
 3768 0199 15       		.byte	21
 3769 019a 60       		.byte	96
 3770 019b 15       		.byte	21
 3771 019c A0       		.byte	-96
 3772 019d 15       		.byte	21
 3773 019e C8       		.byte	-56
 3774 019f 15       		.byte	21
 3775 01a0 A6       		.byte	-90
 3776 01a1 15       		.byte	21
 3777 01a2 A2       		.byte	-94
 3778 01a3 15       		.byte	21
 3779 01a4 2F       		.byte	47
ARM GAS  C:\Users\info\AppData\Local\Temp\ccQPGqkW.s 			page 96


 3780 01a5 15       		.byte	21
 3781 01a6 F8       		.byte	-8
 3782 01a7 16       		.byte	22
 3783 01a8 00       		.byte	0
 3784 01a9 15       		.byte	21
 3785 01aa 27       		.byte	39
 3786 01ab 15       		.byte	21
 3787 01ac 81       		.byte	-127
 3788 01ad 16       		.byte	22
 3789 01ae 08       		.byte	8
 3790 01af 15       		.byte	21
 3791 01b0 AE       		.byte	-82
 3792 01b1 15       		.byte	21
 3793 01b2 A5       		.byte	-91
 3794 01b3 19       		.byte	25
 3795 01b4 FF       		.byte	-1
 3796 01b5 000000   		.space	3
 3797              		.type	u8x8_st7565_erc12864_display_info, %object
 3798              		.size	u8x8_st7565_erc12864_display_info, 24
 3799              	u8x8_st7565_erc12864_display_info:
 3800 01b8 00       		.byte	0
 3801 01b9 01       		.byte	1
 3802 01ba 96       		.byte	-106
 3803 01bb 32       		.byte	50
 3804 01bc 01       		.byte	1
 3805 01bd 01       		.byte	1
 3806 01be 32       		.byte	50
 3807 01bf 78       		.byte	120
 3808 01c0 00093D00 		.word	4000000
 3809 01c4 00       		.byte	0
 3810 01c5 04       		.byte	4
 3811 01c6 28       		.byte	40
 3812 01c7 50       		.byte	80
 3813 01c8 10       		.byte	16
 3814 01c9 08       		.byte	8
 3815 01ca 00       		.byte	0
 3816 01cb 04       		.byte	4
 3817 01cc 8000     		.short	128
 3818 01ce 4000     		.short	64
 3819              		.type	u8x8_d_st7565_erc12864_init_seq, %object
 3820              		.size	u8x8_d_st7565_erc12864_init_seq, 33
 3821              	u8x8_d_st7565_erc12864_init_seq:
 3822 01d0 18       		.byte	24
 3823 01d1 15       		.byte	21
 3824 01d2 E2       		.byte	-30
 3825 01d3 15       		.byte	21
 3826 01d4 AE       		.byte	-82
 3827 01d5 15       		.byte	21
 3828 01d6 40       		.byte	64
 3829 01d7 15       		.byte	21
 3830 01d8 A0       		.byte	-96
 3831 01d9 15       		.byte	21
 3832 01da C8       		.byte	-56
 3833 01db 15       		.byte	21
 3834 01dc A6       		.byte	-90
 3835 01dd 15       		.byte	21
 3836 01de A3       		.byte	-93
ARM GAS  C:\Users\info\AppData\Local\Temp\ccQPGqkW.s 			page 97


 3837 01df 15       		.byte	21
 3838 01e0 2F       		.byte	47
 3839 01e1 15       		.byte	21
 3840 01e2 F8       		.byte	-8
 3841 01e3 16       		.byte	22
 3842 01e4 00       		.byte	0
 3843 01e5 15       		.byte	21
 3844 01e6 27       		.byte	39
 3845 01e7 15       		.byte	21
 3846 01e8 81       		.byte	-127
 3847 01e9 16       		.byte	22
 3848 01ea 18       		.byte	24
 3849 01eb 15       		.byte	21
 3850 01ec AE       		.byte	-82
 3851 01ed 15       		.byte	21
 3852 01ee A5       		.byte	-91
 3853 01ef 19       		.byte	25
 3854 01f0 FF       		.byte	-1
 3855 01f1 000000   		.space	3
 3856              		.type	u8x8_d_st7565_erc12864_alt_init_seq, %object
 3857              		.size	u8x8_d_st7565_erc12864_alt_init_seq, 33
 3858              	u8x8_d_st7565_erc12864_alt_init_seq:
 3859 01f4 18       		.byte	24
 3860 01f5 15       		.byte	21
 3861 01f6 E2       		.byte	-30
 3862 01f7 15       		.byte	21
 3863 01f8 AE       		.byte	-82
 3864 01f9 15       		.byte	21
 3865 01fa 40       		.byte	64
 3866 01fb 15       		.byte	21
 3867 01fc A0       		.byte	-96
 3868 01fd 15       		.byte	21
 3869 01fe C8       		.byte	-56
 3870 01ff 15       		.byte	21
 3871 0200 A6       		.byte	-90
 3872 0201 15       		.byte	21
 3873 0202 A2       		.byte	-94
 3874 0203 15       		.byte	21
 3875 0204 2F       		.byte	47
 3876 0205 15       		.byte	21
 3877 0206 F8       		.byte	-8
 3878 0207 16       		.byte	22
 3879 0208 00       		.byte	0
 3880 0209 15       		.byte	21
 3881 020a 27       		.byte	39
 3882 020b 15       		.byte	21
 3883 020c 81       		.byte	-127
 3884 020d 16       		.byte	22
 3885 020e 05       		.byte	5
 3886 020f 15       		.byte	21
 3887 0210 AE       		.byte	-82
 3888 0211 15       		.byte	21
 3889 0212 A5       		.byte	-91
 3890 0213 19       		.byte	25
 3891 0214 FF       		.byte	-1
 3892 0215 000000   		.space	3
 3893              		.type	u8x8_d_nt7534_tg12864r_init_seq, %object
ARM GAS  C:\Users\info\AppData\Local\Temp\ccQPGqkW.s 			page 98


 3894              		.size	u8x8_d_nt7534_tg12864r_init_seq, 29
 3895              	u8x8_d_nt7534_tg12864r_init_seq:
 3896 0218 18       		.byte	24
 3897 0219 15       		.byte	21
 3898 021a E2       		.byte	-30
 3899 021b 15       		.byte	21
 3900 021c AE       		.byte	-82
 3901 021d 15       		.byte	21
 3902 021e 60       		.byte	96
 3903 021f 15       		.byte	21
 3904 0220 A0       		.byte	-96
 3905 0221 15       		.byte	21
 3906 0222 C8       		.byte	-56
 3907 0223 15       		.byte	21
 3908 0224 A6       		.byte	-90
 3909 0225 15       		.byte	21
 3910 0226 A3       		.byte	-93
 3911 0227 15       		.byte	21
 3912 0228 2F       		.byte	47
 3913 0229 15       		.byte	21
 3914 022a 27       		.byte	39
 3915 022b 15       		.byte	21
 3916 022c 81       		.byte	-127
 3917 022d 16       		.byte	22
 3918 022e 09       		.byte	9
 3919 022f 15       		.byte	21
 3920 0230 AE       		.byte	-82
 3921 0231 15       		.byte	21
 3922 0232 A5       		.byte	-91
 3923 0233 19       		.byte	25
 3924 0234 FF       		.byte	-1
 3925 0235 000000   		.space	3
 3926              		.type	u8x8_st7565_dogm132_display_info, %object
 3927              		.size	u8x8_st7565_dogm132_display_info, 24
 3928              	u8x8_st7565_dogm132_display_info:
 3929 0238 00       		.byte	0
 3930 0239 01       		.byte	1
 3931 023a 96       		.byte	-106
 3932 023b 32       		.byte	50
 3933 023c 01       		.byte	1
 3934 023d 01       		.byte	1
 3935 023e 32       		.byte	50
 3936 023f 78       		.byte	120
 3937 0240 00093D00 		.word	4000000
 3938 0244 00       		.byte	0
 3939 0245 04       		.byte	4
 3940 0246 28       		.byte	40
 3941 0247 50       		.byte	80
 3942 0248 11       		.byte	17
 3943 0249 04       		.byte	4
 3944 024a 00       		.byte	0
 3945 024b 00       		.byte	0
 3946 024c 8400     		.short	132
 3947 024e 2000     		.short	32
 3948              		.type	u8x8_d_st7565_dogm132_init_seq, %object
 3949              		.size	u8x8_d_st7565_dogm132_init_seq, 33
 3950              	u8x8_d_st7565_dogm132_init_seq:
ARM GAS  C:\Users\info\AppData\Local\Temp\ccQPGqkW.s 			page 99


 3951 0250 18       		.byte	24
 3952 0251 15       		.byte	21
 3953 0252 E2       		.byte	-30
 3954 0253 15       		.byte	21
 3955 0254 AE       		.byte	-82
 3956 0255 15       		.byte	21
 3957 0256 40       		.byte	64
 3958 0257 15       		.byte	21
 3959 0258 A1       		.byte	-95
 3960 0259 15       		.byte	21
 3961 025a C0       		.byte	-64
 3962 025b 15       		.byte	21
 3963 025c A6       		.byte	-90
 3964 025d 15       		.byte	21
 3965 025e A2       		.byte	-94
 3966 025f 15       		.byte	21
 3967 0260 2F       		.byte	47
 3968 0261 15       		.byte	21
 3969 0262 F8       		.byte	-8
 3970 0263 16       		.byte	22
 3971 0264 00       		.byte	0
 3972 0265 15       		.byte	21
 3973 0266 23       		.byte	35
 3974 0267 15       		.byte	21
 3975 0268 81       		.byte	-127
 3976 0269 16       		.byte	22
 3977 026a 1F       		.byte	31
 3978 026b 15       		.byte	21
 3979 026c AE       		.byte	-82
 3980 026d 15       		.byte	21
 3981 026e A5       		.byte	-91
 3982 026f 19       		.byte	25
 3983 0270 FF       		.byte	-1
 3984              		.text
 3985              	.Letext0:
 3986              		.file 2 "c:\\program files (x86)\\cypress\\psoc creator\\4.2\\psoc creator\\import\\gnu\\arm\\5.4.
 3987              		.file 3 "c:\\program files (x86)\\cypress\\psoc creator\\4.2\\psoc creator\\import\\gnu\\arm\\5.4.
 3988              		.file 4 "..\\u8g2-master\\csrc\\u8x8.h"
 3989              		.section	.debug_info,"",%progbits
 3990              	.Ldebug_info0:
 3991 0000 F2240000 		.4byte	0x24f2
 3992 0004 0400     		.2byte	0x4
 3993 0006 00000000 		.4byte	.Ldebug_abbrev0
 3994 000a 04       		.byte	0x4
 3995 000b 01       		.uleb128 0x1
 3996 000c CC060000 		.4byte	.LASF116
 3997 0010 0C       		.byte	0xc
 3998 0011 4A050000 		.4byte	.LASF117
 3999 0015 F7050000 		.4byte	.LASF118
 4000 0019 D0020000 		.4byte	.Ldebug_ranges0+0x2d0
 4001 001d 00000000 		.4byte	0
 4002 0021 00000000 		.4byte	.Ldebug_line0
 4003 0025 02       		.uleb128 0x2
 4004 0026 01       		.byte	0x1
 4005 0027 06       		.byte	0x6
 4006 0028 EF000000 		.4byte	.LASF0
 4007 002c 03       		.uleb128 0x3
ARM GAS  C:\Users\info\AppData\Local\Temp\ccQPGqkW.s 			page 100


 4008 002d 2E000000 		.4byte	.LASF3
 4009 0031 02       		.byte	0x2
 4010 0032 1D       		.byte	0x1d
 4011 0033 37000000 		.4byte	0x37
 4012 0037 02       		.uleb128 0x2
 4013 0038 01       		.byte	0x1
 4014 0039 08       		.byte	0x8
 4015 003a 6E050000 		.4byte	.LASF1
 4016 003e 02       		.uleb128 0x2
 4017 003f 02       		.byte	0x2
 4018 0040 05       		.byte	0x5
 4019 0041 9E050000 		.4byte	.LASF2
 4020 0045 03       		.uleb128 0x3
 4021 0046 63070000 		.4byte	.LASF4
 4022 004a 02       		.byte	0x2
 4023 004b 2B       		.byte	0x2b
 4024 004c 50000000 		.4byte	0x50
 4025 0050 02       		.uleb128 0x2
 4026 0051 02       		.byte	0x2
 4027 0052 07       		.byte	0x7
 4028 0053 80030000 		.4byte	.LASF5
 4029 0057 02       		.uleb128 0x2
 4030 0058 04       		.byte	0x4
 4031 0059 05       		.byte	0x5
 4032 005a 86010000 		.4byte	.LASF6
 4033 005e 03       		.uleb128 0x3
 4034 005f 22020000 		.4byte	.LASF7
 4035 0063 02       		.byte	0x2
 4036 0064 41       		.byte	0x41
 4037 0065 69000000 		.4byte	0x69
 4038 0069 02       		.uleb128 0x2
 4039 006a 04       		.byte	0x4
 4040 006b 07       		.byte	0x7
 4041 006c C2020000 		.4byte	.LASF8
 4042 0070 02       		.uleb128 0x2
 4043 0071 08       		.byte	0x8
 4044 0072 05       		.byte	0x5
 4045 0073 E1000000 		.4byte	.LASF9
 4046 0077 02       		.uleb128 0x2
 4047 0078 08       		.byte	0x8
 4048 0079 07       		.byte	0x7
 4049 007a 51000000 		.4byte	.LASF10
 4050 007e 04       		.uleb128 0x4
 4051 007f 04       		.byte	0x4
 4052 0080 05       		.byte	0x5
 4053 0081 696E7400 		.ascii	"int\000"
 4054 0085 02       		.uleb128 0x2
 4055 0086 04       		.byte	0x4
 4056 0087 07       		.byte	0x7
 4057 0088 A1020000 		.4byte	.LASF11
 4058 008c 03       		.uleb128 0x3
 4059 008d 2F080000 		.4byte	.LASF12
 4060 0091 03       		.byte	0x3
 4061 0092 18       		.byte	0x18
 4062 0093 2C000000 		.4byte	0x2c
 4063 0097 03       		.uleb128 0x3
 4064 0098 A5010000 		.4byte	.LASF13
ARM GAS  C:\Users\info\AppData\Local\Temp\ccQPGqkW.s 			page 101


 4065 009c 03       		.byte	0x3
 4066 009d 24       		.byte	0x24
 4067 009e 45000000 		.4byte	0x45
 4068 00a2 03       		.uleb128 0x3
 4069 00a3 76060000 		.4byte	.LASF14
 4070 00a7 03       		.byte	0x3
 4071 00a8 30       		.byte	0x30
 4072 00a9 5E000000 		.4byte	0x5e
 4073 00ad 05       		.uleb128 0x5
 4074 00ae 04       		.byte	0x4
 4075 00af 02       		.uleb128 0x2
 4076 00b0 08       		.byte	0x8
 4077 00b1 04       		.byte	0x4
 4078 00b2 97040000 		.4byte	.LASF15
 4079 00b6 03       		.uleb128 0x3
 4080 00b7 B3070000 		.4byte	.LASF16
 4081 00bb 04       		.byte	0x4
 4082 00bc C3       		.byte	0xc3
 4083 00bd C1000000 		.4byte	0xc1
 4084 00c1 06       		.uleb128 0x6
 4085 00c2 21040000 		.4byte	.LASF38
 4086 00c6 30       		.byte	0x30
 4087 00c7 04       		.byte	0x4
 4088 00c8 4601     		.2byte	0x146
 4089 00ca D3010000 		.4byte	0x1d3
 4090 00ce 07       		.uleb128 0x7
 4091 00cf 01040000 		.4byte	.LASF17
 4092 00d3 04       		.byte	0x4
 4093 00d4 4801     		.2byte	0x148
 4094 00d6 80030000 		.4byte	0x380
 4095 00da 00       		.byte	0
 4096 00db 07       		.uleb128 0x7
 4097 00dc AE010000 		.4byte	.LASF18
 4098 00e0 04       		.byte	0x4
 4099 00e1 4901     		.2byte	0x149
 4100 00e3 55030000 		.4byte	0x355
 4101 00e7 04       		.byte	0x4
 4102 00e8 07       		.uleb128 0x7
 4103 00e9 10010000 		.4byte	.LASF19
 4104 00ed 04       		.byte	0x4
 4105 00ee 4A01     		.2byte	0x14a
 4106 00f0 20030000 		.4byte	0x320
 4107 00f4 08       		.byte	0x8
 4108 00f5 07       		.uleb128 0x7
 4109 00f6 A3040000 		.4byte	.LASF20
 4110 00fa 04       		.byte	0x4
 4111 00fb 4B01     		.2byte	0x14b
 4112 00fd 20030000 		.4byte	0x320
 4113 0101 0C       		.byte	0xc
 4114 0102 07       		.uleb128 0x7
 4115 0103 38000000 		.4byte	.LASF21
 4116 0107 04       		.byte	0x4
 4117 0108 4C01     		.2byte	0x14c
 4118 010a 20030000 		.4byte	0x320
 4119 010e 10       		.byte	0x10
 4120 010f 07       		.uleb128 0x7
 4121 0110 C3010000 		.4byte	.LASF22
ARM GAS  C:\Users\info\AppData\Local\Temp\ccQPGqkW.s 			page 102


 4122 0114 04       		.byte	0x4
 4123 0115 4D01     		.2byte	0x14d
 4124 0117 20030000 		.4byte	0x320
 4125 011b 14       		.byte	0x14
 4126 011c 07       		.uleb128 0x7
 4127 011d BA070000 		.4byte	.LASF23
 4128 0121 04       		.byte	0x4
 4129 0122 4E01     		.2byte	0x14e
 4130 0124 A2000000 		.4byte	0xa2
 4131 0128 18       		.byte	0x18
 4132 0129 07       		.uleb128 0x7
 4133 012a EE070000 		.4byte	.LASF24
 4134 012e 04       		.byte	0x4
 4135 012f 4F01     		.2byte	0x14f
 4136 0131 8B030000 		.4byte	0x38b
 4137 0135 1C       		.byte	0x1c
 4138 0136 07       		.uleb128 0x7
 4139 0137 5B040000 		.4byte	.LASF25
 4140 013b 04       		.byte	0x4
 4141 013c 5001     		.2byte	0x150
 4142 013e 97000000 		.4byte	0x97
 4143 0142 20       		.byte	0x20
 4144 0143 07       		.uleb128 0x7
 4145 0144 EC040000 		.4byte	.LASF26
 4146 0148 04       		.byte	0x4
 4147 0149 5101     		.2byte	0x151
 4148 014b 8C000000 		.4byte	0x8c
 4149 014f 22       		.byte	0x22
 4150 0150 07       		.uleb128 0x7
 4151 0151 FB000000 		.4byte	.LASF27
 4152 0155 04       		.byte	0x4
 4153 0156 5201     		.2byte	0x152
 4154 0158 8C000000 		.4byte	0x8c
 4155 015c 23       		.byte	0x23
 4156 015d 07       		.uleb128 0x7
 4157 015e B6020000 		.4byte	.LASF28
 4158 0162 04       		.byte	0x4
 4159 0163 5301     		.2byte	0x153
 4160 0165 8C000000 		.4byte	0x8c
 4161 0169 24       		.byte	0x24
 4162 016a 07       		.uleb128 0x7
 4163 016b 37080000 		.4byte	.LASF29
 4164 016f 04       		.byte	0x4
 4165 0170 5601     		.2byte	0x156
 4166 0172 8C000000 		.4byte	0x8c
 4167 0176 25       		.byte	0x25
 4168 0177 07       		.uleb128 0x7
 4169 0178 BF040000 		.4byte	.LASF30
 4170 017c 04       		.byte	0x4
 4171 017d 5701     		.2byte	0x157
 4172 017f 8C000000 		.4byte	0x8c
 4173 0183 26       		.byte	0x26
 4174 0184 07       		.uleb128 0x7
 4175 0185 B2000000 		.4byte	.LASF31
 4176 0189 04       		.byte	0x4
 4177 018a 5801     		.2byte	0x158
 4178 018c 8C000000 		.4byte	0x8c
ARM GAS  C:\Users\info\AppData\Local\Temp\ccQPGqkW.s 			page 103


 4179 0190 27       		.byte	0x27
 4180 0191 07       		.uleb128 0x7
 4181 0192 D5000000 		.4byte	.LASF32
 4182 0196 04       		.byte	0x4
 4183 0197 5901     		.2byte	0x159
 4184 0199 8C000000 		.4byte	0x8c
 4185 019d 28       		.byte	0x28
 4186 019e 07       		.uleb128 0x7
 4187 019f B4080000 		.4byte	.LASF33
 4188 01a3 04       		.byte	0x4
 4189 01a4 5A01     		.2byte	0x15a
 4190 01a6 8C000000 		.4byte	0x8c
 4191 01aa 29       		.byte	0x29
 4192 01ab 07       		.uleb128 0x7
 4193 01ac E9030000 		.4byte	.LASF34
 4194 01b0 04       		.byte	0x4
 4195 01b1 5B01     		.2byte	0x15b
 4196 01b3 8C000000 		.4byte	0x8c
 4197 01b7 2A       		.byte	0x2a
 4198 01b8 07       		.uleb128 0x7
 4199 01b9 C4070000 		.4byte	.LASF35
 4200 01bd 04       		.byte	0x4
 4201 01be 5C01     		.2byte	0x15c
 4202 01c0 8C000000 		.4byte	0x8c
 4203 01c4 2B       		.byte	0x2b
 4204 01c5 07       		.uleb128 0x7
 4205 01c6 8D020000 		.4byte	.LASF36
 4206 01ca 04       		.byte	0x4
 4207 01cb 5D01     		.2byte	0x15d
 4208 01cd 8C000000 		.4byte	0x8c
 4209 01d1 2C       		.byte	0x2c
 4210 01d2 00       		.byte	0
 4211 01d3 03       		.uleb128 0x3
 4212 01d4 0E020000 		.4byte	.LASF37
 4213 01d8 04       		.byte	0x4
 4214 01d9 C4       		.byte	0xc4
 4215 01da DE010000 		.4byte	0x1de
 4216 01de 08       		.uleb128 0x8
 4217 01df 05090000 		.4byte	.LASF39
 4218 01e3 18       		.byte	0x18
 4219 01e4 04       		.byte	0x4
 4220 01e5 DD       		.byte	0xdd
 4221 01e6 D8020000 		.4byte	0x2d8
 4222 01ea 09       		.uleb128 0x9
 4223 01eb BA060000 		.4byte	.LASF40
 4224 01ef 04       		.byte	0x4
 4225 01f0 E1       		.byte	0xe1
 4226 01f1 8C000000 		.4byte	0x8c
 4227 01f5 00       		.byte	0
 4228 01f6 09       		.uleb128 0x9
 4229 01f7 DB070000 		.4byte	.LASF41
 4230 01fb 04       		.byte	0x4
 4231 01fc E2       		.byte	0xe2
 4232 01fd 8C000000 		.4byte	0x8c
 4233 0201 01       		.byte	0x1
 4234 0202 09       		.uleb128 0x9
 4235 0203 83070000 		.4byte	.LASF42
ARM GAS  C:\Users\info\AppData\Local\Temp\ccQPGqkW.s 			page 104


 4236 0207 04       		.byte	0x4
 4237 0208 E4       		.byte	0xe4
 4238 0209 8C000000 		.4byte	0x8c
 4239 020d 02       		.byte	0x2
 4240 020e 09       		.uleb128 0x9
 4241 020f 3B010000 		.4byte	.LASF43
 4242 0213 04       		.byte	0x4
 4243 0214 E5       		.byte	0xe5
 4244 0215 8C000000 		.4byte	0x8c
 4245 0219 03       		.byte	0x3
 4246 021a 09       		.uleb128 0x9
 4247 021b 19000000 		.4byte	.LASF44
 4248 021f 04       		.byte	0x4
 4249 0220 E6       		.byte	0xe6
 4250 0221 8C000000 		.4byte	0x8c
 4251 0225 04       		.byte	0x4
 4252 0226 09       		.uleb128 0x9
 4253 0227 9F000000 		.4byte	.LASF45
 4254 022b 04       		.byte	0x4
 4255 022c E7       		.byte	0xe7
 4256 022d 8C000000 		.4byte	0x8c
 4257 0231 05       		.byte	0x5
 4258 0232 09       		.uleb128 0x9
 4259 0233 46020000 		.4byte	.LASF46
 4260 0237 04       		.byte	0x4
 4261 0238 EE       		.byte	0xee
 4262 0239 8C000000 		.4byte	0x8c
 4263 023d 06       		.byte	0x6
 4264 023e 09       		.uleb128 0x9
 4265 023f 0E040000 		.4byte	.LASF47
 4266 0243 04       		.byte	0x4
 4267 0244 F2       		.byte	0xf2
 4268 0245 8C000000 		.4byte	0x8c
 4269 0249 07       		.byte	0x7
 4270 024a 09       		.uleb128 0x9
 4271 024b C8090000 		.4byte	.LASF48
 4272 024f 04       		.byte	0x4
 4273 0250 F5       		.byte	0xf5
 4274 0251 A2000000 		.4byte	0xa2
 4275 0255 08       		.byte	0x8
 4276 0256 09       		.uleb128 0x9
 4277 0257 B1060000 		.4byte	.LASF49
 4278 025b 04       		.byte	0x4
 4279 025c FF       		.byte	0xff
 4280 025d 8C000000 		.4byte	0x8c
 4281 0261 0C       		.byte	0xc
 4282 0262 07       		.uleb128 0x7
 4283 0263 61060000 		.4byte	.LASF50
 4284 0267 04       		.byte	0x4
 4285 0268 0201     		.2byte	0x102
 4286 026a 8C000000 		.4byte	0x8c
 4287 026e 0D       		.byte	0xd
 4288 026f 07       		.uleb128 0x7
 4289 0270 E4050000 		.4byte	.LASF51
 4290 0274 04       		.byte	0x4
 4291 0275 0801     		.2byte	0x108
 4292 0277 8C000000 		.4byte	0x8c
ARM GAS  C:\Users\info\AppData\Local\Temp\ccQPGqkW.s 			page 105


 4293 027b 0E       		.byte	0xe
 4294 027c 07       		.uleb128 0x7
 4295 027d AA040000 		.4byte	.LASF52
 4296 0281 04       		.byte	0x4
 4297 0282 0A01     		.2byte	0x10a
 4298 0284 8C000000 		.4byte	0x8c
 4299 0288 0F       		.byte	0xf
 4300 0289 07       		.uleb128 0x7
 4301 028a A9080000 		.4byte	.LASF53
 4302 028e 04       		.byte	0x4
 4303 028f 0D01     		.2byte	0x10d
 4304 0291 8C000000 		.4byte	0x8c
 4305 0295 10       		.byte	0x10
 4306 0296 07       		.uleb128 0x7
 4307 0297 32050000 		.4byte	.LASF54
 4308 029b 04       		.byte	0x4
 4309 029c 0E01     		.2byte	0x10e
 4310 029e 8C000000 		.4byte	0x8c
 4311 02a2 11       		.byte	0x11
 4312 02a3 07       		.uleb128 0x7
 4313 02a4 4A040000 		.4byte	.LASF55
 4314 02a8 04       		.byte	0x4
 4315 02a9 1001     		.2byte	0x110
 4316 02ab 8C000000 		.4byte	0x8c
 4317 02af 12       		.byte	0x12
 4318 02b0 07       		.uleb128 0x7
 4319 02b1 64040000 		.4byte	.LASF56
 4320 02b5 04       		.byte	0x4
 4321 02b6 1101     		.2byte	0x111
 4322 02b8 8C000000 		.4byte	0x8c
 4323 02bc 13       		.byte	0x13
 4324 02bd 07       		.uleb128 0x7
 4325 02be 5C080000 		.4byte	.LASF57
 4326 02c2 04       		.byte	0x4
 4327 02c3 1901     		.2byte	0x119
 4328 02c5 97000000 		.4byte	0x97
 4329 02c9 14       		.byte	0x14
 4330 02ca 07       		.uleb128 0x7
 4331 02cb BB090000 		.4byte	.LASF58
 4332 02cf 04       		.byte	0x4
 4333 02d0 1A01     		.2byte	0x11a
 4334 02d2 97000000 		.4byte	0x97
 4335 02d6 16       		.byte	0x16
 4336 02d7 00       		.byte	0
 4337 02d8 03       		.uleb128 0x3
 4338 02d9 81020000 		.4byte	.LASF59
 4339 02dd 04       		.byte	0x4
 4340 02de C5       		.byte	0xc5
 4341 02df E3020000 		.4byte	0x2e3
 4342 02e3 08       		.uleb128 0x8
 4343 02e4 40000000 		.4byte	.LASF60
 4344 02e8 08       		.byte	0x8
 4345 02e9 04       		.byte	0x4
 4346 02ea D4       		.byte	0xd4
 4347 02eb 20030000 		.4byte	0x320
 4348 02ef 09       		.uleb128 0x9
 4349 02f0 5A070000 		.4byte	.LASF61
ARM GAS  C:\Users\info\AppData\Local\Temp\ccQPGqkW.s 			page 106


 4350 02f4 04       		.byte	0x4
 4351 02f5 D6       		.byte	0xd6
 4352 02f6 7A030000 		.4byte	0x37a
 4353 02fa 00       		.byte	0
 4354 02fb 0A       		.uleb128 0xa
 4355 02fc 636E7400 		.ascii	"cnt\000"
 4356 0300 04       		.byte	0x4
 4357 0301 D7       		.byte	0xd7
 4358 0302 8C000000 		.4byte	0x8c
 4359 0306 04       		.byte	0x4
 4360 0307 09       		.uleb128 0x9
 4361 0308 7B020000 		.4byte	.LASF62
 4362 030c 04       		.byte	0x4
 4363 030d D8       		.byte	0xd8
 4364 030e 8C000000 		.4byte	0x8c
 4365 0312 05       		.byte	0x5
 4366 0313 09       		.uleb128 0x9
 4367 0314 CF080000 		.4byte	.LASF63
 4368 0318 04       		.byte	0x4
 4369 0319 D9       		.byte	0xd9
 4370 031a 8C000000 		.4byte	0x8c
 4371 031e 06       		.byte	0x6
 4372 031f 00       		.byte	0
 4373 0320 03       		.uleb128 0x3
 4374 0321 3E050000 		.4byte	.LASF64
 4375 0325 04       		.byte	0x4
 4376 0326 C7       		.byte	0xc7
 4377 0327 2B030000 		.4byte	0x32b
 4378 032b 0B       		.uleb128 0xb
 4379 032c 04       		.byte	0x4
 4380 032d 31030000 		.4byte	0x331
 4381 0331 0C       		.uleb128 0xc
 4382 0332 8C000000 		.4byte	0x8c
 4383 0336 4F030000 		.4byte	0x34f
 4384 033a 0D       		.uleb128 0xd
 4385 033b 4F030000 		.4byte	0x34f
 4386 033f 0D       		.uleb128 0xd
 4387 0340 8C000000 		.4byte	0x8c
 4388 0344 0D       		.uleb128 0xd
 4389 0345 8C000000 		.4byte	0x8c
 4390 0349 0D       		.uleb128 0xd
 4391 034a AD000000 		.4byte	0xad
 4392 034e 00       		.byte	0
 4393 034f 0B       		.uleb128 0xb
 4394 0350 04       		.byte	0x4
 4395 0351 B6000000 		.4byte	0xb6
 4396 0355 03       		.uleb128 0x3
 4397 0356 B6010000 		.4byte	.LASF65
 4398 035a 04       		.byte	0x4
 4399 035b C8       		.byte	0xc8
 4400 035c 60030000 		.4byte	0x360
 4401 0360 0B       		.uleb128 0xb
 4402 0361 04       		.byte	0x4
 4403 0362 66030000 		.4byte	0x366
 4404 0366 0C       		.uleb128 0xc
 4405 0367 97000000 		.4byte	0x97
 4406 036b 7A030000 		.4byte	0x37a
ARM GAS  C:\Users\info\AppData\Local\Temp\ccQPGqkW.s 			page 107


 4407 036f 0D       		.uleb128 0xd
 4408 0370 4F030000 		.4byte	0x34f
 4409 0374 0D       		.uleb128 0xd
 4410 0375 8C000000 		.4byte	0x8c
 4411 0379 00       		.byte	0
 4412 037a 0B       		.uleb128 0xb
 4413 037b 04       		.byte	0x4
 4414 037c 8C000000 		.4byte	0x8c
 4415 0380 0B       		.uleb128 0xb
 4416 0381 04       		.byte	0x4
 4417 0382 86030000 		.4byte	0x386
 4418 0386 0E       		.uleb128 0xe
 4419 0387 D3010000 		.4byte	0x1d3
 4420 038b 0B       		.uleb128 0xb
 4421 038c 04       		.byte	0x4
 4422 038d 91030000 		.4byte	0x391
 4423 0391 0E       		.uleb128 0xe
 4424 0392 8C000000 		.4byte	0x8c
 4425 0396 0F       		.uleb128 0xf
 4426 0397 54010000 		.4byte	.LASF69
 4427 039b 01       		.byte	0x1
 4428 039c 73       		.byte	0x73
 4429 039d 8C000000 		.4byte	0x8c
 4430 03a1 01       		.byte	0x1
 4431 03a2 F0030000 		.4byte	0x3f0
 4432 03a6 10       		.uleb128 0x10
 4433 03a7 A8050000 		.4byte	.LASF66
 4434 03ab 01       		.byte	0x1
 4435 03ac 73       		.byte	0x73
 4436 03ad 4F030000 		.4byte	0x34f
 4437 03b1 11       		.uleb128 0x11
 4438 03b2 6D736700 		.ascii	"msg\000"
 4439 03b6 01       		.byte	0x1
 4440 03b7 73       		.byte	0x73
 4441 03b8 8C000000 		.4byte	0x8c
 4442 03bc 10       		.uleb128 0x10
 4443 03bd AE020000 		.4byte	.LASF67
 4444 03c1 01       		.byte	0x1
 4445 03c2 73       		.byte	0x73
 4446 03c3 8C000000 		.4byte	0x8c
 4447 03c7 10       		.uleb128 0x10
 4448 03c8 D3070000 		.4byte	.LASF68
 4449 03cc 01       		.byte	0x1
 4450 03cd 73       		.byte	0x73
 4451 03ce AD000000 		.4byte	0xad
 4452 03d2 12       		.uleb128 0x12
 4453 03d3 7800     		.ascii	"x\000"
 4454 03d5 01       		.byte	0x1
 4455 03d6 75       		.byte	0x75
 4456 03d7 8C000000 		.4byte	0x8c
 4457 03db 12       		.uleb128 0x12
 4458 03dc 6300     		.ascii	"c\000"
 4459 03de 01       		.byte	0x1
 4460 03df 75       		.byte	0x75
 4461 03e0 8C000000 		.4byte	0x8c
 4462 03e4 12       		.uleb128 0x12
 4463 03e5 70747200 		.ascii	"ptr\000"
ARM GAS  C:\Users\info\AppData\Local\Temp\ccQPGqkW.s 			page 108


 4464 03e9 01       		.byte	0x1
 4465 03ea 76       		.byte	0x76
 4466 03eb 7A030000 		.4byte	0x37a
 4467 03ef 00       		.byte	0
 4468 03f0 13       		.uleb128 0x13
 4469 03f1 93030000 		.4byte	.LASF70
 4470 03f5 01       		.byte	0x1
 4471 03f6 4602     		.2byte	0x246
 4472 03f8 8C000000 		.4byte	0x8c
 4473 03fc 01       		.byte	0x1
 4474 03fd 32040000 		.4byte	0x432
 4475 0401 14       		.uleb128 0x14
 4476 0402 A8050000 		.4byte	.LASF66
 4477 0406 01       		.byte	0x1
 4478 0407 4602     		.2byte	0x246
 4479 0409 4F030000 		.4byte	0x34f
 4480 040d 15       		.uleb128 0x15
 4481 040e 6D736700 		.ascii	"msg\000"
 4482 0412 01       		.byte	0x1
 4483 0413 4602     		.2byte	0x246
 4484 0415 8C000000 		.4byte	0x8c
 4485 0419 14       		.uleb128 0x14
 4486 041a AE020000 		.4byte	.LASF67
 4487 041e 01       		.byte	0x1
 4488 041f 4602     		.2byte	0x246
 4489 0421 8C000000 		.4byte	0x8c
 4490 0425 14       		.uleb128 0x14
 4491 0426 D3070000 		.4byte	.LASF68
 4492 042a 01       		.byte	0x1
 4493 042b 4602     		.2byte	0x246
 4494 042d AD000000 		.4byte	0xad
 4495 0431 00       		.byte	0
 4496 0432 16       		.uleb128 0x16
 4497 0433 96030000 		.4byte	0x396
 4498 0437 00000000 		.4byte	.LFB0
 4499 043b CC000000 		.4byte	.LFE0-.LFB0
 4500 043f 01       		.uleb128 0x1
 4501 0440 9C       		.byte	0x9c
 4502 0441 D4050000 		.4byte	0x5d4
 4503 0445 17       		.uleb128 0x17
 4504 0446 A6030000 		.4byte	0x3a6
 4505 044a 00000000 		.4byte	.LLST0
 4506 044e 17       		.uleb128 0x17
 4507 044f B1030000 		.4byte	0x3b1
 4508 0453 84000000 		.4byte	.LLST1
 4509 0457 17       		.uleb128 0x17
 4510 0458 BC030000 		.4byte	0x3bc
 4511 045c F0000000 		.4byte	.LLST2
 4512 0460 17       		.uleb128 0x17
 4513 0461 C7030000 		.4byte	0x3c7
 4514 0465 5C010000 		.4byte	.LLST3
 4515 0469 18       		.uleb128 0x18
 4516 046a D2030000 		.4byte	0x3d2
 4517 046e 18       		.uleb128 0x18
 4518 046f DB030000 		.4byte	0x3db
 4519 0473 18       		.uleb128 0x18
 4520 0474 E4030000 		.4byte	0x3e4
ARM GAS  C:\Users\info\AppData\Local\Temp\ccQPGqkW.s 			page 109


 4521 0478 19       		.uleb128 0x19
 4522 0479 2C000000 		.4byte	.LBB4
 4523 047d 60000000 		.4byte	.LBE4-.LBB4
 4524 0481 42050000 		.4byte	0x542
 4525 0485 17       		.uleb128 0x17
 4526 0486 B1030000 		.4byte	0x3b1
 4527 048a D3010000 		.4byte	.LLST4
 4528 048e 17       		.uleb128 0x17
 4529 048f C7030000 		.4byte	0x3c7
 4530 0493 E7010000 		.4byte	.LLST5
 4531 0497 17       		.uleb128 0x17
 4532 0498 BC030000 		.4byte	0x3bc
 4533 049c 08020000 		.4byte	.LLST6
 4534 04a0 17       		.uleb128 0x17
 4535 04a1 A6030000 		.4byte	0x3a6
 4536 04a5 26020000 		.4byte	.LLST7
 4537 04a9 1A       		.uleb128 0x1a
 4538 04aa 2C000000 		.4byte	.LBB5
 4539 04ae 60000000 		.4byte	.LBE5-.LBB5
 4540 04b2 1B       		.uleb128 0x1b
 4541 04b3 D2030000 		.4byte	0x3d2
 4542 04b7 44020000 		.4byte	.LLST8
 4543 04bb 1B       		.uleb128 0x1b
 4544 04bc DB030000 		.4byte	0x3db
 4545 04c0 80020000 		.4byte	.LLST9
 4546 04c4 1B       		.uleb128 0x1b
 4547 04c5 E4030000 		.4byte	0x3e4
 4548 04c9 C5020000 		.4byte	.LLST10
 4549 04cd 1C       		.uleb128 0x1c
 4550 04ce 30000000 		.4byte	.LVL7
 4551 04d2 95240000 		.4byte	0x2495
 4552 04d6 1D       		.uleb128 0x1d
 4553 04d7 4E000000 		.4byte	.LVL11
 4554 04db A1240000 		.4byte	0x24a1
 4555 04df F4040000 		.4byte	0x4f4
 4556 04e3 1E       		.uleb128 0x1e
 4557 04e4 01       		.uleb128 0x1
 4558 04e5 50       		.byte	0x50
 4559 04e6 02       		.uleb128 0x2
 4560 04e7 75       		.byte	0x75
 4561 04e8 00       		.sleb128 0
 4562 04e9 1E       		.uleb128 0x1e
 4563 04ea 01       		.uleb128 0x1
 4564 04eb 51       		.byte	0x51
 4565 04ec 06       		.uleb128 0x6
 4566 04ed 78       		.byte	0x78
 4567 04ee 00       		.sleb128 0
 4568 04ef 34       		.byte	0x34
 4569 04f0 25       		.byte	0x25
 4570 04f1 40       		.byte	0x40
 4571 04f2 21       		.byte	0x21
 4572 04f3 00       		.byte	0
 4573 04f4 1D       		.uleb128 0x1d
 4574 04f5 58000000 		.4byte	.LVL12
 4575 04f9 A1240000 		.4byte	0x24a1
 4576 04fd 10050000 		.4byte	0x510
 4577 0501 1E       		.uleb128 0x1e
ARM GAS  C:\Users\info\AppData\Local\Temp\ccQPGqkW.s 			page 110


 4578 0502 01       		.uleb128 0x1
 4579 0503 50       		.byte	0x50
 4580 0504 02       		.uleb128 0x2
 4581 0505 75       		.byte	0x75
 4582 0506 00       		.sleb128 0
 4583 0507 1E       		.uleb128 0x1e
 4584 0508 01       		.uleb128 0x1
 4585 0509 51       		.byte	0x51
 4586 050a 04       		.uleb128 0x4
 4587 050b 78       		.byte	0x78
 4588 050c 00       		.sleb128 0
 4589 050d 3F       		.byte	0x3f
 4590 050e 1A       		.byte	0x1a
 4591 050f 00       		.byte	0
 4592 0510 1D       		.uleb128 0x1d
 4593 0511 64000000 		.4byte	.LVL13
 4594 0515 A1240000 		.4byte	0x24a1
 4595 0519 24050000 		.4byte	0x524
 4596 051d 1E       		.uleb128 0x1e
 4597 051e 01       		.uleb128 0x1
 4598 051f 50       		.byte	0x50
 4599 0520 02       		.uleb128 0x2
 4600 0521 75       		.byte	0x75
 4601 0522 00       		.sleb128 0
 4602 0523 00       		.byte	0
 4603 0524 1F       		.uleb128 0x1f
 4604 0525 84000000 		.4byte	.LVL20
 4605 0529 AD240000 		.4byte	0x24ad
 4606 052d 1E       		.uleb128 0x1e
 4607 052e 01       		.uleb128 0x1
 4608 052f 50       		.byte	0x50
 4609 0530 02       		.uleb128 0x2
 4610 0531 75       		.byte	0x75
 4611 0532 00       		.sleb128 0
 4612 0533 1E       		.uleb128 0x1e
 4613 0534 01       		.uleb128 0x1
 4614 0535 51       		.byte	0x51
 4615 0536 02       		.uleb128 0x2
 4616 0537 76       		.byte	0x76
 4617 0538 00       		.sleb128 0
 4618 0539 1E       		.uleb128 0x1e
 4619 053a 01       		.uleb128 0x1
 4620 053b 52       		.byte	0x52
 4621 053c 02       		.uleb128 0x2
 4622 053d 77       		.byte	0x77
 4623 053e 00       		.sleb128 0
 4624 053f 00       		.byte	0
 4625 0540 00       		.byte	0
 4626 0541 00       		.byte	0
 4627 0542 1D       		.uleb128 0x1d
 4628 0543 24000000 		.4byte	.LVL4
 4629 0547 B9240000 		.4byte	0x24b9
 4630 054b 59050000 		.4byte	0x559
 4631 054f 1E       		.uleb128 0x1e
 4632 0550 01       		.uleb128 0x1
 4633 0551 51       		.byte	0x51
 4634 0552 05       		.uleb128 0x5
ARM GAS  C:\Users\info\AppData\Local\Temp\ccQPGqkW.s 			page 111


 4635 0553 03       		.byte	0x3
 4636 0554 00000000 		.4byte	.LANCHOR0
 4637 0558 00       		.byte	0
 4638 0559 1D       		.uleb128 0x1d
 4639 055a 92000000 		.4byte	.LVL22
 4640 055e C5240000 		.4byte	0x24c5
 4641 0562 6D050000 		.4byte	0x56d
 4642 0566 1E       		.uleb128 0x1e
 4643 0567 01       		.uleb128 0x1
 4644 0568 50       		.byte	0x50
 4645 0569 02       		.uleb128 0x2
 4646 056a 75       		.byte	0x75
 4647 056b 00       		.sleb128 0
 4648 056c 00       		.byte	0
 4649 056d 1C       		.uleb128 0x1c
 4650 056e 9C000000 		.4byte	.LVL24
 4651 0572 95240000 		.4byte	0x2495
 4652 0576 1D       		.uleb128 0x1d
 4653 0577 A4000000 		.4byte	.LVL25
 4654 057b A1240000 		.4byte	0x24a1
 4655 057f 90050000 		.4byte	0x590
 4656 0583 1E       		.uleb128 0x1e
 4657 0584 01       		.uleb128 0x1
 4658 0585 50       		.byte	0x50
 4659 0586 02       		.uleb128 0x2
 4660 0587 75       		.byte	0x75
 4661 0588 00       		.sleb128 0
 4662 0589 1E       		.uleb128 0x1e
 4663 058a 01       		.uleb128 0x1
 4664 058b 51       		.byte	0x51
 4665 058c 02       		.uleb128 0x2
 4666 058d 09       		.byte	0x9
 4667 058e 81       		.byte	0x81
 4668 058f 00       		.byte	0
 4669 0590 1D       		.uleb128 0x1d
 4670 0591 AC000000 		.4byte	.LVL26
 4671 0595 D1240000 		.4byte	0x24d1
 4672 0599 AC050000 		.4byte	0x5ac
 4673 059d 1E       		.uleb128 0x1e
 4674 059e 01       		.uleb128 0x1
 4675 059f 50       		.byte	0x50
 4676 05a0 02       		.uleb128 0x2
 4677 05a1 75       		.byte	0x75
 4678 05a2 00       		.sleb128 0
 4679 05a3 1E       		.uleb128 0x1e
 4680 05a4 01       		.uleb128 0x1
 4681 05a5 51       		.byte	0x51
 4682 05a6 04       		.uleb128 0x4
 4683 05a7 74       		.byte	0x74
 4684 05a8 00       		.sleb128 0
 4685 05a9 32       		.byte	0x32
 4686 05aa 25       		.byte	0x25
 4687 05ab 00       		.byte	0
 4688 05ac 1D       		.uleb128 0x1d
 4689 05ad B2000000 		.4byte	.LVL27
 4690 05b1 C5240000 		.4byte	0x24c5
 4691 05b5 C0050000 		.4byte	0x5c0
ARM GAS  C:\Users\info\AppData\Local\Temp\ccQPGqkW.s 			page 112


 4692 05b9 1E       		.uleb128 0x1e
 4693 05ba 01       		.uleb128 0x1
 4694 05bb 50       		.byte	0x50
 4695 05bc 02       		.uleb128 0x2
 4696 05bd 75       		.byte	0x75
 4697 05be 00       		.sleb128 0
 4698 05bf 00       		.byte	0
 4699 05c0 1F       		.uleb128 0x1f
 4700 05c1 BE000000 		.4byte	.LVL30
 4701 05c5 B9240000 		.4byte	0x24b9
 4702 05c9 1E       		.uleb128 0x1e
 4703 05ca 01       		.uleb128 0x1
 4704 05cb 51       		.byte	0x51
 4705 05cc 05       		.uleb128 0x5
 4706 05cd 03       		.byte	0x3
 4707 05ce 08000000 		.4byte	.LANCHOR0+8
 4708 05d2 00       		.byte	0
 4709 05d3 00       		.byte	0
 4710 05d4 20       		.uleb128 0x20
 4711 05d5 2D020000 		.4byte	.LASF71
 4712 05d9 01       		.byte	0x1
 4713 05da D4       		.byte	0xd4
 4714 05db 8C000000 		.4byte	0x8c
 4715 05df 00000000 		.4byte	.LFB1
 4716 05e3 28010000 		.4byte	.LFE1-.LFB1
 4717 05e7 01       		.uleb128 0x1
 4718 05e8 9C       		.byte	0x9c
 4719 05e9 25080000 		.4byte	0x825
 4720 05ed 21       		.uleb128 0x21
 4721 05ee A8050000 		.4byte	.LASF66
 4722 05f2 01       		.byte	0x1
 4723 05f3 D4       		.byte	0xd4
 4724 05f4 4F030000 		.4byte	0x34f
 4725 05f8 D8020000 		.4byte	.LLST11
 4726 05fc 22       		.uleb128 0x22
 4727 05fd 6D736700 		.ascii	"msg\000"
 4728 0601 01       		.byte	0x1
 4729 0602 D4       		.byte	0xd4
 4730 0603 8C000000 		.4byte	0x8c
 4731 0607 B4030000 		.4byte	.LLST12
 4732 060b 21       		.uleb128 0x21
 4733 060c AE020000 		.4byte	.LASF67
 4734 0610 01       		.byte	0x1
 4735 0611 D4       		.byte	0xd4
 4736 0612 8C000000 		.4byte	0x8c
 4737 0616 84040000 		.4byte	.LLST13
 4738 061a 21       		.uleb128 0x21
 4739 061b D3070000 		.4byte	.LASF68
 4740 061f 01       		.byte	0x1
 4741 0620 D4       		.byte	0xd4
 4742 0621 AD000000 		.4byte	0xad
 4743 0625 54050000 		.4byte	.LLST14
 4744 0629 23       		.uleb128 0x23
 4745 062a 96030000 		.4byte	0x396
 4746 062e 00000000 		.4byte	.LBB10
 4747 0632 00000000 		.4byte	.Ldebug_ranges0+0
 4748 0636 01       		.byte	0x1
ARM GAS  C:\Users\info\AppData\Local\Temp\ccQPGqkW.s 			page 113


 4749 0637 D7       		.byte	0xd7
 4750 0638 BD070000 		.4byte	0x7bd
 4751 063c 17       		.uleb128 0x17
 4752 063d C7030000 		.4byte	0x3c7
 4753 0641 2F060000 		.4byte	.LLST15
 4754 0645 17       		.uleb128 0x17
 4755 0646 BC030000 		.4byte	0x3bc
 4756 064a B1060000 		.4byte	.LLST16
 4757 064e 17       		.uleb128 0x17
 4758 064f B1030000 		.4byte	0x3b1
 4759 0653 28070000 		.4byte	.LLST17
 4760 0657 17       		.uleb128 0x17
 4761 0658 A6030000 		.4byte	0x3a6
 4762 065c 9F070000 		.4byte	.LLST18
 4763 0660 24       		.uleb128 0x24
 4764 0661 00000000 		.4byte	.Ldebug_ranges0+0
 4765 0665 18       		.uleb128 0x18
 4766 0666 D2030000 		.4byte	0x3d2
 4767 066a 18       		.uleb128 0x18
 4768 066b DB030000 		.4byte	0x3db
 4769 066f 18       		.uleb128 0x18
 4770 0670 E4030000 		.4byte	0x3e4
 4771 0674 19       		.uleb128 0x19
 4772 0675 38000000 		.4byte	.LBB12
 4773 0679 60000000 		.4byte	.LBE12-.LBB12
 4774 067d 3E070000 		.4byte	0x73e
 4775 0681 17       		.uleb128 0x17
 4776 0682 B1030000 		.4byte	0x3b1
 4777 0686 0A080000 		.4byte	.LLST19
 4778 068a 17       		.uleb128 0x17
 4779 068b C7030000 		.4byte	0x3c7
 4780 068f 1E080000 		.4byte	.LLST20
 4781 0693 17       		.uleb128 0x17
 4782 0694 BC030000 		.4byte	0x3bc
 4783 0698 3F080000 		.4byte	.LLST21
 4784 069c 17       		.uleb128 0x17
 4785 069d A6030000 		.4byte	0x3a6
 4786 06a1 5D080000 		.4byte	.LLST22
 4787 06a5 1A       		.uleb128 0x1a
 4788 06a6 38000000 		.4byte	.LBB13
 4789 06aa 60000000 		.4byte	.LBE13-.LBB13
 4790 06ae 1B       		.uleb128 0x1b
 4791 06af D2030000 		.4byte	0x3d2
 4792 06b3 7B080000 		.4byte	.LLST23
 4793 06b7 1B       		.uleb128 0x1b
 4794 06b8 DB030000 		.4byte	0x3db
 4795 06bc B7080000 		.4byte	.LLST24
 4796 06c0 1B       		.uleb128 0x1b
 4797 06c1 E4030000 		.4byte	0x3e4
 4798 06c5 FC080000 		.4byte	.LLST25
 4799 06c9 1C       		.uleb128 0x1c
 4800 06ca 3C000000 		.4byte	.LVL41
 4801 06ce 95240000 		.4byte	0x2495
 4802 06d2 1D       		.uleb128 0x1d
 4803 06d3 5A000000 		.4byte	.LVL45
 4804 06d7 A1240000 		.4byte	0x24a1
 4805 06db F0060000 		.4byte	0x6f0
ARM GAS  C:\Users\info\AppData\Local\Temp\ccQPGqkW.s 			page 114


 4806 06df 1E       		.uleb128 0x1e
 4807 06e0 01       		.uleb128 0x1
 4808 06e1 50       		.byte	0x50
 4809 06e2 02       		.uleb128 0x2
 4810 06e3 75       		.byte	0x75
 4811 06e4 00       		.sleb128 0
 4812 06e5 1E       		.uleb128 0x1e
 4813 06e6 01       		.uleb128 0x1
 4814 06e7 51       		.byte	0x51
 4815 06e8 06       		.uleb128 0x6
 4816 06e9 78       		.byte	0x78
 4817 06ea 00       		.sleb128 0
 4818 06eb 34       		.byte	0x34
 4819 06ec 25       		.byte	0x25
 4820 06ed 40       		.byte	0x40
 4821 06ee 21       		.byte	0x21
 4822 06ef 00       		.byte	0
 4823 06f0 1D       		.uleb128 0x1d
 4824 06f1 64000000 		.4byte	.LVL46
 4825 06f5 A1240000 		.4byte	0x24a1
 4826 06f9 0C070000 		.4byte	0x70c
 4827 06fd 1E       		.uleb128 0x1e
 4828 06fe 01       		.uleb128 0x1
 4829 06ff 50       		.byte	0x50
 4830 0700 02       		.uleb128 0x2
 4831 0701 75       		.byte	0x75
 4832 0702 00       		.sleb128 0
 4833 0703 1E       		.uleb128 0x1e
 4834 0704 01       		.uleb128 0x1
 4835 0705 51       		.byte	0x51
 4836 0706 04       		.uleb128 0x4
 4837 0707 78       		.byte	0x78
 4838 0708 00       		.sleb128 0
 4839 0709 3F       		.byte	0x3f
 4840 070a 1A       		.byte	0x1a
 4841 070b 00       		.byte	0
 4842 070c 1D       		.uleb128 0x1d
 4843 070d 70000000 		.4byte	.LVL47
 4844 0711 A1240000 		.4byte	0x24a1
 4845 0715 20070000 		.4byte	0x720
 4846 0719 1E       		.uleb128 0x1e
 4847 071a 01       		.uleb128 0x1
 4848 071b 50       		.byte	0x50
 4849 071c 02       		.uleb128 0x2
 4850 071d 75       		.byte	0x75
 4851 071e 00       		.sleb128 0
 4852 071f 00       		.byte	0
 4853 0720 1F       		.uleb128 0x1f
 4854 0721 90000000 		.4byte	.LVL54
 4855 0725 AD240000 		.4byte	0x24ad
 4856 0729 1E       		.uleb128 0x1e
 4857 072a 01       		.uleb128 0x1
 4858 072b 50       		.byte	0x50
 4859 072c 02       		.uleb128 0x2
 4860 072d 75       		.byte	0x75
 4861 072e 00       		.sleb128 0
 4862 072f 1E       		.uleb128 0x1e
ARM GAS  C:\Users\info\AppData\Local\Temp\ccQPGqkW.s 			page 115


 4863 0730 01       		.uleb128 0x1
 4864 0731 51       		.byte	0x51
 4865 0732 02       		.uleb128 0x2
 4866 0733 76       		.byte	0x76
 4867 0734 00       		.sleb128 0
 4868 0735 1E       		.uleb128 0x1e
 4869 0736 01       		.uleb128 0x1
 4870 0737 52       		.byte	0x52
 4871 0738 02       		.uleb128 0x2
 4872 0739 77       		.byte	0x77
 4873 073a 00       		.sleb128 0
 4874 073b 00       		.byte	0
 4875 073c 00       		.byte	0
 4876 073d 00       		.byte	0
 4877 073e 1D       		.uleb128 0x1d
 4878 073f 30000000 		.4byte	.LVL38
 4879 0743 B9240000 		.4byte	0x24b9
 4880 0747 55070000 		.4byte	0x755
 4881 074b 1E       		.uleb128 0x1e
 4882 074c 01       		.uleb128 0x1
 4883 074d 51       		.byte	0x51
 4884 074e 05       		.uleb128 0x5
 4885 074f 03       		.byte	0x3
 4886 0750 00000000 		.4byte	.LANCHOR0
 4887 0754 00       		.byte	0
 4888 0755 1D       		.uleb128 0x1d
 4889 0756 9E000000 		.4byte	.LVL57
 4890 075a C5240000 		.4byte	0x24c5
 4891 075e 69070000 		.4byte	0x769
 4892 0762 1E       		.uleb128 0x1e
 4893 0763 01       		.uleb128 0x1
 4894 0764 50       		.byte	0x50
 4895 0765 02       		.uleb128 0x2
 4896 0766 75       		.byte	0x75
 4897 0767 00       		.sleb128 0
 4898 0768 00       		.byte	0
 4899 0769 1C       		.uleb128 0x1c
 4900 076a A8000000 		.4byte	.LVL59
 4901 076e 95240000 		.4byte	0x2495
 4902 0772 1D       		.uleb128 0x1d
 4903 0773 B0000000 		.4byte	.LVL60
 4904 0777 A1240000 		.4byte	0x24a1
 4905 077b 8C070000 		.4byte	0x78c
 4906 077f 1E       		.uleb128 0x1e
 4907 0780 01       		.uleb128 0x1
 4908 0781 50       		.byte	0x50
 4909 0782 02       		.uleb128 0x2
 4910 0783 75       		.byte	0x75
 4911 0784 00       		.sleb128 0
 4912 0785 1E       		.uleb128 0x1e
 4913 0786 01       		.uleb128 0x1
 4914 0787 51       		.byte	0x51
 4915 0788 02       		.uleb128 0x2
 4916 0789 09       		.byte	0x9
 4917 078a 81       		.byte	0x81
 4918 078b 00       		.byte	0
 4919 078c 1D       		.uleb128 0x1d
ARM GAS  C:\Users\info\AppData\Local\Temp\ccQPGqkW.s 			page 116


 4920 078d B8000000 		.4byte	.LVL61
 4921 0791 D1240000 		.4byte	0x24d1
 4922 0795 A8070000 		.4byte	0x7a8
 4923 0799 1E       		.uleb128 0x1e
 4924 079a 01       		.uleb128 0x1
 4925 079b 50       		.byte	0x50
 4926 079c 02       		.uleb128 0x2
 4927 079d 75       		.byte	0x75
 4928 079e 00       		.sleb128 0
 4929 079f 1E       		.uleb128 0x1e
 4930 07a0 01       		.uleb128 0x1
 4931 07a1 51       		.byte	0x51
 4932 07a2 04       		.uleb128 0x4
 4933 07a3 74       		.byte	0x74
 4934 07a4 00       		.sleb128 0
 4935 07a5 32       		.byte	0x32
 4936 07a6 25       		.byte	0x25
 4937 07a7 00       		.byte	0
 4938 07a8 1F       		.uleb128 0x1f
 4939 07a9 D2000000 		.4byte	.LVL67
 4940 07ad B9240000 		.4byte	0x24b9
 4941 07b1 1E       		.uleb128 0x1e
 4942 07b2 01       		.uleb128 0x1
 4943 07b3 51       		.byte	0x51
 4944 07b4 05       		.uleb128 0x5
 4945 07b5 03       		.byte	0x3
 4946 07b6 08000000 		.4byte	.LANCHOR0+8
 4947 07ba 00       		.byte	0
 4948 07bb 00       		.byte	0
 4949 07bc 00       		.byte	0
 4950 07bd 1C       		.uleb128 0x1c
 4951 07be BE000000 		.4byte	.LVL63
 4952 07c2 DD240000 		.4byte	0x24dd
 4953 07c6 1D       		.uleb128 0x1d
 4954 07c7 C6000000 		.4byte	.LVL64
 4955 07cb B9240000 		.4byte	0x24b9
 4956 07cf E3070000 		.4byte	0x7e3
 4957 07d3 1E       		.uleb128 0x1e
 4958 07d4 01       		.uleb128 0x1
 4959 07d5 50       		.byte	0x50
 4960 07d6 02       		.uleb128 0x2
 4961 07d7 75       		.byte	0x75
 4962 07d8 00       		.sleb128 0
 4963 07d9 1E       		.uleb128 0x1e
 4964 07da 01       		.uleb128 0x1
 4965 07db 51       		.byte	0x51
 4966 07dc 05       		.uleb128 0x5
 4967 07dd 03       		.byte	0x3
 4968 07de 28000000 		.4byte	.LANCHOR0+40
 4969 07e2 00       		.byte	0
 4970 07e3 1D       		.uleb128 0x1d
 4971 07e4 DE000000 		.4byte	.LVL70
 4972 07e8 E9240000 		.4byte	0x24e9
 4973 07ec FA070000 		.4byte	0x7fa
 4974 07f0 1E       		.uleb128 0x1e
 4975 07f1 01       		.uleb128 0x1
 4976 07f2 51       		.byte	0x51
ARM GAS  C:\Users\info\AppData\Local\Temp\ccQPGqkW.s 			page 117


 4977 07f3 05       		.uleb128 0x5
 4978 07f4 03       		.byte	0x3
 4979 07f5 10000000 		.4byte	.LANCHOR0+16
 4980 07f9 00       		.byte	0
 4981 07fa 1D       		.uleb128 0x1d
 4982 07fb EC000000 		.4byte	.LVL73
 4983 07ff B9240000 		.4byte	0x24b9
 4984 0803 11080000 		.4byte	0x811
 4985 0807 1E       		.uleb128 0x1e
 4986 0808 01       		.uleb128 0x1
 4987 0809 51       		.byte	0x51
 4988 080a 05       		.uleb128 0x5
 4989 080b 03       		.byte	0x3
 4990 080c 54000000 		.4byte	.LANCHOR0+84
 4991 0810 00       		.byte	0
 4992 0811 1F       		.uleb128 0x1f
 4993 0812 00010000 		.4byte	.LVL76
 4994 0816 B9240000 		.4byte	0x24b9
 4995 081a 1E       		.uleb128 0x1e
 4996 081b 01       		.uleb128 0x1
 4997 081c 51       		.byte	0x51
 4998 081d 05       		.uleb128 0x5
 4999 081e 03       		.byte	0x3
 5000 081f 4C000000 		.4byte	.LANCHOR0+76
 5001 0823 00       		.byte	0
 5002 0824 00       		.byte	0
 5003 0825 25       		.uleb128 0x25
 5004 0826 68000000 		.4byte	.LASF72
 5005 082a 01       		.byte	0x1
 5006 082b 4F01     		.2byte	0x14f
 5007 082d 8C000000 		.4byte	0x8c
 5008 0831 00000000 		.4byte	.LFB2
 5009 0835 28010000 		.4byte	.LFE2-.LFB2
 5010 0839 01       		.uleb128 0x1
 5011 083a 9C       		.byte	0x9c
 5012 083b 7C0A0000 		.4byte	0xa7c
 5013 083f 26       		.uleb128 0x26
 5014 0840 A8050000 		.4byte	.LASF66
 5015 0844 01       		.byte	0x1
 5016 0845 4F01     		.2byte	0x14f
 5017 0847 4F030000 		.4byte	0x34f
 5018 084b 0F090000 		.4byte	.LLST26
 5019 084f 27       		.uleb128 0x27
 5020 0850 6D736700 		.ascii	"msg\000"
 5021 0854 01       		.byte	0x1
 5022 0855 4F01     		.2byte	0x14f
 5023 0857 8C000000 		.4byte	0x8c
 5024 085b EB090000 		.4byte	.LLST27
 5025 085f 26       		.uleb128 0x26
 5026 0860 AE020000 		.4byte	.LASF67
 5027 0864 01       		.byte	0x1
 5028 0865 4F01     		.2byte	0x14f
 5029 0867 8C000000 		.4byte	0x8c
 5030 086b BB0A0000 		.4byte	.LLST28
 5031 086f 26       		.uleb128 0x26
 5032 0870 D3070000 		.4byte	.LASF68
 5033 0874 01       		.byte	0x1
ARM GAS  C:\Users\info\AppData\Local\Temp\ccQPGqkW.s 			page 118


 5034 0875 4F01     		.2byte	0x14f
 5035 0877 AD000000 		.4byte	0xad
 5036 087b 8B0B0000 		.4byte	.LLST29
 5037 087f 28       		.uleb128 0x28
 5038 0880 96030000 		.4byte	0x396
 5039 0884 00000000 		.4byte	.LBB28
 5040 0888 38000000 		.4byte	.Ldebug_ranges0+0x38
 5041 088c 01       		.byte	0x1
 5042 088d 5201     		.2byte	0x152
 5043 088f 140A0000 		.4byte	0xa14
 5044 0893 17       		.uleb128 0x17
 5045 0894 C7030000 		.4byte	0x3c7
 5046 0898 660C0000 		.4byte	.LLST30
 5047 089c 17       		.uleb128 0x17
 5048 089d BC030000 		.4byte	0x3bc
 5049 08a1 E80C0000 		.4byte	.LLST31
 5050 08a5 17       		.uleb128 0x17
 5051 08a6 B1030000 		.4byte	0x3b1
 5052 08aa 5F0D0000 		.4byte	.LLST32
 5053 08ae 17       		.uleb128 0x17
 5054 08af A6030000 		.4byte	0x3a6
 5055 08b3 D60D0000 		.4byte	.LLST33
 5056 08b7 24       		.uleb128 0x24
 5057 08b8 38000000 		.4byte	.Ldebug_ranges0+0x38
 5058 08bc 18       		.uleb128 0x18
 5059 08bd D2030000 		.4byte	0x3d2
 5060 08c1 18       		.uleb128 0x18
 5061 08c2 DB030000 		.4byte	0x3db
 5062 08c6 18       		.uleb128 0x18
 5063 08c7 E4030000 		.4byte	0x3e4
 5064 08cb 19       		.uleb128 0x19
 5065 08cc 38000000 		.4byte	.LBB30
 5066 08d0 60000000 		.4byte	.LBE30-.LBB30
 5067 08d4 95090000 		.4byte	0x995
 5068 08d8 17       		.uleb128 0x17
 5069 08d9 B1030000 		.4byte	0x3b1
 5070 08dd 410E0000 		.4byte	.LLST34
 5071 08e1 17       		.uleb128 0x17
 5072 08e2 C7030000 		.4byte	0x3c7
 5073 08e6 550E0000 		.4byte	.LLST35
 5074 08ea 17       		.uleb128 0x17
 5075 08eb BC030000 		.4byte	0x3bc
 5076 08ef 760E0000 		.4byte	.LLST36
 5077 08f3 17       		.uleb128 0x17
 5078 08f4 A6030000 		.4byte	0x3a6
 5079 08f8 940E0000 		.4byte	.LLST37
 5080 08fc 1A       		.uleb128 0x1a
 5081 08fd 38000000 		.4byte	.LBB31
 5082 0901 60000000 		.4byte	.LBE31-.LBB31
 5083 0905 1B       		.uleb128 0x1b
 5084 0906 D2030000 		.4byte	0x3d2
 5085 090a B20E0000 		.4byte	.LLST38
 5086 090e 1B       		.uleb128 0x1b
 5087 090f DB030000 		.4byte	0x3db
 5088 0913 EE0E0000 		.4byte	.LLST39
 5089 0917 1B       		.uleb128 0x1b
 5090 0918 E4030000 		.4byte	0x3e4
ARM GAS  C:\Users\info\AppData\Local\Temp\ccQPGqkW.s 			page 119


 5091 091c 330F0000 		.4byte	.LLST40
 5092 0920 1C       		.uleb128 0x1c
 5093 0921 3C000000 		.4byte	.LVL87
 5094 0925 95240000 		.4byte	0x2495
 5095 0929 1D       		.uleb128 0x1d
 5096 092a 5A000000 		.4byte	.LVL91
 5097 092e A1240000 		.4byte	0x24a1
 5098 0932 47090000 		.4byte	0x947
 5099 0936 1E       		.uleb128 0x1e
 5100 0937 01       		.uleb128 0x1
 5101 0938 50       		.byte	0x50
 5102 0939 02       		.uleb128 0x2
 5103 093a 75       		.byte	0x75
 5104 093b 00       		.sleb128 0
 5105 093c 1E       		.uleb128 0x1e
 5106 093d 01       		.uleb128 0x1
 5107 093e 51       		.byte	0x51
 5108 093f 06       		.uleb128 0x6
 5109 0940 78       		.byte	0x78
 5110 0941 00       		.sleb128 0
 5111 0942 34       		.byte	0x34
 5112 0943 25       		.byte	0x25
 5113 0944 40       		.byte	0x40
 5114 0945 21       		.byte	0x21
 5115 0946 00       		.byte	0
 5116 0947 1D       		.uleb128 0x1d
 5117 0948 64000000 		.4byte	.LVL92
 5118 094c A1240000 		.4byte	0x24a1
 5119 0950 63090000 		.4byte	0x963
 5120 0954 1E       		.uleb128 0x1e
 5121 0955 01       		.uleb128 0x1
 5122 0956 50       		.byte	0x50
 5123 0957 02       		.uleb128 0x2
 5124 0958 75       		.byte	0x75
 5125 0959 00       		.sleb128 0
 5126 095a 1E       		.uleb128 0x1e
 5127 095b 01       		.uleb128 0x1
 5128 095c 51       		.byte	0x51
 5129 095d 04       		.uleb128 0x4
 5130 095e 78       		.byte	0x78
 5131 095f 00       		.sleb128 0
 5132 0960 3F       		.byte	0x3f
 5133 0961 1A       		.byte	0x1a
 5134 0962 00       		.byte	0
 5135 0963 1D       		.uleb128 0x1d
 5136 0964 70000000 		.4byte	.LVL93
 5137 0968 A1240000 		.4byte	0x24a1
 5138 096c 77090000 		.4byte	0x977
 5139 0970 1E       		.uleb128 0x1e
 5140 0971 01       		.uleb128 0x1
 5141 0972 50       		.byte	0x50
 5142 0973 02       		.uleb128 0x2
 5143 0974 75       		.byte	0x75
 5144 0975 00       		.sleb128 0
 5145 0976 00       		.byte	0
 5146 0977 1F       		.uleb128 0x1f
 5147 0978 90000000 		.4byte	.LVL100
ARM GAS  C:\Users\info\AppData\Local\Temp\ccQPGqkW.s 			page 120


 5148 097c AD240000 		.4byte	0x24ad
 5149 0980 1E       		.uleb128 0x1e
 5150 0981 01       		.uleb128 0x1
 5151 0982 50       		.byte	0x50
 5152 0983 02       		.uleb128 0x2
 5153 0984 75       		.byte	0x75
 5154 0985 00       		.sleb128 0
 5155 0986 1E       		.uleb128 0x1e
 5156 0987 01       		.uleb128 0x1
 5157 0988 51       		.byte	0x51
 5158 0989 02       		.uleb128 0x2
 5159 098a 76       		.byte	0x76
 5160 098b 00       		.sleb128 0
 5161 098c 1E       		.uleb128 0x1e
 5162 098d 01       		.uleb128 0x1
 5163 098e 52       		.byte	0x52
 5164 098f 02       		.uleb128 0x2
 5165 0990 77       		.byte	0x77
 5166 0991 00       		.sleb128 0
 5167 0992 00       		.byte	0
 5168 0993 00       		.byte	0
 5169 0994 00       		.byte	0
 5170 0995 1D       		.uleb128 0x1d
 5171 0996 30000000 		.4byte	.LVL84
 5172 099a B9240000 		.4byte	0x24b9
 5173 099e AC090000 		.4byte	0x9ac
 5174 09a2 1E       		.uleb128 0x1e
 5175 09a3 01       		.uleb128 0x1
 5176 09a4 51       		.byte	0x51
 5177 09a5 05       		.uleb128 0x5
 5178 09a6 03       		.byte	0x3
 5179 09a7 00000000 		.4byte	.LANCHOR0
 5180 09ab 00       		.byte	0
 5181 09ac 1D       		.uleb128 0x1d
 5182 09ad 9E000000 		.4byte	.LVL103
 5183 09b1 C5240000 		.4byte	0x24c5
 5184 09b5 C0090000 		.4byte	0x9c0
 5185 09b9 1E       		.uleb128 0x1e
 5186 09ba 01       		.uleb128 0x1
 5187 09bb 50       		.byte	0x50
 5188 09bc 02       		.uleb128 0x2
 5189 09bd 75       		.byte	0x75
 5190 09be 00       		.sleb128 0
 5191 09bf 00       		.byte	0
 5192 09c0 1C       		.uleb128 0x1c
 5193 09c1 A8000000 		.4byte	.LVL105
 5194 09c5 95240000 		.4byte	0x2495
 5195 09c9 1D       		.uleb128 0x1d
 5196 09ca B0000000 		.4byte	.LVL106
 5197 09ce A1240000 		.4byte	0x24a1
 5198 09d2 E3090000 		.4byte	0x9e3
 5199 09d6 1E       		.uleb128 0x1e
 5200 09d7 01       		.uleb128 0x1
 5201 09d8 50       		.byte	0x50
 5202 09d9 02       		.uleb128 0x2
 5203 09da 75       		.byte	0x75
 5204 09db 00       		.sleb128 0
ARM GAS  C:\Users\info\AppData\Local\Temp\ccQPGqkW.s 			page 121


 5205 09dc 1E       		.uleb128 0x1e
 5206 09dd 01       		.uleb128 0x1
 5207 09de 51       		.byte	0x51
 5208 09df 02       		.uleb128 0x2
 5209 09e0 09       		.byte	0x9
 5210 09e1 81       		.byte	0x81
 5211 09e2 00       		.byte	0
 5212 09e3 1D       		.uleb128 0x1d
 5213 09e4 B8000000 		.4byte	.LVL107
 5214 09e8 D1240000 		.4byte	0x24d1
 5215 09ec FF090000 		.4byte	0x9ff
 5216 09f0 1E       		.uleb128 0x1e
 5217 09f1 01       		.uleb128 0x1
 5218 09f2 50       		.byte	0x50
 5219 09f3 02       		.uleb128 0x2
 5220 09f4 75       		.byte	0x75
 5221 09f5 00       		.sleb128 0
 5222 09f6 1E       		.uleb128 0x1e
 5223 09f7 01       		.uleb128 0x1
 5224 09f8 51       		.byte	0x51
 5225 09f9 04       		.uleb128 0x4
 5226 09fa 74       		.byte	0x74
 5227 09fb 00       		.sleb128 0
 5228 09fc 32       		.byte	0x32
 5229 09fd 25       		.byte	0x25
 5230 09fe 00       		.byte	0
 5231 09ff 1F       		.uleb128 0x1f
 5232 0a00 D2000000 		.4byte	.LVL113
 5233 0a04 B9240000 		.4byte	0x24b9
 5234 0a08 1E       		.uleb128 0x1e
 5235 0a09 01       		.uleb128 0x1
 5236 0a0a 51       		.byte	0x51
 5237 0a0b 05       		.uleb128 0x5
 5238 0a0c 03       		.byte	0x3
 5239 0a0d 08000000 		.4byte	.LANCHOR0+8
 5240 0a11 00       		.byte	0
 5241 0a12 00       		.byte	0
 5242 0a13 00       		.byte	0
 5243 0a14 1C       		.uleb128 0x1c
 5244 0a15 BE000000 		.4byte	.LVL109
 5245 0a19 DD240000 		.4byte	0x24dd
 5246 0a1d 1D       		.uleb128 0x1d
 5247 0a1e C6000000 		.4byte	.LVL110
 5248 0a22 B9240000 		.4byte	0x24b9
 5249 0a26 3A0A0000 		.4byte	0xa3a
 5250 0a2a 1E       		.uleb128 0x1e
 5251 0a2b 01       		.uleb128 0x1
 5252 0a2c 50       		.byte	0x50
 5253 0a2d 02       		.uleb128 0x2
 5254 0a2e 75       		.byte	0x75
 5255 0a2f 00       		.sleb128 0
 5256 0a30 1E       		.uleb128 0x1e
 5257 0a31 01       		.uleb128 0x1
 5258 0a32 51       		.byte	0x51
 5259 0a33 05       		.uleb128 0x5
 5260 0a34 03       		.byte	0x3
 5261 0a35 74000000 		.4byte	.LANCHOR0+116
ARM GAS  C:\Users\info\AppData\Local\Temp\ccQPGqkW.s 			page 122


 5262 0a39 00       		.byte	0
 5263 0a3a 1D       		.uleb128 0x1d
 5264 0a3b DE000000 		.4byte	.LVL116
 5265 0a3f E9240000 		.4byte	0x24e9
 5266 0a43 510A0000 		.4byte	0xa51
 5267 0a47 1E       		.uleb128 0x1e
 5268 0a48 01       		.uleb128 0x1
 5269 0a49 51       		.byte	0x51
 5270 0a4a 05       		.uleb128 0x5
 5271 0a4b 03       		.byte	0x3
 5272 0a4c 5C000000 		.4byte	.LANCHOR0+92
 5273 0a50 00       		.byte	0
 5274 0a51 1D       		.uleb128 0x1d
 5275 0a52 EC000000 		.4byte	.LVL119
 5276 0a56 B9240000 		.4byte	0x24b9
 5277 0a5a 680A0000 		.4byte	0xa68
 5278 0a5e 1E       		.uleb128 0x1e
 5279 0a5f 01       		.uleb128 0x1
 5280 0a60 51       		.byte	0x51
 5281 0a61 05       		.uleb128 0x5
 5282 0a62 03       		.byte	0x3
 5283 0a63 54000000 		.4byte	.LANCHOR0+84
 5284 0a67 00       		.byte	0
 5285 0a68 1F       		.uleb128 0x1f
 5286 0a69 00010000 		.4byte	.LVL122
 5287 0a6d B9240000 		.4byte	0x24b9
 5288 0a71 1E       		.uleb128 0x1e
 5289 0a72 01       		.uleb128 0x1
 5290 0a73 51       		.byte	0x51
 5291 0a74 05       		.uleb128 0x5
 5292 0a75 03       		.byte	0x3
 5293 0a76 4C000000 		.4byte	.LANCHOR0+76
 5294 0a7a 00       		.byte	0
 5295 0a7b 00       		.byte	0
 5296 0a7c 25       		.uleb128 0x25
 5297 0a7d F3070000 		.4byte	.LASF73
 5298 0a81 01       		.byte	0x1
 5299 0a82 9001     		.2byte	0x190
 5300 0a84 8C000000 		.4byte	0x8c
 5301 0a88 00000000 		.4byte	.LFB3
 5302 0a8c 28010000 		.4byte	.LFE3-.LFB3
 5303 0a90 01       		.uleb128 0x1
 5304 0a91 9C       		.byte	0x9c
 5305 0a92 D30C0000 		.4byte	0xcd3
 5306 0a96 26       		.uleb128 0x26
 5307 0a97 A8050000 		.4byte	.LASF66
 5308 0a9b 01       		.byte	0x1
 5309 0a9c 9001     		.2byte	0x190
 5310 0a9e 4F030000 		.4byte	0x34f
 5311 0aa2 460F0000 		.4byte	.LLST41
 5312 0aa6 27       		.uleb128 0x27
 5313 0aa7 6D736700 		.ascii	"msg\000"
 5314 0aab 01       		.byte	0x1
 5315 0aac 9001     		.2byte	0x190
 5316 0aae 8C000000 		.4byte	0x8c
 5317 0ab2 22100000 		.4byte	.LLST42
 5318 0ab6 26       		.uleb128 0x26
ARM GAS  C:\Users\info\AppData\Local\Temp\ccQPGqkW.s 			page 123


 5319 0ab7 AE020000 		.4byte	.LASF67
 5320 0abb 01       		.byte	0x1
 5321 0abc 9001     		.2byte	0x190
 5322 0abe 8C000000 		.4byte	0x8c
 5323 0ac2 F2100000 		.4byte	.LLST43
 5324 0ac6 26       		.uleb128 0x26
 5325 0ac7 D3070000 		.4byte	.LASF68
 5326 0acb 01       		.byte	0x1
 5327 0acc 9001     		.2byte	0x190
 5328 0ace AD000000 		.4byte	0xad
 5329 0ad2 C2110000 		.4byte	.LLST44
 5330 0ad6 28       		.uleb128 0x28
 5331 0ad7 96030000 		.4byte	0x396
 5332 0adb 00000000 		.4byte	.LBB46
 5333 0adf 70000000 		.4byte	.Ldebug_ranges0+0x70
 5334 0ae3 01       		.byte	0x1
 5335 0ae4 9301     		.2byte	0x193
 5336 0ae6 6B0C0000 		.4byte	0xc6b
 5337 0aea 17       		.uleb128 0x17
 5338 0aeb C7030000 		.4byte	0x3c7
 5339 0aef 9D120000 		.4byte	.LLST45
 5340 0af3 17       		.uleb128 0x17
 5341 0af4 BC030000 		.4byte	0x3bc
 5342 0af8 1F130000 		.4byte	.LLST46
 5343 0afc 17       		.uleb128 0x17
 5344 0afd B1030000 		.4byte	0x3b1
 5345 0b01 96130000 		.4byte	.LLST47
 5346 0b05 17       		.uleb128 0x17
 5347 0b06 A6030000 		.4byte	0x3a6
 5348 0b0a 0D140000 		.4byte	.LLST48
 5349 0b0e 24       		.uleb128 0x24
 5350 0b0f 70000000 		.4byte	.Ldebug_ranges0+0x70
 5351 0b13 18       		.uleb128 0x18
 5352 0b14 D2030000 		.4byte	0x3d2
 5353 0b18 18       		.uleb128 0x18
 5354 0b19 DB030000 		.4byte	0x3db
 5355 0b1d 18       		.uleb128 0x18
 5356 0b1e E4030000 		.4byte	0x3e4
 5357 0b22 19       		.uleb128 0x19
 5358 0b23 38000000 		.4byte	.LBB48
 5359 0b27 60000000 		.4byte	.LBE48-.LBB48
 5360 0b2b EC0B0000 		.4byte	0xbec
 5361 0b2f 17       		.uleb128 0x17
 5362 0b30 B1030000 		.4byte	0x3b1
 5363 0b34 78140000 		.4byte	.LLST49
 5364 0b38 17       		.uleb128 0x17
 5365 0b39 C7030000 		.4byte	0x3c7
 5366 0b3d 8C140000 		.4byte	.LLST50
 5367 0b41 17       		.uleb128 0x17
 5368 0b42 BC030000 		.4byte	0x3bc
 5369 0b46 AD140000 		.4byte	.LLST51
 5370 0b4a 17       		.uleb128 0x17
 5371 0b4b A6030000 		.4byte	0x3a6
 5372 0b4f CB140000 		.4byte	.LLST52
 5373 0b53 1A       		.uleb128 0x1a
 5374 0b54 38000000 		.4byte	.LBB49
 5375 0b58 60000000 		.4byte	.LBE49-.LBB49
ARM GAS  C:\Users\info\AppData\Local\Temp\ccQPGqkW.s 			page 124


 5376 0b5c 1B       		.uleb128 0x1b
 5377 0b5d D2030000 		.4byte	0x3d2
 5378 0b61 E9140000 		.4byte	.LLST53
 5379 0b65 1B       		.uleb128 0x1b
 5380 0b66 DB030000 		.4byte	0x3db
 5381 0b6a 25150000 		.4byte	.LLST54
 5382 0b6e 1B       		.uleb128 0x1b
 5383 0b6f E4030000 		.4byte	0x3e4
 5384 0b73 6A150000 		.4byte	.LLST55
 5385 0b77 1C       		.uleb128 0x1c
 5386 0b78 3C000000 		.4byte	.LVL133
 5387 0b7c 95240000 		.4byte	0x2495
 5388 0b80 1D       		.uleb128 0x1d
 5389 0b81 5A000000 		.4byte	.LVL137
 5390 0b85 A1240000 		.4byte	0x24a1
 5391 0b89 9E0B0000 		.4byte	0xb9e
 5392 0b8d 1E       		.uleb128 0x1e
 5393 0b8e 01       		.uleb128 0x1
 5394 0b8f 50       		.byte	0x50
 5395 0b90 02       		.uleb128 0x2
 5396 0b91 75       		.byte	0x75
 5397 0b92 00       		.sleb128 0
 5398 0b93 1E       		.uleb128 0x1e
 5399 0b94 01       		.uleb128 0x1
 5400 0b95 51       		.byte	0x51
 5401 0b96 06       		.uleb128 0x6
 5402 0b97 78       		.byte	0x78
 5403 0b98 00       		.sleb128 0
 5404 0b99 34       		.byte	0x34
 5405 0b9a 25       		.byte	0x25
 5406 0b9b 40       		.byte	0x40
 5407 0b9c 21       		.byte	0x21
 5408 0b9d 00       		.byte	0
 5409 0b9e 1D       		.uleb128 0x1d
 5410 0b9f 64000000 		.4byte	.LVL138
 5411 0ba3 A1240000 		.4byte	0x24a1
 5412 0ba7 BA0B0000 		.4byte	0xbba
 5413 0bab 1E       		.uleb128 0x1e
 5414 0bac 01       		.uleb128 0x1
 5415 0bad 50       		.byte	0x50
 5416 0bae 02       		.uleb128 0x2
 5417 0baf 75       		.byte	0x75
 5418 0bb0 00       		.sleb128 0
 5419 0bb1 1E       		.uleb128 0x1e
 5420 0bb2 01       		.uleb128 0x1
 5421 0bb3 51       		.byte	0x51
 5422 0bb4 04       		.uleb128 0x4
 5423 0bb5 78       		.byte	0x78
 5424 0bb6 00       		.sleb128 0
 5425 0bb7 3F       		.byte	0x3f
 5426 0bb8 1A       		.byte	0x1a
 5427 0bb9 00       		.byte	0
 5428 0bba 1D       		.uleb128 0x1d
 5429 0bbb 70000000 		.4byte	.LVL139
 5430 0bbf A1240000 		.4byte	0x24a1
 5431 0bc3 CE0B0000 		.4byte	0xbce
 5432 0bc7 1E       		.uleb128 0x1e
ARM GAS  C:\Users\info\AppData\Local\Temp\ccQPGqkW.s 			page 125


 5433 0bc8 01       		.uleb128 0x1
 5434 0bc9 50       		.byte	0x50
 5435 0bca 02       		.uleb128 0x2
 5436 0bcb 75       		.byte	0x75
 5437 0bcc 00       		.sleb128 0
 5438 0bcd 00       		.byte	0
 5439 0bce 1F       		.uleb128 0x1f
 5440 0bcf 90000000 		.4byte	.LVL146
 5441 0bd3 AD240000 		.4byte	0x24ad
 5442 0bd7 1E       		.uleb128 0x1e
 5443 0bd8 01       		.uleb128 0x1
 5444 0bd9 50       		.byte	0x50
 5445 0bda 02       		.uleb128 0x2
 5446 0bdb 75       		.byte	0x75
 5447 0bdc 00       		.sleb128 0
 5448 0bdd 1E       		.uleb128 0x1e
 5449 0bde 01       		.uleb128 0x1
 5450 0bdf 51       		.byte	0x51
 5451 0be0 02       		.uleb128 0x2
 5452 0be1 76       		.byte	0x76
 5453 0be2 00       		.sleb128 0
 5454 0be3 1E       		.uleb128 0x1e
 5455 0be4 01       		.uleb128 0x1
 5456 0be5 52       		.byte	0x52
 5457 0be6 02       		.uleb128 0x2
 5458 0be7 77       		.byte	0x77
 5459 0be8 00       		.sleb128 0
 5460 0be9 00       		.byte	0
 5461 0bea 00       		.byte	0
 5462 0beb 00       		.byte	0
 5463 0bec 1D       		.uleb128 0x1d
 5464 0bed 30000000 		.4byte	.LVL130
 5465 0bf1 B9240000 		.4byte	0x24b9
 5466 0bf5 030C0000 		.4byte	0xc03
 5467 0bf9 1E       		.uleb128 0x1e
 5468 0bfa 01       		.uleb128 0x1
 5469 0bfb 51       		.byte	0x51
 5470 0bfc 05       		.uleb128 0x5
 5471 0bfd 03       		.byte	0x3
 5472 0bfe 00000000 		.4byte	.LANCHOR0
 5473 0c02 00       		.byte	0
 5474 0c03 1D       		.uleb128 0x1d
 5475 0c04 9E000000 		.4byte	.LVL149
 5476 0c08 C5240000 		.4byte	0x24c5
 5477 0c0c 170C0000 		.4byte	0xc17
 5478 0c10 1E       		.uleb128 0x1e
 5479 0c11 01       		.uleb128 0x1
 5480 0c12 50       		.byte	0x50
 5481 0c13 02       		.uleb128 0x2
 5482 0c14 75       		.byte	0x75
 5483 0c15 00       		.sleb128 0
 5484 0c16 00       		.byte	0
 5485 0c17 1C       		.uleb128 0x1c
 5486 0c18 A8000000 		.4byte	.LVL151
 5487 0c1c 95240000 		.4byte	0x2495
 5488 0c20 1D       		.uleb128 0x1d
 5489 0c21 B0000000 		.4byte	.LVL152
ARM GAS  C:\Users\info\AppData\Local\Temp\ccQPGqkW.s 			page 126


 5490 0c25 A1240000 		.4byte	0x24a1
 5491 0c29 3A0C0000 		.4byte	0xc3a
 5492 0c2d 1E       		.uleb128 0x1e
 5493 0c2e 01       		.uleb128 0x1
 5494 0c2f 50       		.byte	0x50
 5495 0c30 02       		.uleb128 0x2
 5496 0c31 75       		.byte	0x75
 5497 0c32 00       		.sleb128 0
 5498 0c33 1E       		.uleb128 0x1e
 5499 0c34 01       		.uleb128 0x1
 5500 0c35 51       		.byte	0x51
 5501 0c36 02       		.uleb128 0x2
 5502 0c37 09       		.byte	0x9
 5503 0c38 81       		.byte	0x81
 5504 0c39 00       		.byte	0
 5505 0c3a 1D       		.uleb128 0x1d
 5506 0c3b B8000000 		.4byte	.LVL153
 5507 0c3f D1240000 		.4byte	0x24d1
 5508 0c43 560C0000 		.4byte	0xc56
 5509 0c47 1E       		.uleb128 0x1e
 5510 0c48 01       		.uleb128 0x1
 5511 0c49 50       		.byte	0x50
 5512 0c4a 02       		.uleb128 0x2
 5513 0c4b 75       		.byte	0x75
 5514 0c4c 00       		.sleb128 0
 5515 0c4d 1E       		.uleb128 0x1e
 5516 0c4e 01       		.uleb128 0x1
 5517 0c4f 51       		.byte	0x51
 5518 0c50 04       		.uleb128 0x4
 5519 0c51 74       		.byte	0x74
 5520 0c52 00       		.sleb128 0
 5521 0c53 32       		.byte	0x32
 5522 0c54 25       		.byte	0x25
 5523 0c55 00       		.byte	0
 5524 0c56 1F       		.uleb128 0x1f
 5525 0c57 D2000000 		.4byte	.LVL159
 5526 0c5b B9240000 		.4byte	0x24b9
 5527 0c5f 1E       		.uleb128 0x1e
 5528 0c60 01       		.uleb128 0x1
 5529 0c61 51       		.byte	0x51
 5530 0c62 05       		.uleb128 0x5
 5531 0c63 03       		.byte	0x3
 5532 0c64 08000000 		.4byte	.LANCHOR0+8
 5533 0c68 00       		.byte	0
 5534 0c69 00       		.byte	0
 5535 0c6a 00       		.byte	0
 5536 0c6b 1C       		.uleb128 0x1c
 5537 0c6c BE000000 		.4byte	.LVL155
 5538 0c70 DD240000 		.4byte	0x24dd
 5539 0c74 1D       		.uleb128 0x1d
 5540 0c75 C6000000 		.4byte	.LVL156
 5541 0c79 B9240000 		.4byte	0x24b9
 5542 0c7d 910C0000 		.4byte	0xc91
 5543 0c81 1E       		.uleb128 0x1e
 5544 0c82 01       		.uleb128 0x1
 5545 0c83 50       		.byte	0x50
 5546 0c84 02       		.uleb128 0x2
ARM GAS  C:\Users\info\AppData\Local\Temp\ccQPGqkW.s 			page 127


 5547 0c85 75       		.byte	0x75
 5548 0c86 00       		.sleb128 0
 5549 0c87 1E       		.uleb128 0x1e
 5550 0c88 01       		.uleb128 0x1
 5551 0c89 51       		.byte	0x51
 5552 0c8a 05       		.uleb128 0x5
 5553 0c8b 03       		.byte	0x3
 5554 0c8c 94000000 		.4byte	.LANCHOR0+148
 5555 0c90 00       		.byte	0
 5556 0c91 1D       		.uleb128 0x1d
 5557 0c92 DE000000 		.4byte	.LVL162
 5558 0c96 E9240000 		.4byte	0x24e9
 5559 0c9a A80C0000 		.4byte	0xca8
 5560 0c9e 1E       		.uleb128 0x1e
 5561 0c9f 01       		.uleb128 0x1
 5562 0ca0 51       		.byte	0x51
 5563 0ca1 05       		.uleb128 0x5
 5564 0ca2 03       		.byte	0x3
 5565 0ca3 10000000 		.4byte	.LANCHOR0+16
 5566 0ca7 00       		.byte	0
 5567 0ca8 1D       		.uleb128 0x1d
 5568 0ca9 EC000000 		.4byte	.LVL165
 5569 0cad B9240000 		.4byte	0x24b9
 5570 0cb1 BF0C0000 		.4byte	0xcbf
 5571 0cb5 1E       		.uleb128 0x1e
 5572 0cb6 01       		.uleb128 0x1
 5573 0cb7 51       		.byte	0x51
 5574 0cb8 05       		.uleb128 0x5
 5575 0cb9 03       		.byte	0x3
 5576 0cba C0000000 		.4byte	.LANCHOR0+192
 5577 0cbe 00       		.byte	0
 5578 0cbf 1F       		.uleb128 0x1f
 5579 0cc0 00010000 		.4byte	.LVL168
 5580 0cc4 B9240000 		.4byte	0x24b9
 5581 0cc8 1E       		.uleb128 0x1e
 5582 0cc9 01       		.uleb128 0x1
 5583 0cca 51       		.byte	0x51
 5584 0ccb 05       		.uleb128 0x5
 5585 0ccc 03       		.byte	0x3
 5586 0ccd B8000000 		.4byte	.LANCHOR0+184
 5587 0cd1 00       		.byte	0
 5588 0cd2 00       		.byte	0
 5589 0cd3 25       		.uleb128 0x25
 5590 0cd4 00000000 		.4byte	.LASF74
 5591 0cd8 01       		.byte	0x1
 5592 0cd9 EC01     		.2byte	0x1ec
 5593 0cdb 8C000000 		.4byte	0x8c
 5594 0cdf 00000000 		.4byte	.LFB4
 5595 0ce3 28010000 		.4byte	.LFE4-.LFB4
 5596 0ce7 01       		.uleb128 0x1
 5597 0ce8 9C       		.byte	0x9c
 5598 0ce9 2A0F0000 		.4byte	0xf2a
 5599 0ced 26       		.uleb128 0x26
 5600 0cee A8050000 		.4byte	.LASF66
 5601 0cf2 01       		.byte	0x1
 5602 0cf3 EC01     		.2byte	0x1ec
 5603 0cf5 4F030000 		.4byte	0x34f
ARM GAS  C:\Users\info\AppData\Local\Temp\ccQPGqkW.s 			page 128


 5604 0cf9 7D150000 		.4byte	.LLST56
 5605 0cfd 27       		.uleb128 0x27
 5606 0cfe 6D736700 		.ascii	"msg\000"
 5607 0d02 01       		.byte	0x1
 5608 0d03 EC01     		.2byte	0x1ec
 5609 0d05 8C000000 		.4byte	0x8c
 5610 0d09 59160000 		.4byte	.LLST57
 5611 0d0d 26       		.uleb128 0x26
 5612 0d0e AE020000 		.4byte	.LASF67
 5613 0d12 01       		.byte	0x1
 5614 0d13 EC01     		.2byte	0x1ec
 5615 0d15 8C000000 		.4byte	0x8c
 5616 0d19 29170000 		.4byte	.LLST58
 5617 0d1d 26       		.uleb128 0x26
 5618 0d1e D3070000 		.4byte	.LASF68
 5619 0d22 01       		.byte	0x1
 5620 0d23 EC01     		.2byte	0x1ec
 5621 0d25 AD000000 		.4byte	0xad
 5622 0d29 F9170000 		.4byte	.LLST59
 5623 0d2d 28       		.uleb128 0x28
 5624 0d2e 96030000 		.4byte	0x396
 5625 0d32 00000000 		.4byte	.LBB64
 5626 0d36 A8000000 		.4byte	.Ldebug_ranges0+0xa8
 5627 0d3a 01       		.byte	0x1
 5628 0d3b EF01     		.2byte	0x1ef
 5629 0d3d C20E0000 		.4byte	0xec2
 5630 0d41 17       		.uleb128 0x17
 5631 0d42 C7030000 		.4byte	0x3c7
 5632 0d46 D4180000 		.4byte	.LLST60
 5633 0d4a 17       		.uleb128 0x17
 5634 0d4b BC030000 		.4byte	0x3bc
 5635 0d4f 56190000 		.4byte	.LLST61
 5636 0d53 17       		.uleb128 0x17
 5637 0d54 B1030000 		.4byte	0x3b1
 5638 0d58 CD190000 		.4byte	.LLST62
 5639 0d5c 17       		.uleb128 0x17
 5640 0d5d A6030000 		.4byte	0x3a6
 5641 0d61 441A0000 		.4byte	.LLST63
 5642 0d65 24       		.uleb128 0x24
 5643 0d66 A8000000 		.4byte	.Ldebug_ranges0+0xa8
 5644 0d6a 18       		.uleb128 0x18
 5645 0d6b D2030000 		.4byte	0x3d2
 5646 0d6f 18       		.uleb128 0x18
 5647 0d70 DB030000 		.4byte	0x3db
 5648 0d74 18       		.uleb128 0x18
 5649 0d75 E4030000 		.4byte	0x3e4
 5650 0d79 19       		.uleb128 0x19
 5651 0d7a 38000000 		.4byte	.LBB66
 5652 0d7e 60000000 		.4byte	.LBE66-.LBB66
 5653 0d82 430E0000 		.4byte	0xe43
 5654 0d86 17       		.uleb128 0x17
 5655 0d87 B1030000 		.4byte	0x3b1
 5656 0d8b AF1A0000 		.4byte	.LLST64
 5657 0d8f 17       		.uleb128 0x17
 5658 0d90 C7030000 		.4byte	0x3c7
 5659 0d94 C31A0000 		.4byte	.LLST65
 5660 0d98 17       		.uleb128 0x17
ARM GAS  C:\Users\info\AppData\Local\Temp\ccQPGqkW.s 			page 129


 5661 0d99 BC030000 		.4byte	0x3bc
 5662 0d9d E41A0000 		.4byte	.LLST66
 5663 0da1 17       		.uleb128 0x17
 5664 0da2 A6030000 		.4byte	0x3a6
 5665 0da6 021B0000 		.4byte	.LLST67
 5666 0daa 1A       		.uleb128 0x1a
 5667 0dab 38000000 		.4byte	.LBB67
 5668 0daf 60000000 		.4byte	.LBE67-.LBB67
 5669 0db3 1B       		.uleb128 0x1b
 5670 0db4 D2030000 		.4byte	0x3d2
 5671 0db8 201B0000 		.4byte	.LLST68
 5672 0dbc 1B       		.uleb128 0x1b
 5673 0dbd DB030000 		.4byte	0x3db
 5674 0dc1 5C1B0000 		.4byte	.LLST69
 5675 0dc5 1B       		.uleb128 0x1b
 5676 0dc6 E4030000 		.4byte	0x3e4
 5677 0dca A11B0000 		.4byte	.LLST70
 5678 0dce 1C       		.uleb128 0x1c
 5679 0dcf 3C000000 		.4byte	.LVL179
 5680 0dd3 95240000 		.4byte	0x2495
 5681 0dd7 1D       		.uleb128 0x1d
 5682 0dd8 5A000000 		.4byte	.LVL183
 5683 0ddc A1240000 		.4byte	0x24a1
 5684 0de0 F50D0000 		.4byte	0xdf5
 5685 0de4 1E       		.uleb128 0x1e
 5686 0de5 01       		.uleb128 0x1
 5687 0de6 50       		.byte	0x50
 5688 0de7 02       		.uleb128 0x2
 5689 0de8 75       		.byte	0x75
 5690 0de9 00       		.sleb128 0
 5691 0dea 1E       		.uleb128 0x1e
 5692 0deb 01       		.uleb128 0x1
 5693 0dec 51       		.byte	0x51
 5694 0ded 06       		.uleb128 0x6
 5695 0dee 78       		.byte	0x78
 5696 0def 00       		.sleb128 0
 5697 0df0 34       		.byte	0x34
 5698 0df1 25       		.byte	0x25
 5699 0df2 40       		.byte	0x40
 5700 0df3 21       		.byte	0x21
 5701 0df4 00       		.byte	0
 5702 0df5 1D       		.uleb128 0x1d
 5703 0df6 64000000 		.4byte	.LVL184
 5704 0dfa A1240000 		.4byte	0x24a1
 5705 0dfe 110E0000 		.4byte	0xe11
 5706 0e02 1E       		.uleb128 0x1e
 5707 0e03 01       		.uleb128 0x1
 5708 0e04 50       		.byte	0x50
 5709 0e05 02       		.uleb128 0x2
 5710 0e06 75       		.byte	0x75
 5711 0e07 00       		.sleb128 0
 5712 0e08 1E       		.uleb128 0x1e
 5713 0e09 01       		.uleb128 0x1
 5714 0e0a 51       		.byte	0x51
 5715 0e0b 04       		.uleb128 0x4
 5716 0e0c 78       		.byte	0x78
 5717 0e0d 00       		.sleb128 0
ARM GAS  C:\Users\info\AppData\Local\Temp\ccQPGqkW.s 			page 130


 5718 0e0e 3F       		.byte	0x3f
 5719 0e0f 1A       		.byte	0x1a
 5720 0e10 00       		.byte	0
 5721 0e11 1D       		.uleb128 0x1d
 5722 0e12 70000000 		.4byte	.LVL185
 5723 0e16 A1240000 		.4byte	0x24a1
 5724 0e1a 250E0000 		.4byte	0xe25
 5725 0e1e 1E       		.uleb128 0x1e
 5726 0e1f 01       		.uleb128 0x1
 5727 0e20 50       		.byte	0x50
 5728 0e21 02       		.uleb128 0x2
 5729 0e22 75       		.byte	0x75
 5730 0e23 00       		.sleb128 0
 5731 0e24 00       		.byte	0
 5732 0e25 1F       		.uleb128 0x1f
 5733 0e26 90000000 		.4byte	.LVL192
 5734 0e2a AD240000 		.4byte	0x24ad
 5735 0e2e 1E       		.uleb128 0x1e
 5736 0e2f 01       		.uleb128 0x1
 5737 0e30 50       		.byte	0x50
 5738 0e31 02       		.uleb128 0x2
 5739 0e32 75       		.byte	0x75
 5740 0e33 00       		.sleb128 0
 5741 0e34 1E       		.uleb128 0x1e
 5742 0e35 01       		.uleb128 0x1
 5743 0e36 51       		.byte	0x51
 5744 0e37 02       		.uleb128 0x2
 5745 0e38 76       		.byte	0x76
 5746 0e39 00       		.sleb128 0
 5747 0e3a 1E       		.uleb128 0x1e
 5748 0e3b 01       		.uleb128 0x1
 5749 0e3c 52       		.byte	0x52
 5750 0e3d 02       		.uleb128 0x2
 5751 0e3e 77       		.byte	0x77
 5752 0e3f 00       		.sleb128 0
 5753 0e40 00       		.byte	0
 5754 0e41 00       		.byte	0
 5755 0e42 00       		.byte	0
 5756 0e43 1D       		.uleb128 0x1d
 5757 0e44 30000000 		.4byte	.LVL176
 5758 0e48 B9240000 		.4byte	0x24b9
 5759 0e4c 5A0E0000 		.4byte	0xe5a
 5760 0e50 1E       		.uleb128 0x1e
 5761 0e51 01       		.uleb128 0x1
 5762 0e52 51       		.byte	0x51
 5763 0e53 05       		.uleb128 0x5
 5764 0e54 03       		.byte	0x3
 5765 0e55 00000000 		.4byte	.LANCHOR0
 5766 0e59 00       		.byte	0
 5767 0e5a 1D       		.uleb128 0x1d
 5768 0e5b 9E000000 		.4byte	.LVL195
 5769 0e5f C5240000 		.4byte	0x24c5
 5770 0e63 6E0E0000 		.4byte	0xe6e
 5771 0e67 1E       		.uleb128 0x1e
 5772 0e68 01       		.uleb128 0x1
 5773 0e69 50       		.byte	0x50
 5774 0e6a 02       		.uleb128 0x2
ARM GAS  C:\Users\info\AppData\Local\Temp\ccQPGqkW.s 			page 131


 5775 0e6b 75       		.byte	0x75
 5776 0e6c 00       		.sleb128 0
 5777 0e6d 00       		.byte	0
 5778 0e6e 1C       		.uleb128 0x1c
 5779 0e6f A8000000 		.4byte	.LVL197
 5780 0e73 95240000 		.4byte	0x2495
 5781 0e77 1D       		.uleb128 0x1d
 5782 0e78 B0000000 		.4byte	.LVL198
 5783 0e7c A1240000 		.4byte	0x24a1
 5784 0e80 910E0000 		.4byte	0xe91
 5785 0e84 1E       		.uleb128 0x1e
 5786 0e85 01       		.uleb128 0x1
 5787 0e86 50       		.byte	0x50
 5788 0e87 02       		.uleb128 0x2
 5789 0e88 75       		.byte	0x75
 5790 0e89 00       		.sleb128 0
 5791 0e8a 1E       		.uleb128 0x1e
 5792 0e8b 01       		.uleb128 0x1
 5793 0e8c 51       		.byte	0x51
 5794 0e8d 02       		.uleb128 0x2
 5795 0e8e 09       		.byte	0x9
 5796 0e8f 81       		.byte	0x81
 5797 0e90 00       		.byte	0
 5798 0e91 1D       		.uleb128 0x1d
 5799 0e92 B8000000 		.4byte	.LVL199
 5800 0e96 D1240000 		.4byte	0x24d1
 5801 0e9a AD0E0000 		.4byte	0xead
 5802 0e9e 1E       		.uleb128 0x1e
 5803 0e9f 01       		.uleb128 0x1
 5804 0ea0 50       		.byte	0x50
 5805 0ea1 02       		.uleb128 0x2
 5806 0ea2 75       		.byte	0x75
 5807 0ea3 00       		.sleb128 0
 5808 0ea4 1E       		.uleb128 0x1e
 5809 0ea5 01       		.uleb128 0x1
 5810 0ea6 51       		.byte	0x51
 5811 0ea7 04       		.uleb128 0x4
 5812 0ea8 74       		.byte	0x74
 5813 0ea9 00       		.sleb128 0
 5814 0eaa 32       		.byte	0x32
 5815 0eab 25       		.byte	0x25
 5816 0eac 00       		.byte	0
 5817 0ead 1F       		.uleb128 0x1f
 5818 0eae D2000000 		.4byte	.LVL205
 5819 0eb2 B9240000 		.4byte	0x24b9
 5820 0eb6 1E       		.uleb128 0x1e
 5821 0eb7 01       		.uleb128 0x1
 5822 0eb8 51       		.byte	0x51
 5823 0eb9 05       		.uleb128 0x5
 5824 0eba 03       		.byte	0x3
 5825 0ebb 08000000 		.4byte	.LANCHOR0+8
 5826 0ebf 00       		.byte	0
 5827 0ec0 00       		.byte	0
 5828 0ec1 00       		.byte	0
 5829 0ec2 1C       		.uleb128 0x1c
 5830 0ec3 BE000000 		.4byte	.LVL201
 5831 0ec7 DD240000 		.4byte	0x24dd
ARM GAS  C:\Users\info\AppData\Local\Temp\ccQPGqkW.s 			page 132


 5832 0ecb 1D       		.uleb128 0x1d
 5833 0ecc C6000000 		.4byte	.LVL202
 5834 0ed0 B9240000 		.4byte	0x24b9
 5835 0ed4 E80E0000 		.4byte	0xee8
 5836 0ed8 1E       		.uleb128 0x1e
 5837 0ed9 01       		.uleb128 0x1
 5838 0eda 50       		.byte	0x50
 5839 0edb 02       		.uleb128 0x2
 5840 0edc 75       		.byte	0x75
 5841 0edd 00       		.sleb128 0
 5842 0ede 1E       		.uleb128 0x1e
 5843 0edf 01       		.uleb128 0x1
 5844 0ee0 51       		.byte	0x51
 5845 0ee1 05       		.uleb128 0x5
 5846 0ee2 03       		.byte	0x3
 5847 0ee3 E0000000 		.4byte	.LANCHOR0+224
 5848 0ee7 00       		.byte	0
 5849 0ee8 1D       		.uleb128 0x1d
 5850 0ee9 DE000000 		.4byte	.LVL208
 5851 0eed E9240000 		.4byte	0x24e9
 5852 0ef1 FF0E0000 		.4byte	0xeff
 5853 0ef5 1E       		.uleb128 0x1e
 5854 0ef6 01       		.uleb128 0x1
 5855 0ef7 51       		.byte	0x51
 5856 0ef8 05       		.uleb128 0x5
 5857 0ef9 03       		.byte	0x3
 5858 0efa C8000000 		.4byte	.LANCHOR0+200
 5859 0efe 00       		.byte	0
 5860 0eff 1D       		.uleb128 0x1d
 5861 0f00 EC000000 		.4byte	.LVL211
 5862 0f04 B9240000 		.4byte	0x24b9
 5863 0f08 160F0000 		.4byte	0xf16
 5864 0f0c 1E       		.uleb128 0x1e
 5865 0f0d 01       		.uleb128 0x1
 5866 0f0e 51       		.byte	0x51
 5867 0f0f 05       		.uleb128 0x5
 5868 0f10 03       		.byte	0x3
 5869 0f11 54000000 		.4byte	.LANCHOR0+84
 5870 0f15 00       		.byte	0
 5871 0f16 1F       		.uleb128 0x1f
 5872 0f17 00010000 		.4byte	.LVL214
 5873 0f1b B9240000 		.4byte	0x24b9
 5874 0f1f 1E       		.uleb128 0x1e
 5875 0f20 01       		.uleb128 0x1
 5876 0f21 51       		.byte	0x51
 5877 0f22 05       		.uleb128 0x5
 5878 0f23 03       		.byte	0x3
 5879 0f24 4C000000 		.4byte	.LANCHOR0+76
 5880 0f28 00       		.byte	0
 5881 0f29 00       		.byte	0
 5882 0f2a 16       		.uleb128 0x16
 5883 0f2b F0030000 		.4byte	0x3f0
 5884 0f2f 00000000 		.4byte	.LFB5
 5885 0f33 28010000 		.4byte	.LFE5-.LFB5
 5886 0f37 01       		.uleb128 0x1
 5887 0f38 9C       		.byte	0x9c
 5888 0f39 8C110000 		.4byte	0x118c
ARM GAS  C:\Users\info\AppData\Local\Temp\ccQPGqkW.s 			page 133


 5889 0f3d 17       		.uleb128 0x17
 5890 0f3e 01040000 		.4byte	0x401
 5891 0f42 B41B0000 		.4byte	.LLST71
 5892 0f46 17       		.uleb128 0x17
 5893 0f47 0D040000 		.4byte	0x40d
 5894 0f4b 901C0000 		.4byte	.LLST72
 5895 0f4f 17       		.uleb128 0x17
 5896 0f50 19040000 		.4byte	0x419
 5897 0f54 601D0000 		.4byte	.LLST73
 5898 0f58 17       		.uleb128 0x17
 5899 0f59 25040000 		.4byte	0x425
 5900 0f5d 301E0000 		.4byte	.LLST74
 5901 0f61 28       		.uleb128 0x28
 5902 0f62 96030000 		.4byte	0x396
 5903 0f66 00000000 		.4byte	.LBB84
 5904 0f6a E0000000 		.4byte	.Ldebug_ranges0+0xe0
 5905 0f6e 01       		.byte	0x1
 5906 0f6f 4902     		.2byte	0x249
 5907 0f71 F6100000 		.4byte	0x10f6
 5908 0f75 17       		.uleb128 0x17
 5909 0f76 C7030000 		.4byte	0x3c7
 5910 0f7a 0B1F0000 		.4byte	.LLST75
 5911 0f7e 17       		.uleb128 0x17
 5912 0f7f BC030000 		.4byte	0x3bc
 5913 0f83 8D1F0000 		.4byte	.LLST76
 5914 0f87 17       		.uleb128 0x17
 5915 0f88 B1030000 		.4byte	0x3b1
 5916 0f8c 04200000 		.4byte	.LLST77
 5917 0f90 17       		.uleb128 0x17
 5918 0f91 A6030000 		.4byte	0x3a6
 5919 0f95 7B200000 		.4byte	.LLST78
 5920 0f99 24       		.uleb128 0x24
 5921 0f9a E0000000 		.4byte	.Ldebug_ranges0+0xe0
 5922 0f9e 18       		.uleb128 0x18
 5923 0f9f D2030000 		.4byte	0x3d2
 5924 0fa3 18       		.uleb128 0x18
 5925 0fa4 DB030000 		.4byte	0x3db
 5926 0fa8 18       		.uleb128 0x18
 5927 0fa9 E4030000 		.4byte	0x3e4
 5928 0fad 19       		.uleb128 0x19
 5929 0fae 38000000 		.4byte	.LBB86
 5930 0fb2 60000000 		.4byte	.LBE86-.LBB86
 5931 0fb6 77100000 		.4byte	0x1077
 5932 0fba 17       		.uleb128 0x17
 5933 0fbb B1030000 		.4byte	0x3b1
 5934 0fbf E6200000 		.4byte	.LLST79
 5935 0fc3 17       		.uleb128 0x17
 5936 0fc4 C7030000 		.4byte	0x3c7
 5937 0fc8 FA200000 		.4byte	.LLST80
 5938 0fcc 17       		.uleb128 0x17
 5939 0fcd BC030000 		.4byte	0x3bc
 5940 0fd1 26210000 		.4byte	.LLST81
 5941 0fd5 17       		.uleb128 0x17
 5942 0fd6 A6030000 		.4byte	0x3a6
 5943 0fda 44210000 		.4byte	.LLST82
 5944 0fde 1A       		.uleb128 0x1a
 5945 0fdf 38000000 		.4byte	.LBB87
ARM GAS  C:\Users\info\AppData\Local\Temp\ccQPGqkW.s 			page 134


 5946 0fe3 60000000 		.4byte	.LBE87-.LBB87
 5947 0fe7 1B       		.uleb128 0x1b
 5948 0fe8 D2030000 		.4byte	0x3d2
 5949 0fec 62210000 		.4byte	.LLST83
 5950 0ff0 1B       		.uleb128 0x1b
 5951 0ff1 DB030000 		.4byte	0x3db
 5952 0ff5 9E210000 		.4byte	.LLST84
 5953 0ff9 1B       		.uleb128 0x1b
 5954 0ffa E4030000 		.4byte	0x3e4
 5955 0ffe E3210000 		.4byte	.LLST85
 5956 1002 1C       		.uleb128 0x1c
 5957 1003 3C000000 		.4byte	.LVL224
 5958 1007 95240000 		.4byte	0x2495
 5959 100b 1D       		.uleb128 0x1d
 5960 100c 5A000000 		.4byte	.LVL228
 5961 1010 A1240000 		.4byte	0x24a1
 5962 1014 29100000 		.4byte	0x1029
 5963 1018 1E       		.uleb128 0x1e
 5964 1019 01       		.uleb128 0x1
 5965 101a 50       		.byte	0x50
 5966 101b 02       		.uleb128 0x2
 5967 101c 75       		.byte	0x75
 5968 101d 00       		.sleb128 0
 5969 101e 1E       		.uleb128 0x1e
 5970 101f 01       		.uleb128 0x1
 5971 1020 51       		.byte	0x51
 5972 1021 06       		.uleb128 0x6
 5973 1022 78       		.byte	0x78
 5974 1023 00       		.sleb128 0
 5975 1024 34       		.byte	0x34
 5976 1025 25       		.byte	0x25
 5977 1026 40       		.byte	0x40
 5978 1027 21       		.byte	0x21
 5979 1028 00       		.byte	0
 5980 1029 1D       		.uleb128 0x1d
 5981 102a 64000000 		.4byte	.LVL229
 5982 102e A1240000 		.4byte	0x24a1
 5983 1032 45100000 		.4byte	0x1045
 5984 1036 1E       		.uleb128 0x1e
 5985 1037 01       		.uleb128 0x1
 5986 1038 50       		.byte	0x50
 5987 1039 02       		.uleb128 0x2
 5988 103a 75       		.byte	0x75
 5989 103b 00       		.sleb128 0
 5990 103c 1E       		.uleb128 0x1e
 5991 103d 01       		.uleb128 0x1
 5992 103e 51       		.byte	0x51
 5993 103f 04       		.uleb128 0x4
 5994 1040 78       		.byte	0x78
 5995 1041 00       		.sleb128 0
 5996 1042 3F       		.byte	0x3f
 5997 1043 1A       		.byte	0x1a
 5998 1044 00       		.byte	0
 5999 1045 1D       		.uleb128 0x1d
 6000 1046 70000000 		.4byte	.LVL230
 6001 104a A1240000 		.4byte	0x24a1
 6002 104e 59100000 		.4byte	0x1059
ARM GAS  C:\Users\info\AppData\Local\Temp\ccQPGqkW.s 			page 135


 6003 1052 1E       		.uleb128 0x1e
 6004 1053 01       		.uleb128 0x1
 6005 1054 50       		.byte	0x50
 6006 1055 02       		.uleb128 0x2
 6007 1056 75       		.byte	0x75
 6008 1057 00       		.sleb128 0
 6009 1058 00       		.byte	0
 6010 1059 1F       		.uleb128 0x1f
 6011 105a 90000000 		.4byte	.LVL237
 6012 105e AD240000 		.4byte	0x24ad
 6013 1062 1E       		.uleb128 0x1e
 6014 1063 01       		.uleb128 0x1
 6015 1064 50       		.byte	0x50
 6016 1065 02       		.uleb128 0x2
 6017 1066 75       		.byte	0x75
 6018 1067 00       		.sleb128 0
 6019 1068 1E       		.uleb128 0x1e
 6020 1069 01       		.uleb128 0x1
 6021 106a 51       		.byte	0x51
 6022 106b 02       		.uleb128 0x2
 6023 106c 76       		.byte	0x76
 6024 106d 00       		.sleb128 0
 6025 106e 1E       		.uleb128 0x1e
 6026 106f 01       		.uleb128 0x1
 6027 1070 52       		.byte	0x52
 6028 1071 02       		.uleb128 0x2
 6029 1072 77       		.byte	0x77
 6030 1073 00       		.sleb128 0
 6031 1074 00       		.byte	0
 6032 1075 00       		.byte	0
 6033 1076 00       		.byte	0
 6034 1077 1D       		.uleb128 0x1d
 6035 1078 30000000 		.4byte	.LVL222
 6036 107c B9240000 		.4byte	0x24b9
 6037 1080 8E100000 		.4byte	0x108e
 6038 1084 1E       		.uleb128 0x1e
 6039 1085 01       		.uleb128 0x1
 6040 1086 51       		.byte	0x51
 6041 1087 05       		.uleb128 0x5
 6042 1088 03       		.byte	0x3
 6043 1089 00000000 		.4byte	.LANCHOR0
 6044 108d 00       		.byte	0
 6045 108e 1D       		.uleb128 0x1d
 6046 108f 9E000000 		.4byte	.LVL240
 6047 1093 C5240000 		.4byte	0x24c5
 6048 1097 A2100000 		.4byte	0x10a2
 6049 109b 1E       		.uleb128 0x1e
 6050 109c 01       		.uleb128 0x1
 6051 109d 50       		.byte	0x50
 6052 109e 02       		.uleb128 0x2
 6053 109f 75       		.byte	0x75
 6054 10a0 00       		.sleb128 0
 6055 10a1 00       		.byte	0
 6056 10a2 1C       		.uleb128 0x1c
 6057 10a3 A8000000 		.4byte	.LVL242
 6058 10a7 95240000 		.4byte	0x2495
 6059 10ab 1D       		.uleb128 0x1d
ARM GAS  C:\Users\info\AppData\Local\Temp\ccQPGqkW.s 			page 136


 6060 10ac B0000000 		.4byte	.LVL243
 6061 10b0 A1240000 		.4byte	0x24a1
 6062 10b4 C5100000 		.4byte	0x10c5
 6063 10b8 1E       		.uleb128 0x1e
 6064 10b9 01       		.uleb128 0x1
 6065 10ba 50       		.byte	0x50
 6066 10bb 02       		.uleb128 0x2
 6067 10bc 75       		.byte	0x75
 6068 10bd 00       		.sleb128 0
 6069 10be 1E       		.uleb128 0x1e
 6070 10bf 01       		.uleb128 0x1
 6071 10c0 51       		.byte	0x51
 6072 10c1 02       		.uleb128 0x2
 6073 10c2 09       		.byte	0x9
 6074 10c3 81       		.byte	0x81
 6075 10c4 00       		.byte	0
 6076 10c5 1D       		.uleb128 0x1d
 6077 10c6 B8000000 		.4byte	.LVL244
 6078 10ca D1240000 		.4byte	0x24d1
 6079 10ce E1100000 		.4byte	0x10e1
 6080 10d2 1E       		.uleb128 0x1e
 6081 10d3 01       		.uleb128 0x1
 6082 10d4 50       		.byte	0x50
 6083 10d5 02       		.uleb128 0x2
 6084 10d6 75       		.byte	0x75
 6085 10d7 00       		.sleb128 0
 6086 10d8 1E       		.uleb128 0x1e
 6087 10d9 01       		.uleb128 0x1
 6088 10da 51       		.byte	0x51
 6089 10db 04       		.uleb128 0x4
 6090 10dc 74       		.byte	0x74
 6091 10dd 00       		.sleb128 0
 6092 10de 32       		.byte	0x32
 6093 10df 25       		.byte	0x25
 6094 10e0 00       		.byte	0
 6095 10e1 1F       		.uleb128 0x1f
 6096 10e2 D2000000 		.4byte	.LVL250
 6097 10e6 B9240000 		.4byte	0x24b9
 6098 10ea 1E       		.uleb128 0x1e
 6099 10eb 01       		.uleb128 0x1
 6100 10ec 51       		.byte	0x51
 6101 10ed 05       		.uleb128 0x5
 6102 10ee 03       		.byte	0x3
 6103 10ef 08000000 		.4byte	.LANCHOR0+8
 6104 10f3 00       		.byte	0
 6105 10f4 00       		.byte	0
 6106 10f5 00       		.byte	0
 6107 10f6 19       		.uleb128 0x19
 6108 10f7 FA000000 		.4byte	.LBB98
 6109 10fb 2E000000 		.4byte	.LBE98-.LBB98
 6110 10ff 3B110000 		.4byte	0x113b
 6111 1103 17       		.uleb128 0x17
 6112 1104 0D040000 		.4byte	0x40d
 6113 1108 F6210000 		.4byte	.LLST86
 6114 110c 17       		.uleb128 0x17
 6115 110d 19040000 		.4byte	0x419
 6116 1111 0A220000 		.4byte	.LLST87
ARM GAS  C:\Users\info\AppData\Local\Temp\ccQPGqkW.s 			page 137


 6117 1115 17       		.uleb128 0x17
 6118 1116 25040000 		.4byte	0x425
 6119 111a 1E220000 		.4byte	.LLST88
 6120 111e 17       		.uleb128 0x17
 6121 111f 01040000 		.4byte	0x401
 6122 1123 3F220000 		.4byte	.LLST89
 6123 1127 1F       		.uleb128 0x1f
 6124 1128 00010000 		.4byte	.LVL259
 6125 112c B9240000 		.4byte	0x24b9
 6126 1130 1E       		.uleb128 0x1e
 6127 1131 01       		.uleb128 0x1
 6128 1132 51       		.byte	0x51
 6129 1133 05       		.uleb128 0x5
 6130 1134 03       		.byte	0x3
 6131 1135 4C000000 		.4byte	.LANCHOR0+76
 6132 1139 00       		.byte	0
 6133 113a 00       		.byte	0
 6134 113b 1C       		.uleb128 0x1c
 6135 113c BE000000 		.4byte	.LVL246
 6136 1140 DD240000 		.4byte	0x24dd
 6137 1144 1D       		.uleb128 0x1d
 6138 1145 C6000000 		.4byte	.LVL247
 6139 1149 B9240000 		.4byte	0x24b9
 6140 114d 61110000 		.4byte	0x1161
 6141 1151 1E       		.uleb128 0x1e
 6142 1152 01       		.uleb128 0x1
 6143 1153 50       		.byte	0x50
 6144 1154 02       		.uleb128 0x2
 6145 1155 75       		.byte	0x75
 6146 1156 00       		.sleb128 0
 6147 1157 1E       		.uleb128 0x1e
 6148 1158 01       		.uleb128 0x1
 6149 1159 51       		.byte	0x51
 6150 115a 05       		.uleb128 0x5
 6151 115b 03       		.byte	0x3
 6152 115c 1C010000 		.4byte	.LANCHOR0+284
 6153 1160 00       		.byte	0
 6154 1161 1D       		.uleb128 0x1d
 6155 1162 DE000000 		.4byte	.LVL253
 6156 1166 E9240000 		.4byte	0x24e9
 6157 116a 78110000 		.4byte	0x1178
 6158 116e 1E       		.uleb128 0x1e
 6159 116f 01       		.uleb128 0x1
 6160 1170 51       		.byte	0x51
 6161 1171 05       		.uleb128 0x5
 6162 1172 03       		.byte	0x3
 6163 1173 04010000 		.4byte	.LANCHOR0+260
 6164 1177 00       		.byte	0
 6165 1178 1F       		.uleb128 0x1f
 6166 1179 EC000000 		.4byte	.LVL256
 6167 117d B9240000 		.4byte	0x24b9
 6168 1181 1E       		.uleb128 0x1e
 6169 1182 01       		.uleb128 0x1
 6170 1183 51       		.byte	0x51
 6171 1184 05       		.uleb128 0x5
 6172 1185 03       		.byte	0x3
 6173 1186 54000000 		.4byte	.LANCHOR0+84
ARM GAS  C:\Users\info\AppData\Local\Temp\ccQPGqkW.s 			page 138


 6174 118a 00       		.byte	0
 6175 118b 00       		.byte	0
 6176 118c 25       		.uleb128 0x25
 6177 118d 9C070000 		.4byte	.LASF75
 6178 1191 01       		.byte	0x1
 6179 1192 6A02     		.2byte	0x26a
 6180 1194 8C000000 		.4byte	0x8c
 6181 1198 00000000 		.4byte	.LFB6
 6182 119c 28010000 		.4byte	.LFE6-.LFB6
 6183 11a0 01       		.uleb128 0x1
 6184 11a1 9C       		.byte	0x9c
 6185 11a2 46140000 		.4byte	0x1446
 6186 11a6 26       		.uleb128 0x26
 6187 11a7 A8050000 		.4byte	.LASF66
 6188 11ab 01       		.byte	0x1
 6189 11ac 6A02     		.2byte	0x26a
 6190 11ae 4F030000 		.4byte	0x34f
 6191 11b2 5D220000 		.4byte	.LLST90
 6192 11b6 27       		.uleb128 0x27
 6193 11b7 6D736700 		.ascii	"msg\000"
 6194 11bb 01       		.byte	0x1
 6195 11bc 6A02     		.2byte	0x26a
 6196 11be 8C000000 		.4byte	0x8c
 6197 11c2 39230000 		.4byte	.LLST91
 6198 11c6 26       		.uleb128 0x26
 6199 11c7 AE020000 		.4byte	.LASF67
 6200 11cb 01       		.byte	0x1
 6201 11cc 6A02     		.2byte	0x26a
 6202 11ce 8C000000 		.4byte	0x8c
 6203 11d2 09240000 		.4byte	.LLST92
 6204 11d6 26       		.uleb128 0x26
 6205 11d7 D3070000 		.4byte	.LASF68
 6206 11db 01       		.byte	0x1
 6207 11dc 6A02     		.2byte	0x26a
 6208 11de AD000000 		.4byte	0xad
 6209 11e2 D9240000 		.4byte	.LLST93
 6210 11e6 29       		.uleb128 0x29
 6211 11e7 F0030000 		.4byte	0x3f0
 6212 11eb 00000000 		.4byte	.LBB108
 6213 11ef 18010000 		.4byte	.Ldebug_ranges0+0x118
 6214 11f3 01       		.byte	0x1
 6215 11f4 6C02     		.2byte	0x26c
 6216 11f6 17       		.uleb128 0x17
 6217 11f7 25040000 		.4byte	0x425
 6218 11fb B4250000 		.4byte	.LLST94
 6219 11ff 17       		.uleb128 0x17
 6220 1200 19040000 		.4byte	0x419
 6221 1204 8F260000 		.4byte	.LLST95
 6222 1208 17       		.uleb128 0x17
 6223 1209 0D040000 		.4byte	0x40d
 6224 120d 5F270000 		.4byte	.LLST96
 6225 1211 17       		.uleb128 0x17
 6226 1212 01040000 		.4byte	0x401
 6227 1216 2F280000 		.4byte	.LLST97
 6228 121a 28       		.uleb128 0x28
 6229 121b 96030000 		.4byte	0x396
 6230 121f 00000000 		.4byte	.LBB110
ARM GAS  C:\Users\info\AppData\Local\Temp\ccQPGqkW.s 			page 139


 6231 1223 48010000 		.4byte	.Ldebug_ranges0+0x148
 6232 1227 01       		.byte	0x1
 6233 1228 4902     		.2byte	0x249
 6234 122a AF130000 		.4byte	0x13af
 6235 122e 17       		.uleb128 0x17
 6236 122f C7030000 		.4byte	0x3c7
 6237 1233 0B290000 		.4byte	.LLST98
 6238 1237 17       		.uleb128 0x17
 6239 1238 BC030000 		.4byte	0x3bc
 6240 123c 8D290000 		.4byte	.LLST99
 6241 1240 17       		.uleb128 0x17
 6242 1241 B1030000 		.4byte	0x3b1
 6243 1245 042A0000 		.4byte	.LLST100
 6244 1249 17       		.uleb128 0x17
 6245 124a A6030000 		.4byte	0x3a6
 6246 124e 7B2A0000 		.4byte	.LLST101
 6247 1252 24       		.uleb128 0x24
 6248 1253 48010000 		.4byte	.Ldebug_ranges0+0x148
 6249 1257 18       		.uleb128 0x18
 6250 1258 D2030000 		.4byte	0x3d2
 6251 125c 18       		.uleb128 0x18
 6252 125d DB030000 		.4byte	0x3db
 6253 1261 18       		.uleb128 0x18
 6254 1262 E4030000 		.4byte	0x3e4
 6255 1266 19       		.uleb128 0x19
 6256 1267 38000000 		.4byte	.LBB112
 6257 126b 60000000 		.4byte	.LBE112-.LBB112
 6258 126f 30130000 		.4byte	0x1330
 6259 1273 17       		.uleb128 0x17
 6260 1274 B1030000 		.4byte	0x3b1
 6261 1278 E62A0000 		.4byte	.LLST102
 6262 127c 17       		.uleb128 0x17
 6263 127d C7030000 		.4byte	0x3c7
 6264 1281 FA2A0000 		.4byte	.LLST103
 6265 1285 17       		.uleb128 0x17
 6266 1286 BC030000 		.4byte	0x3bc
 6267 128a 262B0000 		.4byte	.LLST104
 6268 128e 17       		.uleb128 0x17
 6269 128f A6030000 		.4byte	0x3a6
 6270 1293 442B0000 		.4byte	.LLST105
 6271 1297 1A       		.uleb128 0x1a
 6272 1298 38000000 		.4byte	.LBB113
 6273 129c 60000000 		.4byte	.LBE113-.LBB113
 6274 12a0 1B       		.uleb128 0x1b
 6275 12a1 D2030000 		.4byte	0x3d2
 6276 12a5 622B0000 		.4byte	.LLST106
 6277 12a9 1B       		.uleb128 0x1b
 6278 12aa DB030000 		.4byte	0x3db
 6279 12ae 9E2B0000 		.4byte	.LLST107
 6280 12b2 1B       		.uleb128 0x1b
 6281 12b3 E4030000 		.4byte	0x3e4
 6282 12b7 E32B0000 		.4byte	.LLST108
 6283 12bb 1C       		.uleb128 0x1c
 6284 12bc 3C000000 		.4byte	.LVL271
 6285 12c0 95240000 		.4byte	0x2495
 6286 12c4 1D       		.uleb128 0x1d
 6287 12c5 5A000000 		.4byte	.LVL275
ARM GAS  C:\Users\info\AppData\Local\Temp\ccQPGqkW.s 			page 140


 6288 12c9 A1240000 		.4byte	0x24a1
 6289 12cd E2120000 		.4byte	0x12e2
 6290 12d1 1E       		.uleb128 0x1e
 6291 12d2 01       		.uleb128 0x1
 6292 12d3 50       		.byte	0x50
 6293 12d4 02       		.uleb128 0x2
 6294 12d5 75       		.byte	0x75
 6295 12d6 00       		.sleb128 0
 6296 12d7 1E       		.uleb128 0x1e
 6297 12d8 01       		.uleb128 0x1
 6298 12d9 51       		.byte	0x51
 6299 12da 06       		.uleb128 0x6
 6300 12db 78       		.byte	0x78
 6301 12dc 00       		.sleb128 0
 6302 12dd 34       		.byte	0x34
 6303 12de 25       		.byte	0x25
 6304 12df 40       		.byte	0x40
 6305 12e0 21       		.byte	0x21
 6306 12e1 00       		.byte	0
 6307 12e2 1D       		.uleb128 0x1d
 6308 12e3 64000000 		.4byte	.LVL276
 6309 12e7 A1240000 		.4byte	0x24a1
 6310 12eb FE120000 		.4byte	0x12fe
 6311 12ef 1E       		.uleb128 0x1e
 6312 12f0 01       		.uleb128 0x1
 6313 12f1 50       		.byte	0x50
 6314 12f2 02       		.uleb128 0x2
 6315 12f3 75       		.byte	0x75
 6316 12f4 00       		.sleb128 0
 6317 12f5 1E       		.uleb128 0x1e
 6318 12f6 01       		.uleb128 0x1
 6319 12f7 51       		.byte	0x51
 6320 12f8 04       		.uleb128 0x4
 6321 12f9 78       		.byte	0x78
 6322 12fa 00       		.sleb128 0
 6323 12fb 3F       		.byte	0x3f
 6324 12fc 1A       		.byte	0x1a
 6325 12fd 00       		.byte	0
 6326 12fe 1D       		.uleb128 0x1d
 6327 12ff 70000000 		.4byte	.LVL277
 6328 1303 A1240000 		.4byte	0x24a1
 6329 1307 12130000 		.4byte	0x1312
 6330 130b 1E       		.uleb128 0x1e
 6331 130c 01       		.uleb128 0x1
 6332 130d 50       		.byte	0x50
 6333 130e 02       		.uleb128 0x2
 6334 130f 75       		.byte	0x75
 6335 1310 00       		.sleb128 0
 6336 1311 00       		.byte	0
 6337 1312 1F       		.uleb128 0x1f
 6338 1313 90000000 		.4byte	.LVL284
 6339 1317 AD240000 		.4byte	0x24ad
 6340 131b 1E       		.uleb128 0x1e
 6341 131c 01       		.uleb128 0x1
 6342 131d 50       		.byte	0x50
 6343 131e 02       		.uleb128 0x2
 6344 131f 75       		.byte	0x75
ARM GAS  C:\Users\info\AppData\Local\Temp\ccQPGqkW.s 			page 141


 6345 1320 00       		.sleb128 0
 6346 1321 1E       		.uleb128 0x1e
 6347 1322 01       		.uleb128 0x1
 6348 1323 51       		.byte	0x51
 6349 1324 02       		.uleb128 0x2
 6350 1325 76       		.byte	0x76
 6351 1326 00       		.sleb128 0
 6352 1327 1E       		.uleb128 0x1e
 6353 1328 01       		.uleb128 0x1
 6354 1329 52       		.byte	0x52
 6355 132a 02       		.uleb128 0x2
 6356 132b 77       		.byte	0x77
 6357 132c 00       		.sleb128 0
 6358 132d 00       		.byte	0
 6359 132e 00       		.byte	0
 6360 132f 00       		.byte	0
 6361 1330 1D       		.uleb128 0x1d
 6362 1331 30000000 		.4byte	.LVL268
 6363 1335 B9240000 		.4byte	0x24b9
 6364 1339 47130000 		.4byte	0x1347
 6365 133d 1E       		.uleb128 0x1e
 6366 133e 01       		.uleb128 0x1
 6367 133f 51       		.byte	0x51
 6368 1340 05       		.uleb128 0x5
 6369 1341 03       		.byte	0x3
 6370 1342 00000000 		.4byte	.LANCHOR0
 6371 1346 00       		.byte	0
 6372 1347 1D       		.uleb128 0x1d
 6373 1348 9E000000 		.4byte	.LVL287
 6374 134c C5240000 		.4byte	0x24c5
 6375 1350 5B130000 		.4byte	0x135b
 6376 1354 1E       		.uleb128 0x1e
 6377 1355 01       		.uleb128 0x1
 6378 1356 50       		.byte	0x50
 6379 1357 02       		.uleb128 0x2
 6380 1358 75       		.byte	0x75
 6381 1359 00       		.sleb128 0
 6382 135a 00       		.byte	0
 6383 135b 1C       		.uleb128 0x1c
 6384 135c A8000000 		.4byte	.LVL290
 6385 1360 95240000 		.4byte	0x2495
 6386 1364 1D       		.uleb128 0x1d
 6387 1365 B0000000 		.4byte	.LVL291
 6388 1369 A1240000 		.4byte	0x24a1
 6389 136d 7E130000 		.4byte	0x137e
 6390 1371 1E       		.uleb128 0x1e
 6391 1372 01       		.uleb128 0x1
 6392 1373 50       		.byte	0x50
 6393 1374 02       		.uleb128 0x2
 6394 1375 75       		.byte	0x75
 6395 1376 00       		.sleb128 0
 6396 1377 1E       		.uleb128 0x1e
 6397 1378 01       		.uleb128 0x1
 6398 1379 51       		.byte	0x51
 6399 137a 02       		.uleb128 0x2
 6400 137b 09       		.byte	0x9
 6401 137c 81       		.byte	0x81
ARM GAS  C:\Users\info\AppData\Local\Temp\ccQPGqkW.s 			page 142


 6402 137d 00       		.byte	0
 6403 137e 1D       		.uleb128 0x1d
 6404 137f B8000000 		.4byte	.LVL292
 6405 1383 D1240000 		.4byte	0x24d1
 6406 1387 9A130000 		.4byte	0x139a
 6407 138b 1E       		.uleb128 0x1e
 6408 138c 01       		.uleb128 0x1
 6409 138d 50       		.byte	0x50
 6410 138e 02       		.uleb128 0x2
 6411 138f 75       		.byte	0x75
 6412 1390 00       		.sleb128 0
 6413 1391 1E       		.uleb128 0x1e
 6414 1392 01       		.uleb128 0x1
 6415 1393 51       		.byte	0x51
 6416 1394 04       		.uleb128 0x4
 6417 1395 74       		.byte	0x74
 6418 1396 00       		.sleb128 0
 6419 1397 32       		.byte	0x32
 6420 1398 25       		.byte	0x25
 6421 1399 00       		.byte	0
 6422 139a 1F       		.uleb128 0x1f
 6423 139b D2000000 		.4byte	.LVL298
 6424 139f B9240000 		.4byte	0x24b9
 6425 13a3 1E       		.uleb128 0x1e
 6426 13a4 01       		.uleb128 0x1
 6427 13a5 51       		.byte	0x51
 6428 13a6 05       		.uleb128 0x5
 6429 13a7 03       		.byte	0x3
 6430 13a8 08000000 		.4byte	.LANCHOR0+8
 6431 13ac 00       		.byte	0
 6432 13ad 00       		.byte	0
 6433 13ae 00       		.byte	0
 6434 13af 19       		.uleb128 0x19
 6435 13b0 FA000000 		.4byte	.LBB124
 6436 13b4 2E000000 		.4byte	.LBE124-.LBB124
 6437 13b8 F4130000 		.4byte	0x13f4
 6438 13bc 17       		.uleb128 0x17
 6439 13bd 0D040000 		.4byte	0x40d
 6440 13c1 F62B0000 		.4byte	.LLST109
 6441 13c5 17       		.uleb128 0x17
 6442 13c6 19040000 		.4byte	0x419
 6443 13ca 0A2C0000 		.4byte	.LLST110
 6444 13ce 17       		.uleb128 0x17
 6445 13cf 25040000 		.4byte	0x425
 6446 13d3 1E2C0000 		.4byte	.LLST111
 6447 13d7 17       		.uleb128 0x17
 6448 13d8 01040000 		.4byte	0x401
 6449 13dc 3F2C0000 		.4byte	.LLST112
 6450 13e0 1F       		.uleb128 0x1f
 6451 13e1 00010000 		.4byte	.LVL308
 6452 13e5 B9240000 		.4byte	0x24b9
 6453 13e9 1E       		.uleb128 0x1e
 6454 13ea 01       		.uleb128 0x1
 6455 13eb 51       		.byte	0x51
 6456 13ec 05       		.uleb128 0x5
 6457 13ed 03       		.byte	0x3
 6458 13ee 4C000000 		.4byte	.LANCHOR0+76
ARM GAS  C:\Users\info\AppData\Local\Temp\ccQPGqkW.s 			page 143


 6459 13f2 00       		.byte	0
 6460 13f3 00       		.byte	0
 6461 13f4 1C       		.uleb128 0x1c
 6462 13f5 BE000000 		.4byte	.LVL294
 6463 13f9 DD240000 		.4byte	0x24dd
 6464 13fd 1D       		.uleb128 0x1d
 6465 13fe C6000000 		.4byte	.LVL295
 6466 1402 B9240000 		.4byte	0x24b9
 6467 1406 1A140000 		.4byte	0x141a
 6468 140a 1E       		.uleb128 0x1e
 6469 140b 01       		.uleb128 0x1
 6470 140c 50       		.byte	0x50
 6471 140d 02       		.uleb128 0x2
 6472 140e 75       		.byte	0x75
 6473 140f 00       		.sleb128 0
 6474 1410 1E       		.uleb128 0x1e
 6475 1411 01       		.uleb128 0x1
 6476 1412 51       		.byte	0x51
 6477 1413 05       		.uleb128 0x5
 6478 1414 03       		.byte	0x3
 6479 1415 1C010000 		.4byte	.LANCHOR0+284
 6480 1419 00       		.byte	0
 6481 141a 1D       		.uleb128 0x1d
 6482 141b DE000000 		.4byte	.LVL302
 6483 141f E9240000 		.4byte	0x24e9
 6484 1423 31140000 		.4byte	0x1431
 6485 1427 1E       		.uleb128 0x1e
 6486 1428 01       		.uleb128 0x1
 6487 1429 51       		.byte	0x51
 6488 142a 05       		.uleb128 0x5
 6489 142b 03       		.byte	0x3
 6490 142c 04010000 		.4byte	.LANCHOR0+260
 6491 1430 00       		.byte	0
 6492 1431 1F       		.uleb128 0x1f
 6493 1432 EC000000 		.4byte	.LVL305
 6494 1436 B9240000 		.4byte	0x24b9
 6495 143a 1E       		.uleb128 0x1e
 6496 143b 01       		.uleb128 0x1
 6497 143c 51       		.byte	0x51
 6498 143d 05       		.uleb128 0x5
 6499 143e 03       		.byte	0x3
 6500 143f 54000000 		.4byte	.LANCHOR0+84
 6501 1443 00       		.byte	0
 6502 1444 00       		.byte	0
 6503 1445 00       		.byte	0
 6504 1446 25       		.uleb128 0x25
 6505 1447 F9010000 		.4byte	.LASF76
 6506 144b 01       		.byte	0x1
 6507 144c A902     		.2byte	0x2a9
 6508 144e 8C000000 		.4byte	0x8c
 6509 1452 00000000 		.4byte	.LFB7
 6510 1456 28010000 		.4byte	.LFE7-.LFB7
 6511 145a 01       		.uleb128 0x1
 6512 145b 9C       		.byte	0x9c
 6513 145c 9D160000 		.4byte	0x169d
 6514 1460 26       		.uleb128 0x26
 6515 1461 A8050000 		.4byte	.LASF66
ARM GAS  C:\Users\info\AppData\Local\Temp\ccQPGqkW.s 			page 144


 6516 1465 01       		.byte	0x1
 6517 1466 A902     		.2byte	0x2a9
 6518 1468 4F030000 		.4byte	0x34f
 6519 146c 5D2C0000 		.4byte	.LLST113
 6520 1470 27       		.uleb128 0x27
 6521 1471 6D736700 		.ascii	"msg\000"
 6522 1475 01       		.byte	0x1
 6523 1476 A902     		.2byte	0x2a9
 6524 1478 8C000000 		.4byte	0x8c
 6525 147c 392D0000 		.4byte	.LLST114
 6526 1480 26       		.uleb128 0x26
 6527 1481 AE020000 		.4byte	.LASF67
 6528 1485 01       		.byte	0x1
 6529 1486 A902     		.2byte	0x2a9
 6530 1488 8C000000 		.4byte	0x8c
 6531 148c 092E0000 		.4byte	.LLST115
 6532 1490 26       		.uleb128 0x26
 6533 1491 D3070000 		.4byte	.LASF68
 6534 1495 01       		.byte	0x1
 6535 1496 A902     		.2byte	0x2a9
 6536 1498 AD000000 		.4byte	0xad
 6537 149c D92E0000 		.4byte	.LLST116
 6538 14a0 28       		.uleb128 0x28
 6539 14a1 96030000 		.4byte	0x396
 6540 14a5 00000000 		.4byte	.LBB138
 6541 14a9 80010000 		.4byte	.Ldebug_ranges0+0x180
 6542 14ad 01       		.byte	0x1
 6543 14ae AC02     		.2byte	0x2ac
 6544 14b0 35160000 		.4byte	0x1635
 6545 14b4 17       		.uleb128 0x17
 6546 14b5 C7030000 		.4byte	0x3c7
 6547 14b9 B42F0000 		.4byte	.LLST117
 6548 14bd 17       		.uleb128 0x17
 6549 14be BC030000 		.4byte	0x3bc
 6550 14c2 36300000 		.4byte	.LLST118
 6551 14c6 17       		.uleb128 0x17
 6552 14c7 B1030000 		.4byte	0x3b1
 6553 14cb AD300000 		.4byte	.LLST119
 6554 14cf 17       		.uleb128 0x17
 6555 14d0 A6030000 		.4byte	0x3a6
 6556 14d4 24310000 		.4byte	.LLST120
 6557 14d8 24       		.uleb128 0x24
 6558 14d9 80010000 		.4byte	.Ldebug_ranges0+0x180
 6559 14dd 18       		.uleb128 0x18
 6560 14de D2030000 		.4byte	0x3d2
 6561 14e2 18       		.uleb128 0x18
 6562 14e3 DB030000 		.4byte	0x3db
 6563 14e7 18       		.uleb128 0x18
 6564 14e8 E4030000 		.4byte	0x3e4
 6565 14ec 19       		.uleb128 0x19
 6566 14ed 38000000 		.4byte	.LBB140
 6567 14f1 60000000 		.4byte	.LBE140-.LBB140
 6568 14f5 B6150000 		.4byte	0x15b6
 6569 14f9 17       		.uleb128 0x17
 6570 14fa B1030000 		.4byte	0x3b1
 6571 14fe 8F310000 		.4byte	.LLST121
 6572 1502 17       		.uleb128 0x17
ARM GAS  C:\Users\info\AppData\Local\Temp\ccQPGqkW.s 			page 145


 6573 1503 C7030000 		.4byte	0x3c7
 6574 1507 A3310000 		.4byte	.LLST122
 6575 150b 17       		.uleb128 0x17
 6576 150c BC030000 		.4byte	0x3bc
 6577 1510 C4310000 		.4byte	.LLST123
 6578 1514 17       		.uleb128 0x17
 6579 1515 A6030000 		.4byte	0x3a6
 6580 1519 E2310000 		.4byte	.LLST124
 6581 151d 1A       		.uleb128 0x1a
 6582 151e 38000000 		.4byte	.LBB141
 6583 1522 60000000 		.4byte	.LBE141-.LBB141
 6584 1526 1B       		.uleb128 0x1b
 6585 1527 D2030000 		.4byte	0x3d2
 6586 152b 00320000 		.4byte	.LLST125
 6587 152f 1B       		.uleb128 0x1b
 6588 1530 DB030000 		.4byte	0x3db
 6589 1534 3C320000 		.4byte	.LLST126
 6590 1538 1B       		.uleb128 0x1b
 6591 1539 E4030000 		.4byte	0x3e4
 6592 153d 81320000 		.4byte	.LLST127
 6593 1541 1C       		.uleb128 0x1c
 6594 1542 3C000000 		.4byte	.LVL320
 6595 1546 95240000 		.4byte	0x2495
 6596 154a 1D       		.uleb128 0x1d
 6597 154b 5A000000 		.4byte	.LVL324
 6598 154f A1240000 		.4byte	0x24a1
 6599 1553 68150000 		.4byte	0x1568
 6600 1557 1E       		.uleb128 0x1e
 6601 1558 01       		.uleb128 0x1
 6602 1559 50       		.byte	0x50
 6603 155a 02       		.uleb128 0x2
 6604 155b 75       		.byte	0x75
 6605 155c 00       		.sleb128 0
 6606 155d 1E       		.uleb128 0x1e
 6607 155e 01       		.uleb128 0x1
 6608 155f 51       		.byte	0x51
 6609 1560 06       		.uleb128 0x6
 6610 1561 78       		.byte	0x78
 6611 1562 00       		.sleb128 0
 6612 1563 34       		.byte	0x34
 6613 1564 25       		.byte	0x25
 6614 1565 40       		.byte	0x40
 6615 1566 21       		.byte	0x21
 6616 1567 00       		.byte	0
 6617 1568 1D       		.uleb128 0x1d
 6618 1569 64000000 		.4byte	.LVL325
 6619 156d A1240000 		.4byte	0x24a1
 6620 1571 84150000 		.4byte	0x1584
 6621 1575 1E       		.uleb128 0x1e
 6622 1576 01       		.uleb128 0x1
 6623 1577 50       		.byte	0x50
 6624 1578 02       		.uleb128 0x2
 6625 1579 75       		.byte	0x75
 6626 157a 00       		.sleb128 0
 6627 157b 1E       		.uleb128 0x1e
 6628 157c 01       		.uleb128 0x1
 6629 157d 51       		.byte	0x51
ARM GAS  C:\Users\info\AppData\Local\Temp\ccQPGqkW.s 			page 146


 6630 157e 04       		.uleb128 0x4
 6631 157f 78       		.byte	0x78
 6632 1580 00       		.sleb128 0
 6633 1581 3F       		.byte	0x3f
 6634 1582 1A       		.byte	0x1a
 6635 1583 00       		.byte	0
 6636 1584 1D       		.uleb128 0x1d
 6637 1585 70000000 		.4byte	.LVL326
 6638 1589 A1240000 		.4byte	0x24a1
 6639 158d 98150000 		.4byte	0x1598
 6640 1591 1E       		.uleb128 0x1e
 6641 1592 01       		.uleb128 0x1
 6642 1593 50       		.byte	0x50
 6643 1594 02       		.uleb128 0x2
 6644 1595 75       		.byte	0x75
 6645 1596 00       		.sleb128 0
 6646 1597 00       		.byte	0
 6647 1598 1F       		.uleb128 0x1f
 6648 1599 90000000 		.4byte	.LVL333
 6649 159d AD240000 		.4byte	0x24ad
 6650 15a1 1E       		.uleb128 0x1e
 6651 15a2 01       		.uleb128 0x1
 6652 15a3 50       		.byte	0x50
 6653 15a4 02       		.uleb128 0x2
 6654 15a5 75       		.byte	0x75
 6655 15a6 00       		.sleb128 0
 6656 15a7 1E       		.uleb128 0x1e
 6657 15a8 01       		.uleb128 0x1
 6658 15a9 51       		.byte	0x51
 6659 15aa 02       		.uleb128 0x2
 6660 15ab 76       		.byte	0x76
 6661 15ac 00       		.sleb128 0
 6662 15ad 1E       		.uleb128 0x1e
 6663 15ae 01       		.uleb128 0x1
 6664 15af 52       		.byte	0x52
 6665 15b0 02       		.uleb128 0x2
 6666 15b1 77       		.byte	0x77
 6667 15b2 00       		.sleb128 0
 6668 15b3 00       		.byte	0
 6669 15b4 00       		.byte	0
 6670 15b5 00       		.byte	0
 6671 15b6 1D       		.uleb128 0x1d
 6672 15b7 30000000 		.4byte	.LVL317
 6673 15bb B9240000 		.4byte	0x24b9
 6674 15bf CD150000 		.4byte	0x15cd
 6675 15c3 1E       		.uleb128 0x1e
 6676 15c4 01       		.uleb128 0x1
 6677 15c5 51       		.byte	0x51
 6678 15c6 05       		.uleb128 0x5
 6679 15c7 03       		.byte	0x3
 6680 15c8 00000000 		.4byte	.LANCHOR0
 6681 15cc 00       		.byte	0
 6682 15cd 1D       		.uleb128 0x1d
 6683 15ce 9E000000 		.4byte	.LVL336
 6684 15d2 C5240000 		.4byte	0x24c5
 6685 15d6 E1150000 		.4byte	0x15e1
 6686 15da 1E       		.uleb128 0x1e
ARM GAS  C:\Users\info\AppData\Local\Temp\ccQPGqkW.s 			page 147


 6687 15db 01       		.uleb128 0x1
 6688 15dc 50       		.byte	0x50
 6689 15dd 02       		.uleb128 0x2
 6690 15de 75       		.byte	0x75
 6691 15df 00       		.sleb128 0
 6692 15e0 00       		.byte	0
 6693 15e1 1C       		.uleb128 0x1c
 6694 15e2 A8000000 		.4byte	.LVL338
 6695 15e6 95240000 		.4byte	0x2495
 6696 15ea 1D       		.uleb128 0x1d
 6697 15eb B0000000 		.4byte	.LVL339
 6698 15ef A1240000 		.4byte	0x24a1
 6699 15f3 04160000 		.4byte	0x1604
 6700 15f7 1E       		.uleb128 0x1e
 6701 15f8 01       		.uleb128 0x1
 6702 15f9 50       		.byte	0x50
 6703 15fa 02       		.uleb128 0x2
 6704 15fb 75       		.byte	0x75
 6705 15fc 00       		.sleb128 0
 6706 15fd 1E       		.uleb128 0x1e
 6707 15fe 01       		.uleb128 0x1
 6708 15ff 51       		.byte	0x51
 6709 1600 02       		.uleb128 0x2
 6710 1601 09       		.byte	0x9
 6711 1602 81       		.byte	0x81
 6712 1603 00       		.byte	0
 6713 1604 1D       		.uleb128 0x1d
 6714 1605 B8000000 		.4byte	.LVL340
 6715 1609 D1240000 		.4byte	0x24d1
 6716 160d 20160000 		.4byte	0x1620
 6717 1611 1E       		.uleb128 0x1e
 6718 1612 01       		.uleb128 0x1
 6719 1613 50       		.byte	0x50
 6720 1614 02       		.uleb128 0x2
 6721 1615 75       		.byte	0x75
 6722 1616 00       		.sleb128 0
 6723 1617 1E       		.uleb128 0x1e
 6724 1618 01       		.uleb128 0x1
 6725 1619 51       		.byte	0x51
 6726 161a 04       		.uleb128 0x4
 6727 161b 74       		.byte	0x74
 6728 161c 00       		.sleb128 0
 6729 161d 32       		.byte	0x32
 6730 161e 25       		.byte	0x25
 6731 161f 00       		.byte	0
 6732 1620 1F       		.uleb128 0x1f
 6733 1621 D2000000 		.4byte	.LVL346
 6734 1625 B9240000 		.4byte	0x24b9
 6735 1629 1E       		.uleb128 0x1e
 6736 162a 01       		.uleb128 0x1
 6737 162b 51       		.byte	0x51
 6738 162c 05       		.uleb128 0x5
 6739 162d 03       		.byte	0x3
 6740 162e 08000000 		.4byte	.LANCHOR0+8
 6741 1632 00       		.byte	0
 6742 1633 00       		.byte	0
 6743 1634 00       		.byte	0
ARM GAS  C:\Users\info\AppData\Local\Temp\ccQPGqkW.s 			page 148


 6744 1635 1C       		.uleb128 0x1c
 6745 1636 BE000000 		.4byte	.LVL342
 6746 163a DD240000 		.4byte	0x24dd
 6747 163e 1D       		.uleb128 0x1d
 6748 163f C6000000 		.4byte	.LVL343
 6749 1643 B9240000 		.4byte	0x24b9
 6750 1647 5B160000 		.4byte	0x165b
 6751 164b 1E       		.uleb128 0x1e
 6752 164c 01       		.uleb128 0x1
 6753 164d 50       		.byte	0x50
 6754 164e 02       		.uleb128 0x2
 6755 164f 75       		.byte	0x75
 6756 1650 00       		.sleb128 0
 6757 1651 1E       		.uleb128 0x1e
 6758 1652 01       		.uleb128 0x1
 6759 1653 51       		.byte	0x51
 6760 1654 05       		.uleb128 0x5
 6761 1655 03       		.byte	0x3
 6762 1656 58010000 		.4byte	.LANCHOR0+344
 6763 165a 00       		.byte	0
 6764 165b 1D       		.uleb128 0x1d
 6765 165c DE000000 		.4byte	.LVL349
 6766 1660 E9240000 		.4byte	0x24e9
 6767 1664 72160000 		.4byte	0x1672
 6768 1668 1E       		.uleb128 0x1e
 6769 1669 01       		.uleb128 0x1
 6770 166a 51       		.byte	0x51
 6771 166b 05       		.uleb128 0x5
 6772 166c 03       		.byte	0x3
 6773 166d 40010000 		.4byte	.LANCHOR0+320
 6774 1671 00       		.byte	0
 6775 1672 1D       		.uleb128 0x1d
 6776 1673 EC000000 		.4byte	.LVL352
 6777 1677 B9240000 		.4byte	0x24b9
 6778 167b 89160000 		.4byte	0x1689
 6779 167f 1E       		.uleb128 0x1e
 6780 1680 01       		.uleb128 0x1
 6781 1681 51       		.byte	0x51
 6782 1682 05       		.uleb128 0x5
 6783 1683 03       		.byte	0x3
 6784 1684 4C000000 		.4byte	.LANCHOR0+76
 6785 1688 00       		.byte	0
 6786 1689 1F       		.uleb128 0x1f
 6787 168a 00010000 		.4byte	.LVL355
 6788 168e B9240000 		.4byte	0x24b9
 6789 1692 1E       		.uleb128 0x1e
 6790 1693 01       		.uleb128 0x1
 6791 1694 51       		.byte	0x51
 6792 1695 05       		.uleb128 0x5
 6793 1696 03       		.byte	0x3
 6794 1697 54000000 		.4byte	.LANCHOR0+84
 6795 169b 00       		.byte	0
 6796 169c 00       		.byte	0
 6797 169d 25       		.uleb128 0x25
 6798 169e 66090000 		.4byte	.LASF77
 6799 16a2 01       		.byte	0x1
 6800 16a3 0403     		.2byte	0x304
ARM GAS  C:\Users\info\AppData\Local\Temp\ccQPGqkW.s 			page 149


 6801 16a5 8C000000 		.4byte	0x8c
 6802 16a9 00000000 		.4byte	.LFB8
 6803 16ad 28010000 		.4byte	.LFE8-.LFB8
 6804 16b1 01       		.uleb128 0x1
 6805 16b2 9C       		.byte	0x9c
 6806 16b3 F4180000 		.4byte	0x18f4
 6807 16b7 26       		.uleb128 0x26
 6808 16b8 A8050000 		.4byte	.LASF66
 6809 16bc 01       		.byte	0x1
 6810 16bd 0403     		.2byte	0x304
 6811 16bf 4F030000 		.4byte	0x34f
 6812 16c3 94320000 		.4byte	.LLST128
 6813 16c7 27       		.uleb128 0x27
 6814 16c8 6D736700 		.ascii	"msg\000"
 6815 16cc 01       		.byte	0x1
 6816 16cd 0403     		.2byte	0x304
 6817 16cf 8C000000 		.4byte	0x8c
 6818 16d3 70330000 		.4byte	.LLST129
 6819 16d7 26       		.uleb128 0x26
 6820 16d8 AE020000 		.4byte	.LASF67
 6821 16dc 01       		.byte	0x1
 6822 16dd 0403     		.2byte	0x304
 6823 16df 8C000000 		.4byte	0x8c
 6824 16e3 40340000 		.4byte	.LLST130
 6825 16e7 26       		.uleb128 0x26
 6826 16e8 D3070000 		.4byte	.LASF68
 6827 16ec 01       		.byte	0x1
 6828 16ed 0403     		.2byte	0x304
 6829 16ef AD000000 		.4byte	0xad
 6830 16f3 10350000 		.4byte	.LLST131
 6831 16f7 28       		.uleb128 0x28
 6832 16f8 96030000 		.4byte	0x396
 6833 16fc 00000000 		.4byte	.LBB156
 6834 1700 B8010000 		.4byte	.Ldebug_ranges0+0x1b8
 6835 1704 01       		.byte	0x1
 6836 1705 0703     		.2byte	0x307
 6837 1707 8C180000 		.4byte	0x188c
 6838 170b 17       		.uleb128 0x17
 6839 170c C7030000 		.4byte	0x3c7
 6840 1710 EB350000 		.4byte	.LLST132
 6841 1714 17       		.uleb128 0x17
 6842 1715 BC030000 		.4byte	0x3bc
 6843 1719 6D360000 		.4byte	.LLST133
 6844 171d 17       		.uleb128 0x17
 6845 171e B1030000 		.4byte	0x3b1
 6846 1722 E4360000 		.4byte	.LLST134
 6847 1726 17       		.uleb128 0x17
 6848 1727 A6030000 		.4byte	0x3a6
 6849 172b 5B370000 		.4byte	.LLST135
 6850 172f 24       		.uleb128 0x24
 6851 1730 B8010000 		.4byte	.Ldebug_ranges0+0x1b8
 6852 1734 18       		.uleb128 0x18
 6853 1735 D2030000 		.4byte	0x3d2
 6854 1739 18       		.uleb128 0x18
 6855 173a DB030000 		.4byte	0x3db
 6856 173e 18       		.uleb128 0x18
 6857 173f E4030000 		.4byte	0x3e4
ARM GAS  C:\Users\info\AppData\Local\Temp\ccQPGqkW.s 			page 150


 6858 1743 19       		.uleb128 0x19
 6859 1744 38000000 		.4byte	.LBB158
 6860 1748 60000000 		.4byte	.LBE158-.LBB158
 6861 174c 0D180000 		.4byte	0x180d
 6862 1750 17       		.uleb128 0x17
 6863 1751 B1030000 		.4byte	0x3b1
 6864 1755 C6370000 		.4byte	.LLST136
 6865 1759 17       		.uleb128 0x17
 6866 175a C7030000 		.4byte	0x3c7
 6867 175e DA370000 		.4byte	.LLST137
 6868 1762 17       		.uleb128 0x17
 6869 1763 BC030000 		.4byte	0x3bc
 6870 1767 FB370000 		.4byte	.LLST138
 6871 176b 17       		.uleb128 0x17
 6872 176c A6030000 		.4byte	0x3a6
 6873 1770 19380000 		.4byte	.LLST139
 6874 1774 1A       		.uleb128 0x1a
 6875 1775 38000000 		.4byte	.LBB159
 6876 1779 60000000 		.4byte	.LBE159-.LBB159
 6877 177d 1B       		.uleb128 0x1b
 6878 177e D2030000 		.4byte	0x3d2
 6879 1782 37380000 		.4byte	.LLST140
 6880 1786 1B       		.uleb128 0x1b
 6881 1787 DB030000 		.4byte	0x3db
 6882 178b 73380000 		.4byte	.LLST141
 6883 178f 1B       		.uleb128 0x1b
 6884 1790 E4030000 		.4byte	0x3e4
 6885 1794 B8380000 		.4byte	.LLST142
 6886 1798 1C       		.uleb128 0x1c
 6887 1799 3C000000 		.4byte	.LVL366
 6888 179d 95240000 		.4byte	0x2495
 6889 17a1 1D       		.uleb128 0x1d
 6890 17a2 5A000000 		.4byte	.LVL370
 6891 17a6 A1240000 		.4byte	0x24a1
 6892 17aa BF170000 		.4byte	0x17bf
 6893 17ae 1E       		.uleb128 0x1e
 6894 17af 01       		.uleb128 0x1
 6895 17b0 50       		.byte	0x50
 6896 17b1 02       		.uleb128 0x2
 6897 17b2 75       		.byte	0x75
 6898 17b3 00       		.sleb128 0
 6899 17b4 1E       		.uleb128 0x1e
 6900 17b5 01       		.uleb128 0x1
 6901 17b6 51       		.byte	0x51
 6902 17b7 06       		.uleb128 0x6
 6903 17b8 78       		.byte	0x78
 6904 17b9 00       		.sleb128 0
 6905 17ba 34       		.byte	0x34
 6906 17bb 25       		.byte	0x25
 6907 17bc 40       		.byte	0x40
 6908 17bd 21       		.byte	0x21
 6909 17be 00       		.byte	0
 6910 17bf 1D       		.uleb128 0x1d
 6911 17c0 64000000 		.4byte	.LVL371
 6912 17c4 A1240000 		.4byte	0x24a1
 6913 17c8 DB170000 		.4byte	0x17db
 6914 17cc 1E       		.uleb128 0x1e
ARM GAS  C:\Users\info\AppData\Local\Temp\ccQPGqkW.s 			page 151


 6915 17cd 01       		.uleb128 0x1
 6916 17ce 50       		.byte	0x50
 6917 17cf 02       		.uleb128 0x2
 6918 17d0 75       		.byte	0x75
 6919 17d1 00       		.sleb128 0
 6920 17d2 1E       		.uleb128 0x1e
 6921 17d3 01       		.uleb128 0x1
 6922 17d4 51       		.byte	0x51
 6923 17d5 04       		.uleb128 0x4
 6924 17d6 78       		.byte	0x78
 6925 17d7 00       		.sleb128 0
 6926 17d8 3F       		.byte	0x3f
 6927 17d9 1A       		.byte	0x1a
 6928 17da 00       		.byte	0
 6929 17db 1D       		.uleb128 0x1d
 6930 17dc 70000000 		.4byte	.LVL372
 6931 17e0 A1240000 		.4byte	0x24a1
 6932 17e4 EF170000 		.4byte	0x17ef
 6933 17e8 1E       		.uleb128 0x1e
 6934 17e9 01       		.uleb128 0x1
 6935 17ea 50       		.byte	0x50
 6936 17eb 02       		.uleb128 0x2
 6937 17ec 75       		.byte	0x75
 6938 17ed 00       		.sleb128 0
 6939 17ee 00       		.byte	0
 6940 17ef 1F       		.uleb128 0x1f
 6941 17f0 90000000 		.4byte	.LVL379
 6942 17f4 AD240000 		.4byte	0x24ad
 6943 17f8 1E       		.uleb128 0x1e
 6944 17f9 01       		.uleb128 0x1
 6945 17fa 50       		.byte	0x50
 6946 17fb 02       		.uleb128 0x2
 6947 17fc 75       		.byte	0x75
 6948 17fd 00       		.sleb128 0
 6949 17fe 1E       		.uleb128 0x1e
 6950 17ff 01       		.uleb128 0x1
 6951 1800 51       		.byte	0x51
 6952 1801 02       		.uleb128 0x2
 6953 1802 76       		.byte	0x76
 6954 1803 00       		.sleb128 0
 6955 1804 1E       		.uleb128 0x1e
 6956 1805 01       		.uleb128 0x1
 6957 1806 52       		.byte	0x52
 6958 1807 02       		.uleb128 0x2
 6959 1808 77       		.byte	0x77
 6960 1809 00       		.sleb128 0
 6961 180a 00       		.byte	0
 6962 180b 00       		.byte	0
 6963 180c 00       		.byte	0
 6964 180d 1D       		.uleb128 0x1d
 6965 180e 30000000 		.4byte	.LVL363
 6966 1812 B9240000 		.4byte	0x24b9
 6967 1816 24180000 		.4byte	0x1824
 6968 181a 1E       		.uleb128 0x1e
 6969 181b 01       		.uleb128 0x1
 6970 181c 51       		.byte	0x51
 6971 181d 05       		.uleb128 0x5
ARM GAS  C:\Users\info\AppData\Local\Temp\ccQPGqkW.s 			page 152


 6972 181e 03       		.byte	0x3
 6973 181f 00000000 		.4byte	.LANCHOR0
 6974 1823 00       		.byte	0
 6975 1824 1D       		.uleb128 0x1d
 6976 1825 9E000000 		.4byte	.LVL382
 6977 1829 C5240000 		.4byte	0x24c5
 6978 182d 38180000 		.4byte	0x1838
 6979 1831 1E       		.uleb128 0x1e
 6980 1832 01       		.uleb128 0x1
 6981 1833 50       		.byte	0x50
 6982 1834 02       		.uleb128 0x2
 6983 1835 75       		.byte	0x75
 6984 1836 00       		.sleb128 0
 6985 1837 00       		.byte	0
 6986 1838 1C       		.uleb128 0x1c
 6987 1839 A8000000 		.4byte	.LVL384
 6988 183d 95240000 		.4byte	0x2495
 6989 1841 1D       		.uleb128 0x1d
 6990 1842 B0000000 		.4byte	.LVL385
 6991 1846 A1240000 		.4byte	0x24a1
 6992 184a 5B180000 		.4byte	0x185b
 6993 184e 1E       		.uleb128 0x1e
 6994 184f 01       		.uleb128 0x1
 6995 1850 50       		.byte	0x50
 6996 1851 02       		.uleb128 0x2
 6997 1852 75       		.byte	0x75
 6998 1853 00       		.sleb128 0
 6999 1854 1E       		.uleb128 0x1e
 7000 1855 01       		.uleb128 0x1
 7001 1856 51       		.byte	0x51
 7002 1857 02       		.uleb128 0x2
 7003 1858 09       		.byte	0x9
 7004 1859 81       		.byte	0x81
 7005 185a 00       		.byte	0
 7006 185b 1D       		.uleb128 0x1d
 7007 185c B8000000 		.4byte	.LVL386
 7008 1860 D1240000 		.4byte	0x24d1
 7009 1864 77180000 		.4byte	0x1877
 7010 1868 1E       		.uleb128 0x1e
 7011 1869 01       		.uleb128 0x1
 7012 186a 50       		.byte	0x50
 7013 186b 02       		.uleb128 0x2
 7014 186c 75       		.byte	0x75
 7015 186d 00       		.sleb128 0
 7016 186e 1E       		.uleb128 0x1e
 7017 186f 01       		.uleb128 0x1
 7018 1870 51       		.byte	0x51
 7019 1871 04       		.uleb128 0x4
 7020 1872 74       		.byte	0x74
 7021 1873 00       		.sleb128 0
 7022 1874 32       		.byte	0x32
 7023 1875 25       		.byte	0x25
 7024 1876 00       		.byte	0
 7025 1877 1F       		.uleb128 0x1f
 7026 1878 D2000000 		.4byte	.LVL392
 7027 187c B9240000 		.4byte	0x24b9
 7028 1880 1E       		.uleb128 0x1e
ARM GAS  C:\Users\info\AppData\Local\Temp\ccQPGqkW.s 			page 153


 7029 1881 01       		.uleb128 0x1
 7030 1882 51       		.byte	0x51
 7031 1883 05       		.uleb128 0x5
 7032 1884 03       		.byte	0x3
 7033 1885 08000000 		.4byte	.LANCHOR0+8
 7034 1889 00       		.byte	0
 7035 188a 00       		.byte	0
 7036 188b 00       		.byte	0
 7037 188c 1C       		.uleb128 0x1c
 7038 188d BE000000 		.4byte	.LVL388
 7039 1891 DD240000 		.4byte	0x24dd
 7040 1895 1D       		.uleb128 0x1d
 7041 1896 C6000000 		.4byte	.LVL389
 7042 189a B9240000 		.4byte	0x24b9
 7043 189e B2180000 		.4byte	0x18b2
 7044 18a2 1E       		.uleb128 0x1e
 7045 18a3 01       		.uleb128 0x1
 7046 18a4 50       		.byte	0x50
 7047 18a5 02       		.uleb128 0x2
 7048 18a6 75       		.byte	0x75
 7049 18a7 00       		.sleb128 0
 7050 18a8 1E       		.uleb128 0x1e
 7051 18a9 01       		.uleb128 0x1
 7052 18aa 51       		.byte	0x51
 7053 18ab 05       		.uleb128 0x5
 7054 18ac 03       		.byte	0x3
 7055 18ad 94010000 		.4byte	.LANCHOR0+404
 7056 18b1 00       		.byte	0
 7057 18b2 1D       		.uleb128 0x1d
 7058 18b3 DE000000 		.4byte	.LVL395
 7059 18b7 E9240000 		.4byte	0x24e9
 7060 18bb C9180000 		.4byte	0x18c9
 7061 18bf 1E       		.uleb128 0x1e
 7062 18c0 01       		.uleb128 0x1
 7063 18c1 51       		.byte	0x51
 7064 18c2 05       		.uleb128 0x5
 7065 18c3 03       		.byte	0x3
 7066 18c4 7C010000 		.4byte	.LANCHOR0+380
 7067 18c8 00       		.byte	0
 7068 18c9 1D       		.uleb128 0x1d
 7069 18ca EC000000 		.4byte	.LVL398
 7070 18ce B9240000 		.4byte	0x24b9
 7071 18d2 E0180000 		.4byte	0x18e0
 7072 18d6 1E       		.uleb128 0x1e
 7073 18d7 01       		.uleb128 0x1
 7074 18d8 51       		.byte	0x51
 7075 18d9 05       		.uleb128 0x5
 7076 18da 03       		.byte	0x3
 7077 18db 4C000000 		.4byte	.LANCHOR0+76
 7078 18df 00       		.byte	0
 7079 18e0 1F       		.uleb128 0x1f
 7080 18e1 00010000 		.4byte	.LVL401
 7081 18e5 B9240000 		.4byte	0x24b9
 7082 18e9 1E       		.uleb128 0x1e
 7083 18ea 01       		.uleb128 0x1
 7084 18eb 51       		.byte	0x51
 7085 18ec 05       		.uleb128 0x5
ARM GAS  C:\Users\info\AppData\Local\Temp\ccQPGqkW.s 			page 154


 7086 18ed 03       		.byte	0x3
 7087 18ee 54000000 		.4byte	.LANCHOR0+84
 7088 18f2 00       		.byte	0
 7089 18f3 00       		.byte	0
 7090 18f4 25       		.uleb128 0x25
 7091 18f5 CD050000 		.4byte	.LASF78
 7092 18f9 01       		.byte	0x1
 7093 18fa 6003     		.2byte	0x360
 7094 18fc 8C000000 		.4byte	0x8c
 7095 1900 00000000 		.4byte	.LFB9
 7096 1904 28010000 		.4byte	.LFE9-.LFB9
 7097 1908 01       		.uleb128 0x1
 7098 1909 9C       		.byte	0x9c
 7099 190a 4B1B0000 		.4byte	0x1b4b
 7100 190e 26       		.uleb128 0x26
 7101 190f A8050000 		.4byte	.LASF66
 7102 1913 01       		.byte	0x1
 7103 1914 6003     		.2byte	0x360
 7104 1916 4F030000 		.4byte	0x34f
 7105 191a CB380000 		.4byte	.LLST143
 7106 191e 27       		.uleb128 0x27
 7107 191f 6D736700 		.ascii	"msg\000"
 7108 1923 01       		.byte	0x1
 7109 1924 6003     		.2byte	0x360
 7110 1926 8C000000 		.4byte	0x8c
 7111 192a A7390000 		.4byte	.LLST144
 7112 192e 26       		.uleb128 0x26
 7113 192f AE020000 		.4byte	.LASF67
 7114 1933 01       		.byte	0x1
 7115 1934 6003     		.2byte	0x360
 7116 1936 8C000000 		.4byte	0x8c
 7117 193a 773A0000 		.4byte	.LLST145
 7118 193e 26       		.uleb128 0x26
 7119 193f D3070000 		.4byte	.LASF68
 7120 1943 01       		.byte	0x1
 7121 1944 6003     		.2byte	0x360
 7122 1946 AD000000 		.4byte	0xad
 7123 194a 473B0000 		.4byte	.LLST146
 7124 194e 28       		.uleb128 0x28
 7125 194f 96030000 		.4byte	0x396
 7126 1953 00000000 		.4byte	.LBB174
 7127 1957 F0010000 		.4byte	.Ldebug_ranges0+0x1f0
 7128 195b 01       		.byte	0x1
 7129 195c 6303     		.2byte	0x363
 7130 195e E31A0000 		.4byte	0x1ae3
 7131 1962 17       		.uleb128 0x17
 7132 1963 C7030000 		.4byte	0x3c7
 7133 1967 223C0000 		.4byte	.LLST147
 7134 196b 17       		.uleb128 0x17
 7135 196c BC030000 		.4byte	0x3bc
 7136 1970 A43C0000 		.4byte	.LLST148
 7137 1974 17       		.uleb128 0x17
 7138 1975 B1030000 		.4byte	0x3b1
 7139 1979 1B3D0000 		.4byte	.LLST149
 7140 197d 17       		.uleb128 0x17
 7141 197e A6030000 		.4byte	0x3a6
 7142 1982 923D0000 		.4byte	.LLST150
ARM GAS  C:\Users\info\AppData\Local\Temp\ccQPGqkW.s 			page 155


 7143 1986 24       		.uleb128 0x24
 7144 1987 F0010000 		.4byte	.Ldebug_ranges0+0x1f0
 7145 198b 18       		.uleb128 0x18
 7146 198c D2030000 		.4byte	0x3d2
 7147 1990 18       		.uleb128 0x18
 7148 1991 DB030000 		.4byte	0x3db
 7149 1995 18       		.uleb128 0x18
 7150 1996 E4030000 		.4byte	0x3e4
 7151 199a 19       		.uleb128 0x19
 7152 199b 38000000 		.4byte	.LBB176
 7153 199f 60000000 		.4byte	.LBE176-.LBB176
 7154 19a3 641A0000 		.4byte	0x1a64
 7155 19a7 17       		.uleb128 0x17
 7156 19a8 B1030000 		.4byte	0x3b1
 7157 19ac FD3D0000 		.4byte	.LLST151
 7158 19b0 17       		.uleb128 0x17
 7159 19b1 C7030000 		.4byte	0x3c7
 7160 19b5 113E0000 		.4byte	.LLST152
 7161 19b9 17       		.uleb128 0x17
 7162 19ba BC030000 		.4byte	0x3bc
 7163 19be 323E0000 		.4byte	.LLST153
 7164 19c2 17       		.uleb128 0x17
 7165 19c3 A6030000 		.4byte	0x3a6
 7166 19c7 503E0000 		.4byte	.LLST154
 7167 19cb 1A       		.uleb128 0x1a
 7168 19cc 38000000 		.4byte	.LBB177
 7169 19d0 60000000 		.4byte	.LBE177-.LBB177
 7170 19d4 1B       		.uleb128 0x1b
 7171 19d5 D2030000 		.4byte	0x3d2
 7172 19d9 6E3E0000 		.4byte	.LLST155
 7173 19dd 1B       		.uleb128 0x1b
 7174 19de DB030000 		.4byte	0x3db
 7175 19e2 AA3E0000 		.4byte	.LLST156
 7176 19e6 1B       		.uleb128 0x1b
 7177 19e7 E4030000 		.4byte	0x3e4
 7178 19eb EF3E0000 		.4byte	.LLST157
 7179 19ef 1C       		.uleb128 0x1c
 7180 19f0 3C000000 		.4byte	.LVL412
 7181 19f4 95240000 		.4byte	0x2495
 7182 19f8 1D       		.uleb128 0x1d
 7183 19f9 5A000000 		.4byte	.LVL416
 7184 19fd A1240000 		.4byte	0x24a1
 7185 1a01 161A0000 		.4byte	0x1a16
 7186 1a05 1E       		.uleb128 0x1e
 7187 1a06 01       		.uleb128 0x1
 7188 1a07 50       		.byte	0x50
 7189 1a08 02       		.uleb128 0x2
 7190 1a09 75       		.byte	0x75
 7191 1a0a 00       		.sleb128 0
 7192 1a0b 1E       		.uleb128 0x1e
 7193 1a0c 01       		.uleb128 0x1
 7194 1a0d 51       		.byte	0x51
 7195 1a0e 06       		.uleb128 0x6
 7196 1a0f 78       		.byte	0x78
 7197 1a10 00       		.sleb128 0
 7198 1a11 34       		.byte	0x34
 7199 1a12 25       		.byte	0x25
ARM GAS  C:\Users\info\AppData\Local\Temp\ccQPGqkW.s 			page 156


 7200 1a13 40       		.byte	0x40
 7201 1a14 21       		.byte	0x21
 7202 1a15 00       		.byte	0
 7203 1a16 1D       		.uleb128 0x1d
 7204 1a17 64000000 		.4byte	.LVL417
 7205 1a1b A1240000 		.4byte	0x24a1
 7206 1a1f 321A0000 		.4byte	0x1a32
 7207 1a23 1E       		.uleb128 0x1e
 7208 1a24 01       		.uleb128 0x1
 7209 1a25 50       		.byte	0x50
 7210 1a26 02       		.uleb128 0x2
 7211 1a27 75       		.byte	0x75
 7212 1a28 00       		.sleb128 0
 7213 1a29 1E       		.uleb128 0x1e
 7214 1a2a 01       		.uleb128 0x1
 7215 1a2b 51       		.byte	0x51
 7216 1a2c 04       		.uleb128 0x4
 7217 1a2d 78       		.byte	0x78
 7218 1a2e 00       		.sleb128 0
 7219 1a2f 3F       		.byte	0x3f
 7220 1a30 1A       		.byte	0x1a
 7221 1a31 00       		.byte	0
 7222 1a32 1D       		.uleb128 0x1d
 7223 1a33 70000000 		.4byte	.LVL418
 7224 1a37 A1240000 		.4byte	0x24a1
 7225 1a3b 461A0000 		.4byte	0x1a46
 7226 1a3f 1E       		.uleb128 0x1e
 7227 1a40 01       		.uleb128 0x1
 7228 1a41 50       		.byte	0x50
 7229 1a42 02       		.uleb128 0x2
 7230 1a43 75       		.byte	0x75
 7231 1a44 00       		.sleb128 0
 7232 1a45 00       		.byte	0
 7233 1a46 1F       		.uleb128 0x1f
 7234 1a47 90000000 		.4byte	.LVL425
 7235 1a4b AD240000 		.4byte	0x24ad
 7236 1a4f 1E       		.uleb128 0x1e
 7237 1a50 01       		.uleb128 0x1
 7238 1a51 50       		.byte	0x50
 7239 1a52 02       		.uleb128 0x2
 7240 1a53 75       		.byte	0x75
 7241 1a54 00       		.sleb128 0
 7242 1a55 1E       		.uleb128 0x1e
 7243 1a56 01       		.uleb128 0x1
 7244 1a57 51       		.byte	0x51
 7245 1a58 02       		.uleb128 0x2
 7246 1a59 76       		.byte	0x76
 7247 1a5a 00       		.sleb128 0
 7248 1a5b 1E       		.uleb128 0x1e
 7249 1a5c 01       		.uleb128 0x1
 7250 1a5d 52       		.byte	0x52
 7251 1a5e 02       		.uleb128 0x2
 7252 1a5f 77       		.byte	0x77
 7253 1a60 00       		.sleb128 0
 7254 1a61 00       		.byte	0
 7255 1a62 00       		.byte	0
 7256 1a63 00       		.byte	0
ARM GAS  C:\Users\info\AppData\Local\Temp\ccQPGqkW.s 			page 157


 7257 1a64 1D       		.uleb128 0x1d
 7258 1a65 30000000 		.4byte	.LVL409
 7259 1a69 B9240000 		.4byte	0x24b9
 7260 1a6d 7B1A0000 		.4byte	0x1a7b
 7261 1a71 1E       		.uleb128 0x1e
 7262 1a72 01       		.uleb128 0x1
 7263 1a73 51       		.byte	0x51
 7264 1a74 05       		.uleb128 0x5
 7265 1a75 03       		.byte	0x3
 7266 1a76 00000000 		.4byte	.LANCHOR0
 7267 1a7a 00       		.byte	0
 7268 1a7b 1D       		.uleb128 0x1d
 7269 1a7c 9E000000 		.4byte	.LVL428
 7270 1a80 C5240000 		.4byte	0x24c5
 7271 1a84 8F1A0000 		.4byte	0x1a8f
 7272 1a88 1E       		.uleb128 0x1e
 7273 1a89 01       		.uleb128 0x1
 7274 1a8a 50       		.byte	0x50
 7275 1a8b 02       		.uleb128 0x2
 7276 1a8c 75       		.byte	0x75
 7277 1a8d 00       		.sleb128 0
 7278 1a8e 00       		.byte	0
 7279 1a8f 1C       		.uleb128 0x1c
 7280 1a90 A8000000 		.4byte	.LVL430
 7281 1a94 95240000 		.4byte	0x2495
 7282 1a98 1D       		.uleb128 0x1d
 7283 1a99 B0000000 		.4byte	.LVL431
 7284 1a9d A1240000 		.4byte	0x24a1
 7285 1aa1 B21A0000 		.4byte	0x1ab2
 7286 1aa5 1E       		.uleb128 0x1e
 7287 1aa6 01       		.uleb128 0x1
 7288 1aa7 50       		.byte	0x50
 7289 1aa8 02       		.uleb128 0x2
 7290 1aa9 75       		.byte	0x75
 7291 1aaa 00       		.sleb128 0
 7292 1aab 1E       		.uleb128 0x1e
 7293 1aac 01       		.uleb128 0x1
 7294 1aad 51       		.byte	0x51
 7295 1aae 02       		.uleb128 0x2
 7296 1aaf 09       		.byte	0x9
 7297 1ab0 81       		.byte	0x81
 7298 1ab1 00       		.byte	0
 7299 1ab2 1D       		.uleb128 0x1d
 7300 1ab3 B8000000 		.4byte	.LVL432
 7301 1ab7 D1240000 		.4byte	0x24d1
 7302 1abb CE1A0000 		.4byte	0x1ace
 7303 1abf 1E       		.uleb128 0x1e
 7304 1ac0 01       		.uleb128 0x1
 7305 1ac1 50       		.byte	0x50
 7306 1ac2 02       		.uleb128 0x2
 7307 1ac3 75       		.byte	0x75
 7308 1ac4 00       		.sleb128 0
 7309 1ac5 1E       		.uleb128 0x1e
 7310 1ac6 01       		.uleb128 0x1
 7311 1ac7 51       		.byte	0x51
 7312 1ac8 04       		.uleb128 0x4
 7313 1ac9 74       		.byte	0x74
ARM GAS  C:\Users\info\AppData\Local\Temp\ccQPGqkW.s 			page 158


 7314 1aca 00       		.sleb128 0
 7315 1acb 32       		.byte	0x32
 7316 1acc 25       		.byte	0x25
 7317 1acd 00       		.byte	0
 7318 1ace 1F       		.uleb128 0x1f
 7319 1acf D2000000 		.4byte	.LVL438
 7320 1ad3 B9240000 		.4byte	0x24b9
 7321 1ad7 1E       		.uleb128 0x1e
 7322 1ad8 01       		.uleb128 0x1
 7323 1ad9 51       		.byte	0x51
 7324 1ada 05       		.uleb128 0x5
 7325 1adb 03       		.byte	0x3
 7326 1adc 08000000 		.4byte	.LANCHOR0+8
 7327 1ae0 00       		.byte	0
 7328 1ae1 00       		.byte	0
 7329 1ae2 00       		.byte	0
 7330 1ae3 1C       		.uleb128 0x1c
 7331 1ae4 BE000000 		.4byte	.LVL434
 7332 1ae8 DD240000 		.4byte	0x24dd
 7333 1aec 1D       		.uleb128 0x1d
 7334 1aed C6000000 		.4byte	.LVL435
 7335 1af1 B9240000 		.4byte	0x24b9
 7336 1af5 091B0000 		.4byte	0x1b09
 7337 1af9 1E       		.uleb128 0x1e
 7338 1afa 01       		.uleb128 0x1
 7339 1afb 50       		.byte	0x50
 7340 1afc 02       		.uleb128 0x2
 7341 1afd 75       		.byte	0x75
 7342 1afe 00       		.sleb128 0
 7343 1aff 1E       		.uleb128 0x1e
 7344 1b00 01       		.uleb128 0x1
 7345 1b01 51       		.byte	0x51
 7346 1b02 05       		.uleb128 0x5
 7347 1b03 03       		.byte	0x3
 7348 1b04 D0010000 		.4byte	.LANCHOR0+464
 7349 1b08 00       		.byte	0
 7350 1b09 1D       		.uleb128 0x1d
 7351 1b0a DE000000 		.4byte	.LVL441
 7352 1b0e E9240000 		.4byte	0x24e9
 7353 1b12 201B0000 		.4byte	0x1b20
 7354 1b16 1E       		.uleb128 0x1e
 7355 1b17 01       		.uleb128 0x1
 7356 1b18 51       		.byte	0x51
 7357 1b19 05       		.uleb128 0x5
 7358 1b1a 03       		.byte	0x3
 7359 1b1b B8010000 		.4byte	.LANCHOR0+440
 7360 1b1f 00       		.byte	0
 7361 1b20 1D       		.uleb128 0x1d
 7362 1b21 EC000000 		.4byte	.LVL444
 7363 1b25 B9240000 		.4byte	0x24b9
 7364 1b29 371B0000 		.4byte	0x1b37
 7365 1b2d 1E       		.uleb128 0x1e
 7366 1b2e 01       		.uleb128 0x1
 7367 1b2f 51       		.byte	0x51
 7368 1b30 05       		.uleb128 0x5
 7369 1b31 03       		.byte	0x3
 7370 1b32 4C000000 		.4byte	.LANCHOR0+76
ARM GAS  C:\Users\info\AppData\Local\Temp\ccQPGqkW.s 			page 159


 7371 1b36 00       		.byte	0
 7372 1b37 1F       		.uleb128 0x1f
 7373 1b38 00010000 		.4byte	.LVL447
 7374 1b3c B9240000 		.4byte	0x24b9
 7375 1b40 1E       		.uleb128 0x1e
 7376 1b41 01       		.uleb128 0x1
 7377 1b42 51       		.byte	0x51
 7378 1b43 05       		.uleb128 0x5
 7379 1b44 03       		.byte	0x3
 7380 1b45 54000000 		.4byte	.LANCHOR0+84
 7381 1b49 00       		.byte	0
 7382 1b4a 00       		.byte	0
 7383 1b4b 25       		.uleb128 0x25
 7384 1b4c 96060000 		.4byte	.LASF79
 7385 1b50 01       		.byte	0x1
 7386 1b51 C003     		.2byte	0x3c0
 7387 1b53 8C000000 		.4byte	0x8c
 7388 1b57 00000000 		.4byte	.LFB10
 7389 1b5b 28010000 		.4byte	.LFE10-.LFB10
 7390 1b5f 01       		.uleb128 0x1
 7391 1b60 9C       		.byte	0x9c
 7392 1b61 A21D0000 		.4byte	0x1da2
 7393 1b65 26       		.uleb128 0x26
 7394 1b66 A8050000 		.4byte	.LASF66
 7395 1b6a 01       		.byte	0x1
 7396 1b6b C003     		.2byte	0x3c0
 7397 1b6d 4F030000 		.4byte	0x34f
 7398 1b71 023F0000 		.4byte	.LLST158
 7399 1b75 27       		.uleb128 0x27
 7400 1b76 6D736700 		.ascii	"msg\000"
 7401 1b7a 01       		.byte	0x1
 7402 1b7b C003     		.2byte	0x3c0
 7403 1b7d 8C000000 		.4byte	0x8c
 7404 1b81 DE3F0000 		.4byte	.LLST159
 7405 1b85 26       		.uleb128 0x26
 7406 1b86 AE020000 		.4byte	.LASF67
 7407 1b8a 01       		.byte	0x1
 7408 1b8b C003     		.2byte	0x3c0
 7409 1b8d 8C000000 		.4byte	0x8c
 7410 1b91 AE400000 		.4byte	.LLST160
 7411 1b95 26       		.uleb128 0x26
 7412 1b96 D3070000 		.4byte	.LASF68
 7413 1b9a 01       		.byte	0x1
 7414 1b9b C003     		.2byte	0x3c0
 7415 1b9d AD000000 		.4byte	0xad
 7416 1ba1 7E410000 		.4byte	.LLST161
 7417 1ba5 28       		.uleb128 0x28
 7418 1ba6 96030000 		.4byte	0x396
 7419 1baa 00000000 		.4byte	.LBB192
 7420 1bae 28020000 		.4byte	.Ldebug_ranges0+0x228
 7421 1bb2 01       		.byte	0x1
 7422 1bb3 C303     		.2byte	0x3c3
 7423 1bb5 3A1D0000 		.4byte	0x1d3a
 7424 1bb9 17       		.uleb128 0x17
 7425 1bba C7030000 		.4byte	0x3c7
 7426 1bbe 59420000 		.4byte	.LLST162
 7427 1bc2 17       		.uleb128 0x17
ARM GAS  C:\Users\info\AppData\Local\Temp\ccQPGqkW.s 			page 160


 7428 1bc3 BC030000 		.4byte	0x3bc
 7429 1bc7 DB420000 		.4byte	.LLST163
 7430 1bcb 17       		.uleb128 0x17
 7431 1bcc B1030000 		.4byte	0x3b1
 7432 1bd0 52430000 		.4byte	.LLST164
 7433 1bd4 17       		.uleb128 0x17
 7434 1bd5 A6030000 		.4byte	0x3a6
 7435 1bd9 C9430000 		.4byte	.LLST165
 7436 1bdd 24       		.uleb128 0x24
 7437 1bde 28020000 		.4byte	.Ldebug_ranges0+0x228
 7438 1be2 18       		.uleb128 0x18
 7439 1be3 D2030000 		.4byte	0x3d2
 7440 1be7 18       		.uleb128 0x18
 7441 1be8 DB030000 		.4byte	0x3db
 7442 1bec 18       		.uleb128 0x18
 7443 1bed E4030000 		.4byte	0x3e4
 7444 1bf1 19       		.uleb128 0x19
 7445 1bf2 38000000 		.4byte	.LBB194
 7446 1bf6 60000000 		.4byte	.LBE194-.LBB194
 7447 1bfa BB1C0000 		.4byte	0x1cbb
 7448 1bfe 17       		.uleb128 0x17
 7449 1bff B1030000 		.4byte	0x3b1
 7450 1c03 34440000 		.4byte	.LLST166
 7451 1c07 17       		.uleb128 0x17
 7452 1c08 C7030000 		.4byte	0x3c7
 7453 1c0c 48440000 		.4byte	.LLST167
 7454 1c10 17       		.uleb128 0x17
 7455 1c11 BC030000 		.4byte	0x3bc
 7456 1c15 69440000 		.4byte	.LLST168
 7457 1c19 17       		.uleb128 0x17
 7458 1c1a A6030000 		.4byte	0x3a6
 7459 1c1e 87440000 		.4byte	.LLST169
 7460 1c22 1A       		.uleb128 0x1a
 7461 1c23 38000000 		.4byte	.LBB195
 7462 1c27 60000000 		.4byte	.LBE195-.LBB195
 7463 1c2b 1B       		.uleb128 0x1b
 7464 1c2c D2030000 		.4byte	0x3d2
 7465 1c30 A5440000 		.4byte	.LLST170
 7466 1c34 1B       		.uleb128 0x1b
 7467 1c35 DB030000 		.4byte	0x3db
 7468 1c39 E1440000 		.4byte	.LLST171
 7469 1c3d 1B       		.uleb128 0x1b
 7470 1c3e E4030000 		.4byte	0x3e4
 7471 1c42 26450000 		.4byte	.LLST172
 7472 1c46 1C       		.uleb128 0x1c
 7473 1c47 3C000000 		.4byte	.LVL458
 7474 1c4b 95240000 		.4byte	0x2495
 7475 1c4f 1D       		.uleb128 0x1d
 7476 1c50 5A000000 		.4byte	.LVL462
 7477 1c54 A1240000 		.4byte	0x24a1
 7478 1c58 6D1C0000 		.4byte	0x1c6d
 7479 1c5c 1E       		.uleb128 0x1e
 7480 1c5d 01       		.uleb128 0x1
 7481 1c5e 50       		.byte	0x50
 7482 1c5f 02       		.uleb128 0x2
 7483 1c60 75       		.byte	0x75
 7484 1c61 00       		.sleb128 0
ARM GAS  C:\Users\info\AppData\Local\Temp\ccQPGqkW.s 			page 161


 7485 1c62 1E       		.uleb128 0x1e
 7486 1c63 01       		.uleb128 0x1
 7487 1c64 51       		.byte	0x51
 7488 1c65 06       		.uleb128 0x6
 7489 1c66 78       		.byte	0x78
 7490 1c67 00       		.sleb128 0
 7491 1c68 34       		.byte	0x34
 7492 1c69 25       		.byte	0x25
 7493 1c6a 40       		.byte	0x40
 7494 1c6b 21       		.byte	0x21
 7495 1c6c 00       		.byte	0
 7496 1c6d 1D       		.uleb128 0x1d
 7497 1c6e 64000000 		.4byte	.LVL463
 7498 1c72 A1240000 		.4byte	0x24a1
 7499 1c76 891C0000 		.4byte	0x1c89
 7500 1c7a 1E       		.uleb128 0x1e
 7501 1c7b 01       		.uleb128 0x1
 7502 1c7c 50       		.byte	0x50
 7503 1c7d 02       		.uleb128 0x2
 7504 1c7e 75       		.byte	0x75
 7505 1c7f 00       		.sleb128 0
 7506 1c80 1E       		.uleb128 0x1e
 7507 1c81 01       		.uleb128 0x1
 7508 1c82 51       		.byte	0x51
 7509 1c83 04       		.uleb128 0x4
 7510 1c84 78       		.byte	0x78
 7511 1c85 00       		.sleb128 0
 7512 1c86 3F       		.byte	0x3f
 7513 1c87 1A       		.byte	0x1a
 7514 1c88 00       		.byte	0
 7515 1c89 1D       		.uleb128 0x1d
 7516 1c8a 70000000 		.4byte	.LVL464
 7517 1c8e A1240000 		.4byte	0x24a1
 7518 1c92 9D1C0000 		.4byte	0x1c9d
 7519 1c96 1E       		.uleb128 0x1e
 7520 1c97 01       		.uleb128 0x1
 7521 1c98 50       		.byte	0x50
 7522 1c99 02       		.uleb128 0x2
 7523 1c9a 75       		.byte	0x75
 7524 1c9b 00       		.sleb128 0
 7525 1c9c 00       		.byte	0
 7526 1c9d 1F       		.uleb128 0x1f
 7527 1c9e 90000000 		.4byte	.LVL471
 7528 1ca2 AD240000 		.4byte	0x24ad
 7529 1ca6 1E       		.uleb128 0x1e
 7530 1ca7 01       		.uleb128 0x1
 7531 1ca8 50       		.byte	0x50
 7532 1ca9 02       		.uleb128 0x2
 7533 1caa 75       		.byte	0x75
 7534 1cab 00       		.sleb128 0
 7535 1cac 1E       		.uleb128 0x1e
 7536 1cad 01       		.uleb128 0x1
 7537 1cae 51       		.byte	0x51
 7538 1caf 02       		.uleb128 0x2
 7539 1cb0 76       		.byte	0x76
 7540 1cb1 00       		.sleb128 0
 7541 1cb2 1E       		.uleb128 0x1e
ARM GAS  C:\Users\info\AppData\Local\Temp\ccQPGqkW.s 			page 162


 7542 1cb3 01       		.uleb128 0x1
 7543 1cb4 52       		.byte	0x52
 7544 1cb5 02       		.uleb128 0x2
 7545 1cb6 77       		.byte	0x77
 7546 1cb7 00       		.sleb128 0
 7547 1cb8 00       		.byte	0
 7548 1cb9 00       		.byte	0
 7549 1cba 00       		.byte	0
 7550 1cbb 1D       		.uleb128 0x1d
 7551 1cbc 30000000 		.4byte	.LVL455
 7552 1cc0 B9240000 		.4byte	0x24b9
 7553 1cc4 D21C0000 		.4byte	0x1cd2
 7554 1cc8 1E       		.uleb128 0x1e
 7555 1cc9 01       		.uleb128 0x1
 7556 1cca 51       		.byte	0x51
 7557 1ccb 05       		.uleb128 0x5
 7558 1ccc 03       		.byte	0x3
 7559 1ccd 00000000 		.4byte	.LANCHOR0
 7560 1cd1 00       		.byte	0
 7561 1cd2 1D       		.uleb128 0x1d
 7562 1cd3 9E000000 		.4byte	.LVL474
 7563 1cd7 C5240000 		.4byte	0x24c5
 7564 1cdb E61C0000 		.4byte	0x1ce6
 7565 1cdf 1E       		.uleb128 0x1e
 7566 1ce0 01       		.uleb128 0x1
 7567 1ce1 50       		.byte	0x50
 7568 1ce2 02       		.uleb128 0x2
 7569 1ce3 75       		.byte	0x75
 7570 1ce4 00       		.sleb128 0
 7571 1ce5 00       		.byte	0
 7572 1ce6 1C       		.uleb128 0x1c
 7573 1ce7 A8000000 		.4byte	.LVL476
 7574 1ceb 95240000 		.4byte	0x2495
 7575 1cef 1D       		.uleb128 0x1d
 7576 1cf0 B0000000 		.4byte	.LVL477
 7577 1cf4 A1240000 		.4byte	0x24a1
 7578 1cf8 091D0000 		.4byte	0x1d09
 7579 1cfc 1E       		.uleb128 0x1e
 7580 1cfd 01       		.uleb128 0x1
 7581 1cfe 50       		.byte	0x50
 7582 1cff 02       		.uleb128 0x2
 7583 1d00 75       		.byte	0x75
 7584 1d01 00       		.sleb128 0
 7585 1d02 1E       		.uleb128 0x1e
 7586 1d03 01       		.uleb128 0x1
 7587 1d04 51       		.byte	0x51
 7588 1d05 02       		.uleb128 0x2
 7589 1d06 09       		.byte	0x9
 7590 1d07 81       		.byte	0x81
 7591 1d08 00       		.byte	0
 7592 1d09 1D       		.uleb128 0x1d
 7593 1d0a B8000000 		.4byte	.LVL478
 7594 1d0e D1240000 		.4byte	0x24d1
 7595 1d12 251D0000 		.4byte	0x1d25
 7596 1d16 1E       		.uleb128 0x1e
 7597 1d17 01       		.uleb128 0x1
 7598 1d18 50       		.byte	0x50
ARM GAS  C:\Users\info\AppData\Local\Temp\ccQPGqkW.s 			page 163


 7599 1d19 02       		.uleb128 0x2
 7600 1d1a 75       		.byte	0x75
 7601 1d1b 00       		.sleb128 0
 7602 1d1c 1E       		.uleb128 0x1e
 7603 1d1d 01       		.uleb128 0x1
 7604 1d1e 51       		.byte	0x51
 7605 1d1f 04       		.uleb128 0x4
 7606 1d20 74       		.byte	0x74
 7607 1d21 00       		.sleb128 0
 7608 1d22 32       		.byte	0x32
 7609 1d23 25       		.byte	0x25
 7610 1d24 00       		.byte	0
 7611 1d25 1F       		.uleb128 0x1f
 7612 1d26 D2000000 		.4byte	.LVL484
 7613 1d2a B9240000 		.4byte	0x24b9
 7614 1d2e 1E       		.uleb128 0x1e
 7615 1d2f 01       		.uleb128 0x1
 7616 1d30 51       		.byte	0x51
 7617 1d31 05       		.uleb128 0x5
 7618 1d32 03       		.byte	0x3
 7619 1d33 08000000 		.4byte	.LANCHOR0+8
 7620 1d37 00       		.byte	0
 7621 1d38 00       		.byte	0
 7622 1d39 00       		.byte	0
 7623 1d3a 1C       		.uleb128 0x1c
 7624 1d3b BE000000 		.4byte	.LVL480
 7625 1d3f DD240000 		.4byte	0x24dd
 7626 1d43 1D       		.uleb128 0x1d
 7627 1d44 C6000000 		.4byte	.LVL481
 7628 1d48 B9240000 		.4byte	0x24b9
 7629 1d4c 601D0000 		.4byte	0x1d60
 7630 1d50 1E       		.uleb128 0x1e
 7631 1d51 01       		.uleb128 0x1
 7632 1d52 50       		.byte	0x50
 7633 1d53 02       		.uleb128 0x2
 7634 1d54 75       		.byte	0x75
 7635 1d55 00       		.sleb128 0
 7636 1d56 1E       		.uleb128 0x1e
 7637 1d57 01       		.uleb128 0x1
 7638 1d58 51       		.byte	0x51
 7639 1d59 05       		.uleb128 0x5
 7640 1d5a 03       		.byte	0x3
 7641 1d5b F4010000 		.4byte	.LANCHOR0+500
 7642 1d5f 00       		.byte	0
 7643 1d60 1D       		.uleb128 0x1d
 7644 1d61 DE000000 		.4byte	.LVL487
 7645 1d65 E9240000 		.4byte	0x24e9
 7646 1d69 771D0000 		.4byte	0x1d77
 7647 1d6d 1E       		.uleb128 0x1e
 7648 1d6e 01       		.uleb128 0x1
 7649 1d6f 51       		.byte	0x51
 7650 1d70 05       		.uleb128 0x5
 7651 1d71 03       		.byte	0x3
 7652 1d72 B8010000 		.4byte	.LANCHOR0+440
 7653 1d76 00       		.byte	0
 7654 1d77 1D       		.uleb128 0x1d
 7655 1d78 EC000000 		.4byte	.LVL490
ARM GAS  C:\Users\info\AppData\Local\Temp\ccQPGqkW.s 			page 164


 7656 1d7c B9240000 		.4byte	0x24b9
 7657 1d80 8E1D0000 		.4byte	0x1d8e
 7658 1d84 1E       		.uleb128 0x1e
 7659 1d85 01       		.uleb128 0x1
 7660 1d86 51       		.byte	0x51
 7661 1d87 05       		.uleb128 0x5
 7662 1d88 03       		.byte	0x3
 7663 1d89 4C000000 		.4byte	.LANCHOR0+76
 7664 1d8d 00       		.byte	0
 7665 1d8e 1F       		.uleb128 0x1f
 7666 1d8f 00010000 		.4byte	.LVL493
 7667 1d93 B9240000 		.4byte	0x24b9
 7668 1d97 1E       		.uleb128 0x1e
 7669 1d98 01       		.uleb128 0x1
 7670 1d99 51       		.byte	0x51
 7671 1d9a 05       		.uleb128 0x5
 7672 1d9b 03       		.byte	0x3
 7673 1d9c 54000000 		.4byte	.LANCHOR0+84
 7674 1da0 00       		.byte	0
 7675 1da1 00       		.byte	0
 7676 1da2 25       		.uleb128 0x25
 7677 1da3 1E090000 		.4byte	.LASF80
 7678 1da7 01       		.byte	0x1
 7679 1da8 0704     		.2byte	0x407
 7680 1daa 8C000000 		.4byte	0x8c
 7681 1dae 00000000 		.4byte	.LFB11
 7682 1db2 28010000 		.4byte	.LFE11-.LFB11
 7683 1db6 01       		.uleb128 0x1
 7684 1db7 9C       		.byte	0x9c
 7685 1db8 F91F0000 		.4byte	0x1ff9
 7686 1dbc 26       		.uleb128 0x26
 7687 1dbd A8050000 		.4byte	.LASF66
 7688 1dc1 01       		.byte	0x1
 7689 1dc2 0704     		.2byte	0x407
 7690 1dc4 4F030000 		.4byte	0x34f
 7691 1dc8 39450000 		.4byte	.LLST173
 7692 1dcc 27       		.uleb128 0x27
 7693 1dcd 6D736700 		.ascii	"msg\000"
 7694 1dd1 01       		.byte	0x1
 7695 1dd2 0704     		.2byte	0x407
 7696 1dd4 8C000000 		.4byte	0x8c
 7697 1dd8 15460000 		.4byte	.LLST174
 7698 1ddc 26       		.uleb128 0x26
 7699 1ddd AE020000 		.4byte	.LASF67
 7700 1de1 01       		.byte	0x1
 7701 1de2 0704     		.2byte	0x407
 7702 1de4 8C000000 		.4byte	0x8c
 7703 1de8 E5460000 		.4byte	.LLST175
 7704 1dec 26       		.uleb128 0x26
 7705 1ded D3070000 		.4byte	.LASF68
 7706 1df1 01       		.byte	0x1
 7707 1df2 0704     		.2byte	0x407
 7708 1df4 AD000000 		.4byte	0xad
 7709 1df8 B5470000 		.4byte	.LLST176
 7710 1dfc 28       		.uleb128 0x28
 7711 1dfd 96030000 		.4byte	0x396
 7712 1e01 00000000 		.4byte	.LBB210
ARM GAS  C:\Users\info\AppData\Local\Temp\ccQPGqkW.s 			page 165


 7713 1e05 60020000 		.4byte	.Ldebug_ranges0+0x260
 7714 1e09 01       		.byte	0x1
 7715 1e0a 0A04     		.2byte	0x40a
 7716 1e0c 911F0000 		.4byte	0x1f91
 7717 1e10 17       		.uleb128 0x17
 7718 1e11 C7030000 		.4byte	0x3c7
 7719 1e15 90480000 		.4byte	.LLST177
 7720 1e19 17       		.uleb128 0x17
 7721 1e1a BC030000 		.4byte	0x3bc
 7722 1e1e 12490000 		.4byte	.LLST178
 7723 1e22 17       		.uleb128 0x17
 7724 1e23 B1030000 		.4byte	0x3b1
 7725 1e27 89490000 		.4byte	.LLST179
 7726 1e2b 17       		.uleb128 0x17
 7727 1e2c A6030000 		.4byte	0x3a6
 7728 1e30 004A0000 		.4byte	.LLST180
 7729 1e34 24       		.uleb128 0x24
 7730 1e35 60020000 		.4byte	.Ldebug_ranges0+0x260
 7731 1e39 18       		.uleb128 0x18
 7732 1e3a D2030000 		.4byte	0x3d2
 7733 1e3e 18       		.uleb128 0x18
 7734 1e3f DB030000 		.4byte	0x3db
 7735 1e43 18       		.uleb128 0x18
 7736 1e44 E4030000 		.4byte	0x3e4
 7737 1e48 19       		.uleb128 0x19
 7738 1e49 38000000 		.4byte	.LBB212
 7739 1e4d 60000000 		.4byte	.LBE212-.LBB212
 7740 1e51 121F0000 		.4byte	0x1f12
 7741 1e55 17       		.uleb128 0x17
 7742 1e56 B1030000 		.4byte	0x3b1
 7743 1e5a 6B4A0000 		.4byte	.LLST181
 7744 1e5e 17       		.uleb128 0x17
 7745 1e5f C7030000 		.4byte	0x3c7
 7746 1e63 7F4A0000 		.4byte	.LLST182
 7747 1e67 17       		.uleb128 0x17
 7748 1e68 BC030000 		.4byte	0x3bc
 7749 1e6c A04A0000 		.4byte	.LLST183
 7750 1e70 17       		.uleb128 0x17
 7751 1e71 A6030000 		.4byte	0x3a6
 7752 1e75 BE4A0000 		.4byte	.LLST184
 7753 1e79 1A       		.uleb128 0x1a
 7754 1e7a 38000000 		.4byte	.LBB213
 7755 1e7e 60000000 		.4byte	.LBE213-.LBB213
 7756 1e82 1B       		.uleb128 0x1b
 7757 1e83 D2030000 		.4byte	0x3d2
 7758 1e87 DC4A0000 		.4byte	.LLST185
 7759 1e8b 1B       		.uleb128 0x1b
 7760 1e8c DB030000 		.4byte	0x3db
 7761 1e90 184B0000 		.4byte	.LLST186
 7762 1e94 1B       		.uleb128 0x1b
 7763 1e95 E4030000 		.4byte	0x3e4
 7764 1e99 5D4B0000 		.4byte	.LLST187
 7765 1e9d 1C       		.uleb128 0x1c
 7766 1e9e 3C000000 		.4byte	.LVL504
 7767 1ea2 95240000 		.4byte	0x2495
 7768 1ea6 1D       		.uleb128 0x1d
 7769 1ea7 5A000000 		.4byte	.LVL508
ARM GAS  C:\Users\info\AppData\Local\Temp\ccQPGqkW.s 			page 166


 7770 1eab A1240000 		.4byte	0x24a1
 7771 1eaf C41E0000 		.4byte	0x1ec4
 7772 1eb3 1E       		.uleb128 0x1e
 7773 1eb4 01       		.uleb128 0x1
 7774 1eb5 50       		.byte	0x50
 7775 1eb6 02       		.uleb128 0x2
 7776 1eb7 75       		.byte	0x75
 7777 1eb8 00       		.sleb128 0
 7778 1eb9 1E       		.uleb128 0x1e
 7779 1eba 01       		.uleb128 0x1
 7780 1ebb 51       		.byte	0x51
 7781 1ebc 06       		.uleb128 0x6
 7782 1ebd 78       		.byte	0x78
 7783 1ebe 00       		.sleb128 0
 7784 1ebf 34       		.byte	0x34
 7785 1ec0 25       		.byte	0x25
 7786 1ec1 40       		.byte	0x40
 7787 1ec2 21       		.byte	0x21
 7788 1ec3 00       		.byte	0
 7789 1ec4 1D       		.uleb128 0x1d
 7790 1ec5 64000000 		.4byte	.LVL509
 7791 1ec9 A1240000 		.4byte	0x24a1
 7792 1ecd E01E0000 		.4byte	0x1ee0
 7793 1ed1 1E       		.uleb128 0x1e
 7794 1ed2 01       		.uleb128 0x1
 7795 1ed3 50       		.byte	0x50
 7796 1ed4 02       		.uleb128 0x2
 7797 1ed5 75       		.byte	0x75
 7798 1ed6 00       		.sleb128 0
 7799 1ed7 1E       		.uleb128 0x1e
 7800 1ed8 01       		.uleb128 0x1
 7801 1ed9 51       		.byte	0x51
 7802 1eda 04       		.uleb128 0x4
 7803 1edb 78       		.byte	0x78
 7804 1edc 00       		.sleb128 0
 7805 1edd 3F       		.byte	0x3f
 7806 1ede 1A       		.byte	0x1a
 7807 1edf 00       		.byte	0
 7808 1ee0 1D       		.uleb128 0x1d
 7809 1ee1 70000000 		.4byte	.LVL510
 7810 1ee5 A1240000 		.4byte	0x24a1
 7811 1ee9 F41E0000 		.4byte	0x1ef4
 7812 1eed 1E       		.uleb128 0x1e
 7813 1eee 01       		.uleb128 0x1
 7814 1eef 50       		.byte	0x50
 7815 1ef0 02       		.uleb128 0x2
 7816 1ef1 75       		.byte	0x75
 7817 1ef2 00       		.sleb128 0
 7818 1ef3 00       		.byte	0
 7819 1ef4 1F       		.uleb128 0x1f
 7820 1ef5 90000000 		.4byte	.LVL517
 7821 1ef9 AD240000 		.4byte	0x24ad
 7822 1efd 1E       		.uleb128 0x1e
 7823 1efe 01       		.uleb128 0x1
 7824 1eff 50       		.byte	0x50
 7825 1f00 02       		.uleb128 0x2
 7826 1f01 75       		.byte	0x75
ARM GAS  C:\Users\info\AppData\Local\Temp\ccQPGqkW.s 			page 167


 7827 1f02 00       		.sleb128 0
 7828 1f03 1E       		.uleb128 0x1e
 7829 1f04 01       		.uleb128 0x1
 7830 1f05 51       		.byte	0x51
 7831 1f06 02       		.uleb128 0x2
 7832 1f07 76       		.byte	0x76
 7833 1f08 00       		.sleb128 0
 7834 1f09 1E       		.uleb128 0x1e
 7835 1f0a 01       		.uleb128 0x1
 7836 1f0b 52       		.byte	0x52
 7837 1f0c 02       		.uleb128 0x2
 7838 1f0d 77       		.byte	0x77
 7839 1f0e 00       		.sleb128 0
 7840 1f0f 00       		.byte	0
 7841 1f10 00       		.byte	0
 7842 1f11 00       		.byte	0
 7843 1f12 1D       		.uleb128 0x1d
 7844 1f13 30000000 		.4byte	.LVL501
 7845 1f17 B9240000 		.4byte	0x24b9
 7846 1f1b 291F0000 		.4byte	0x1f29
 7847 1f1f 1E       		.uleb128 0x1e
 7848 1f20 01       		.uleb128 0x1
 7849 1f21 51       		.byte	0x51
 7850 1f22 05       		.uleb128 0x5
 7851 1f23 03       		.byte	0x3
 7852 1f24 00000000 		.4byte	.LANCHOR0
 7853 1f28 00       		.byte	0
 7854 1f29 1D       		.uleb128 0x1d
 7855 1f2a 9E000000 		.4byte	.LVL520
 7856 1f2e C5240000 		.4byte	0x24c5
 7857 1f32 3D1F0000 		.4byte	0x1f3d
 7858 1f36 1E       		.uleb128 0x1e
 7859 1f37 01       		.uleb128 0x1
 7860 1f38 50       		.byte	0x50
 7861 1f39 02       		.uleb128 0x2
 7862 1f3a 75       		.byte	0x75
 7863 1f3b 00       		.sleb128 0
 7864 1f3c 00       		.byte	0
 7865 1f3d 1C       		.uleb128 0x1c
 7866 1f3e A8000000 		.4byte	.LVL522
 7867 1f42 95240000 		.4byte	0x2495
 7868 1f46 1D       		.uleb128 0x1d
 7869 1f47 B0000000 		.4byte	.LVL523
 7870 1f4b A1240000 		.4byte	0x24a1
 7871 1f4f 601F0000 		.4byte	0x1f60
 7872 1f53 1E       		.uleb128 0x1e
 7873 1f54 01       		.uleb128 0x1
 7874 1f55 50       		.byte	0x50
 7875 1f56 02       		.uleb128 0x2
 7876 1f57 75       		.byte	0x75
 7877 1f58 00       		.sleb128 0
 7878 1f59 1E       		.uleb128 0x1e
 7879 1f5a 01       		.uleb128 0x1
 7880 1f5b 51       		.byte	0x51
 7881 1f5c 02       		.uleb128 0x2
 7882 1f5d 09       		.byte	0x9
 7883 1f5e 81       		.byte	0x81
ARM GAS  C:\Users\info\AppData\Local\Temp\ccQPGqkW.s 			page 168


 7884 1f5f 00       		.byte	0
 7885 1f60 1D       		.uleb128 0x1d
 7886 1f61 B8000000 		.4byte	.LVL524
 7887 1f65 D1240000 		.4byte	0x24d1
 7888 1f69 7C1F0000 		.4byte	0x1f7c
 7889 1f6d 1E       		.uleb128 0x1e
 7890 1f6e 01       		.uleb128 0x1
 7891 1f6f 50       		.byte	0x50
 7892 1f70 02       		.uleb128 0x2
 7893 1f71 75       		.byte	0x75
 7894 1f72 00       		.sleb128 0
 7895 1f73 1E       		.uleb128 0x1e
 7896 1f74 01       		.uleb128 0x1
 7897 1f75 51       		.byte	0x51
 7898 1f76 04       		.uleb128 0x4
 7899 1f77 74       		.byte	0x74
 7900 1f78 00       		.sleb128 0
 7901 1f79 32       		.byte	0x32
 7902 1f7a 25       		.byte	0x25
 7903 1f7b 00       		.byte	0
 7904 1f7c 1F       		.uleb128 0x1f
 7905 1f7d D2000000 		.4byte	.LVL530
 7906 1f81 B9240000 		.4byte	0x24b9
 7907 1f85 1E       		.uleb128 0x1e
 7908 1f86 01       		.uleb128 0x1
 7909 1f87 51       		.byte	0x51
 7910 1f88 05       		.uleb128 0x5
 7911 1f89 03       		.byte	0x3
 7912 1f8a 08000000 		.4byte	.LANCHOR0+8
 7913 1f8e 00       		.byte	0
 7914 1f8f 00       		.byte	0
 7915 1f90 00       		.byte	0
 7916 1f91 1C       		.uleb128 0x1c
 7917 1f92 BE000000 		.4byte	.LVL526
 7918 1f96 DD240000 		.4byte	0x24dd
 7919 1f9a 1D       		.uleb128 0x1d
 7920 1f9b C6000000 		.4byte	.LVL527
 7921 1f9f B9240000 		.4byte	0x24b9
 7922 1fa3 B71F0000 		.4byte	0x1fb7
 7923 1fa7 1E       		.uleb128 0x1e
 7924 1fa8 01       		.uleb128 0x1
 7925 1fa9 50       		.byte	0x50
 7926 1faa 02       		.uleb128 0x2
 7927 1fab 75       		.byte	0x75
 7928 1fac 00       		.sleb128 0
 7929 1fad 1E       		.uleb128 0x1e
 7930 1fae 01       		.uleb128 0x1
 7931 1faf 51       		.byte	0x51
 7932 1fb0 05       		.uleb128 0x5
 7933 1fb1 03       		.byte	0x3
 7934 1fb2 18020000 		.4byte	.LANCHOR0+536
 7935 1fb6 00       		.byte	0
 7936 1fb7 1D       		.uleb128 0x1d
 7937 1fb8 DE000000 		.4byte	.LVL533
 7938 1fbc E9240000 		.4byte	0x24e9
 7939 1fc0 CE1F0000 		.4byte	0x1fce
 7940 1fc4 1E       		.uleb128 0x1e
ARM GAS  C:\Users\info\AppData\Local\Temp\ccQPGqkW.s 			page 169


 7941 1fc5 01       		.uleb128 0x1
 7942 1fc6 51       		.byte	0x51
 7943 1fc7 05       		.uleb128 0x5
 7944 1fc8 03       		.byte	0x3
 7945 1fc9 40010000 		.4byte	.LANCHOR0+320
 7946 1fcd 00       		.byte	0
 7947 1fce 1D       		.uleb128 0x1d
 7948 1fcf EC000000 		.4byte	.LVL536
 7949 1fd3 B9240000 		.4byte	0x24b9
 7950 1fd7 E51F0000 		.4byte	0x1fe5
 7951 1fdb 1E       		.uleb128 0x1e
 7952 1fdc 01       		.uleb128 0x1
 7953 1fdd 51       		.byte	0x51
 7954 1fde 05       		.uleb128 0x5
 7955 1fdf 03       		.byte	0x3
 7956 1fe0 4C000000 		.4byte	.LANCHOR0+76
 7957 1fe4 00       		.byte	0
 7958 1fe5 1F       		.uleb128 0x1f
 7959 1fe6 00010000 		.4byte	.LVL539
 7960 1fea B9240000 		.4byte	0x24b9
 7961 1fee 1E       		.uleb128 0x1e
 7962 1fef 01       		.uleb128 0x1
 7963 1ff0 51       		.byte	0x51
 7964 1ff1 05       		.uleb128 0x5
 7965 1ff2 03       		.byte	0x3
 7966 1ff3 54000000 		.4byte	.LANCHOR0+84
 7967 1ff7 00       		.byte	0
 7968 1ff8 00       		.byte	0
 7969 1ff9 25       		.uleb128 0x25
 7970 1ffa AC030000 		.4byte	.LASF81
 7971 1ffe 01       		.byte	0x1
 7972 1fff 6504     		.2byte	0x465
 7973 2001 8C000000 		.4byte	0x8c
 7974 2005 00000000 		.4byte	.LFB12
 7975 2009 28010000 		.4byte	.LFE12-.LFB12
 7976 200d 01       		.uleb128 0x1
 7977 200e 9C       		.byte	0x9c
 7978 200f 50220000 		.4byte	0x2250
 7979 2013 26       		.uleb128 0x26
 7980 2014 A8050000 		.4byte	.LASF66
 7981 2018 01       		.byte	0x1
 7982 2019 6504     		.2byte	0x465
 7983 201b 4F030000 		.4byte	0x34f
 7984 201f 704B0000 		.4byte	.LLST188
 7985 2023 27       		.uleb128 0x27
 7986 2024 6D736700 		.ascii	"msg\000"
 7987 2028 01       		.byte	0x1
 7988 2029 6504     		.2byte	0x465
 7989 202b 8C000000 		.4byte	0x8c
 7990 202f 4C4C0000 		.4byte	.LLST189
 7991 2033 26       		.uleb128 0x26
 7992 2034 AE020000 		.4byte	.LASF67
 7993 2038 01       		.byte	0x1
 7994 2039 6504     		.2byte	0x465
 7995 203b 8C000000 		.4byte	0x8c
 7996 203f 1C4D0000 		.4byte	.LLST190
 7997 2043 26       		.uleb128 0x26
ARM GAS  C:\Users\info\AppData\Local\Temp\ccQPGqkW.s 			page 170


 7998 2044 D3070000 		.4byte	.LASF68
 7999 2048 01       		.byte	0x1
 8000 2049 6504     		.2byte	0x465
 8001 204b AD000000 		.4byte	0xad
 8002 204f EC4D0000 		.4byte	.LLST191
 8003 2053 28       		.uleb128 0x28
 8004 2054 96030000 		.4byte	0x396
 8005 2058 00000000 		.4byte	.LBB228
 8006 205c 98020000 		.4byte	.Ldebug_ranges0+0x298
 8007 2060 01       		.byte	0x1
 8008 2061 6804     		.2byte	0x468
 8009 2063 E8210000 		.4byte	0x21e8
 8010 2067 17       		.uleb128 0x17
 8011 2068 C7030000 		.4byte	0x3c7
 8012 206c C74E0000 		.4byte	.LLST192
 8013 2070 17       		.uleb128 0x17
 8014 2071 BC030000 		.4byte	0x3bc
 8015 2075 494F0000 		.4byte	.LLST193
 8016 2079 17       		.uleb128 0x17
 8017 207a B1030000 		.4byte	0x3b1
 8018 207e C04F0000 		.4byte	.LLST194
 8019 2082 17       		.uleb128 0x17
 8020 2083 A6030000 		.4byte	0x3a6
 8021 2087 37500000 		.4byte	.LLST195
 8022 208b 24       		.uleb128 0x24
 8023 208c 98020000 		.4byte	.Ldebug_ranges0+0x298
 8024 2090 18       		.uleb128 0x18
 8025 2091 D2030000 		.4byte	0x3d2
 8026 2095 18       		.uleb128 0x18
 8027 2096 DB030000 		.4byte	0x3db
 8028 209a 18       		.uleb128 0x18
 8029 209b E4030000 		.4byte	0x3e4
 8030 209f 19       		.uleb128 0x19
 8031 20a0 38000000 		.4byte	.LBB230
 8032 20a4 60000000 		.4byte	.LBE230-.LBB230
 8033 20a8 69210000 		.4byte	0x2169
 8034 20ac 17       		.uleb128 0x17
 8035 20ad B1030000 		.4byte	0x3b1
 8036 20b1 A2500000 		.4byte	.LLST196
 8037 20b5 17       		.uleb128 0x17
 8038 20b6 C7030000 		.4byte	0x3c7
 8039 20ba B6500000 		.4byte	.LLST197
 8040 20be 17       		.uleb128 0x17
 8041 20bf BC030000 		.4byte	0x3bc
 8042 20c3 D7500000 		.4byte	.LLST198
 8043 20c7 17       		.uleb128 0x17
 8044 20c8 A6030000 		.4byte	0x3a6
 8045 20cc F5500000 		.4byte	.LLST199
 8046 20d0 1A       		.uleb128 0x1a
 8047 20d1 38000000 		.4byte	.LBB231
 8048 20d5 60000000 		.4byte	.LBE231-.LBB231
 8049 20d9 1B       		.uleb128 0x1b
 8050 20da D2030000 		.4byte	0x3d2
 8051 20de 13510000 		.4byte	.LLST200
 8052 20e2 1B       		.uleb128 0x1b
 8053 20e3 DB030000 		.4byte	0x3db
 8054 20e7 4F510000 		.4byte	.LLST201
ARM GAS  C:\Users\info\AppData\Local\Temp\ccQPGqkW.s 			page 171


 8055 20eb 1B       		.uleb128 0x1b
 8056 20ec E4030000 		.4byte	0x3e4
 8057 20f0 94510000 		.4byte	.LLST202
 8058 20f4 1C       		.uleb128 0x1c
 8059 20f5 3C000000 		.4byte	.LVL550
 8060 20f9 95240000 		.4byte	0x2495
 8061 20fd 1D       		.uleb128 0x1d
 8062 20fe 5A000000 		.4byte	.LVL554
 8063 2102 A1240000 		.4byte	0x24a1
 8064 2106 1B210000 		.4byte	0x211b
 8065 210a 1E       		.uleb128 0x1e
 8066 210b 01       		.uleb128 0x1
 8067 210c 50       		.byte	0x50
 8068 210d 02       		.uleb128 0x2
 8069 210e 75       		.byte	0x75
 8070 210f 00       		.sleb128 0
 8071 2110 1E       		.uleb128 0x1e
 8072 2111 01       		.uleb128 0x1
 8073 2112 51       		.byte	0x51
 8074 2113 06       		.uleb128 0x6
 8075 2114 78       		.byte	0x78
 8076 2115 00       		.sleb128 0
 8077 2116 34       		.byte	0x34
 8078 2117 25       		.byte	0x25
 8079 2118 40       		.byte	0x40
 8080 2119 21       		.byte	0x21
 8081 211a 00       		.byte	0
 8082 211b 1D       		.uleb128 0x1d
 8083 211c 64000000 		.4byte	.LVL555
 8084 2120 A1240000 		.4byte	0x24a1
 8085 2124 37210000 		.4byte	0x2137
 8086 2128 1E       		.uleb128 0x1e
 8087 2129 01       		.uleb128 0x1
 8088 212a 50       		.byte	0x50
 8089 212b 02       		.uleb128 0x2
 8090 212c 75       		.byte	0x75
 8091 212d 00       		.sleb128 0
 8092 212e 1E       		.uleb128 0x1e
 8093 212f 01       		.uleb128 0x1
 8094 2130 51       		.byte	0x51
 8095 2131 04       		.uleb128 0x4
 8096 2132 78       		.byte	0x78
 8097 2133 00       		.sleb128 0
 8098 2134 3F       		.byte	0x3f
 8099 2135 1A       		.byte	0x1a
 8100 2136 00       		.byte	0
 8101 2137 1D       		.uleb128 0x1d
 8102 2138 70000000 		.4byte	.LVL556
 8103 213c A1240000 		.4byte	0x24a1
 8104 2140 4B210000 		.4byte	0x214b
 8105 2144 1E       		.uleb128 0x1e
 8106 2145 01       		.uleb128 0x1
 8107 2146 50       		.byte	0x50
 8108 2147 02       		.uleb128 0x2
 8109 2148 75       		.byte	0x75
 8110 2149 00       		.sleb128 0
 8111 214a 00       		.byte	0
ARM GAS  C:\Users\info\AppData\Local\Temp\ccQPGqkW.s 			page 172


 8112 214b 1F       		.uleb128 0x1f
 8113 214c 90000000 		.4byte	.LVL563
 8114 2150 AD240000 		.4byte	0x24ad
 8115 2154 1E       		.uleb128 0x1e
 8116 2155 01       		.uleb128 0x1
 8117 2156 50       		.byte	0x50
 8118 2157 02       		.uleb128 0x2
 8119 2158 75       		.byte	0x75
 8120 2159 00       		.sleb128 0
 8121 215a 1E       		.uleb128 0x1e
 8122 215b 01       		.uleb128 0x1
 8123 215c 51       		.byte	0x51
 8124 215d 02       		.uleb128 0x2
 8125 215e 76       		.byte	0x76
 8126 215f 00       		.sleb128 0
 8127 2160 1E       		.uleb128 0x1e
 8128 2161 01       		.uleb128 0x1
 8129 2162 52       		.byte	0x52
 8130 2163 02       		.uleb128 0x2
 8131 2164 77       		.byte	0x77
 8132 2165 00       		.sleb128 0
 8133 2166 00       		.byte	0
 8134 2167 00       		.byte	0
 8135 2168 00       		.byte	0
 8136 2169 1D       		.uleb128 0x1d
 8137 216a 30000000 		.4byte	.LVL547
 8138 216e B9240000 		.4byte	0x24b9
 8139 2172 80210000 		.4byte	0x2180
 8140 2176 1E       		.uleb128 0x1e
 8141 2177 01       		.uleb128 0x1
 8142 2178 51       		.byte	0x51
 8143 2179 05       		.uleb128 0x5
 8144 217a 03       		.byte	0x3
 8145 217b 00000000 		.4byte	.LANCHOR0
 8146 217f 00       		.byte	0
 8147 2180 1D       		.uleb128 0x1d
 8148 2181 9E000000 		.4byte	.LVL566
 8149 2185 C5240000 		.4byte	0x24c5
 8150 2189 94210000 		.4byte	0x2194
 8151 218d 1E       		.uleb128 0x1e
 8152 218e 01       		.uleb128 0x1
 8153 218f 50       		.byte	0x50
 8154 2190 02       		.uleb128 0x2
 8155 2191 75       		.byte	0x75
 8156 2192 00       		.sleb128 0
 8157 2193 00       		.byte	0
 8158 2194 1C       		.uleb128 0x1c
 8159 2195 A8000000 		.4byte	.LVL568
 8160 2199 95240000 		.4byte	0x2495
 8161 219d 1D       		.uleb128 0x1d
 8162 219e B0000000 		.4byte	.LVL569
 8163 21a2 A1240000 		.4byte	0x24a1
 8164 21a6 B7210000 		.4byte	0x21b7
 8165 21aa 1E       		.uleb128 0x1e
 8166 21ab 01       		.uleb128 0x1
 8167 21ac 50       		.byte	0x50
 8168 21ad 02       		.uleb128 0x2
ARM GAS  C:\Users\info\AppData\Local\Temp\ccQPGqkW.s 			page 173


 8169 21ae 75       		.byte	0x75
 8170 21af 00       		.sleb128 0
 8171 21b0 1E       		.uleb128 0x1e
 8172 21b1 01       		.uleb128 0x1
 8173 21b2 51       		.byte	0x51
 8174 21b3 02       		.uleb128 0x2
 8175 21b4 09       		.byte	0x9
 8176 21b5 81       		.byte	0x81
 8177 21b6 00       		.byte	0
 8178 21b7 1D       		.uleb128 0x1d
 8179 21b8 B8000000 		.4byte	.LVL570
 8180 21bc D1240000 		.4byte	0x24d1
 8181 21c0 D3210000 		.4byte	0x21d3
 8182 21c4 1E       		.uleb128 0x1e
 8183 21c5 01       		.uleb128 0x1
 8184 21c6 50       		.byte	0x50
 8185 21c7 02       		.uleb128 0x2
 8186 21c8 75       		.byte	0x75
 8187 21c9 00       		.sleb128 0
 8188 21ca 1E       		.uleb128 0x1e
 8189 21cb 01       		.uleb128 0x1
 8190 21cc 51       		.byte	0x51
 8191 21cd 04       		.uleb128 0x4
 8192 21ce 74       		.byte	0x74
 8193 21cf 00       		.sleb128 0
 8194 21d0 32       		.byte	0x32
 8195 21d1 25       		.byte	0x25
 8196 21d2 00       		.byte	0
 8197 21d3 1F       		.uleb128 0x1f
 8198 21d4 D2000000 		.4byte	.LVL576
 8199 21d8 B9240000 		.4byte	0x24b9
 8200 21dc 1E       		.uleb128 0x1e
 8201 21dd 01       		.uleb128 0x1
 8202 21de 51       		.byte	0x51
 8203 21df 05       		.uleb128 0x5
 8204 21e0 03       		.byte	0x3
 8205 21e1 08000000 		.4byte	.LANCHOR0+8
 8206 21e5 00       		.byte	0
 8207 21e6 00       		.byte	0
 8208 21e7 00       		.byte	0
 8209 21e8 1C       		.uleb128 0x1c
 8210 21e9 BE000000 		.4byte	.LVL572
 8211 21ed DD240000 		.4byte	0x24dd
 8212 21f1 1D       		.uleb128 0x1d
 8213 21f2 C6000000 		.4byte	.LVL573
 8214 21f6 B9240000 		.4byte	0x24b9
 8215 21fa 0E220000 		.4byte	0x220e
 8216 21fe 1E       		.uleb128 0x1e
 8217 21ff 01       		.uleb128 0x1
 8218 2200 50       		.byte	0x50
 8219 2201 02       		.uleb128 0x2
 8220 2202 75       		.byte	0x75
 8221 2203 00       		.sleb128 0
 8222 2204 1E       		.uleb128 0x1e
 8223 2205 01       		.uleb128 0x1
 8224 2206 51       		.byte	0x51
 8225 2207 05       		.uleb128 0x5
ARM GAS  C:\Users\info\AppData\Local\Temp\ccQPGqkW.s 			page 174


 8226 2208 03       		.byte	0x3
 8227 2209 50020000 		.4byte	.LANCHOR0+592
 8228 220d 00       		.byte	0
 8229 220e 1D       		.uleb128 0x1d
 8230 220f DE000000 		.4byte	.LVL579
 8231 2213 E9240000 		.4byte	0x24e9
 8232 2217 25220000 		.4byte	0x2225
 8233 221b 1E       		.uleb128 0x1e
 8234 221c 01       		.uleb128 0x1
 8235 221d 51       		.byte	0x51
 8236 221e 05       		.uleb128 0x5
 8237 221f 03       		.byte	0x3
 8238 2220 38020000 		.4byte	.LANCHOR0+568
 8239 2224 00       		.byte	0
 8240 2225 1D       		.uleb128 0x1d
 8241 2226 EC000000 		.4byte	.LVL582
 8242 222a B9240000 		.4byte	0x24b9
 8243 222e 3C220000 		.4byte	0x223c
 8244 2232 1E       		.uleb128 0x1e
 8245 2233 01       		.uleb128 0x1
 8246 2234 51       		.byte	0x51
 8247 2235 05       		.uleb128 0x5
 8248 2236 03       		.byte	0x3
 8249 2237 54000000 		.4byte	.LANCHOR0+84
 8250 223b 00       		.byte	0
 8251 223c 1F       		.uleb128 0x1f
 8252 223d 00010000 		.4byte	.LVL585
 8253 2241 B9240000 		.4byte	0x24b9
 8254 2245 1E       		.uleb128 0x1e
 8255 2246 01       		.uleb128 0x1
 8256 2247 51       		.byte	0x51
 8257 2248 05       		.uleb128 0x5
 8258 2249 03       		.byte	0x3
 8259 224a 4C000000 		.4byte	.LANCHOR0+76
 8260 224e 00       		.byte	0
 8261 224f 00       		.byte	0
 8262 2250 2A       		.uleb128 0x2a
 8263 2251 91030000 		.4byte	0x391
 8264 2255 60220000 		.4byte	0x2260
 8265 2259 2B       		.uleb128 0x2b
 8266 225a 60220000 		.4byte	0x2260
 8267 225e 06       		.byte	0x6
 8268 225f 00       		.byte	0
 8269 2260 02       		.uleb128 0x2
 8270 2261 04       		.byte	0x4
 8271 2262 07       		.byte	0x7
 8272 2263 8E040000 		.4byte	.LASF82
 8273 2267 2C       		.uleb128 0x2c
 8274 2268 2D040000 		.4byte	.LASF83
 8275 226c 01       		.byte	0x1
 8276 226d 2B       		.byte	0x2b
 8277 226e 78220000 		.4byte	0x2278
 8278 2272 05       		.uleb128 0x5
 8279 2273 03       		.byte	0x3
 8280 2274 00000000 		.4byte	u8x8_d_st7565_powersave0_seq
 8281 2278 0E       		.uleb128 0xe
 8282 2279 50220000 		.4byte	0x2250
ARM GAS  C:\Users\info\AppData\Local\Temp\ccQPGqkW.s 			page 175


 8283 227d 2C       		.uleb128 0x2c
 8284 227e 69010000 		.4byte	.LASF84
 8285 2282 01       		.byte	0x1
 8286 2283 33       		.byte	0x33
 8287 2284 8E220000 		.4byte	0x228e
 8288 2288 05       		.uleb128 0x5
 8289 2289 03       		.byte	0x3
 8290 228a 08000000 		.4byte	u8x8_d_st7565_powersave1_seq
 8291 228e 0E       		.uleb128 0xe
 8292 228f 50220000 		.4byte	0x2250
 8293 2293 2C       		.uleb128 0x2c
 8294 2294 76040000 		.4byte	.LASF85
 8295 2298 01       		.byte	0x1
 8296 2299 3B       		.byte	0x3b
 8297 229a A4220000 		.4byte	0x22a4
 8298 229e 05       		.uleb128 0x5
 8299 229f 03       		.byte	0x3
 8300 22a0 4C000000 		.4byte	u8x8_d_st7565_flip0_seq
 8301 22a4 0E       		.uleb128 0xe
 8302 22a5 50220000 		.4byte	0x2250
 8303 22a9 2C       		.uleb128 0x2c
 8304 22aa BD000000 		.4byte	.LASF86
 8305 22ae 01       		.byte	0x1
 8306 22af 43       		.byte	0x43
 8307 22b0 BA220000 		.4byte	0x22ba
 8308 22b4 05       		.uleb128 0x5
 8309 22b5 03       		.byte	0x3
 8310 22b6 54000000 		.4byte	u8x8_d_st7565_flip1_seq
 8311 22ba 0E       		.uleb128 0xe
 8312 22bb 50220000 		.4byte	0x2250
 8313 22bf 2C       		.uleb128 0x2c
 8314 22c0 43080000 		.4byte	.LASF87
 8315 22c4 01       		.byte	0x1
 8316 22c5 4B       		.byte	0x4b
 8317 22c6 D0220000 		.4byte	0x22d0
 8318 22ca 05       		.uleb128 0x5
 8319 22cb 03       		.byte	0x3
 8320 22cc B8000000 		.4byte	u8x8_d_st7565_zflip0_seq
 8321 22d0 0E       		.uleb128 0xe
 8322 22d1 50220000 		.4byte	0x2250
 8323 22d5 2C       		.uleb128 0x2c
 8324 22d6 F8020000 		.4byte	.LASF88
 8325 22da 01       		.byte	0x1
 8326 22db 53       		.byte	0x53
 8327 22dc E6220000 		.4byte	0x22e6
 8328 22e0 05       		.uleb128 0x5
 8329 22e1 03       		.byte	0x3
 8330 22e2 C0000000 		.4byte	u8x8_d_st7565_zflip1_seq
 8331 22e6 0E       		.uleb128 0xe
 8332 22e7 50220000 		.4byte	0x2250
 8333 22eb 2C       		.uleb128 0x2c
 8334 22ec 30030000 		.4byte	.LASF89
 8335 22f0 01       		.byte	0x1
 8336 22f1 5B       		.byte	0x5b
 8337 22f2 86030000 		.4byte	0x386
 8338 22f6 05       		.uleb128 0x5
 8339 22f7 03       		.byte	0x3
ARM GAS  C:\Users\info\AppData\Local\Temp\ccQPGqkW.s 			page 176


 8340 22f8 10000000 		.4byte	u8x8_st7565_128x64_display_info
 8341 22fc 2A       		.uleb128 0x2a
 8342 22fd 91030000 		.4byte	0x391
 8343 2301 0C230000 		.4byte	0x230c
 8344 2305 2B       		.uleb128 0x2b
 8345 2306 60220000 		.4byte	0x2260
 8346 230a 20       		.byte	0x20
 8347 230b 00       		.byte	0
 8348 230c 2C       		.uleb128 0x2c
 8349 230d E6080000 		.4byte	.LASF90
 8350 2311 01       		.byte	0x1
 8351 2312 B8       		.byte	0xb8
 8352 2313 1D230000 		.4byte	0x231d
 8353 2317 05       		.uleb128 0x5
 8354 2318 03       		.byte	0x3
 8355 2319 28000000 		.4byte	u8x8_d_st7565_dogm128_init_seq
 8356 231d 0E       		.uleb128 0xe
 8357 231e FC220000 		.4byte	0x22fc
 8358 2322 2A       		.uleb128 0x2a
 8359 2323 91030000 		.4byte	0x391
 8360 2327 32230000 		.4byte	0x2332
 8361 232b 2B       		.uleb128 0x2b
 8362 232c 60220000 		.4byte	0x2260
 8363 2330 1C       		.byte	0x1c
 8364 2331 00       		.byte	0
 8365 2332 2C       		.uleb128 0x2c
 8366 2333 50030000 		.4byte	.LASF91
 8367 2337 01       		.byte	0x1
 8368 2338 F9       		.byte	0xf9
 8369 2339 43230000 		.4byte	0x2343
 8370 233d 05       		.uleb128 0x5
 8371 233e 03       		.byte	0x3
 8372 233f 74000000 		.4byte	u8x8_d_st7565_64128n_init_seq
 8373 2343 0E       		.uleb128 0xe
 8374 2344 22230000 		.4byte	0x2322
 8375 2348 2D       		.uleb128 0x2d
 8376 2349 35090000 		.4byte	.LASF92
 8377 234d 01       		.byte	0x1
 8378 234e 3701     		.2byte	0x137
 8379 2350 86030000 		.4byte	0x386
 8380 2354 05       		.uleb128 0x5
 8381 2355 03       		.byte	0x3
 8382 2356 5C000000 		.4byte	u8x8_st7565_64128n_display_info
 8383 235a 2D       		.uleb128 0x2d
 8384 235b D4020000 		.4byte	.LASF93
 8385 235f 01       		.byte	0x1
 8386 2360 7401     		.2byte	0x174
 8387 2362 6C230000 		.4byte	0x236c
 8388 2366 05       		.uleb128 0x5
 8389 2367 03       		.byte	0x3
 8390 2368 94000000 		.4byte	u8x8_d_st7565_zolen_128x64_init_seq
 8391 236c 0E       		.uleb128 0xe
 8392 236d FC220000 		.4byte	0x22fc
 8393 2371 2D       		.uleb128 0x2d
 8394 2372 AD050000 		.4byte	.LASF94
 8395 2376 01       		.byte	0x1
 8396 2377 B701     		.2byte	0x1b7
ARM GAS  C:\Users\info\AppData\Local\Temp\ccQPGqkW.s 			page 177


 8397 2379 86030000 		.4byte	0x386
 8398 237d 05       		.uleb128 0x5
 8399 237e 03       		.byte	0x3
 8400 237f C8000000 		.4byte	u8x8_st7565_128x32_display_info
 8401 2383 2D       		.uleb128 0x2d
 8402 2384 7C050000 		.4byte	.LASF95
 8403 2388 01       		.byte	0x1
 8404 2389 D001     		.2byte	0x1d0
 8405 238b 95230000 		.4byte	0x2395
 8406 238f 05       		.uleb128 0x5
 8407 2390 03       		.byte	0x3
 8408 2391 E0000000 		.4byte	u8x8_d_st7565_nhd_c12832_init_seq
 8409 2395 0E       		.uleb128 0xe
 8410 2396 FC220000 		.4byte	0x22fc
 8411 239a 2D       		.uleb128 0x2d
 8412 239b C5030000 		.4byte	.LASF96
 8413 239f 01       		.byte	0x1
 8414 23a0 1102     		.2byte	0x211
 8415 23a2 86030000 		.4byte	0x386
 8416 23a6 05       		.uleb128 0x5
 8417 23a7 03       		.byte	0x3
 8418 23a8 04010000 		.4byte	u8x8_st7565_nhd_c12864_display_info
 8419 23ac 2D       		.uleb128 0x2d
 8420 23ad 10050000 		.4byte	.LASF97
 8421 23b1 01       		.byte	0x1
 8422 23b2 2A02     		.2byte	0x22a
 8423 23b4 BE230000 		.4byte	0x23be
 8424 23b8 05       		.uleb128 0x5
 8425 23b9 03       		.byte	0x3
 8426 23ba 1C010000 		.4byte	u8x8_d_st7565_nhd_c12864_init_seq
 8427 23be 0E       		.uleb128 0xe
 8428 23bf FC220000 		.4byte	0x22fc
 8429 23c3 2D       		.uleb128 0x2d
 8430 23c4 CE040000 		.4byte	.LASF98
 8431 23c8 01       		.byte	0x1
 8432 23c9 7302     		.2byte	0x273
 8433 23cb D5230000 		.4byte	0x23d5
 8434 23cf 05       		.uleb128 0x5
 8435 23d0 03       		.byte	0x3
 8436 23d1 58010000 		.4byte	u8x8_d_st7565_lm6059_init_seq
 8437 23d5 0E       		.uleb128 0xe
 8438 23d6 FC220000 		.4byte	0x22fc
 8439 23da 2D       		.uleb128 0x2d
 8440 23db 1B010000 		.4byte	.LASF99
 8441 23df 01       		.byte	0x1
 8442 23e0 9102     		.2byte	0x291
 8443 23e2 86030000 		.4byte	0x386
 8444 23e6 05       		.uleb128 0x5
 8445 23e7 03       		.byte	0x3
 8446 23e8 40010000 		.4byte	u8x8_st7565_lm6059_display_info
 8447 23ec 2D       		.uleb128 0x2d
 8448 23ed 9C090000 		.4byte	.LASF100
 8449 23f1 01       		.byte	0x1
 8450 23f2 CE02     		.2byte	0x2ce
 8451 23f4 FE230000 		.4byte	0x23fe
 8452 23f8 05       		.uleb128 0x5
 8453 23f9 03       		.byte	0x3
ARM GAS  C:\Users\info\AppData\Local\Temp\ccQPGqkW.s 			page 178


 8454 23fa 94010000 		.4byte	u8x8_d_st7565_lx12864_init_seq
 8455 23fe 0E       		.uleb128 0xe
 8456 23ff FC220000 		.4byte	0x22fc
 8457 2403 2D       		.uleb128 0x2d
 8458 2404 0E080000 		.4byte	.LASF101
 8459 2408 01       		.byte	0x1
 8460 2409 EC02     		.2byte	0x2ec
 8461 240b 86030000 		.4byte	0x386
 8462 240f 05       		.uleb128 0x5
 8463 2410 03       		.byte	0x3
 8464 2411 7C010000 		.4byte	u8x8_st7565_lx12864_display_info
 8465 2415 2D       		.uleb128 0x2d
 8466 2416 7C090000 		.4byte	.LASF102
 8467 241a 01       		.byte	0x1
 8468 241b 2A03     		.2byte	0x32a
 8469 241d 27240000 		.4byte	0x2427
 8470 2421 05       		.uleb128 0x5
 8471 2422 03       		.byte	0x3
 8472 2423 D0010000 		.4byte	u8x8_d_st7565_erc12864_init_seq
 8473 2427 0E       		.uleb128 0xe
 8474 2428 FC220000 		.4byte	0x22fc
 8475 242c 2D       		.uleb128 0x2d
 8476 242d 7D000000 		.4byte	.LASF103
 8477 2431 01       		.byte	0x1
 8478 2432 4803     		.2byte	0x348
 8479 2434 86030000 		.4byte	0x386
 8480 2438 05       		.uleb128 0x5
 8481 2439 03       		.byte	0x3
 8482 243a B8010000 		.4byte	u8x8_st7565_erc12864_display_info
 8483 243e 2D       		.uleb128 0x2d
 8484 243f D5010000 		.4byte	.LASF104
 8485 2443 01       		.byte	0x1
 8486 2444 8803     		.2byte	0x388
 8487 2446 50240000 		.4byte	0x2450
 8488 244a 05       		.uleb128 0x5
 8489 244b 03       		.byte	0x3
 8490 244c F4010000 		.4byte	u8x8_d_st7565_erc12864_alt_init_seq
 8491 2450 0E       		.uleb128 0xe
 8492 2451 FC220000 		.4byte	0x22fc
 8493 2455 2D       		.uleb128 0x2d
 8494 2456 68080000 		.4byte	.LASF105
 8495 245a 01       		.byte	0x1
 8496 245b EB03     		.2byte	0x3eb
 8497 245d 67240000 		.4byte	0x2467
 8498 2461 05       		.uleb128 0x5
 8499 2462 03       		.byte	0x3
 8500 2463 18020000 		.4byte	u8x8_d_nt7534_tg12864r_init_seq
 8501 2467 0E       		.uleb128 0xe
 8502 2468 22230000 		.4byte	0x2322
 8503 246c 2D       		.uleb128 0x2d
 8504 246d 88080000 		.4byte	.LASF106
 8505 2471 01       		.byte	0x1
 8506 2472 3004     		.2byte	0x430
 8507 2474 86030000 		.4byte	0x386
 8508 2478 05       		.uleb128 0x5
 8509 2479 03       		.byte	0x3
 8510 247a 38020000 		.4byte	u8x8_st7565_dogm132_display_info
ARM GAS  C:\Users\info\AppData\Local\Temp\ccQPGqkW.s 			page 179


 8511 247e 2D       		.uleb128 0x2d
 8512 247f 11030000 		.4byte	.LASF107
 8513 2483 01       		.byte	0x1
 8514 2484 4904     		.2byte	0x449
 8515 2486 90240000 		.4byte	0x2490
 8516 248a 05       		.uleb128 0x5
 8517 248b 03       		.byte	0x3
 8518 248c 50020000 		.4byte	u8x8_d_st7565_dogm132_init_seq
 8519 2490 0E       		.uleb128 0xe
 8520 2491 FC220000 		.4byte	0x22fc
 8521 2495 2E       		.uleb128 0x2e
 8522 2496 7F060000 		.4byte	.LASF108
 8523 249a 7F060000 		.4byte	.LASF108
 8524 249e 04       		.byte	0x4
 8525 249f 5902     		.2byte	0x259
 8526 24a1 2E       		.uleb128 0x2e
 8527 24a2 D5080000 		.4byte	.LASF109
 8528 24a6 D5080000 		.4byte	.LASF109
 8529 24aa 04       		.byte	0x4
 8530 24ab 5502     		.2byte	0x255
 8531 24ad 2E       		.uleb128 0x2e
 8532 24ae 6E030000 		.4byte	.LASF110
 8533 24b2 6E030000 		.4byte	.LASF110
 8534 24b6 04       		.byte	0x4
 8535 24b7 5802     		.2byte	0x258
 8536 24b9 2E       		.uleb128 0x2e
 8537 24ba 8F010000 		.4byte	.LASF111
 8538 24be 8F010000 		.4byte	.LASF111
 8539 24c2 04       		.byte	0x4
 8540 24c3 7802     		.2byte	0x278
 8541 24c5 2E       		.uleb128 0x2e
 8542 24c6 6E070000 		.4byte	.LASF112
 8543 24ca 6E070000 		.4byte	.LASF112
 8544 24ce 04       		.byte	0x4
 8545 24cf 5A02     		.2byte	0x25a
 8546 24d1 2E       		.uleb128 0x2e
 8547 24d2 55090000 		.4byte	.LASF113
 8548 24d6 55090000 		.4byte	.LASF113
 8549 24da 04       		.byte	0x4
 8550 24db 5602     		.2byte	0x256
 8551 24dd 2E       		.uleb128 0x2e
 8552 24de F5040000 		.4byte	.LASF114
 8553 24e2 F5040000 		.4byte	.LASF114
 8554 24e6 04       		.byte	0x4
 8555 24e7 A501     		.2byte	0x1a5
 8556 24e9 2E       		.uleb128 0x2e
 8557 24ea 58020000 		.4byte	.LASF115
 8558 24ee 58020000 		.4byte	.LASF115
 8559 24f2 04       		.byte	0x4
 8560 24f3 A401     		.2byte	0x1a4
 8561 24f5 00       		.byte	0
 8562              		.section	.debug_abbrev,"",%progbits
 8563              	.Ldebug_abbrev0:
 8564 0000 01       		.uleb128 0x1
 8565 0001 11       		.uleb128 0x11
 8566 0002 01       		.byte	0x1
 8567 0003 25       		.uleb128 0x25
ARM GAS  C:\Users\info\AppData\Local\Temp\ccQPGqkW.s 			page 180


 8568 0004 0E       		.uleb128 0xe
 8569 0005 13       		.uleb128 0x13
 8570 0006 0B       		.uleb128 0xb
 8571 0007 03       		.uleb128 0x3
 8572 0008 0E       		.uleb128 0xe
 8573 0009 1B       		.uleb128 0x1b
 8574 000a 0E       		.uleb128 0xe
 8575 000b 55       		.uleb128 0x55
 8576 000c 17       		.uleb128 0x17
 8577 000d 11       		.uleb128 0x11
 8578 000e 01       		.uleb128 0x1
 8579 000f 10       		.uleb128 0x10
 8580 0010 17       		.uleb128 0x17
 8581 0011 00       		.byte	0
 8582 0012 00       		.byte	0
 8583 0013 02       		.uleb128 0x2
 8584 0014 24       		.uleb128 0x24
 8585 0015 00       		.byte	0
 8586 0016 0B       		.uleb128 0xb
 8587 0017 0B       		.uleb128 0xb
 8588 0018 3E       		.uleb128 0x3e
 8589 0019 0B       		.uleb128 0xb
 8590 001a 03       		.uleb128 0x3
 8591 001b 0E       		.uleb128 0xe
 8592 001c 00       		.byte	0
 8593 001d 00       		.byte	0
 8594 001e 03       		.uleb128 0x3
 8595 001f 16       		.uleb128 0x16
 8596 0020 00       		.byte	0
 8597 0021 03       		.uleb128 0x3
 8598 0022 0E       		.uleb128 0xe
 8599 0023 3A       		.uleb128 0x3a
 8600 0024 0B       		.uleb128 0xb
 8601 0025 3B       		.uleb128 0x3b
 8602 0026 0B       		.uleb128 0xb
 8603 0027 49       		.uleb128 0x49
 8604 0028 13       		.uleb128 0x13
 8605 0029 00       		.byte	0
 8606 002a 00       		.byte	0
 8607 002b 04       		.uleb128 0x4
 8608 002c 24       		.uleb128 0x24
 8609 002d 00       		.byte	0
 8610 002e 0B       		.uleb128 0xb
 8611 002f 0B       		.uleb128 0xb
 8612 0030 3E       		.uleb128 0x3e
 8613 0031 0B       		.uleb128 0xb
 8614 0032 03       		.uleb128 0x3
 8615 0033 08       		.uleb128 0x8
 8616 0034 00       		.byte	0
 8617 0035 00       		.byte	0
 8618 0036 05       		.uleb128 0x5
 8619 0037 0F       		.uleb128 0xf
 8620 0038 00       		.byte	0
 8621 0039 0B       		.uleb128 0xb
 8622 003a 0B       		.uleb128 0xb
 8623 003b 00       		.byte	0
 8624 003c 00       		.byte	0
ARM GAS  C:\Users\info\AppData\Local\Temp\ccQPGqkW.s 			page 181


 8625 003d 06       		.uleb128 0x6
 8626 003e 13       		.uleb128 0x13
 8627 003f 01       		.byte	0x1
 8628 0040 03       		.uleb128 0x3
 8629 0041 0E       		.uleb128 0xe
 8630 0042 0B       		.uleb128 0xb
 8631 0043 0B       		.uleb128 0xb
 8632 0044 3A       		.uleb128 0x3a
 8633 0045 0B       		.uleb128 0xb
 8634 0046 3B       		.uleb128 0x3b
 8635 0047 05       		.uleb128 0x5
 8636 0048 01       		.uleb128 0x1
 8637 0049 13       		.uleb128 0x13
 8638 004a 00       		.byte	0
 8639 004b 00       		.byte	0
 8640 004c 07       		.uleb128 0x7
 8641 004d 0D       		.uleb128 0xd
 8642 004e 00       		.byte	0
 8643 004f 03       		.uleb128 0x3
 8644 0050 0E       		.uleb128 0xe
 8645 0051 3A       		.uleb128 0x3a
 8646 0052 0B       		.uleb128 0xb
 8647 0053 3B       		.uleb128 0x3b
 8648 0054 05       		.uleb128 0x5
 8649 0055 49       		.uleb128 0x49
 8650 0056 13       		.uleb128 0x13
 8651 0057 38       		.uleb128 0x38
 8652 0058 0B       		.uleb128 0xb
 8653 0059 00       		.byte	0
 8654 005a 00       		.byte	0
 8655 005b 08       		.uleb128 0x8
 8656 005c 13       		.uleb128 0x13
 8657 005d 01       		.byte	0x1
 8658 005e 03       		.uleb128 0x3
 8659 005f 0E       		.uleb128 0xe
 8660 0060 0B       		.uleb128 0xb
 8661 0061 0B       		.uleb128 0xb
 8662 0062 3A       		.uleb128 0x3a
 8663 0063 0B       		.uleb128 0xb
 8664 0064 3B       		.uleb128 0x3b
 8665 0065 0B       		.uleb128 0xb
 8666 0066 01       		.uleb128 0x1
 8667 0067 13       		.uleb128 0x13
 8668 0068 00       		.byte	0
 8669 0069 00       		.byte	0
 8670 006a 09       		.uleb128 0x9
 8671 006b 0D       		.uleb128 0xd
 8672 006c 00       		.byte	0
 8673 006d 03       		.uleb128 0x3
 8674 006e 0E       		.uleb128 0xe
 8675 006f 3A       		.uleb128 0x3a
 8676 0070 0B       		.uleb128 0xb
 8677 0071 3B       		.uleb128 0x3b
 8678 0072 0B       		.uleb128 0xb
 8679 0073 49       		.uleb128 0x49
 8680 0074 13       		.uleb128 0x13
 8681 0075 38       		.uleb128 0x38
ARM GAS  C:\Users\info\AppData\Local\Temp\ccQPGqkW.s 			page 182


 8682 0076 0B       		.uleb128 0xb
 8683 0077 00       		.byte	0
 8684 0078 00       		.byte	0
 8685 0079 0A       		.uleb128 0xa
 8686 007a 0D       		.uleb128 0xd
 8687 007b 00       		.byte	0
 8688 007c 03       		.uleb128 0x3
 8689 007d 08       		.uleb128 0x8
 8690 007e 3A       		.uleb128 0x3a
 8691 007f 0B       		.uleb128 0xb
 8692 0080 3B       		.uleb128 0x3b
 8693 0081 0B       		.uleb128 0xb
 8694 0082 49       		.uleb128 0x49
 8695 0083 13       		.uleb128 0x13
 8696 0084 38       		.uleb128 0x38
 8697 0085 0B       		.uleb128 0xb
 8698 0086 00       		.byte	0
 8699 0087 00       		.byte	0
 8700 0088 0B       		.uleb128 0xb
 8701 0089 0F       		.uleb128 0xf
 8702 008a 00       		.byte	0
 8703 008b 0B       		.uleb128 0xb
 8704 008c 0B       		.uleb128 0xb
 8705 008d 49       		.uleb128 0x49
 8706 008e 13       		.uleb128 0x13
 8707 008f 00       		.byte	0
 8708 0090 00       		.byte	0
 8709 0091 0C       		.uleb128 0xc
 8710 0092 15       		.uleb128 0x15
 8711 0093 01       		.byte	0x1
 8712 0094 27       		.uleb128 0x27
 8713 0095 19       		.uleb128 0x19
 8714 0096 49       		.uleb128 0x49
 8715 0097 13       		.uleb128 0x13
 8716 0098 01       		.uleb128 0x1
 8717 0099 13       		.uleb128 0x13
 8718 009a 00       		.byte	0
 8719 009b 00       		.byte	0
 8720 009c 0D       		.uleb128 0xd
 8721 009d 05       		.uleb128 0x5
 8722 009e 00       		.byte	0
 8723 009f 49       		.uleb128 0x49
 8724 00a0 13       		.uleb128 0x13
 8725 00a1 00       		.byte	0
 8726 00a2 00       		.byte	0
 8727 00a3 0E       		.uleb128 0xe
 8728 00a4 26       		.uleb128 0x26
 8729 00a5 00       		.byte	0
 8730 00a6 49       		.uleb128 0x49
 8731 00a7 13       		.uleb128 0x13
 8732 00a8 00       		.byte	0
 8733 00a9 00       		.byte	0
 8734 00aa 0F       		.uleb128 0xf
 8735 00ab 2E       		.uleb128 0x2e
 8736 00ac 01       		.byte	0x1
 8737 00ad 3F       		.uleb128 0x3f
 8738 00ae 19       		.uleb128 0x19
ARM GAS  C:\Users\info\AppData\Local\Temp\ccQPGqkW.s 			page 183


 8739 00af 03       		.uleb128 0x3
 8740 00b0 0E       		.uleb128 0xe
 8741 00b1 3A       		.uleb128 0x3a
 8742 00b2 0B       		.uleb128 0xb
 8743 00b3 3B       		.uleb128 0x3b
 8744 00b4 0B       		.uleb128 0xb
 8745 00b5 27       		.uleb128 0x27
 8746 00b6 19       		.uleb128 0x19
 8747 00b7 49       		.uleb128 0x49
 8748 00b8 13       		.uleb128 0x13
 8749 00b9 20       		.uleb128 0x20
 8750 00ba 0B       		.uleb128 0xb
 8751 00bb 01       		.uleb128 0x1
 8752 00bc 13       		.uleb128 0x13
 8753 00bd 00       		.byte	0
 8754 00be 00       		.byte	0
 8755 00bf 10       		.uleb128 0x10
 8756 00c0 05       		.uleb128 0x5
 8757 00c1 00       		.byte	0
 8758 00c2 03       		.uleb128 0x3
 8759 00c3 0E       		.uleb128 0xe
 8760 00c4 3A       		.uleb128 0x3a
 8761 00c5 0B       		.uleb128 0xb
 8762 00c6 3B       		.uleb128 0x3b
 8763 00c7 0B       		.uleb128 0xb
 8764 00c8 49       		.uleb128 0x49
 8765 00c9 13       		.uleb128 0x13
 8766 00ca 00       		.byte	0
 8767 00cb 00       		.byte	0
 8768 00cc 11       		.uleb128 0x11
 8769 00cd 05       		.uleb128 0x5
 8770 00ce 00       		.byte	0
 8771 00cf 03       		.uleb128 0x3
 8772 00d0 08       		.uleb128 0x8
 8773 00d1 3A       		.uleb128 0x3a
 8774 00d2 0B       		.uleb128 0xb
 8775 00d3 3B       		.uleb128 0x3b
 8776 00d4 0B       		.uleb128 0xb
 8777 00d5 49       		.uleb128 0x49
 8778 00d6 13       		.uleb128 0x13
 8779 00d7 00       		.byte	0
 8780 00d8 00       		.byte	0
 8781 00d9 12       		.uleb128 0x12
 8782 00da 34       		.uleb128 0x34
 8783 00db 00       		.byte	0
 8784 00dc 03       		.uleb128 0x3
 8785 00dd 08       		.uleb128 0x8
 8786 00de 3A       		.uleb128 0x3a
 8787 00df 0B       		.uleb128 0xb
 8788 00e0 3B       		.uleb128 0x3b
 8789 00e1 0B       		.uleb128 0xb
 8790 00e2 49       		.uleb128 0x49
 8791 00e3 13       		.uleb128 0x13
 8792 00e4 00       		.byte	0
 8793 00e5 00       		.byte	0
 8794 00e6 13       		.uleb128 0x13
 8795 00e7 2E       		.uleb128 0x2e
ARM GAS  C:\Users\info\AppData\Local\Temp\ccQPGqkW.s 			page 184


 8796 00e8 01       		.byte	0x1
 8797 00e9 3F       		.uleb128 0x3f
 8798 00ea 19       		.uleb128 0x19
 8799 00eb 03       		.uleb128 0x3
 8800 00ec 0E       		.uleb128 0xe
 8801 00ed 3A       		.uleb128 0x3a
 8802 00ee 0B       		.uleb128 0xb
 8803 00ef 3B       		.uleb128 0x3b
 8804 00f0 05       		.uleb128 0x5
 8805 00f1 27       		.uleb128 0x27
 8806 00f2 19       		.uleb128 0x19
 8807 00f3 49       		.uleb128 0x49
 8808 00f4 13       		.uleb128 0x13
 8809 00f5 20       		.uleb128 0x20
 8810 00f6 0B       		.uleb128 0xb
 8811 00f7 01       		.uleb128 0x1
 8812 00f8 13       		.uleb128 0x13
 8813 00f9 00       		.byte	0
 8814 00fa 00       		.byte	0
 8815 00fb 14       		.uleb128 0x14
 8816 00fc 05       		.uleb128 0x5
 8817 00fd 00       		.byte	0
 8818 00fe 03       		.uleb128 0x3
 8819 00ff 0E       		.uleb128 0xe
 8820 0100 3A       		.uleb128 0x3a
 8821 0101 0B       		.uleb128 0xb
 8822 0102 3B       		.uleb128 0x3b
 8823 0103 05       		.uleb128 0x5
 8824 0104 49       		.uleb128 0x49
 8825 0105 13       		.uleb128 0x13
 8826 0106 00       		.byte	0
 8827 0107 00       		.byte	0
 8828 0108 15       		.uleb128 0x15
 8829 0109 05       		.uleb128 0x5
 8830 010a 00       		.byte	0
 8831 010b 03       		.uleb128 0x3
 8832 010c 08       		.uleb128 0x8
 8833 010d 3A       		.uleb128 0x3a
 8834 010e 0B       		.uleb128 0xb
 8835 010f 3B       		.uleb128 0x3b
 8836 0110 05       		.uleb128 0x5
 8837 0111 49       		.uleb128 0x49
 8838 0112 13       		.uleb128 0x13
 8839 0113 00       		.byte	0
 8840 0114 00       		.byte	0
 8841 0115 16       		.uleb128 0x16
 8842 0116 2E       		.uleb128 0x2e
 8843 0117 01       		.byte	0x1
 8844 0118 31       		.uleb128 0x31
 8845 0119 13       		.uleb128 0x13
 8846 011a 11       		.uleb128 0x11
 8847 011b 01       		.uleb128 0x1
 8848 011c 12       		.uleb128 0x12
 8849 011d 06       		.uleb128 0x6
 8850 011e 40       		.uleb128 0x40
 8851 011f 18       		.uleb128 0x18
 8852 0120 9742     		.uleb128 0x2117
ARM GAS  C:\Users\info\AppData\Local\Temp\ccQPGqkW.s 			page 185


 8853 0122 19       		.uleb128 0x19
 8854 0123 01       		.uleb128 0x1
 8855 0124 13       		.uleb128 0x13
 8856 0125 00       		.byte	0
 8857 0126 00       		.byte	0
 8858 0127 17       		.uleb128 0x17
 8859 0128 05       		.uleb128 0x5
 8860 0129 00       		.byte	0
 8861 012a 31       		.uleb128 0x31
 8862 012b 13       		.uleb128 0x13
 8863 012c 02       		.uleb128 0x2
 8864 012d 17       		.uleb128 0x17
 8865 012e 00       		.byte	0
 8866 012f 00       		.byte	0
 8867 0130 18       		.uleb128 0x18
 8868 0131 34       		.uleb128 0x34
 8869 0132 00       		.byte	0
 8870 0133 31       		.uleb128 0x31
 8871 0134 13       		.uleb128 0x13
 8872 0135 00       		.byte	0
 8873 0136 00       		.byte	0
 8874 0137 19       		.uleb128 0x19
 8875 0138 0B       		.uleb128 0xb
 8876 0139 01       		.byte	0x1
 8877 013a 11       		.uleb128 0x11
 8878 013b 01       		.uleb128 0x1
 8879 013c 12       		.uleb128 0x12
 8880 013d 06       		.uleb128 0x6
 8881 013e 01       		.uleb128 0x1
 8882 013f 13       		.uleb128 0x13
 8883 0140 00       		.byte	0
 8884 0141 00       		.byte	0
 8885 0142 1A       		.uleb128 0x1a
 8886 0143 0B       		.uleb128 0xb
 8887 0144 01       		.byte	0x1
 8888 0145 11       		.uleb128 0x11
 8889 0146 01       		.uleb128 0x1
 8890 0147 12       		.uleb128 0x12
 8891 0148 06       		.uleb128 0x6
 8892 0149 00       		.byte	0
 8893 014a 00       		.byte	0
 8894 014b 1B       		.uleb128 0x1b
 8895 014c 34       		.uleb128 0x34
 8896 014d 00       		.byte	0
 8897 014e 31       		.uleb128 0x31
 8898 014f 13       		.uleb128 0x13
 8899 0150 02       		.uleb128 0x2
 8900 0151 17       		.uleb128 0x17
 8901 0152 00       		.byte	0
 8902 0153 00       		.byte	0
 8903 0154 1C       		.uleb128 0x1c
 8904 0155 898201   		.uleb128 0x4109
 8905 0158 00       		.byte	0
 8906 0159 11       		.uleb128 0x11
 8907 015a 01       		.uleb128 0x1
 8908 015b 31       		.uleb128 0x31
 8909 015c 13       		.uleb128 0x13
ARM GAS  C:\Users\info\AppData\Local\Temp\ccQPGqkW.s 			page 186


 8910 015d 00       		.byte	0
 8911 015e 00       		.byte	0
 8912 015f 1D       		.uleb128 0x1d
 8913 0160 898201   		.uleb128 0x4109
 8914 0163 01       		.byte	0x1
 8915 0164 11       		.uleb128 0x11
 8916 0165 01       		.uleb128 0x1
 8917 0166 31       		.uleb128 0x31
 8918 0167 13       		.uleb128 0x13
 8919 0168 01       		.uleb128 0x1
 8920 0169 13       		.uleb128 0x13
 8921 016a 00       		.byte	0
 8922 016b 00       		.byte	0
 8923 016c 1E       		.uleb128 0x1e
 8924 016d 8A8201   		.uleb128 0x410a
 8925 0170 00       		.byte	0
 8926 0171 02       		.uleb128 0x2
 8927 0172 18       		.uleb128 0x18
 8928 0173 9142     		.uleb128 0x2111
 8929 0175 18       		.uleb128 0x18
 8930 0176 00       		.byte	0
 8931 0177 00       		.byte	0
 8932 0178 1F       		.uleb128 0x1f
 8933 0179 898201   		.uleb128 0x4109
 8934 017c 01       		.byte	0x1
 8935 017d 11       		.uleb128 0x11
 8936 017e 01       		.uleb128 0x1
 8937 017f 31       		.uleb128 0x31
 8938 0180 13       		.uleb128 0x13
 8939 0181 00       		.byte	0
 8940 0182 00       		.byte	0
 8941 0183 20       		.uleb128 0x20
 8942 0184 2E       		.uleb128 0x2e
 8943 0185 01       		.byte	0x1
 8944 0186 3F       		.uleb128 0x3f
 8945 0187 19       		.uleb128 0x19
 8946 0188 03       		.uleb128 0x3
 8947 0189 0E       		.uleb128 0xe
 8948 018a 3A       		.uleb128 0x3a
 8949 018b 0B       		.uleb128 0xb
 8950 018c 3B       		.uleb128 0x3b
 8951 018d 0B       		.uleb128 0xb
 8952 018e 27       		.uleb128 0x27
 8953 018f 19       		.uleb128 0x19
 8954 0190 49       		.uleb128 0x49
 8955 0191 13       		.uleb128 0x13
 8956 0192 11       		.uleb128 0x11
 8957 0193 01       		.uleb128 0x1
 8958 0194 12       		.uleb128 0x12
 8959 0195 06       		.uleb128 0x6
 8960 0196 40       		.uleb128 0x40
 8961 0197 18       		.uleb128 0x18
 8962 0198 9742     		.uleb128 0x2117
 8963 019a 19       		.uleb128 0x19
 8964 019b 01       		.uleb128 0x1
 8965 019c 13       		.uleb128 0x13
 8966 019d 00       		.byte	0
ARM GAS  C:\Users\info\AppData\Local\Temp\ccQPGqkW.s 			page 187


 8967 019e 00       		.byte	0
 8968 019f 21       		.uleb128 0x21
 8969 01a0 05       		.uleb128 0x5
 8970 01a1 00       		.byte	0
 8971 01a2 03       		.uleb128 0x3
 8972 01a3 0E       		.uleb128 0xe
 8973 01a4 3A       		.uleb128 0x3a
 8974 01a5 0B       		.uleb128 0xb
 8975 01a6 3B       		.uleb128 0x3b
 8976 01a7 0B       		.uleb128 0xb
 8977 01a8 49       		.uleb128 0x49
 8978 01a9 13       		.uleb128 0x13
 8979 01aa 02       		.uleb128 0x2
 8980 01ab 17       		.uleb128 0x17
 8981 01ac 00       		.byte	0
 8982 01ad 00       		.byte	0
 8983 01ae 22       		.uleb128 0x22
 8984 01af 05       		.uleb128 0x5
 8985 01b0 00       		.byte	0
 8986 01b1 03       		.uleb128 0x3
 8987 01b2 08       		.uleb128 0x8
 8988 01b3 3A       		.uleb128 0x3a
 8989 01b4 0B       		.uleb128 0xb
 8990 01b5 3B       		.uleb128 0x3b
 8991 01b6 0B       		.uleb128 0xb
 8992 01b7 49       		.uleb128 0x49
 8993 01b8 13       		.uleb128 0x13
 8994 01b9 02       		.uleb128 0x2
 8995 01ba 17       		.uleb128 0x17
 8996 01bb 00       		.byte	0
 8997 01bc 00       		.byte	0
 8998 01bd 23       		.uleb128 0x23
 8999 01be 1D       		.uleb128 0x1d
 9000 01bf 01       		.byte	0x1
 9001 01c0 31       		.uleb128 0x31
 9002 01c1 13       		.uleb128 0x13
 9003 01c2 52       		.uleb128 0x52
 9004 01c3 01       		.uleb128 0x1
 9005 01c4 55       		.uleb128 0x55
 9006 01c5 17       		.uleb128 0x17
 9007 01c6 58       		.uleb128 0x58
 9008 01c7 0B       		.uleb128 0xb
 9009 01c8 59       		.uleb128 0x59
 9010 01c9 0B       		.uleb128 0xb
 9011 01ca 01       		.uleb128 0x1
 9012 01cb 13       		.uleb128 0x13
 9013 01cc 00       		.byte	0
 9014 01cd 00       		.byte	0
 9015 01ce 24       		.uleb128 0x24
 9016 01cf 0B       		.uleb128 0xb
 9017 01d0 01       		.byte	0x1
 9018 01d1 55       		.uleb128 0x55
 9019 01d2 17       		.uleb128 0x17
 9020 01d3 00       		.byte	0
 9021 01d4 00       		.byte	0
 9022 01d5 25       		.uleb128 0x25
 9023 01d6 2E       		.uleb128 0x2e
ARM GAS  C:\Users\info\AppData\Local\Temp\ccQPGqkW.s 			page 188


 9024 01d7 01       		.byte	0x1
 9025 01d8 3F       		.uleb128 0x3f
 9026 01d9 19       		.uleb128 0x19
 9027 01da 03       		.uleb128 0x3
 9028 01db 0E       		.uleb128 0xe
 9029 01dc 3A       		.uleb128 0x3a
 9030 01dd 0B       		.uleb128 0xb
 9031 01de 3B       		.uleb128 0x3b
 9032 01df 05       		.uleb128 0x5
 9033 01e0 27       		.uleb128 0x27
 9034 01e1 19       		.uleb128 0x19
 9035 01e2 49       		.uleb128 0x49
 9036 01e3 13       		.uleb128 0x13
 9037 01e4 11       		.uleb128 0x11
 9038 01e5 01       		.uleb128 0x1
 9039 01e6 12       		.uleb128 0x12
 9040 01e7 06       		.uleb128 0x6
 9041 01e8 40       		.uleb128 0x40
 9042 01e9 18       		.uleb128 0x18
 9043 01ea 9742     		.uleb128 0x2117
 9044 01ec 19       		.uleb128 0x19
 9045 01ed 01       		.uleb128 0x1
 9046 01ee 13       		.uleb128 0x13
 9047 01ef 00       		.byte	0
 9048 01f0 00       		.byte	0
 9049 01f1 26       		.uleb128 0x26
 9050 01f2 05       		.uleb128 0x5
 9051 01f3 00       		.byte	0
 9052 01f4 03       		.uleb128 0x3
 9053 01f5 0E       		.uleb128 0xe
 9054 01f6 3A       		.uleb128 0x3a
 9055 01f7 0B       		.uleb128 0xb
 9056 01f8 3B       		.uleb128 0x3b
 9057 01f9 05       		.uleb128 0x5
 9058 01fa 49       		.uleb128 0x49
 9059 01fb 13       		.uleb128 0x13
 9060 01fc 02       		.uleb128 0x2
 9061 01fd 17       		.uleb128 0x17
 9062 01fe 00       		.byte	0
 9063 01ff 00       		.byte	0
 9064 0200 27       		.uleb128 0x27
 9065 0201 05       		.uleb128 0x5
 9066 0202 00       		.byte	0
 9067 0203 03       		.uleb128 0x3
 9068 0204 08       		.uleb128 0x8
 9069 0205 3A       		.uleb128 0x3a
 9070 0206 0B       		.uleb128 0xb
 9071 0207 3B       		.uleb128 0x3b
 9072 0208 05       		.uleb128 0x5
 9073 0209 49       		.uleb128 0x49
 9074 020a 13       		.uleb128 0x13
 9075 020b 02       		.uleb128 0x2
 9076 020c 17       		.uleb128 0x17
 9077 020d 00       		.byte	0
 9078 020e 00       		.byte	0
 9079 020f 28       		.uleb128 0x28
 9080 0210 1D       		.uleb128 0x1d
ARM GAS  C:\Users\info\AppData\Local\Temp\ccQPGqkW.s 			page 189


 9081 0211 01       		.byte	0x1
 9082 0212 31       		.uleb128 0x31
 9083 0213 13       		.uleb128 0x13
 9084 0214 52       		.uleb128 0x52
 9085 0215 01       		.uleb128 0x1
 9086 0216 55       		.uleb128 0x55
 9087 0217 17       		.uleb128 0x17
 9088 0218 58       		.uleb128 0x58
 9089 0219 0B       		.uleb128 0xb
 9090 021a 59       		.uleb128 0x59
 9091 021b 05       		.uleb128 0x5
 9092 021c 01       		.uleb128 0x1
 9093 021d 13       		.uleb128 0x13
 9094 021e 00       		.byte	0
 9095 021f 00       		.byte	0
 9096 0220 29       		.uleb128 0x29
 9097 0221 1D       		.uleb128 0x1d
 9098 0222 01       		.byte	0x1
 9099 0223 31       		.uleb128 0x31
 9100 0224 13       		.uleb128 0x13
 9101 0225 52       		.uleb128 0x52
 9102 0226 01       		.uleb128 0x1
 9103 0227 55       		.uleb128 0x55
 9104 0228 17       		.uleb128 0x17
 9105 0229 58       		.uleb128 0x58
 9106 022a 0B       		.uleb128 0xb
 9107 022b 59       		.uleb128 0x59
 9108 022c 05       		.uleb128 0x5
 9109 022d 00       		.byte	0
 9110 022e 00       		.byte	0
 9111 022f 2A       		.uleb128 0x2a
 9112 0230 01       		.uleb128 0x1
 9113 0231 01       		.byte	0x1
 9114 0232 49       		.uleb128 0x49
 9115 0233 13       		.uleb128 0x13
 9116 0234 01       		.uleb128 0x1
 9117 0235 13       		.uleb128 0x13
 9118 0236 00       		.byte	0
 9119 0237 00       		.byte	0
 9120 0238 2B       		.uleb128 0x2b
 9121 0239 21       		.uleb128 0x21
 9122 023a 00       		.byte	0
 9123 023b 49       		.uleb128 0x49
 9124 023c 13       		.uleb128 0x13
 9125 023d 2F       		.uleb128 0x2f
 9126 023e 0B       		.uleb128 0xb
 9127 023f 00       		.byte	0
 9128 0240 00       		.byte	0
 9129 0241 2C       		.uleb128 0x2c
 9130 0242 34       		.uleb128 0x34
 9131 0243 00       		.byte	0
 9132 0244 03       		.uleb128 0x3
 9133 0245 0E       		.uleb128 0xe
 9134 0246 3A       		.uleb128 0x3a
 9135 0247 0B       		.uleb128 0xb
 9136 0248 3B       		.uleb128 0x3b
 9137 0249 0B       		.uleb128 0xb
ARM GAS  C:\Users\info\AppData\Local\Temp\ccQPGqkW.s 			page 190


 9138 024a 49       		.uleb128 0x49
 9139 024b 13       		.uleb128 0x13
 9140 024c 02       		.uleb128 0x2
 9141 024d 18       		.uleb128 0x18
 9142 024e 00       		.byte	0
 9143 024f 00       		.byte	0
 9144 0250 2D       		.uleb128 0x2d
 9145 0251 34       		.uleb128 0x34
 9146 0252 00       		.byte	0
 9147 0253 03       		.uleb128 0x3
 9148 0254 0E       		.uleb128 0xe
 9149 0255 3A       		.uleb128 0x3a
 9150 0256 0B       		.uleb128 0xb
 9151 0257 3B       		.uleb128 0x3b
 9152 0258 05       		.uleb128 0x5
 9153 0259 49       		.uleb128 0x49
 9154 025a 13       		.uleb128 0x13
 9155 025b 02       		.uleb128 0x2
 9156 025c 18       		.uleb128 0x18
 9157 025d 00       		.byte	0
 9158 025e 00       		.byte	0
 9159 025f 2E       		.uleb128 0x2e
 9160 0260 2E       		.uleb128 0x2e
 9161 0261 00       		.byte	0
 9162 0262 3F       		.uleb128 0x3f
 9163 0263 19       		.uleb128 0x19
 9164 0264 3C       		.uleb128 0x3c
 9165 0265 19       		.uleb128 0x19
 9166 0266 6E       		.uleb128 0x6e
 9167 0267 0E       		.uleb128 0xe
 9168 0268 03       		.uleb128 0x3
 9169 0269 0E       		.uleb128 0xe
 9170 026a 3A       		.uleb128 0x3a
 9171 026b 0B       		.uleb128 0xb
 9172 026c 3B       		.uleb128 0x3b
 9173 026d 05       		.uleb128 0x5
 9174 026e 00       		.byte	0
 9175 026f 00       		.byte	0
 9176 0270 00       		.byte	0
 9177              		.section	.debug_loc,"",%progbits
 9178              	.Ldebug_loc0:
 9179              	.LLST0:
 9180 0000 00000000 		.4byte	.LVL0
 9181 0004 16000000 		.4byte	.LVL1
 9182 0008 0100     		.2byte	0x1
 9183 000a 50       		.byte	0x50
 9184 000b 16000000 		.4byte	.LVL1
 9185 000f 1A000000 		.4byte	.LVL2
 9186 0013 0100     		.2byte	0x1
 9187 0015 55       		.byte	0x55
 9188 0016 1A000000 		.4byte	.LVL2
 9189 001a 23000000 		.4byte	.LVL4-1
 9190 001e 0100     		.2byte	0x1
 9191 0020 50       		.byte	0x50
 9192 0021 23000000 		.4byte	.LVL4-1
 9193 0025 2A000000 		.4byte	.LVL5
 9194 0029 0100     		.2byte	0x1
ARM GAS  C:\Users\info\AppData\Local\Temp\ccQPGqkW.s 			page 191


 9195 002b 55       		.byte	0x55
 9196 002c 2A000000 		.4byte	.LVL5
 9197 0030 2F000000 		.4byte	.LVL7-1
 9198 0034 0100     		.2byte	0x1
 9199 0036 50       		.byte	0x50
 9200 0037 2F000000 		.4byte	.LVL7-1
 9201 003b 98000000 		.4byte	.LVL23
 9202 003f 0100     		.2byte	0x1
 9203 0041 55       		.byte	0x55
 9204 0042 98000000 		.4byte	.LVL23
 9205 0046 9B000000 		.4byte	.LVL24-1
 9206 004a 0100     		.2byte	0x1
 9207 004c 50       		.byte	0x50
 9208 004d 9B000000 		.4byte	.LVL24-1
 9209 0051 B8000000 		.4byte	.LVL28
 9210 0055 0100     		.2byte	0x1
 9211 0057 55       		.byte	0x55
 9212 0058 B8000000 		.4byte	.LVL28
 9213 005c BD000000 		.4byte	.LVL30-1
 9214 0060 0100     		.2byte	0x1
 9215 0062 50       		.byte	0x50
 9216 0063 BD000000 		.4byte	.LVL30-1
 9217 0067 C4000000 		.4byte	.LVL31
 9218 006b 0100     		.2byte	0x1
 9219 006d 55       		.byte	0x55
 9220 006e C4000000 		.4byte	.LVL31
 9221 0072 CC000000 		.4byte	.LFE0
 9222 0076 0400     		.2byte	0x4
 9223 0078 F3       		.byte	0xf3
 9224 0079 01       		.uleb128 0x1
 9225 007a 50       		.byte	0x50
 9226 007b 9F       		.byte	0x9f
 9227 007c 00000000 		.4byte	0
 9228 0080 00000000 		.4byte	0
 9229              	.LLST1:
 9230 0084 00000000 		.4byte	.LVL0
 9231 0088 20000000 		.4byte	.LVL3
 9232 008c 0100     		.2byte	0x1
 9233 008e 51       		.byte	0x51
 9234 008f 20000000 		.4byte	.LVL3
 9235 0093 2A000000 		.4byte	.LVL5
 9236 0097 0400     		.2byte	0x4
 9237 0099 F3       		.byte	0xf3
 9238 009a 01       		.uleb128 0x1
 9239 009b 51       		.byte	0x51
 9240 009c 9F       		.byte	0x9f
 9241 009d 2A000000 		.4byte	.LVL5
 9242 00a1 2F000000 		.4byte	.LVL7-1
 9243 00a5 0100     		.2byte	0x1
 9244 00a7 51       		.byte	0x51
 9245 00a8 2F000000 		.4byte	.LVL7-1
 9246 00ac 98000000 		.4byte	.LVL23
 9247 00b0 0400     		.2byte	0x4
 9248 00b2 F3       		.byte	0xf3
 9249 00b3 01       		.uleb128 0x1
 9250 00b4 51       		.byte	0x51
 9251 00b5 9F       		.byte	0x9f
ARM GAS  C:\Users\info\AppData\Local\Temp\ccQPGqkW.s 			page 192


 9252 00b6 98000000 		.4byte	.LVL23
 9253 00ba 9B000000 		.4byte	.LVL24-1
 9254 00be 0100     		.2byte	0x1
 9255 00c0 51       		.byte	0x51
 9256 00c1 9B000000 		.4byte	.LVL24-1
 9257 00c5 B8000000 		.4byte	.LVL28
 9258 00c9 0400     		.2byte	0x4
 9259 00cb F3       		.byte	0xf3
 9260 00cc 01       		.uleb128 0x1
 9261 00cd 51       		.byte	0x51
 9262 00ce 9F       		.byte	0x9f
 9263 00cf B8000000 		.4byte	.LVL28
 9264 00d3 BA000000 		.4byte	.LVL29
 9265 00d7 0100     		.2byte	0x1
 9266 00d9 51       		.byte	0x51
 9267 00da BA000000 		.4byte	.LVL29
 9268 00de CC000000 		.4byte	.LFE0
 9269 00e2 0400     		.2byte	0x4
 9270 00e4 F3       		.byte	0xf3
 9271 00e5 01       		.uleb128 0x1
 9272 00e6 51       		.byte	0x51
 9273 00e7 9F       		.byte	0x9f
 9274 00e8 00000000 		.4byte	0
 9275 00ec 00000000 		.4byte	0
 9276              	.LLST2:
 9277 00f0 00000000 		.4byte	.LVL0
 9278 00f4 23000000 		.4byte	.LVL4-1
 9279 00f8 0100     		.2byte	0x1
 9280 00fa 52       		.byte	0x52
 9281 00fb 23000000 		.4byte	.LVL4-1
 9282 00ff 2A000000 		.4byte	.LVL5
 9283 0103 0400     		.2byte	0x4
 9284 0105 F3       		.byte	0xf3
 9285 0106 01       		.uleb128 0x1
 9286 0107 52       		.byte	0x52
 9287 0108 9F       		.byte	0x9f
 9288 0109 2A000000 		.4byte	.LVL5
 9289 010d 2F000000 		.4byte	.LVL7-1
 9290 0111 0100     		.2byte	0x1
 9291 0113 52       		.byte	0x52
 9292 0114 2F000000 		.4byte	.LVL7-1
 9293 0118 98000000 		.4byte	.LVL23
 9294 011c 0400     		.2byte	0x4
 9295 011e F3       		.byte	0xf3
 9296 011f 01       		.uleb128 0x1
 9297 0120 52       		.byte	0x52
 9298 0121 9F       		.byte	0x9f
 9299 0122 98000000 		.4byte	.LVL23
 9300 0126 9B000000 		.4byte	.LVL24-1
 9301 012a 0100     		.2byte	0x1
 9302 012c 52       		.byte	0x52
 9303 012d 9B000000 		.4byte	.LVL24-1
 9304 0131 B8000000 		.4byte	.LVL28
 9305 0135 0400     		.2byte	0x4
 9306 0137 F3       		.byte	0xf3
 9307 0138 01       		.uleb128 0x1
 9308 0139 52       		.byte	0x52
ARM GAS  C:\Users\info\AppData\Local\Temp\ccQPGqkW.s 			page 193


 9309 013a 9F       		.byte	0x9f
 9310 013b B8000000 		.4byte	.LVL28
 9311 013f BD000000 		.4byte	.LVL30-1
 9312 0143 0100     		.2byte	0x1
 9313 0145 52       		.byte	0x52
 9314 0146 BD000000 		.4byte	.LVL30-1
 9315 014a CC000000 		.4byte	.LFE0
 9316 014e 0400     		.2byte	0x4
 9317 0150 F3       		.byte	0xf3
 9318 0151 01       		.uleb128 0x1
 9319 0152 52       		.byte	0x52
 9320 0153 9F       		.byte	0x9f
 9321 0154 00000000 		.4byte	0
 9322 0158 00000000 		.4byte	0
 9323              	.LLST3:
 9324 015c 00000000 		.4byte	.LVL0
 9325 0160 23000000 		.4byte	.LVL4-1
 9326 0164 0100     		.2byte	0x1
 9327 0166 53       		.byte	0x53
 9328 0167 23000000 		.4byte	.LVL4-1
 9329 016b 2A000000 		.4byte	.LVL5
 9330 016f 0400     		.2byte	0x4
 9331 0171 F3       		.byte	0xf3
 9332 0172 01       		.uleb128 0x1
 9333 0173 53       		.byte	0x53
 9334 0174 9F       		.byte	0x9f
 9335 0175 2A000000 		.4byte	.LVL5
 9336 0179 2F000000 		.4byte	.LVL7-1
 9337 017d 0100     		.2byte	0x1
 9338 017f 53       		.byte	0x53
 9339 0180 2F000000 		.4byte	.LVL7-1
 9340 0184 68000000 		.4byte	.LVL15
 9341 0188 0100     		.2byte	0x1
 9342 018a 57       		.byte	0x57
 9343 018b 68000000 		.4byte	.LVL15
 9344 018f 98000000 		.4byte	.LVL23
 9345 0193 0400     		.2byte	0x4
 9346 0195 F3       		.byte	0xf3
 9347 0196 01       		.uleb128 0x1
 9348 0197 53       		.byte	0x53
 9349 0198 9F       		.byte	0x9f
 9350 0199 98000000 		.4byte	.LVL23
 9351 019d 9B000000 		.4byte	.LVL24-1
 9352 01a1 0100     		.2byte	0x1
 9353 01a3 53       		.byte	0x53
 9354 01a4 9B000000 		.4byte	.LVL24-1
 9355 01a8 B8000000 		.4byte	.LVL28
 9356 01ac 0400     		.2byte	0x4
 9357 01ae F3       		.byte	0xf3
 9358 01af 01       		.uleb128 0x1
 9359 01b0 53       		.byte	0x53
 9360 01b1 9F       		.byte	0x9f
 9361 01b2 B8000000 		.4byte	.LVL28
 9362 01b6 BD000000 		.4byte	.LVL30-1
 9363 01ba 0100     		.2byte	0x1
 9364 01bc 53       		.byte	0x53
 9365 01bd BD000000 		.4byte	.LVL30-1
ARM GAS  C:\Users\info\AppData\Local\Temp\ccQPGqkW.s 			page 194


 9366 01c1 CC000000 		.4byte	.LFE0
 9367 01c5 0400     		.2byte	0x4
 9368 01c7 F3       		.byte	0xf3
 9369 01c8 01       		.uleb128 0x1
 9370 01c9 53       		.byte	0x53
 9371 01ca 9F       		.byte	0x9f
 9372 01cb 00000000 		.4byte	0
 9373 01cf 00000000 		.4byte	0
 9374              	.LLST4:
 9375 01d3 2C000000 		.4byte	.LVL6
 9376 01d7 98000000 		.4byte	.LVL23
 9377 01db 0200     		.2byte	0x2
 9378 01dd 3F       		.byte	0x3f
 9379 01de 9F       		.byte	0x9f
 9380 01df 00000000 		.4byte	0
 9381 01e3 00000000 		.4byte	0
 9382              	.LLST5:
 9383 01e7 2C000000 		.4byte	.LVL6
 9384 01eb 68000000 		.4byte	.LVL15
 9385 01ef 0100     		.2byte	0x1
 9386 01f1 57       		.byte	0x57
 9387 01f2 68000000 		.4byte	.LVL15
 9388 01f6 98000000 		.4byte	.LVL23
 9389 01fa 0400     		.2byte	0x4
 9390 01fc F3       		.byte	0xf3
 9391 01fd 01       		.uleb128 0x1
 9392 01fe 53       		.byte	0x53
 9393 01ff 9F       		.byte	0x9f
 9394 0200 00000000 		.4byte	0
 9395 0204 00000000 		.4byte	0
 9396              	.LLST6:
 9397 0208 2A000000 		.4byte	.LVL5
 9398 020c 86000000 		.4byte	.LVL21
 9399 0210 0100     		.2byte	0x1
 9400 0212 54       		.byte	0x54
 9401 0213 86000000 		.4byte	.LVL21
 9402 0217 91000000 		.4byte	.LVL22-1
 9403 021b 0100     		.2byte	0x1
 9404 021d 52       		.byte	0x52
 9405 021e 00000000 		.4byte	0
 9406 0222 00000000 		.4byte	0
 9407              	.LLST7:
 9408 0226 2A000000 		.4byte	.LVL5
 9409 022a 2F000000 		.4byte	.LVL7-1
 9410 022e 0100     		.2byte	0x1
 9411 0230 50       		.byte	0x50
 9412 0231 2F000000 		.4byte	.LVL7-1
 9413 0235 98000000 		.4byte	.LVL23
 9414 0239 0100     		.2byte	0x1
 9415 023b 55       		.byte	0x55
 9416 023c 00000000 		.4byte	0
 9417 0240 00000000 		.4byte	0
 9418              	.LLST8:
 9419 0244 38000000 		.4byte	.LVL8
 9420 0248 3E000000 		.4byte	.LVL9
 9421 024c 0800     		.2byte	0x8
 9422 024e 78       		.byte	0x78
ARM GAS  C:\Users\info\AppData\Local\Temp\ccQPGqkW.s 			page 195


 9423 024f 00       		.sleb128 0
 9424 0250 33       		.byte	0x33
 9425 0251 24       		.byte	0x24
 9426 0252 08       		.byte	0x8
 9427 0253 F8       		.byte	0xf8
 9428 0254 1A       		.byte	0x1a
 9429 0255 9F       		.byte	0x9f
 9430 0256 3E000000 		.4byte	.LVL9
 9431 025a 42000000 		.4byte	.LVL10
 9432 025e 0D00     		.2byte	0xd
 9433 0260 77       		.byte	0x77
 9434 0261 05       		.sleb128 5
 9435 0262 94       		.byte	0x94
 9436 0263 01       		.byte	0x1
 9437 0264 08       		.byte	0x8
 9438 0265 FF       		.byte	0xff
 9439 0266 1A       		.byte	0x1a
 9440 0267 33       		.byte	0x33
 9441 0268 24       		.byte	0x24
 9442 0269 08       		.byte	0x8
 9443 026a F8       		.byte	0xf8
 9444 026b 1A       		.byte	0x1a
 9445 026c 9F       		.byte	0x9f
 9446 026d 42000000 		.4byte	.LVL10
 9447 0271 98000000 		.4byte	.LVL23
 9448 0275 0100     		.2byte	0x1
 9449 0277 58       		.byte	0x58
 9450 0278 00000000 		.4byte	0
 9451 027c 00000000 		.4byte	0
 9452              	.LLST9:
 9453 0280 66000000 		.4byte	.LVL14
 9454 0284 6A000000 		.4byte	.LVL16
 9455 0288 0100     		.2byte	0x1
 9456 028a 56       		.byte	0x56
 9457 028b 6A000000 		.4byte	.LVL16
 9458 028f 6C000000 		.4byte	.LVL17
 9459 0293 0500     		.2byte	0x5
 9460 0295 F3       		.byte	0xf3
 9461 0296 01       		.uleb128 0x1
 9462 0297 53       		.byte	0x53
 9463 0298 23       		.byte	0x23
 9464 0299 04       		.uleb128 0x4
 9465 029a 6C000000 		.4byte	.LVL17
 9466 029e 72000000 		.4byte	.LVL18
 9467 02a2 0100     		.2byte	0x1
 9468 02a4 56       		.byte	0x56
 9469 02a5 72000000 		.4byte	.LVL18
 9470 02a9 7A000000 		.4byte	.LVL19
 9471 02ad 0300     		.2byte	0x3
 9472 02af 09       		.byte	0x9
 9473 02b0 84       		.byte	0x84
 9474 02b1 9F       		.byte	0x9f
 9475 02b2 7A000000 		.4byte	.LVL19
 9476 02b6 98000000 		.4byte	.LVL23
 9477 02ba 0100     		.2byte	0x1
 9478 02bc 56       		.byte	0x56
 9479 02bd 00000000 		.4byte	0
ARM GAS  C:\Users\info\AppData\Local\Temp\ccQPGqkW.s 			page 196


 9480 02c1 00000000 		.4byte	0
 9481              	.LLST10:
 9482 02c5 6C000000 		.4byte	.LVL17
 9483 02c9 98000000 		.4byte	.LVL23
 9484 02cd 0100     		.2byte	0x1
 9485 02cf 57       		.byte	0x57
 9486 02d0 00000000 		.4byte	0
 9487 02d4 00000000 		.4byte	0
 9488              	.LLST11:
 9489 02d8 00000000 		.4byte	.LVL32
 9490 02dc 22000000 		.4byte	.LVL35
 9491 02e0 0100     		.2byte	0x1
 9492 02e2 50       		.byte	0x50
 9493 02e3 22000000 		.4byte	.LVL35
 9494 02e7 26000000 		.4byte	.LVL36
 9495 02eb 0100     		.2byte	0x1
 9496 02ed 55       		.byte	0x55
 9497 02ee 26000000 		.4byte	.LVL36
 9498 02f2 2F000000 		.4byte	.LVL38-1
 9499 02f6 0100     		.2byte	0x1
 9500 02f8 50       		.byte	0x50
 9501 02f9 2F000000 		.4byte	.LVL38-1
 9502 02fd 36000000 		.4byte	.LVL39
 9503 0301 0100     		.2byte	0x1
 9504 0303 55       		.byte	0x55
 9505 0304 36000000 		.4byte	.LVL39
 9506 0308 3B000000 		.4byte	.LVL41-1
 9507 030c 0100     		.2byte	0x1
 9508 030e 50       		.byte	0x50
 9509 030f 3B000000 		.4byte	.LVL41-1
 9510 0313 A4000000 		.4byte	.LVL58
 9511 0317 0100     		.2byte	0x1
 9512 0319 55       		.byte	0x55
 9513 031a A4000000 		.4byte	.LVL58
 9514 031e A7000000 		.4byte	.LVL59-1
 9515 0322 0100     		.2byte	0x1
 9516 0324 50       		.byte	0x50
 9517 0325 A7000000 		.4byte	.LVL59-1
 9518 0329 BA000000 		.4byte	.LVL62
 9519 032d 0100     		.2byte	0x1
 9520 032f 55       		.byte	0x55
 9521 0330 BA000000 		.4byte	.LVL62
 9522 0334 BD000000 		.4byte	.LVL63-1
 9523 0338 0100     		.2byte	0x1
 9524 033a 50       		.byte	0x50
 9525 033b BD000000 		.4byte	.LVL63-1
 9526 033f CC000000 		.4byte	.LVL65
 9527 0343 0100     		.2byte	0x1
 9528 0345 55       		.byte	0x55
 9529 0346 CC000000 		.4byte	.LVL65
 9530 034a D1000000 		.4byte	.LVL67-1
 9531 034e 0100     		.2byte	0x1
 9532 0350 50       		.byte	0x50
 9533 0351 D1000000 		.4byte	.LVL67-1
 9534 0355 D8000000 		.4byte	.LVL68
 9535 0359 0100     		.2byte	0x1
 9536 035b 55       		.byte	0x55
ARM GAS  C:\Users\info\AppData\Local\Temp\ccQPGqkW.s 			page 197


 9537 035c D8000000 		.4byte	.LVL68
 9538 0360 DD000000 		.4byte	.LVL70-1
 9539 0364 0100     		.2byte	0x1
 9540 0366 50       		.byte	0x50
 9541 0367 DD000000 		.4byte	.LVL70-1
 9542 036b E4000000 		.4byte	.LVL71
 9543 036f 0100     		.2byte	0x1
 9544 0371 55       		.byte	0x55
 9545 0372 E4000000 		.4byte	.LVL71
 9546 0376 EB000000 		.4byte	.LVL73-1
 9547 037a 0100     		.2byte	0x1
 9548 037c 50       		.byte	0x50
 9549 037d EB000000 		.4byte	.LVL73-1
 9550 0381 FA000000 		.4byte	.LVL74
 9551 0385 0100     		.2byte	0x1
 9552 0387 55       		.byte	0x55
 9553 0388 FA000000 		.4byte	.LVL74
 9554 038c FF000000 		.4byte	.LVL76-1
 9555 0390 0100     		.2byte	0x1
 9556 0392 50       		.byte	0x50
 9557 0393 FF000000 		.4byte	.LVL76-1
 9558 0397 0E010000 		.4byte	.LVL77
 9559 039b 0100     		.2byte	0x1
 9560 039d 55       		.byte	0x55
 9561 039e 0E010000 		.4byte	.LVL77
 9562 03a2 28010000 		.4byte	.LFE1
 9563 03a6 0400     		.2byte	0x4
 9564 03a8 F3       		.byte	0xf3
 9565 03a9 01       		.uleb128 0x1
 9566 03aa 50       		.byte	0x50
 9567 03ab 9F       		.byte	0x9f
 9568 03ac 00000000 		.4byte	0
 9569 03b0 00000000 		.4byte	0
 9570              	.LLST12:
 9571 03b4 00000000 		.4byte	.LVL32
 9572 03b8 2C000000 		.4byte	.LVL37
 9573 03bc 0100     		.2byte	0x1
 9574 03be 51       		.byte	0x51
 9575 03bf 2C000000 		.4byte	.LVL37
 9576 03c3 36000000 		.4byte	.LVL39
 9577 03c7 0400     		.2byte	0x4
 9578 03c9 F3       		.byte	0xf3
 9579 03ca 01       		.uleb128 0x1
 9580 03cb 51       		.byte	0x51
 9581 03cc 9F       		.byte	0x9f
 9582 03cd 36000000 		.4byte	.LVL39
 9583 03d1 3B000000 		.4byte	.LVL41-1
 9584 03d5 0100     		.2byte	0x1
 9585 03d7 51       		.byte	0x51
 9586 03d8 3B000000 		.4byte	.LVL41-1
 9587 03dc A4000000 		.4byte	.LVL58
 9588 03e0 0400     		.2byte	0x4
 9589 03e2 F3       		.byte	0xf3
 9590 03e3 01       		.uleb128 0x1
 9591 03e4 51       		.byte	0x51
 9592 03e5 9F       		.byte	0x9f
 9593 03e6 A4000000 		.4byte	.LVL58
ARM GAS  C:\Users\info\AppData\Local\Temp\ccQPGqkW.s 			page 198


 9594 03ea A7000000 		.4byte	.LVL59-1
 9595 03ee 0100     		.2byte	0x1
 9596 03f0 51       		.byte	0x51
 9597 03f1 A7000000 		.4byte	.LVL59-1
 9598 03f5 BA000000 		.4byte	.LVL62
 9599 03f9 0400     		.2byte	0x4
 9600 03fb F3       		.byte	0xf3
 9601 03fc 01       		.uleb128 0x1
 9602 03fd 51       		.byte	0x51
 9603 03fe 9F       		.byte	0x9f
 9604 03ff BA000000 		.4byte	.LVL62
 9605 0403 BD000000 		.4byte	.LVL63-1
 9606 0407 0100     		.2byte	0x1
 9607 0409 51       		.byte	0x51
 9608 040a BD000000 		.4byte	.LVL63-1
 9609 040e CC000000 		.4byte	.LVL65
 9610 0412 0400     		.2byte	0x4
 9611 0414 F3       		.byte	0xf3
 9612 0415 01       		.uleb128 0x1
 9613 0416 51       		.byte	0x51
 9614 0417 9F       		.byte	0x9f
 9615 0418 CC000000 		.4byte	.LVL65
 9616 041c CE000000 		.4byte	.LVL66
 9617 0420 0100     		.2byte	0x1
 9618 0422 51       		.byte	0x51
 9619 0423 CE000000 		.4byte	.LVL66
 9620 0427 D8000000 		.4byte	.LVL68
 9621 042b 0400     		.2byte	0x4
 9622 042d F3       		.byte	0xf3
 9623 042e 01       		.uleb128 0x1
 9624 042f 51       		.byte	0x51
 9625 0430 9F       		.byte	0x9f
 9626 0431 D8000000 		.4byte	.LVL68
 9627 0435 DA000000 		.4byte	.LVL69
 9628 0439 0100     		.2byte	0x1
 9629 043b 51       		.byte	0x51
 9630 043c DA000000 		.4byte	.LVL69
 9631 0440 E4000000 		.4byte	.LVL71
 9632 0444 0400     		.2byte	0x4
 9633 0446 F3       		.byte	0xf3
 9634 0447 01       		.uleb128 0x1
 9635 0448 51       		.byte	0x51
 9636 0449 9F       		.byte	0x9f
 9637 044a E4000000 		.4byte	.LVL71
 9638 044e E8000000 		.4byte	.LVL72
 9639 0452 0100     		.2byte	0x1
 9640 0454 51       		.byte	0x51
 9641 0455 E8000000 		.4byte	.LVL72
 9642 0459 FA000000 		.4byte	.LVL74
 9643 045d 0400     		.2byte	0x4
 9644 045f F3       		.byte	0xf3
 9645 0460 01       		.uleb128 0x1
 9646 0461 51       		.byte	0x51
 9647 0462 9F       		.byte	0x9f
 9648 0463 FA000000 		.4byte	.LVL74
 9649 0467 FC000000 		.4byte	.LVL75
 9650 046b 0100     		.2byte	0x1
ARM GAS  C:\Users\info\AppData\Local\Temp\ccQPGqkW.s 			page 199


 9651 046d 51       		.byte	0x51
 9652 046e FC000000 		.4byte	.LVL75
 9653 0472 28010000 		.4byte	.LFE1
 9654 0476 0400     		.2byte	0x4
 9655 0478 F3       		.byte	0xf3
 9656 0479 01       		.uleb128 0x1
 9657 047a 51       		.byte	0x51
 9658 047b 9F       		.byte	0x9f
 9659 047c 00000000 		.4byte	0
 9660 0480 00000000 		.4byte	0
 9661              	.LLST13:
 9662 0484 00000000 		.4byte	.LVL32
 9663 0488 2F000000 		.4byte	.LVL38-1
 9664 048c 0100     		.2byte	0x1
 9665 048e 52       		.byte	0x52
 9666 048f 2F000000 		.4byte	.LVL38-1
 9667 0493 36000000 		.4byte	.LVL39
 9668 0497 0400     		.2byte	0x4
 9669 0499 F3       		.byte	0xf3
 9670 049a 01       		.uleb128 0x1
 9671 049b 52       		.byte	0x52
 9672 049c 9F       		.byte	0x9f
 9673 049d 36000000 		.4byte	.LVL39
 9674 04a1 3B000000 		.4byte	.LVL41-1
 9675 04a5 0100     		.2byte	0x1
 9676 04a7 52       		.byte	0x52
 9677 04a8 3B000000 		.4byte	.LVL41-1
 9678 04ac A4000000 		.4byte	.LVL58
 9679 04b0 0400     		.2byte	0x4
 9680 04b2 F3       		.byte	0xf3
 9681 04b3 01       		.uleb128 0x1
 9682 04b4 52       		.byte	0x52
 9683 04b5 9F       		.byte	0x9f
 9684 04b6 A4000000 		.4byte	.LVL58
 9685 04ba A7000000 		.4byte	.LVL59-1
 9686 04be 0100     		.2byte	0x1
 9687 04c0 52       		.byte	0x52
 9688 04c1 A7000000 		.4byte	.LVL59-1
 9689 04c5 BA000000 		.4byte	.LVL62
 9690 04c9 0400     		.2byte	0x4
 9691 04cb F3       		.byte	0xf3
 9692 04cc 01       		.uleb128 0x1
 9693 04cd 52       		.byte	0x52
 9694 04ce 9F       		.byte	0x9f
 9695 04cf BA000000 		.4byte	.LVL62
 9696 04d3 BD000000 		.4byte	.LVL63-1
 9697 04d7 0100     		.2byte	0x1
 9698 04d9 52       		.byte	0x52
 9699 04da BD000000 		.4byte	.LVL63-1
 9700 04de CC000000 		.4byte	.LVL65
 9701 04e2 0400     		.2byte	0x4
 9702 04e4 F3       		.byte	0xf3
 9703 04e5 01       		.uleb128 0x1
 9704 04e6 52       		.byte	0x52
 9705 04e7 9F       		.byte	0x9f
 9706 04e8 CC000000 		.4byte	.LVL65
 9707 04ec D1000000 		.4byte	.LVL67-1
ARM GAS  C:\Users\info\AppData\Local\Temp\ccQPGqkW.s 			page 200


 9708 04f0 0100     		.2byte	0x1
 9709 04f2 52       		.byte	0x52
 9710 04f3 D1000000 		.4byte	.LVL67-1
 9711 04f7 D8000000 		.4byte	.LVL68
 9712 04fb 0400     		.2byte	0x4
 9713 04fd F3       		.byte	0xf3
 9714 04fe 01       		.uleb128 0x1
 9715 04ff 52       		.byte	0x52
 9716 0500 9F       		.byte	0x9f
 9717 0501 D8000000 		.4byte	.LVL68
 9718 0505 DD000000 		.4byte	.LVL70-1
 9719 0509 0100     		.2byte	0x1
 9720 050b 52       		.byte	0x52
 9721 050c DD000000 		.4byte	.LVL70-1
 9722 0510 E4000000 		.4byte	.LVL71
 9723 0514 0400     		.2byte	0x4
 9724 0516 F3       		.byte	0xf3
 9725 0517 01       		.uleb128 0x1
 9726 0518 52       		.byte	0x52
 9727 0519 9F       		.byte	0x9f
 9728 051a E4000000 		.4byte	.LVL71
 9729 051e EB000000 		.4byte	.LVL73-1
 9730 0522 0100     		.2byte	0x1
 9731 0524 52       		.byte	0x52
 9732 0525 EB000000 		.4byte	.LVL73-1
 9733 0529 FA000000 		.4byte	.LVL74
 9734 052d 0400     		.2byte	0x4
 9735 052f F3       		.byte	0xf3
 9736 0530 01       		.uleb128 0x1
 9737 0531 52       		.byte	0x52
 9738 0532 9F       		.byte	0x9f
 9739 0533 FA000000 		.4byte	.LVL74
 9740 0537 FF000000 		.4byte	.LVL76-1
 9741 053b 0100     		.2byte	0x1
 9742 053d 52       		.byte	0x52
 9743 053e FF000000 		.4byte	.LVL76-1
 9744 0542 28010000 		.4byte	.LFE1
 9745 0546 0400     		.2byte	0x4
 9746 0548 F3       		.byte	0xf3
 9747 0549 01       		.uleb128 0x1
 9748 054a 52       		.byte	0x52
 9749 054b 9F       		.byte	0x9f
 9750 054c 00000000 		.4byte	0
 9751 0550 00000000 		.4byte	0
 9752              	.LLST14:
 9753 0554 00000000 		.4byte	.LVL32
 9754 0558 2F000000 		.4byte	.LVL38-1
 9755 055c 0100     		.2byte	0x1
 9756 055e 53       		.byte	0x53
 9757 055f 2F000000 		.4byte	.LVL38-1
 9758 0563 36000000 		.4byte	.LVL39
 9759 0567 0400     		.2byte	0x4
 9760 0569 F3       		.byte	0xf3
 9761 056a 01       		.uleb128 0x1
 9762 056b 53       		.byte	0x53
 9763 056c 9F       		.byte	0x9f
 9764 056d 36000000 		.4byte	.LVL39
ARM GAS  C:\Users\info\AppData\Local\Temp\ccQPGqkW.s 			page 201


 9765 0571 3B000000 		.4byte	.LVL41-1
 9766 0575 0100     		.2byte	0x1
 9767 0577 53       		.byte	0x53
 9768 0578 3B000000 		.4byte	.LVL41-1
 9769 057c 74000000 		.4byte	.LVL49
 9770 0580 0100     		.2byte	0x1
 9771 0582 57       		.byte	0x57
 9772 0583 74000000 		.4byte	.LVL49
 9773 0587 A4000000 		.4byte	.LVL58
 9774 058b 0400     		.2byte	0x4
 9775 058d F3       		.byte	0xf3
 9776 058e 01       		.uleb128 0x1
 9777 058f 53       		.byte	0x53
 9778 0590 9F       		.byte	0x9f
 9779 0591 A4000000 		.4byte	.LVL58
 9780 0595 A7000000 		.4byte	.LVL59-1
 9781 0599 0100     		.2byte	0x1
 9782 059b 53       		.byte	0x53
 9783 059c A7000000 		.4byte	.LVL59-1
 9784 05a0 BA000000 		.4byte	.LVL62
 9785 05a4 0400     		.2byte	0x4
 9786 05a6 F3       		.byte	0xf3
 9787 05a7 01       		.uleb128 0x1
 9788 05a8 53       		.byte	0x53
 9789 05a9 9F       		.byte	0x9f
 9790 05aa BA000000 		.4byte	.LVL62
 9791 05ae BD000000 		.4byte	.LVL63-1
 9792 05b2 0100     		.2byte	0x1
 9793 05b4 53       		.byte	0x53
 9794 05b5 BD000000 		.4byte	.LVL63-1
 9795 05b9 CC000000 		.4byte	.LVL65
 9796 05bd 0400     		.2byte	0x4
 9797 05bf F3       		.byte	0xf3
 9798 05c0 01       		.uleb128 0x1
 9799 05c1 53       		.byte	0x53
 9800 05c2 9F       		.byte	0x9f
 9801 05c3 CC000000 		.4byte	.LVL65
 9802 05c7 D1000000 		.4byte	.LVL67-1
 9803 05cb 0100     		.2byte	0x1
 9804 05cd 53       		.byte	0x53
 9805 05ce D1000000 		.4byte	.LVL67-1
 9806 05d2 D8000000 		.4byte	.LVL68
 9807 05d6 0400     		.2byte	0x4
 9808 05d8 F3       		.byte	0xf3
 9809 05d9 01       		.uleb128 0x1
 9810 05da 53       		.byte	0x53
 9811 05db 9F       		.byte	0x9f
 9812 05dc D8000000 		.4byte	.LVL68
 9813 05e0 DD000000 		.4byte	.LVL70-1
 9814 05e4 0100     		.2byte	0x1
 9815 05e6 53       		.byte	0x53
 9816 05e7 DD000000 		.4byte	.LVL70-1
 9817 05eb E4000000 		.4byte	.LVL71
 9818 05ef 0400     		.2byte	0x4
 9819 05f1 F3       		.byte	0xf3
 9820 05f2 01       		.uleb128 0x1
 9821 05f3 53       		.byte	0x53
ARM GAS  C:\Users\info\AppData\Local\Temp\ccQPGqkW.s 			page 202


 9822 05f4 9F       		.byte	0x9f
 9823 05f5 E4000000 		.4byte	.LVL71
 9824 05f9 EB000000 		.4byte	.LVL73-1
 9825 05fd 0100     		.2byte	0x1
 9826 05ff 53       		.byte	0x53
 9827 0600 EB000000 		.4byte	.LVL73-1
 9828 0604 FA000000 		.4byte	.LVL74
 9829 0608 0400     		.2byte	0x4
 9830 060a F3       		.byte	0xf3
 9831 060b 01       		.uleb128 0x1
 9832 060c 53       		.byte	0x53
 9833 060d 9F       		.byte	0x9f
 9834 060e FA000000 		.4byte	.LVL74
 9835 0612 FF000000 		.4byte	.LVL76-1
 9836 0616 0100     		.2byte	0x1
 9837 0618 53       		.byte	0x53
 9838 0619 FF000000 		.4byte	.LVL76-1
 9839 061d 28010000 		.4byte	.LFE1
 9840 0621 0400     		.2byte	0x4
 9841 0623 F3       		.byte	0xf3
 9842 0624 01       		.uleb128 0x1
 9843 0625 53       		.byte	0x53
 9844 0626 9F       		.byte	0x9f
 9845 0627 00000000 		.4byte	0
 9846 062b 00000000 		.4byte	0
 9847              	.LLST15:
 9848 062f 0A000000 		.4byte	.LVL33
 9849 0633 14000000 		.4byte	.LVL34
 9850 0637 0100     		.2byte	0x1
 9851 0639 53       		.byte	0x53
 9852 063a 26000000 		.4byte	.LVL36
 9853 063e 2F000000 		.4byte	.LVL38-1
 9854 0642 0100     		.2byte	0x1
 9855 0644 53       		.byte	0x53
 9856 0645 2F000000 		.4byte	.LVL38-1
 9857 0649 30000000 		.4byte	.LVL38
 9858 064d 0400     		.2byte	0x4
 9859 064f F3       		.byte	0xf3
 9860 0650 01       		.uleb128 0x1
 9861 0651 53       		.byte	0x53
 9862 0652 9F       		.byte	0x9f
 9863 0653 36000000 		.4byte	.LVL39
 9864 0657 3B000000 		.4byte	.LVL41-1
 9865 065b 0100     		.2byte	0x1
 9866 065d 53       		.byte	0x53
 9867 065e 3B000000 		.4byte	.LVL41-1
 9868 0662 74000000 		.4byte	.LVL49
 9869 0666 0100     		.2byte	0x1
 9870 0668 57       		.byte	0x57
 9871 0669 74000000 		.4byte	.LVL49
 9872 066d 9E000000 		.4byte	.LVL57
 9873 0671 0400     		.2byte	0x4
 9874 0673 F3       		.byte	0xf3
 9875 0674 01       		.uleb128 0x1
 9876 0675 53       		.byte	0x53
 9877 0676 9F       		.byte	0x9f
 9878 0677 A4000000 		.4byte	.LVL58
ARM GAS  C:\Users\info\AppData\Local\Temp\ccQPGqkW.s 			page 203


 9879 067b A7000000 		.4byte	.LVL59-1
 9880 067f 0100     		.2byte	0x1
 9881 0681 53       		.byte	0x53
 9882 0682 A7000000 		.4byte	.LVL59-1
 9883 0686 BA000000 		.4byte	.LVL62
 9884 068a 0400     		.2byte	0x4
 9885 068c F3       		.byte	0xf3
 9886 068d 01       		.uleb128 0x1
 9887 068e 53       		.byte	0x53
 9888 068f 9F       		.byte	0x9f
 9889 0690 CC000000 		.4byte	.LVL65
 9890 0694 D1000000 		.4byte	.LVL67-1
 9891 0698 0100     		.2byte	0x1
 9892 069a 53       		.byte	0x53
 9893 069b D1000000 		.4byte	.LVL67-1
 9894 069f D2000000 		.4byte	.LVL67
 9895 06a3 0400     		.2byte	0x4
 9896 06a5 F3       		.byte	0xf3
 9897 06a6 01       		.uleb128 0x1
 9898 06a7 53       		.byte	0x53
 9899 06a8 9F       		.byte	0x9f
 9900 06a9 00000000 		.4byte	0
 9901 06ad 00000000 		.4byte	0
 9902              	.LLST16:
 9903 06b1 0A000000 		.4byte	.LVL33
 9904 06b5 14000000 		.4byte	.LVL34
 9905 06b9 0100     		.2byte	0x1
 9906 06bb 52       		.byte	0x52
 9907 06bc 26000000 		.4byte	.LVL36
 9908 06c0 2F000000 		.4byte	.LVL38-1
 9909 06c4 0100     		.2byte	0x1
 9910 06c6 52       		.byte	0x52
 9911 06c7 2F000000 		.4byte	.LVL38-1
 9912 06cb 30000000 		.4byte	.LVL38
 9913 06cf 0400     		.2byte	0x4
 9914 06d1 F3       		.byte	0xf3
 9915 06d2 01       		.uleb128 0x1
 9916 06d3 52       		.byte	0x52
 9917 06d4 9F       		.byte	0x9f
 9918 06d5 36000000 		.4byte	.LVL39
 9919 06d9 3B000000 		.4byte	.LVL41-1
 9920 06dd 0100     		.2byte	0x1
 9921 06df 52       		.byte	0x52
 9922 06e0 3B000000 		.4byte	.LVL41-1
 9923 06e4 9E000000 		.4byte	.LVL57
 9924 06e8 0400     		.2byte	0x4
 9925 06ea F3       		.byte	0xf3
 9926 06eb 01       		.uleb128 0x1
 9927 06ec 52       		.byte	0x52
 9928 06ed 9F       		.byte	0x9f
 9929 06ee A4000000 		.4byte	.LVL58
 9930 06f2 A7000000 		.4byte	.LVL59-1
 9931 06f6 0100     		.2byte	0x1
 9932 06f8 52       		.byte	0x52
 9933 06f9 A7000000 		.4byte	.LVL59-1
 9934 06fd BA000000 		.4byte	.LVL62
 9935 0701 0400     		.2byte	0x4
ARM GAS  C:\Users\info\AppData\Local\Temp\ccQPGqkW.s 			page 204


 9936 0703 F3       		.byte	0xf3
 9937 0704 01       		.uleb128 0x1
 9938 0705 52       		.byte	0x52
 9939 0706 9F       		.byte	0x9f
 9940 0707 CC000000 		.4byte	.LVL65
 9941 070b D1000000 		.4byte	.LVL67-1
 9942 070f 0100     		.2byte	0x1
 9943 0711 52       		.byte	0x52
 9944 0712 D1000000 		.4byte	.LVL67-1
 9945 0716 D2000000 		.4byte	.LVL67
 9946 071a 0400     		.2byte	0x4
 9947 071c F3       		.byte	0xf3
 9948 071d 01       		.uleb128 0x1
 9949 071e 52       		.byte	0x52
 9950 071f 9F       		.byte	0x9f
 9951 0720 00000000 		.4byte	0
 9952 0724 00000000 		.4byte	0
 9953              	.LLST17:
 9954 0728 0A000000 		.4byte	.LVL33
 9955 072c 14000000 		.4byte	.LVL34
 9956 0730 0100     		.2byte	0x1
 9957 0732 51       		.byte	0x51
 9958 0733 26000000 		.4byte	.LVL36
 9959 0737 2C000000 		.4byte	.LVL37
 9960 073b 0100     		.2byte	0x1
 9961 073d 51       		.byte	0x51
 9962 073e 2C000000 		.4byte	.LVL37
 9963 0742 30000000 		.4byte	.LVL38
 9964 0746 0400     		.2byte	0x4
 9965 0748 F3       		.byte	0xf3
 9966 0749 01       		.uleb128 0x1
 9967 074a 51       		.byte	0x51
 9968 074b 9F       		.byte	0x9f
 9969 074c 36000000 		.4byte	.LVL39
 9970 0750 3B000000 		.4byte	.LVL41-1
 9971 0754 0100     		.2byte	0x1
 9972 0756 51       		.byte	0x51
 9973 0757 3B000000 		.4byte	.LVL41-1
 9974 075b 9E000000 		.4byte	.LVL57
 9975 075f 0400     		.2byte	0x4
 9976 0761 F3       		.byte	0xf3
 9977 0762 01       		.uleb128 0x1
 9978 0763 51       		.byte	0x51
 9979 0764 9F       		.byte	0x9f
 9980 0765 A4000000 		.4byte	.LVL58
 9981 0769 A7000000 		.4byte	.LVL59-1
 9982 076d 0100     		.2byte	0x1
 9983 076f 51       		.byte	0x51
 9984 0770 A7000000 		.4byte	.LVL59-1
 9985 0774 BA000000 		.4byte	.LVL62
 9986 0778 0400     		.2byte	0x4
 9987 077a F3       		.byte	0xf3
 9988 077b 01       		.uleb128 0x1
 9989 077c 51       		.byte	0x51
 9990 077d 9F       		.byte	0x9f
 9991 077e CC000000 		.4byte	.LVL65
 9992 0782 CE000000 		.4byte	.LVL66
ARM GAS  C:\Users\info\AppData\Local\Temp\ccQPGqkW.s 			page 205


 9993 0786 0100     		.2byte	0x1
 9994 0788 51       		.byte	0x51
 9995 0789 CE000000 		.4byte	.LVL66
 9996 078d D2000000 		.4byte	.LVL67
 9997 0791 0400     		.2byte	0x4
 9998 0793 F3       		.byte	0xf3
 9999 0794 01       		.uleb128 0x1
 10000 0795 51       		.byte	0x51
 10001 0796 9F       		.byte	0x9f
 10002 0797 00000000 		.4byte	0
 10003 079b 00000000 		.4byte	0
 10004              	.LLST18:
 10005 079f 0A000000 		.4byte	.LVL33
 10006 07a3 14000000 		.4byte	.LVL34
 10007 07a7 0100     		.2byte	0x1
 10008 07a9 50       		.byte	0x50
 10009 07aa 26000000 		.4byte	.LVL36
 10010 07ae 2F000000 		.4byte	.LVL38-1
 10011 07b2 0100     		.2byte	0x1
 10012 07b4 50       		.byte	0x50
 10013 07b5 2F000000 		.4byte	.LVL38-1
 10014 07b9 30000000 		.4byte	.LVL38
 10015 07bd 0100     		.2byte	0x1
 10016 07bf 55       		.byte	0x55
 10017 07c0 36000000 		.4byte	.LVL39
 10018 07c4 3B000000 		.4byte	.LVL41-1
 10019 07c8 0100     		.2byte	0x1
 10020 07ca 50       		.byte	0x50
 10021 07cb 3B000000 		.4byte	.LVL41-1
 10022 07cf 9E000000 		.4byte	.LVL57
 10023 07d3 0100     		.2byte	0x1
 10024 07d5 55       		.byte	0x55
 10025 07d6 A4000000 		.4byte	.LVL58
 10026 07da A7000000 		.4byte	.LVL59-1
 10027 07de 0100     		.2byte	0x1
 10028 07e0 50       		.byte	0x50
 10029 07e1 A7000000 		.4byte	.LVL59-1
 10030 07e5 BA000000 		.4byte	.LVL62
 10031 07e9 0100     		.2byte	0x1
 10032 07eb 55       		.byte	0x55
 10033 07ec CC000000 		.4byte	.LVL65
 10034 07f0 D1000000 		.4byte	.LVL67-1
 10035 07f4 0100     		.2byte	0x1
 10036 07f6 50       		.byte	0x50
 10037 07f7 D1000000 		.4byte	.LVL67-1
 10038 07fb D2000000 		.4byte	.LVL67
 10039 07ff 0100     		.2byte	0x1
 10040 0801 55       		.byte	0x55
 10041 0802 00000000 		.4byte	0
 10042 0806 00000000 		.4byte	0
 10043              	.LLST19:
 10044 080a 38000000 		.4byte	.LVL40
 10045 080e 98000000 		.4byte	.LVL56
 10046 0812 0200     		.2byte	0x2
 10047 0814 3F       		.byte	0x3f
 10048 0815 9F       		.byte	0x9f
 10049 0816 00000000 		.4byte	0
ARM GAS  C:\Users\info\AppData\Local\Temp\ccQPGqkW.s 			page 206


 10050 081a 00000000 		.4byte	0
 10051              	.LLST20:
 10052 081e 38000000 		.4byte	.LVL40
 10053 0822 74000000 		.4byte	.LVL49
 10054 0826 0100     		.2byte	0x1
 10055 0828 57       		.byte	0x57
 10056 0829 74000000 		.4byte	.LVL49
 10057 082d 98000000 		.4byte	.LVL56
 10058 0831 0400     		.2byte	0x4
 10059 0833 F3       		.byte	0xf3
 10060 0834 01       		.uleb128 0x1
 10061 0835 53       		.byte	0x53
 10062 0836 9F       		.byte	0x9f
 10063 0837 00000000 		.4byte	0
 10064 083b 00000000 		.4byte	0
 10065              	.LLST21:
 10066 083f 36000000 		.4byte	.LVL39
 10067 0843 92000000 		.4byte	.LVL55
 10068 0847 0100     		.2byte	0x1
 10069 0849 54       		.byte	0x54
 10070 084a 92000000 		.4byte	.LVL55
 10071 084e 98000000 		.4byte	.LVL56
 10072 0852 0100     		.2byte	0x1
 10073 0854 52       		.byte	0x52
 10074 0855 00000000 		.4byte	0
 10075 0859 00000000 		.4byte	0
 10076              	.LLST22:
 10077 085d 36000000 		.4byte	.LVL39
 10078 0861 3B000000 		.4byte	.LVL41-1
 10079 0865 0100     		.2byte	0x1
 10080 0867 50       		.byte	0x50
 10081 0868 3B000000 		.4byte	.LVL41-1
 10082 086c 98000000 		.4byte	.LVL56
 10083 0870 0100     		.2byte	0x1
 10084 0872 55       		.byte	0x55
 10085 0873 00000000 		.4byte	0
 10086 0877 00000000 		.4byte	0
 10087              	.LLST23:
 10088 087b 44000000 		.4byte	.LVL42
 10089 087f 4A000000 		.4byte	.LVL43
 10090 0883 0800     		.2byte	0x8
 10091 0885 78       		.byte	0x78
 10092 0886 00       		.sleb128 0
 10093 0887 33       		.byte	0x33
 10094 0888 24       		.byte	0x24
 10095 0889 08       		.byte	0x8
 10096 088a F8       		.byte	0xf8
 10097 088b 1A       		.byte	0x1a
 10098 088c 9F       		.byte	0x9f
 10099 088d 4A000000 		.4byte	.LVL43
 10100 0891 4E000000 		.4byte	.LVL44
 10101 0895 0D00     		.2byte	0xd
 10102 0897 77       		.byte	0x77
 10103 0898 05       		.sleb128 5
 10104 0899 94       		.byte	0x94
 10105 089a 01       		.byte	0x1
 10106 089b 08       		.byte	0x8
ARM GAS  C:\Users\info\AppData\Local\Temp\ccQPGqkW.s 			page 207


 10107 089c FF       		.byte	0xff
 10108 089d 1A       		.byte	0x1a
 10109 089e 33       		.byte	0x33
 10110 089f 24       		.byte	0x24
 10111 08a0 08       		.byte	0x8
 10112 08a1 F8       		.byte	0xf8
 10113 08a2 1A       		.byte	0x1a
 10114 08a3 9F       		.byte	0x9f
 10115 08a4 4E000000 		.4byte	.LVL44
 10116 08a8 98000000 		.4byte	.LVL56
 10117 08ac 0100     		.2byte	0x1
 10118 08ae 58       		.byte	0x58
 10119 08af 00000000 		.4byte	0
 10120 08b3 00000000 		.4byte	0
 10121              	.LLST24:
 10122 08b7 72000000 		.4byte	.LVL48
 10123 08bb 76000000 		.4byte	.LVL50
 10124 08bf 0100     		.2byte	0x1
 10125 08c1 56       		.byte	0x56
 10126 08c2 76000000 		.4byte	.LVL50
 10127 08c6 78000000 		.4byte	.LVL51
 10128 08ca 0500     		.2byte	0x5
 10129 08cc F3       		.byte	0xf3
 10130 08cd 01       		.uleb128 0x1
 10131 08ce 53       		.byte	0x53
 10132 08cf 23       		.byte	0x23
 10133 08d0 04       		.uleb128 0x4
 10134 08d1 78000000 		.4byte	.LVL51
 10135 08d5 7E000000 		.4byte	.LVL52
 10136 08d9 0100     		.2byte	0x1
 10137 08db 56       		.byte	0x56
 10138 08dc 7E000000 		.4byte	.LVL52
 10139 08e0 86000000 		.4byte	.LVL53
 10140 08e4 0300     		.2byte	0x3
 10141 08e6 09       		.byte	0x9
 10142 08e7 84       		.byte	0x84
 10143 08e8 9F       		.byte	0x9f
 10144 08e9 86000000 		.4byte	.LVL53
 10145 08ed 98000000 		.4byte	.LVL56
 10146 08f1 0100     		.2byte	0x1
 10147 08f3 56       		.byte	0x56
 10148 08f4 00000000 		.4byte	0
 10149 08f8 00000000 		.4byte	0
 10150              	.LLST25:
 10151 08fc 78000000 		.4byte	.LVL51
 10152 0900 98000000 		.4byte	.LVL56
 10153 0904 0100     		.2byte	0x1
 10154 0906 57       		.byte	0x57
 10155 0907 00000000 		.4byte	0
 10156 090b 00000000 		.4byte	0
 10157              	.LLST26:
 10158 090f 00000000 		.4byte	.LVL78
 10159 0913 22000000 		.4byte	.LVL81
 10160 0917 0100     		.2byte	0x1
 10161 0919 50       		.byte	0x50
 10162 091a 22000000 		.4byte	.LVL81
 10163 091e 26000000 		.4byte	.LVL82
ARM GAS  C:\Users\info\AppData\Local\Temp\ccQPGqkW.s 			page 208


 10164 0922 0100     		.2byte	0x1
 10165 0924 55       		.byte	0x55
 10166 0925 26000000 		.4byte	.LVL82
 10167 0929 2F000000 		.4byte	.LVL84-1
 10168 092d 0100     		.2byte	0x1
 10169 092f 50       		.byte	0x50
 10170 0930 2F000000 		.4byte	.LVL84-1
 10171 0934 36000000 		.4byte	.LVL85
 10172 0938 0100     		.2byte	0x1
 10173 093a 55       		.byte	0x55
 10174 093b 36000000 		.4byte	.LVL85
 10175 093f 3B000000 		.4byte	.LVL87-1
 10176 0943 0100     		.2byte	0x1
 10177 0945 50       		.byte	0x50
 10178 0946 3B000000 		.4byte	.LVL87-1
 10179 094a A4000000 		.4byte	.LVL104
 10180 094e 0100     		.2byte	0x1
 10181 0950 55       		.byte	0x55
 10182 0951 A4000000 		.4byte	.LVL104
 10183 0955 A7000000 		.4byte	.LVL105-1
 10184 0959 0100     		.2byte	0x1
 10185 095b 50       		.byte	0x50
 10186 095c A7000000 		.4byte	.LVL105-1
 10187 0960 BA000000 		.4byte	.LVL108
 10188 0964 0100     		.2byte	0x1
 10189 0966 55       		.byte	0x55
 10190 0967 BA000000 		.4byte	.LVL108
 10191 096b BD000000 		.4byte	.LVL109-1
 10192 096f 0100     		.2byte	0x1
 10193 0971 50       		.byte	0x50
 10194 0972 BD000000 		.4byte	.LVL109-1
 10195 0976 CC000000 		.4byte	.LVL111
 10196 097a 0100     		.2byte	0x1
 10197 097c 55       		.byte	0x55
 10198 097d CC000000 		.4byte	.LVL111
 10199 0981 D1000000 		.4byte	.LVL113-1
 10200 0985 0100     		.2byte	0x1
 10201 0987 50       		.byte	0x50
 10202 0988 D1000000 		.4byte	.LVL113-1
 10203 098c D8000000 		.4byte	.LVL114
 10204 0990 0100     		.2byte	0x1
 10205 0992 55       		.byte	0x55
 10206 0993 D8000000 		.4byte	.LVL114
 10207 0997 DD000000 		.4byte	.LVL116-1
 10208 099b 0100     		.2byte	0x1
 10209 099d 50       		.byte	0x50
 10210 099e DD000000 		.4byte	.LVL116-1
 10211 09a2 E4000000 		.4byte	.LVL117
 10212 09a6 0100     		.2byte	0x1
 10213 09a8 55       		.byte	0x55
 10214 09a9 E4000000 		.4byte	.LVL117
 10215 09ad EB000000 		.4byte	.LVL119-1
 10216 09b1 0100     		.2byte	0x1
 10217 09b3 50       		.byte	0x50
 10218 09b4 EB000000 		.4byte	.LVL119-1
 10219 09b8 FA000000 		.4byte	.LVL120
 10220 09bc 0100     		.2byte	0x1
ARM GAS  C:\Users\info\AppData\Local\Temp\ccQPGqkW.s 			page 209


 10221 09be 55       		.byte	0x55
 10222 09bf FA000000 		.4byte	.LVL120
 10223 09c3 FF000000 		.4byte	.LVL122-1
 10224 09c7 0100     		.2byte	0x1
 10225 09c9 50       		.byte	0x50
 10226 09ca FF000000 		.4byte	.LVL122-1
 10227 09ce 0E010000 		.4byte	.LVL123
 10228 09d2 0100     		.2byte	0x1
 10229 09d4 55       		.byte	0x55
 10230 09d5 0E010000 		.4byte	.LVL123
 10231 09d9 28010000 		.4byte	.LFE2
 10232 09dd 0400     		.2byte	0x4
 10233 09df F3       		.byte	0xf3
 10234 09e0 01       		.uleb128 0x1
 10235 09e1 50       		.byte	0x50
 10236 09e2 9F       		.byte	0x9f
 10237 09e3 00000000 		.4byte	0
 10238 09e7 00000000 		.4byte	0
 10239              	.LLST27:
 10240 09eb 00000000 		.4byte	.LVL78
 10241 09ef 2C000000 		.4byte	.LVL83
 10242 09f3 0100     		.2byte	0x1
 10243 09f5 51       		.byte	0x51
 10244 09f6 2C000000 		.4byte	.LVL83
 10245 09fa 36000000 		.4byte	.LVL85
 10246 09fe 0400     		.2byte	0x4
 10247 0a00 F3       		.byte	0xf3
 10248 0a01 01       		.uleb128 0x1
 10249 0a02 51       		.byte	0x51
 10250 0a03 9F       		.byte	0x9f
 10251 0a04 36000000 		.4byte	.LVL85
 10252 0a08 3B000000 		.4byte	.LVL87-1
 10253 0a0c 0100     		.2byte	0x1
 10254 0a0e 51       		.byte	0x51
 10255 0a0f 3B000000 		.4byte	.LVL87-1
 10256 0a13 A4000000 		.4byte	.LVL104
 10257 0a17 0400     		.2byte	0x4
 10258 0a19 F3       		.byte	0xf3
 10259 0a1a 01       		.uleb128 0x1
 10260 0a1b 51       		.byte	0x51
 10261 0a1c 9F       		.byte	0x9f
 10262 0a1d A4000000 		.4byte	.LVL104
 10263 0a21 A7000000 		.4byte	.LVL105-1
 10264 0a25 0100     		.2byte	0x1
 10265 0a27 51       		.byte	0x51
 10266 0a28 A7000000 		.4byte	.LVL105-1
 10267 0a2c BA000000 		.4byte	.LVL108
 10268 0a30 0400     		.2byte	0x4
 10269 0a32 F3       		.byte	0xf3
 10270 0a33 01       		.uleb128 0x1
 10271 0a34 51       		.byte	0x51
 10272 0a35 9F       		.byte	0x9f
 10273 0a36 BA000000 		.4byte	.LVL108
 10274 0a3a BD000000 		.4byte	.LVL109-1
 10275 0a3e 0100     		.2byte	0x1
 10276 0a40 51       		.byte	0x51
 10277 0a41 BD000000 		.4byte	.LVL109-1
ARM GAS  C:\Users\info\AppData\Local\Temp\ccQPGqkW.s 			page 210


 10278 0a45 CC000000 		.4byte	.LVL111
 10279 0a49 0400     		.2byte	0x4
 10280 0a4b F3       		.byte	0xf3
 10281 0a4c 01       		.uleb128 0x1
 10282 0a4d 51       		.byte	0x51
 10283 0a4e 9F       		.byte	0x9f
 10284 0a4f CC000000 		.4byte	.LVL111
 10285 0a53 CE000000 		.4byte	.LVL112
 10286 0a57 0100     		.2byte	0x1
 10287 0a59 51       		.byte	0x51
 10288 0a5a CE000000 		.4byte	.LVL112
 10289 0a5e D8000000 		.4byte	.LVL114
 10290 0a62 0400     		.2byte	0x4
 10291 0a64 F3       		.byte	0xf3
 10292 0a65 01       		.uleb128 0x1
 10293 0a66 51       		.byte	0x51
 10294 0a67 9F       		.byte	0x9f
 10295 0a68 D8000000 		.4byte	.LVL114
 10296 0a6c DA000000 		.4byte	.LVL115
 10297 0a70 0100     		.2byte	0x1
 10298 0a72 51       		.byte	0x51
 10299 0a73 DA000000 		.4byte	.LVL115
 10300 0a77 E4000000 		.4byte	.LVL117
 10301 0a7b 0400     		.2byte	0x4
 10302 0a7d F3       		.byte	0xf3
 10303 0a7e 01       		.uleb128 0x1
 10304 0a7f 51       		.byte	0x51
 10305 0a80 9F       		.byte	0x9f
 10306 0a81 E4000000 		.4byte	.LVL117
 10307 0a85 E8000000 		.4byte	.LVL118
 10308 0a89 0100     		.2byte	0x1
 10309 0a8b 51       		.byte	0x51
 10310 0a8c E8000000 		.4byte	.LVL118
 10311 0a90 FA000000 		.4byte	.LVL120
 10312 0a94 0400     		.2byte	0x4
 10313 0a96 F3       		.byte	0xf3
 10314 0a97 01       		.uleb128 0x1
 10315 0a98 51       		.byte	0x51
 10316 0a99 9F       		.byte	0x9f
 10317 0a9a FA000000 		.4byte	.LVL120
 10318 0a9e FC000000 		.4byte	.LVL121
 10319 0aa2 0100     		.2byte	0x1
 10320 0aa4 51       		.byte	0x51
 10321 0aa5 FC000000 		.4byte	.LVL121
 10322 0aa9 28010000 		.4byte	.LFE2
 10323 0aad 0400     		.2byte	0x4
 10324 0aaf F3       		.byte	0xf3
 10325 0ab0 01       		.uleb128 0x1
 10326 0ab1 51       		.byte	0x51
 10327 0ab2 9F       		.byte	0x9f
 10328 0ab3 00000000 		.4byte	0
 10329 0ab7 00000000 		.4byte	0
 10330              	.LLST28:
 10331 0abb 00000000 		.4byte	.LVL78
 10332 0abf 2F000000 		.4byte	.LVL84-1
 10333 0ac3 0100     		.2byte	0x1
 10334 0ac5 52       		.byte	0x52
ARM GAS  C:\Users\info\AppData\Local\Temp\ccQPGqkW.s 			page 211


 10335 0ac6 2F000000 		.4byte	.LVL84-1
 10336 0aca 36000000 		.4byte	.LVL85
 10337 0ace 0400     		.2byte	0x4
 10338 0ad0 F3       		.byte	0xf3
 10339 0ad1 01       		.uleb128 0x1
 10340 0ad2 52       		.byte	0x52
 10341 0ad3 9F       		.byte	0x9f
 10342 0ad4 36000000 		.4byte	.LVL85
 10343 0ad8 3B000000 		.4byte	.LVL87-1
 10344 0adc 0100     		.2byte	0x1
 10345 0ade 52       		.byte	0x52
 10346 0adf 3B000000 		.4byte	.LVL87-1
 10347 0ae3 A4000000 		.4byte	.LVL104
 10348 0ae7 0400     		.2byte	0x4
 10349 0ae9 F3       		.byte	0xf3
 10350 0aea 01       		.uleb128 0x1
 10351 0aeb 52       		.byte	0x52
 10352 0aec 9F       		.byte	0x9f
 10353 0aed A4000000 		.4byte	.LVL104
 10354 0af1 A7000000 		.4byte	.LVL105-1
 10355 0af5 0100     		.2byte	0x1
 10356 0af7 52       		.byte	0x52
 10357 0af8 A7000000 		.4byte	.LVL105-1
 10358 0afc BA000000 		.4byte	.LVL108
 10359 0b00 0400     		.2byte	0x4
 10360 0b02 F3       		.byte	0xf3
 10361 0b03 01       		.uleb128 0x1
 10362 0b04 52       		.byte	0x52
 10363 0b05 9F       		.byte	0x9f
 10364 0b06 BA000000 		.4byte	.LVL108
 10365 0b0a BD000000 		.4byte	.LVL109-1
 10366 0b0e 0100     		.2byte	0x1
 10367 0b10 52       		.byte	0x52
 10368 0b11 BD000000 		.4byte	.LVL109-1
 10369 0b15 CC000000 		.4byte	.LVL111
 10370 0b19 0400     		.2byte	0x4
 10371 0b1b F3       		.byte	0xf3
 10372 0b1c 01       		.uleb128 0x1
 10373 0b1d 52       		.byte	0x52
 10374 0b1e 9F       		.byte	0x9f
 10375 0b1f CC000000 		.4byte	.LVL111
 10376 0b23 D1000000 		.4byte	.LVL113-1
 10377 0b27 0100     		.2byte	0x1
 10378 0b29 52       		.byte	0x52
 10379 0b2a D1000000 		.4byte	.LVL113-1
 10380 0b2e D8000000 		.4byte	.LVL114
 10381 0b32 0400     		.2byte	0x4
 10382 0b34 F3       		.byte	0xf3
 10383 0b35 01       		.uleb128 0x1
 10384 0b36 52       		.byte	0x52
 10385 0b37 9F       		.byte	0x9f
 10386 0b38 D8000000 		.4byte	.LVL114
 10387 0b3c DD000000 		.4byte	.LVL116-1
 10388 0b40 0100     		.2byte	0x1
 10389 0b42 52       		.byte	0x52
 10390 0b43 DD000000 		.4byte	.LVL116-1
 10391 0b47 E4000000 		.4byte	.LVL117
ARM GAS  C:\Users\info\AppData\Local\Temp\ccQPGqkW.s 			page 212


 10392 0b4b 0400     		.2byte	0x4
 10393 0b4d F3       		.byte	0xf3
 10394 0b4e 01       		.uleb128 0x1
 10395 0b4f 52       		.byte	0x52
 10396 0b50 9F       		.byte	0x9f
 10397 0b51 E4000000 		.4byte	.LVL117
 10398 0b55 EB000000 		.4byte	.LVL119-1
 10399 0b59 0100     		.2byte	0x1
 10400 0b5b 52       		.byte	0x52
 10401 0b5c EB000000 		.4byte	.LVL119-1
 10402 0b60 FA000000 		.4byte	.LVL120
 10403 0b64 0400     		.2byte	0x4
 10404 0b66 F3       		.byte	0xf3
 10405 0b67 01       		.uleb128 0x1
 10406 0b68 52       		.byte	0x52
 10407 0b69 9F       		.byte	0x9f
 10408 0b6a FA000000 		.4byte	.LVL120
 10409 0b6e FF000000 		.4byte	.LVL122-1
 10410 0b72 0100     		.2byte	0x1
 10411 0b74 52       		.byte	0x52
 10412 0b75 FF000000 		.4byte	.LVL122-1
 10413 0b79 28010000 		.4byte	.LFE2
 10414 0b7d 0400     		.2byte	0x4
 10415 0b7f F3       		.byte	0xf3
 10416 0b80 01       		.uleb128 0x1
 10417 0b81 52       		.byte	0x52
 10418 0b82 9F       		.byte	0x9f
 10419 0b83 00000000 		.4byte	0
 10420 0b87 00000000 		.4byte	0
 10421              	.LLST29:
 10422 0b8b 00000000 		.4byte	.LVL78
 10423 0b8f 2F000000 		.4byte	.LVL84-1
 10424 0b93 0100     		.2byte	0x1
 10425 0b95 53       		.byte	0x53
 10426 0b96 2F000000 		.4byte	.LVL84-1
 10427 0b9a 36000000 		.4byte	.LVL85
 10428 0b9e 0400     		.2byte	0x4
 10429 0ba0 F3       		.byte	0xf3
 10430 0ba1 01       		.uleb128 0x1
 10431 0ba2 53       		.byte	0x53
 10432 0ba3 9F       		.byte	0x9f
 10433 0ba4 36000000 		.4byte	.LVL85
 10434 0ba8 3B000000 		.4byte	.LVL87-1
 10435 0bac 0100     		.2byte	0x1
 10436 0bae 53       		.byte	0x53
 10437 0baf 3B000000 		.4byte	.LVL87-1
 10438 0bb3 74000000 		.4byte	.LVL95
 10439 0bb7 0100     		.2byte	0x1
 10440 0bb9 57       		.byte	0x57
 10441 0bba 74000000 		.4byte	.LVL95
 10442 0bbe A4000000 		.4byte	.LVL104
 10443 0bc2 0400     		.2byte	0x4
 10444 0bc4 F3       		.byte	0xf3
 10445 0bc5 01       		.uleb128 0x1
 10446 0bc6 53       		.byte	0x53
 10447 0bc7 9F       		.byte	0x9f
 10448 0bc8 A4000000 		.4byte	.LVL104
ARM GAS  C:\Users\info\AppData\Local\Temp\ccQPGqkW.s 			page 213


 10449 0bcc A7000000 		.4byte	.LVL105-1
 10450 0bd0 0100     		.2byte	0x1
 10451 0bd2 53       		.byte	0x53
 10452 0bd3 A7000000 		.4byte	.LVL105-1
 10453 0bd7 BA000000 		.4byte	.LVL108
 10454 0bdb 0400     		.2byte	0x4
 10455 0bdd F3       		.byte	0xf3
 10456 0bde 01       		.uleb128 0x1
 10457 0bdf 53       		.byte	0x53
 10458 0be0 9F       		.byte	0x9f
 10459 0be1 BA000000 		.4byte	.LVL108
 10460 0be5 BD000000 		.4byte	.LVL109-1
 10461 0be9 0100     		.2byte	0x1
 10462 0beb 53       		.byte	0x53
 10463 0bec BD000000 		.4byte	.LVL109-1
 10464 0bf0 CC000000 		.4byte	.LVL111
 10465 0bf4 0400     		.2byte	0x4
 10466 0bf6 F3       		.byte	0xf3
 10467 0bf7 01       		.uleb128 0x1
 10468 0bf8 53       		.byte	0x53
 10469 0bf9 9F       		.byte	0x9f
 10470 0bfa CC000000 		.4byte	.LVL111
 10471 0bfe D1000000 		.4byte	.LVL113-1
 10472 0c02 0100     		.2byte	0x1
 10473 0c04 53       		.byte	0x53
 10474 0c05 D1000000 		.4byte	.LVL113-1
 10475 0c09 D8000000 		.4byte	.LVL114
 10476 0c0d 0400     		.2byte	0x4
 10477 0c0f F3       		.byte	0xf3
 10478 0c10 01       		.uleb128 0x1
 10479 0c11 53       		.byte	0x53
 10480 0c12 9F       		.byte	0x9f
 10481 0c13 D8000000 		.4byte	.LVL114
 10482 0c17 DD000000 		.4byte	.LVL116-1
 10483 0c1b 0100     		.2byte	0x1
 10484 0c1d 53       		.byte	0x53
 10485 0c1e DD000000 		.4byte	.LVL116-1
 10486 0c22 E4000000 		.4byte	.LVL117
 10487 0c26 0400     		.2byte	0x4
 10488 0c28 F3       		.byte	0xf3
 10489 0c29 01       		.uleb128 0x1
 10490 0c2a 53       		.byte	0x53
 10491 0c2b 9F       		.byte	0x9f
 10492 0c2c E4000000 		.4byte	.LVL117
 10493 0c30 EB000000 		.4byte	.LVL119-1
 10494 0c34 0100     		.2byte	0x1
 10495 0c36 53       		.byte	0x53
 10496 0c37 EB000000 		.4byte	.LVL119-1
 10497 0c3b FA000000 		.4byte	.LVL120
 10498 0c3f 0400     		.2byte	0x4
 10499 0c41 F3       		.byte	0xf3
 10500 0c42 01       		.uleb128 0x1
 10501 0c43 53       		.byte	0x53
 10502 0c44 9F       		.byte	0x9f
 10503 0c45 FA000000 		.4byte	.LVL120
 10504 0c49 FF000000 		.4byte	.LVL122-1
 10505 0c4d 0100     		.2byte	0x1
ARM GAS  C:\Users\info\AppData\Local\Temp\ccQPGqkW.s 			page 214


 10506 0c4f 53       		.byte	0x53
 10507 0c50 FF000000 		.4byte	.LVL122-1
 10508 0c54 28010000 		.4byte	.LFE2
 10509 0c58 0400     		.2byte	0x4
 10510 0c5a F3       		.byte	0xf3
 10511 0c5b 01       		.uleb128 0x1
 10512 0c5c 53       		.byte	0x53
 10513 0c5d 9F       		.byte	0x9f
 10514 0c5e 00000000 		.4byte	0
 10515 0c62 00000000 		.4byte	0
 10516              	.LLST30:
 10517 0c66 0A000000 		.4byte	.LVL79
 10518 0c6a 14000000 		.4byte	.LVL80
 10519 0c6e 0100     		.2byte	0x1
 10520 0c70 53       		.byte	0x53
 10521 0c71 26000000 		.4byte	.LVL82
 10522 0c75 2F000000 		.4byte	.LVL84-1
 10523 0c79 0100     		.2byte	0x1
 10524 0c7b 53       		.byte	0x53
 10525 0c7c 2F000000 		.4byte	.LVL84-1
 10526 0c80 30000000 		.4byte	.LVL84
 10527 0c84 0400     		.2byte	0x4
 10528 0c86 F3       		.byte	0xf3
 10529 0c87 01       		.uleb128 0x1
 10530 0c88 53       		.byte	0x53
 10531 0c89 9F       		.byte	0x9f
 10532 0c8a 36000000 		.4byte	.LVL85
 10533 0c8e 3B000000 		.4byte	.LVL87-1
 10534 0c92 0100     		.2byte	0x1
 10535 0c94 53       		.byte	0x53
 10536 0c95 3B000000 		.4byte	.LVL87-1
 10537 0c99 74000000 		.4byte	.LVL95
 10538 0c9d 0100     		.2byte	0x1
 10539 0c9f 57       		.byte	0x57
 10540 0ca0 74000000 		.4byte	.LVL95
 10541 0ca4 9E000000 		.4byte	.LVL103
 10542 0ca8 0400     		.2byte	0x4
 10543 0caa F3       		.byte	0xf3
 10544 0cab 01       		.uleb128 0x1
 10545 0cac 53       		.byte	0x53
 10546 0cad 9F       		.byte	0x9f
 10547 0cae A4000000 		.4byte	.LVL104
 10548 0cb2 A7000000 		.4byte	.LVL105-1
 10549 0cb6 0100     		.2byte	0x1
 10550 0cb8 53       		.byte	0x53
 10551 0cb9 A7000000 		.4byte	.LVL105-1
 10552 0cbd BA000000 		.4byte	.LVL108
 10553 0cc1 0400     		.2byte	0x4
 10554 0cc3 F3       		.byte	0xf3
 10555 0cc4 01       		.uleb128 0x1
 10556 0cc5 53       		.byte	0x53
 10557 0cc6 9F       		.byte	0x9f
 10558 0cc7 CC000000 		.4byte	.LVL111
 10559 0ccb D1000000 		.4byte	.LVL113-1
 10560 0ccf 0100     		.2byte	0x1
 10561 0cd1 53       		.byte	0x53
 10562 0cd2 D1000000 		.4byte	.LVL113-1
ARM GAS  C:\Users\info\AppData\Local\Temp\ccQPGqkW.s 			page 215


 10563 0cd6 D2000000 		.4byte	.LVL113
 10564 0cda 0400     		.2byte	0x4
 10565 0cdc F3       		.byte	0xf3
 10566 0cdd 01       		.uleb128 0x1
 10567 0cde 53       		.byte	0x53
 10568 0cdf 9F       		.byte	0x9f
 10569 0ce0 00000000 		.4byte	0
 10570 0ce4 00000000 		.4byte	0
 10571              	.LLST31:
 10572 0ce8 0A000000 		.4byte	.LVL79
 10573 0cec 14000000 		.4byte	.LVL80
 10574 0cf0 0100     		.2byte	0x1
 10575 0cf2 52       		.byte	0x52
 10576 0cf3 26000000 		.4byte	.LVL82
 10577 0cf7 2F000000 		.4byte	.LVL84-1
 10578 0cfb 0100     		.2byte	0x1
 10579 0cfd 52       		.byte	0x52
 10580 0cfe 2F000000 		.4byte	.LVL84-1
 10581 0d02 30000000 		.4byte	.LVL84
 10582 0d06 0400     		.2byte	0x4
 10583 0d08 F3       		.byte	0xf3
 10584 0d09 01       		.uleb128 0x1
 10585 0d0a 52       		.byte	0x52
 10586 0d0b 9F       		.byte	0x9f
 10587 0d0c 36000000 		.4byte	.LVL85
 10588 0d10 3B000000 		.4byte	.LVL87-1
 10589 0d14 0100     		.2byte	0x1
 10590 0d16 52       		.byte	0x52
 10591 0d17 3B000000 		.4byte	.LVL87-1
 10592 0d1b 9E000000 		.4byte	.LVL103
 10593 0d1f 0400     		.2byte	0x4
 10594 0d21 F3       		.byte	0xf3
 10595 0d22 01       		.uleb128 0x1
 10596 0d23 52       		.byte	0x52
 10597 0d24 9F       		.byte	0x9f
 10598 0d25 A4000000 		.4byte	.LVL104
 10599 0d29 A7000000 		.4byte	.LVL105-1
 10600 0d2d 0100     		.2byte	0x1
 10601 0d2f 52       		.byte	0x52
 10602 0d30 A7000000 		.4byte	.LVL105-1
 10603 0d34 BA000000 		.4byte	.LVL108
 10604 0d38 0400     		.2byte	0x4
 10605 0d3a F3       		.byte	0xf3
 10606 0d3b 01       		.uleb128 0x1
 10607 0d3c 52       		.byte	0x52
 10608 0d3d 9F       		.byte	0x9f
 10609 0d3e CC000000 		.4byte	.LVL111
 10610 0d42 D1000000 		.4byte	.LVL113-1
 10611 0d46 0100     		.2byte	0x1
 10612 0d48 52       		.byte	0x52
 10613 0d49 D1000000 		.4byte	.LVL113-1
 10614 0d4d D2000000 		.4byte	.LVL113
 10615 0d51 0400     		.2byte	0x4
 10616 0d53 F3       		.byte	0xf3
 10617 0d54 01       		.uleb128 0x1
 10618 0d55 52       		.byte	0x52
 10619 0d56 9F       		.byte	0x9f
ARM GAS  C:\Users\info\AppData\Local\Temp\ccQPGqkW.s 			page 216


 10620 0d57 00000000 		.4byte	0
 10621 0d5b 00000000 		.4byte	0
 10622              	.LLST32:
 10623 0d5f 0A000000 		.4byte	.LVL79
 10624 0d63 14000000 		.4byte	.LVL80
 10625 0d67 0100     		.2byte	0x1
 10626 0d69 51       		.byte	0x51
 10627 0d6a 26000000 		.4byte	.LVL82
 10628 0d6e 2C000000 		.4byte	.LVL83
 10629 0d72 0100     		.2byte	0x1
 10630 0d74 51       		.byte	0x51
 10631 0d75 2C000000 		.4byte	.LVL83
 10632 0d79 30000000 		.4byte	.LVL84
 10633 0d7d 0400     		.2byte	0x4
 10634 0d7f F3       		.byte	0xf3
 10635 0d80 01       		.uleb128 0x1
 10636 0d81 51       		.byte	0x51
 10637 0d82 9F       		.byte	0x9f
 10638 0d83 36000000 		.4byte	.LVL85
 10639 0d87 3B000000 		.4byte	.LVL87-1
 10640 0d8b 0100     		.2byte	0x1
 10641 0d8d 51       		.byte	0x51
 10642 0d8e 3B000000 		.4byte	.LVL87-1
 10643 0d92 9E000000 		.4byte	.LVL103
 10644 0d96 0400     		.2byte	0x4
 10645 0d98 F3       		.byte	0xf3
 10646 0d99 01       		.uleb128 0x1
 10647 0d9a 51       		.byte	0x51
 10648 0d9b 9F       		.byte	0x9f
 10649 0d9c A4000000 		.4byte	.LVL104
 10650 0da0 A7000000 		.4byte	.LVL105-1
 10651 0da4 0100     		.2byte	0x1
 10652 0da6 51       		.byte	0x51
 10653 0da7 A7000000 		.4byte	.LVL105-1
 10654 0dab BA000000 		.4byte	.LVL108
 10655 0daf 0400     		.2byte	0x4
 10656 0db1 F3       		.byte	0xf3
 10657 0db2 01       		.uleb128 0x1
 10658 0db3 51       		.byte	0x51
 10659 0db4 9F       		.byte	0x9f
 10660 0db5 CC000000 		.4byte	.LVL111
 10661 0db9 CE000000 		.4byte	.LVL112
 10662 0dbd 0100     		.2byte	0x1
 10663 0dbf 51       		.byte	0x51
 10664 0dc0 CE000000 		.4byte	.LVL112
 10665 0dc4 D2000000 		.4byte	.LVL113
 10666 0dc8 0400     		.2byte	0x4
 10667 0dca F3       		.byte	0xf3
 10668 0dcb 01       		.uleb128 0x1
 10669 0dcc 51       		.byte	0x51
 10670 0dcd 9F       		.byte	0x9f
 10671 0dce 00000000 		.4byte	0
 10672 0dd2 00000000 		.4byte	0
 10673              	.LLST33:
 10674 0dd6 0A000000 		.4byte	.LVL79
 10675 0dda 14000000 		.4byte	.LVL80
 10676 0dde 0100     		.2byte	0x1
ARM GAS  C:\Users\info\AppData\Local\Temp\ccQPGqkW.s 			page 217


 10677 0de0 50       		.byte	0x50
 10678 0de1 26000000 		.4byte	.LVL82
 10679 0de5 2F000000 		.4byte	.LVL84-1
 10680 0de9 0100     		.2byte	0x1
 10681 0deb 50       		.byte	0x50
 10682 0dec 2F000000 		.4byte	.LVL84-1
 10683 0df0 30000000 		.4byte	.LVL84
 10684 0df4 0100     		.2byte	0x1
 10685 0df6 55       		.byte	0x55
 10686 0df7 36000000 		.4byte	.LVL85
 10687 0dfb 3B000000 		.4byte	.LVL87-1
 10688 0dff 0100     		.2byte	0x1
 10689 0e01 50       		.byte	0x50
 10690 0e02 3B000000 		.4byte	.LVL87-1
 10691 0e06 9E000000 		.4byte	.LVL103
 10692 0e0a 0100     		.2byte	0x1
 10693 0e0c 55       		.byte	0x55
 10694 0e0d A4000000 		.4byte	.LVL104
 10695 0e11 A7000000 		.4byte	.LVL105-1
 10696 0e15 0100     		.2byte	0x1
 10697 0e17 50       		.byte	0x50
 10698 0e18 A7000000 		.4byte	.LVL105-1
 10699 0e1c BA000000 		.4byte	.LVL108
 10700 0e20 0100     		.2byte	0x1
 10701 0e22 55       		.byte	0x55
 10702 0e23 CC000000 		.4byte	.LVL111
 10703 0e27 D1000000 		.4byte	.LVL113-1
 10704 0e2b 0100     		.2byte	0x1
 10705 0e2d 50       		.byte	0x50
 10706 0e2e D1000000 		.4byte	.LVL113-1
 10707 0e32 D2000000 		.4byte	.LVL113
 10708 0e36 0100     		.2byte	0x1
 10709 0e38 55       		.byte	0x55
 10710 0e39 00000000 		.4byte	0
 10711 0e3d 00000000 		.4byte	0
 10712              	.LLST34:
 10713 0e41 38000000 		.4byte	.LVL86
 10714 0e45 98000000 		.4byte	.LVL102
 10715 0e49 0200     		.2byte	0x2
 10716 0e4b 3F       		.byte	0x3f
 10717 0e4c 9F       		.byte	0x9f
 10718 0e4d 00000000 		.4byte	0
 10719 0e51 00000000 		.4byte	0
 10720              	.LLST35:
 10721 0e55 38000000 		.4byte	.LVL86
 10722 0e59 74000000 		.4byte	.LVL95
 10723 0e5d 0100     		.2byte	0x1
 10724 0e5f 57       		.byte	0x57
 10725 0e60 74000000 		.4byte	.LVL95
 10726 0e64 98000000 		.4byte	.LVL102
 10727 0e68 0400     		.2byte	0x4
 10728 0e6a F3       		.byte	0xf3
 10729 0e6b 01       		.uleb128 0x1
 10730 0e6c 53       		.byte	0x53
 10731 0e6d 9F       		.byte	0x9f
 10732 0e6e 00000000 		.4byte	0
 10733 0e72 00000000 		.4byte	0
ARM GAS  C:\Users\info\AppData\Local\Temp\ccQPGqkW.s 			page 218


 10734              	.LLST36:
 10735 0e76 36000000 		.4byte	.LVL85
 10736 0e7a 92000000 		.4byte	.LVL101
 10737 0e7e 0100     		.2byte	0x1
 10738 0e80 54       		.byte	0x54
 10739 0e81 92000000 		.4byte	.LVL101
 10740 0e85 98000000 		.4byte	.LVL102
 10741 0e89 0100     		.2byte	0x1
 10742 0e8b 52       		.byte	0x52
 10743 0e8c 00000000 		.4byte	0
 10744 0e90 00000000 		.4byte	0
 10745              	.LLST37:
 10746 0e94 36000000 		.4byte	.LVL85
 10747 0e98 3B000000 		.4byte	.LVL87-1
 10748 0e9c 0100     		.2byte	0x1
 10749 0e9e 50       		.byte	0x50
 10750 0e9f 3B000000 		.4byte	.LVL87-1
 10751 0ea3 98000000 		.4byte	.LVL102
 10752 0ea7 0100     		.2byte	0x1
 10753 0ea9 55       		.byte	0x55
 10754 0eaa 00000000 		.4byte	0
 10755 0eae 00000000 		.4byte	0
 10756              	.LLST38:
 10757 0eb2 44000000 		.4byte	.LVL88
 10758 0eb6 4A000000 		.4byte	.LVL89
 10759 0eba 0800     		.2byte	0x8
 10760 0ebc 78       		.byte	0x78
 10761 0ebd 00       		.sleb128 0
 10762 0ebe 33       		.byte	0x33
 10763 0ebf 24       		.byte	0x24
 10764 0ec0 08       		.byte	0x8
 10765 0ec1 F8       		.byte	0xf8
 10766 0ec2 1A       		.byte	0x1a
 10767 0ec3 9F       		.byte	0x9f
 10768 0ec4 4A000000 		.4byte	.LVL89
 10769 0ec8 4E000000 		.4byte	.LVL90
 10770 0ecc 0D00     		.2byte	0xd
 10771 0ece 77       		.byte	0x77
 10772 0ecf 05       		.sleb128 5
 10773 0ed0 94       		.byte	0x94
 10774 0ed1 01       		.byte	0x1
 10775 0ed2 08       		.byte	0x8
 10776 0ed3 FF       		.byte	0xff
 10777 0ed4 1A       		.byte	0x1a
 10778 0ed5 33       		.byte	0x33
 10779 0ed6 24       		.byte	0x24
 10780 0ed7 08       		.byte	0x8
 10781 0ed8 F8       		.byte	0xf8
 10782 0ed9 1A       		.byte	0x1a
 10783 0eda 9F       		.byte	0x9f
 10784 0edb 4E000000 		.4byte	.LVL90
 10785 0edf 98000000 		.4byte	.LVL102
 10786 0ee3 0100     		.2byte	0x1
 10787 0ee5 58       		.byte	0x58
 10788 0ee6 00000000 		.4byte	0
 10789 0eea 00000000 		.4byte	0
 10790              	.LLST39:
ARM GAS  C:\Users\info\AppData\Local\Temp\ccQPGqkW.s 			page 219


 10791 0eee 72000000 		.4byte	.LVL94
 10792 0ef2 76000000 		.4byte	.LVL96
 10793 0ef6 0100     		.2byte	0x1
 10794 0ef8 56       		.byte	0x56
 10795 0ef9 76000000 		.4byte	.LVL96
 10796 0efd 78000000 		.4byte	.LVL97
 10797 0f01 0500     		.2byte	0x5
 10798 0f03 F3       		.byte	0xf3
 10799 0f04 01       		.uleb128 0x1
 10800 0f05 53       		.byte	0x53
 10801 0f06 23       		.byte	0x23
 10802 0f07 04       		.uleb128 0x4
 10803 0f08 78000000 		.4byte	.LVL97
 10804 0f0c 7E000000 		.4byte	.LVL98
 10805 0f10 0100     		.2byte	0x1
 10806 0f12 56       		.byte	0x56
 10807 0f13 7E000000 		.4byte	.LVL98
 10808 0f17 86000000 		.4byte	.LVL99
 10809 0f1b 0300     		.2byte	0x3
 10810 0f1d 09       		.byte	0x9
 10811 0f1e 84       		.byte	0x84
 10812 0f1f 9F       		.byte	0x9f
 10813 0f20 86000000 		.4byte	.LVL99
 10814 0f24 98000000 		.4byte	.LVL102
 10815 0f28 0100     		.2byte	0x1
 10816 0f2a 56       		.byte	0x56
 10817 0f2b 00000000 		.4byte	0
 10818 0f2f 00000000 		.4byte	0
 10819              	.LLST40:
 10820 0f33 78000000 		.4byte	.LVL97
 10821 0f37 98000000 		.4byte	.LVL102
 10822 0f3b 0100     		.2byte	0x1
 10823 0f3d 57       		.byte	0x57
 10824 0f3e 00000000 		.4byte	0
 10825 0f42 00000000 		.4byte	0
 10826              	.LLST41:
 10827 0f46 00000000 		.4byte	.LVL124
 10828 0f4a 22000000 		.4byte	.LVL127
 10829 0f4e 0100     		.2byte	0x1
 10830 0f50 50       		.byte	0x50
 10831 0f51 22000000 		.4byte	.LVL127
 10832 0f55 26000000 		.4byte	.LVL128
 10833 0f59 0100     		.2byte	0x1
 10834 0f5b 55       		.byte	0x55
 10835 0f5c 26000000 		.4byte	.LVL128
 10836 0f60 2F000000 		.4byte	.LVL130-1
 10837 0f64 0100     		.2byte	0x1
 10838 0f66 50       		.byte	0x50
 10839 0f67 2F000000 		.4byte	.LVL130-1
 10840 0f6b 36000000 		.4byte	.LVL131
 10841 0f6f 0100     		.2byte	0x1
 10842 0f71 55       		.byte	0x55
 10843 0f72 36000000 		.4byte	.LVL131
 10844 0f76 3B000000 		.4byte	.LVL133-1
 10845 0f7a 0100     		.2byte	0x1
 10846 0f7c 50       		.byte	0x50
 10847 0f7d 3B000000 		.4byte	.LVL133-1
ARM GAS  C:\Users\info\AppData\Local\Temp\ccQPGqkW.s 			page 220


 10848 0f81 A4000000 		.4byte	.LVL150
 10849 0f85 0100     		.2byte	0x1
 10850 0f87 55       		.byte	0x55
 10851 0f88 A4000000 		.4byte	.LVL150
 10852 0f8c A7000000 		.4byte	.LVL151-1
 10853 0f90 0100     		.2byte	0x1
 10854 0f92 50       		.byte	0x50
 10855 0f93 A7000000 		.4byte	.LVL151-1
 10856 0f97 BA000000 		.4byte	.LVL154
 10857 0f9b 0100     		.2byte	0x1
 10858 0f9d 55       		.byte	0x55
 10859 0f9e BA000000 		.4byte	.LVL154
 10860 0fa2 BD000000 		.4byte	.LVL155-1
 10861 0fa6 0100     		.2byte	0x1
 10862 0fa8 50       		.byte	0x50
 10863 0fa9 BD000000 		.4byte	.LVL155-1
 10864 0fad CC000000 		.4byte	.LVL157
 10865 0fb1 0100     		.2byte	0x1
 10866 0fb3 55       		.byte	0x55
 10867 0fb4 CC000000 		.4byte	.LVL157
 10868 0fb8 D1000000 		.4byte	.LVL159-1
 10869 0fbc 0100     		.2byte	0x1
 10870 0fbe 50       		.byte	0x50
 10871 0fbf D1000000 		.4byte	.LVL159-1
 10872 0fc3 D8000000 		.4byte	.LVL160
 10873 0fc7 0100     		.2byte	0x1
 10874 0fc9 55       		.byte	0x55
 10875 0fca D8000000 		.4byte	.LVL160
 10876 0fce DD000000 		.4byte	.LVL162-1
 10877 0fd2 0100     		.2byte	0x1
 10878 0fd4 50       		.byte	0x50
 10879 0fd5 DD000000 		.4byte	.LVL162-1
 10880 0fd9 E4000000 		.4byte	.LVL163
 10881 0fdd 0100     		.2byte	0x1
 10882 0fdf 55       		.byte	0x55
 10883 0fe0 E4000000 		.4byte	.LVL163
 10884 0fe4 EB000000 		.4byte	.LVL165-1
 10885 0fe8 0100     		.2byte	0x1
 10886 0fea 50       		.byte	0x50
 10887 0feb EB000000 		.4byte	.LVL165-1
 10888 0fef FA000000 		.4byte	.LVL166
 10889 0ff3 0100     		.2byte	0x1
 10890 0ff5 55       		.byte	0x55
 10891 0ff6 FA000000 		.4byte	.LVL166
 10892 0ffa FF000000 		.4byte	.LVL168-1
 10893 0ffe 0100     		.2byte	0x1
 10894 1000 50       		.byte	0x50
 10895 1001 FF000000 		.4byte	.LVL168-1
 10896 1005 0E010000 		.4byte	.LVL169
 10897 1009 0100     		.2byte	0x1
 10898 100b 55       		.byte	0x55
 10899 100c 0E010000 		.4byte	.LVL169
 10900 1010 28010000 		.4byte	.LFE3
 10901 1014 0400     		.2byte	0x4
 10902 1016 F3       		.byte	0xf3
 10903 1017 01       		.uleb128 0x1
 10904 1018 50       		.byte	0x50
ARM GAS  C:\Users\info\AppData\Local\Temp\ccQPGqkW.s 			page 221


 10905 1019 9F       		.byte	0x9f
 10906 101a 00000000 		.4byte	0
 10907 101e 00000000 		.4byte	0
 10908              	.LLST42:
 10909 1022 00000000 		.4byte	.LVL124
 10910 1026 2C000000 		.4byte	.LVL129
 10911 102a 0100     		.2byte	0x1
 10912 102c 51       		.byte	0x51
 10913 102d 2C000000 		.4byte	.LVL129
 10914 1031 36000000 		.4byte	.LVL131
 10915 1035 0400     		.2byte	0x4
 10916 1037 F3       		.byte	0xf3
 10917 1038 01       		.uleb128 0x1
 10918 1039 51       		.byte	0x51
 10919 103a 9F       		.byte	0x9f
 10920 103b 36000000 		.4byte	.LVL131
 10921 103f 3B000000 		.4byte	.LVL133-1
 10922 1043 0100     		.2byte	0x1
 10923 1045 51       		.byte	0x51
 10924 1046 3B000000 		.4byte	.LVL133-1
 10925 104a A4000000 		.4byte	.LVL150
 10926 104e 0400     		.2byte	0x4
 10927 1050 F3       		.byte	0xf3
 10928 1051 01       		.uleb128 0x1
 10929 1052 51       		.byte	0x51
 10930 1053 9F       		.byte	0x9f
 10931 1054 A4000000 		.4byte	.LVL150
 10932 1058 A7000000 		.4byte	.LVL151-1
 10933 105c 0100     		.2byte	0x1
 10934 105e 51       		.byte	0x51
 10935 105f A7000000 		.4byte	.LVL151-1
 10936 1063 BA000000 		.4byte	.LVL154
 10937 1067 0400     		.2byte	0x4
 10938 1069 F3       		.byte	0xf3
 10939 106a 01       		.uleb128 0x1
 10940 106b 51       		.byte	0x51
 10941 106c 9F       		.byte	0x9f
 10942 106d BA000000 		.4byte	.LVL154
 10943 1071 BD000000 		.4byte	.LVL155-1
 10944 1075 0100     		.2byte	0x1
 10945 1077 51       		.byte	0x51
 10946 1078 BD000000 		.4byte	.LVL155-1
 10947 107c CC000000 		.4byte	.LVL157
 10948 1080 0400     		.2byte	0x4
 10949 1082 F3       		.byte	0xf3
 10950 1083 01       		.uleb128 0x1
 10951 1084 51       		.byte	0x51
 10952 1085 9F       		.byte	0x9f
 10953 1086 CC000000 		.4byte	.LVL157
 10954 108a CE000000 		.4byte	.LVL158
 10955 108e 0100     		.2byte	0x1
 10956 1090 51       		.byte	0x51
 10957 1091 CE000000 		.4byte	.LVL158
 10958 1095 D8000000 		.4byte	.LVL160
 10959 1099 0400     		.2byte	0x4
 10960 109b F3       		.byte	0xf3
 10961 109c 01       		.uleb128 0x1
ARM GAS  C:\Users\info\AppData\Local\Temp\ccQPGqkW.s 			page 222


 10962 109d 51       		.byte	0x51
 10963 109e 9F       		.byte	0x9f
 10964 109f D8000000 		.4byte	.LVL160
 10965 10a3 DA000000 		.4byte	.LVL161
 10966 10a7 0100     		.2byte	0x1
 10967 10a9 51       		.byte	0x51
 10968 10aa DA000000 		.4byte	.LVL161
 10969 10ae E4000000 		.4byte	.LVL163
 10970 10b2 0400     		.2byte	0x4
 10971 10b4 F3       		.byte	0xf3
 10972 10b5 01       		.uleb128 0x1
 10973 10b6 51       		.byte	0x51
 10974 10b7 9F       		.byte	0x9f
 10975 10b8 E4000000 		.4byte	.LVL163
 10976 10bc E8000000 		.4byte	.LVL164
 10977 10c0 0100     		.2byte	0x1
 10978 10c2 51       		.byte	0x51
 10979 10c3 E8000000 		.4byte	.LVL164
 10980 10c7 FA000000 		.4byte	.LVL166
 10981 10cb 0400     		.2byte	0x4
 10982 10cd F3       		.byte	0xf3
 10983 10ce 01       		.uleb128 0x1
 10984 10cf 51       		.byte	0x51
 10985 10d0 9F       		.byte	0x9f
 10986 10d1 FA000000 		.4byte	.LVL166
 10987 10d5 FC000000 		.4byte	.LVL167
 10988 10d9 0100     		.2byte	0x1
 10989 10db 51       		.byte	0x51
 10990 10dc FC000000 		.4byte	.LVL167
 10991 10e0 28010000 		.4byte	.LFE3
 10992 10e4 0400     		.2byte	0x4
 10993 10e6 F3       		.byte	0xf3
 10994 10e7 01       		.uleb128 0x1
 10995 10e8 51       		.byte	0x51
 10996 10e9 9F       		.byte	0x9f
 10997 10ea 00000000 		.4byte	0
 10998 10ee 00000000 		.4byte	0
 10999              	.LLST43:
 11000 10f2 00000000 		.4byte	.LVL124
 11001 10f6 2F000000 		.4byte	.LVL130-1
 11002 10fa 0100     		.2byte	0x1
 11003 10fc 52       		.byte	0x52
 11004 10fd 2F000000 		.4byte	.LVL130-1
 11005 1101 36000000 		.4byte	.LVL131
 11006 1105 0400     		.2byte	0x4
 11007 1107 F3       		.byte	0xf3
 11008 1108 01       		.uleb128 0x1
 11009 1109 52       		.byte	0x52
 11010 110a 9F       		.byte	0x9f
 11011 110b 36000000 		.4byte	.LVL131
 11012 110f 3B000000 		.4byte	.LVL133-1
 11013 1113 0100     		.2byte	0x1
 11014 1115 52       		.byte	0x52
 11015 1116 3B000000 		.4byte	.LVL133-1
 11016 111a A4000000 		.4byte	.LVL150
 11017 111e 0400     		.2byte	0x4
 11018 1120 F3       		.byte	0xf3
ARM GAS  C:\Users\info\AppData\Local\Temp\ccQPGqkW.s 			page 223


 11019 1121 01       		.uleb128 0x1
 11020 1122 52       		.byte	0x52
 11021 1123 9F       		.byte	0x9f
 11022 1124 A4000000 		.4byte	.LVL150
 11023 1128 A7000000 		.4byte	.LVL151-1
 11024 112c 0100     		.2byte	0x1
 11025 112e 52       		.byte	0x52
 11026 112f A7000000 		.4byte	.LVL151-1
 11027 1133 BA000000 		.4byte	.LVL154
 11028 1137 0400     		.2byte	0x4
 11029 1139 F3       		.byte	0xf3
 11030 113a 01       		.uleb128 0x1
 11031 113b 52       		.byte	0x52
 11032 113c 9F       		.byte	0x9f
 11033 113d BA000000 		.4byte	.LVL154
 11034 1141 BD000000 		.4byte	.LVL155-1
 11035 1145 0100     		.2byte	0x1
 11036 1147 52       		.byte	0x52
 11037 1148 BD000000 		.4byte	.LVL155-1
 11038 114c CC000000 		.4byte	.LVL157
 11039 1150 0400     		.2byte	0x4
 11040 1152 F3       		.byte	0xf3
 11041 1153 01       		.uleb128 0x1
 11042 1154 52       		.byte	0x52
 11043 1155 9F       		.byte	0x9f
 11044 1156 CC000000 		.4byte	.LVL157
 11045 115a D1000000 		.4byte	.LVL159-1
 11046 115e 0100     		.2byte	0x1
 11047 1160 52       		.byte	0x52
 11048 1161 D1000000 		.4byte	.LVL159-1
 11049 1165 D8000000 		.4byte	.LVL160
 11050 1169 0400     		.2byte	0x4
 11051 116b F3       		.byte	0xf3
 11052 116c 01       		.uleb128 0x1
 11053 116d 52       		.byte	0x52
 11054 116e 9F       		.byte	0x9f
 11055 116f D8000000 		.4byte	.LVL160
 11056 1173 DD000000 		.4byte	.LVL162-1
 11057 1177 0100     		.2byte	0x1
 11058 1179 52       		.byte	0x52
 11059 117a DD000000 		.4byte	.LVL162-1
 11060 117e E4000000 		.4byte	.LVL163
 11061 1182 0400     		.2byte	0x4
 11062 1184 F3       		.byte	0xf3
 11063 1185 01       		.uleb128 0x1
 11064 1186 52       		.byte	0x52
 11065 1187 9F       		.byte	0x9f
 11066 1188 E4000000 		.4byte	.LVL163
 11067 118c EB000000 		.4byte	.LVL165-1
 11068 1190 0100     		.2byte	0x1
 11069 1192 52       		.byte	0x52
 11070 1193 EB000000 		.4byte	.LVL165-1
 11071 1197 FA000000 		.4byte	.LVL166
 11072 119b 0400     		.2byte	0x4
 11073 119d F3       		.byte	0xf3
 11074 119e 01       		.uleb128 0x1
 11075 119f 52       		.byte	0x52
ARM GAS  C:\Users\info\AppData\Local\Temp\ccQPGqkW.s 			page 224


 11076 11a0 9F       		.byte	0x9f
 11077 11a1 FA000000 		.4byte	.LVL166
 11078 11a5 FF000000 		.4byte	.LVL168-1
 11079 11a9 0100     		.2byte	0x1
 11080 11ab 52       		.byte	0x52
 11081 11ac FF000000 		.4byte	.LVL168-1
 11082 11b0 28010000 		.4byte	.LFE3
 11083 11b4 0400     		.2byte	0x4
 11084 11b6 F3       		.byte	0xf3
 11085 11b7 01       		.uleb128 0x1
 11086 11b8 52       		.byte	0x52
 11087 11b9 9F       		.byte	0x9f
 11088 11ba 00000000 		.4byte	0
 11089 11be 00000000 		.4byte	0
 11090              	.LLST44:
 11091 11c2 00000000 		.4byte	.LVL124
 11092 11c6 2F000000 		.4byte	.LVL130-1
 11093 11ca 0100     		.2byte	0x1
 11094 11cc 53       		.byte	0x53
 11095 11cd 2F000000 		.4byte	.LVL130-1
 11096 11d1 36000000 		.4byte	.LVL131
 11097 11d5 0400     		.2byte	0x4
 11098 11d7 F3       		.byte	0xf3
 11099 11d8 01       		.uleb128 0x1
 11100 11d9 53       		.byte	0x53
 11101 11da 9F       		.byte	0x9f
 11102 11db 36000000 		.4byte	.LVL131
 11103 11df 3B000000 		.4byte	.LVL133-1
 11104 11e3 0100     		.2byte	0x1
 11105 11e5 53       		.byte	0x53
 11106 11e6 3B000000 		.4byte	.LVL133-1
 11107 11ea 74000000 		.4byte	.LVL141
 11108 11ee 0100     		.2byte	0x1
 11109 11f0 57       		.byte	0x57
 11110 11f1 74000000 		.4byte	.LVL141
 11111 11f5 A4000000 		.4byte	.LVL150
 11112 11f9 0400     		.2byte	0x4
 11113 11fb F3       		.byte	0xf3
 11114 11fc 01       		.uleb128 0x1
 11115 11fd 53       		.byte	0x53
 11116 11fe 9F       		.byte	0x9f
 11117 11ff A4000000 		.4byte	.LVL150
 11118 1203 A7000000 		.4byte	.LVL151-1
 11119 1207 0100     		.2byte	0x1
 11120 1209 53       		.byte	0x53
 11121 120a A7000000 		.4byte	.LVL151-1
 11122 120e BA000000 		.4byte	.LVL154
 11123 1212 0400     		.2byte	0x4
 11124 1214 F3       		.byte	0xf3
 11125 1215 01       		.uleb128 0x1
 11126 1216 53       		.byte	0x53
 11127 1217 9F       		.byte	0x9f
 11128 1218 BA000000 		.4byte	.LVL154
 11129 121c BD000000 		.4byte	.LVL155-1
 11130 1220 0100     		.2byte	0x1
 11131 1222 53       		.byte	0x53
 11132 1223 BD000000 		.4byte	.LVL155-1
ARM GAS  C:\Users\info\AppData\Local\Temp\ccQPGqkW.s 			page 225


 11133 1227 CC000000 		.4byte	.LVL157
 11134 122b 0400     		.2byte	0x4
 11135 122d F3       		.byte	0xf3
 11136 122e 01       		.uleb128 0x1
 11137 122f 53       		.byte	0x53
 11138 1230 9F       		.byte	0x9f
 11139 1231 CC000000 		.4byte	.LVL157
 11140 1235 D1000000 		.4byte	.LVL159-1
 11141 1239 0100     		.2byte	0x1
 11142 123b 53       		.byte	0x53
 11143 123c D1000000 		.4byte	.LVL159-1
 11144 1240 D8000000 		.4byte	.LVL160
 11145 1244 0400     		.2byte	0x4
 11146 1246 F3       		.byte	0xf3
 11147 1247 01       		.uleb128 0x1
 11148 1248 53       		.byte	0x53
 11149 1249 9F       		.byte	0x9f
 11150 124a D8000000 		.4byte	.LVL160
 11151 124e DD000000 		.4byte	.LVL162-1
 11152 1252 0100     		.2byte	0x1
 11153 1254 53       		.byte	0x53
 11154 1255 DD000000 		.4byte	.LVL162-1
 11155 1259 E4000000 		.4byte	.LVL163
 11156 125d 0400     		.2byte	0x4
 11157 125f F3       		.byte	0xf3
 11158 1260 01       		.uleb128 0x1
 11159 1261 53       		.byte	0x53
 11160 1262 9F       		.byte	0x9f
 11161 1263 E4000000 		.4byte	.LVL163
 11162 1267 EB000000 		.4byte	.LVL165-1
 11163 126b 0100     		.2byte	0x1
 11164 126d 53       		.byte	0x53
 11165 126e EB000000 		.4byte	.LVL165-1
 11166 1272 FA000000 		.4byte	.LVL166
 11167 1276 0400     		.2byte	0x4
 11168 1278 F3       		.byte	0xf3
 11169 1279 01       		.uleb128 0x1
 11170 127a 53       		.byte	0x53
 11171 127b 9F       		.byte	0x9f
 11172 127c FA000000 		.4byte	.LVL166
 11173 1280 FF000000 		.4byte	.LVL168-1
 11174 1284 0100     		.2byte	0x1
 11175 1286 53       		.byte	0x53
 11176 1287 FF000000 		.4byte	.LVL168-1
 11177 128b 28010000 		.4byte	.LFE3
 11178 128f 0400     		.2byte	0x4
 11179 1291 F3       		.byte	0xf3
 11180 1292 01       		.uleb128 0x1
 11181 1293 53       		.byte	0x53
 11182 1294 9F       		.byte	0x9f
 11183 1295 00000000 		.4byte	0
 11184 1299 00000000 		.4byte	0
 11185              	.LLST45:
 11186 129d 0A000000 		.4byte	.LVL125
 11187 12a1 14000000 		.4byte	.LVL126
 11188 12a5 0100     		.2byte	0x1
 11189 12a7 53       		.byte	0x53
ARM GAS  C:\Users\info\AppData\Local\Temp\ccQPGqkW.s 			page 226


 11190 12a8 26000000 		.4byte	.LVL128
 11191 12ac 2F000000 		.4byte	.LVL130-1
 11192 12b0 0100     		.2byte	0x1
 11193 12b2 53       		.byte	0x53
 11194 12b3 2F000000 		.4byte	.LVL130-1
 11195 12b7 30000000 		.4byte	.LVL130
 11196 12bb 0400     		.2byte	0x4
 11197 12bd F3       		.byte	0xf3
 11198 12be 01       		.uleb128 0x1
 11199 12bf 53       		.byte	0x53
 11200 12c0 9F       		.byte	0x9f
 11201 12c1 36000000 		.4byte	.LVL131
 11202 12c5 3B000000 		.4byte	.LVL133-1
 11203 12c9 0100     		.2byte	0x1
 11204 12cb 53       		.byte	0x53
 11205 12cc 3B000000 		.4byte	.LVL133-1
 11206 12d0 74000000 		.4byte	.LVL141
 11207 12d4 0100     		.2byte	0x1
 11208 12d6 57       		.byte	0x57
 11209 12d7 74000000 		.4byte	.LVL141
 11210 12db 9E000000 		.4byte	.LVL149
 11211 12df 0400     		.2byte	0x4
 11212 12e1 F3       		.byte	0xf3
 11213 12e2 01       		.uleb128 0x1
 11214 12e3 53       		.byte	0x53
 11215 12e4 9F       		.byte	0x9f
 11216 12e5 A4000000 		.4byte	.LVL150
 11217 12e9 A7000000 		.4byte	.LVL151-1
 11218 12ed 0100     		.2byte	0x1
 11219 12ef 53       		.byte	0x53
 11220 12f0 A7000000 		.4byte	.LVL151-1
 11221 12f4 BA000000 		.4byte	.LVL154
 11222 12f8 0400     		.2byte	0x4
 11223 12fa F3       		.byte	0xf3
 11224 12fb 01       		.uleb128 0x1
 11225 12fc 53       		.byte	0x53
 11226 12fd 9F       		.byte	0x9f
 11227 12fe CC000000 		.4byte	.LVL157
 11228 1302 D1000000 		.4byte	.LVL159-1
 11229 1306 0100     		.2byte	0x1
 11230 1308 53       		.byte	0x53
 11231 1309 D1000000 		.4byte	.LVL159-1
 11232 130d D2000000 		.4byte	.LVL159
 11233 1311 0400     		.2byte	0x4
 11234 1313 F3       		.byte	0xf3
 11235 1314 01       		.uleb128 0x1
 11236 1315 53       		.byte	0x53
 11237 1316 9F       		.byte	0x9f
 11238 1317 00000000 		.4byte	0
 11239 131b 00000000 		.4byte	0
 11240              	.LLST46:
 11241 131f 0A000000 		.4byte	.LVL125
 11242 1323 14000000 		.4byte	.LVL126
 11243 1327 0100     		.2byte	0x1
 11244 1329 52       		.byte	0x52
 11245 132a 26000000 		.4byte	.LVL128
 11246 132e 2F000000 		.4byte	.LVL130-1
ARM GAS  C:\Users\info\AppData\Local\Temp\ccQPGqkW.s 			page 227


 11247 1332 0100     		.2byte	0x1
 11248 1334 52       		.byte	0x52
 11249 1335 2F000000 		.4byte	.LVL130-1
 11250 1339 30000000 		.4byte	.LVL130
 11251 133d 0400     		.2byte	0x4
 11252 133f F3       		.byte	0xf3
 11253 1340 01       		.uleb128 0x1
 11254 1341 52       		.byte	0x52
 11255 1342 9F       		.byte	0x9f
 11256 1343 36000000 		.4byte	.LVL131
 11257 1347 3B000000 		.4byte	.LVL133-1
 11258 134b 0100     		.2byte	0x1
 11259 134d 52       		.byte	0x52
 11260 134e 3B000000 		.4byte	.LVL133-1
 11261 1352 9E000000 		.4byte	.LVL149
 11262 1356 0400     		.2byte	0x4
 11263 1358 F3       		.byte	0xf3
 11264 1359 01       		.uleb128 0x1
 11265 135a 52       		.byte	0x52
 11266 135b 9F       		.byte	0x9f
 11267 135c A4000000 		.4byte	.LVL150
 11268 1360 A7000000 		.4byte	.LVL151-1
 11269 1364 0100     		.2byte	0x1
 11270 1366 52       		.byte	0x52
 11271 1367 A7000000 		.4byte	.LVL151-1
 11272 136b BA000000 		.4byte	.LVL154
 11273 136f 0400     		.2byte	0x4
 11274 1371 F3       		.byte	0xf3
 11275 1372 01       		.uleb128 0x1
 11276 1373 52       		.byte	0x52
 11277 1374 9F       		.byte	0x9f
 11278 1375 CC000000 		.4byte	.LVL157
 11279 1379 D1000000 		.4byte	.LVL159-1
 11280 137d 0100     		.2byte	0x1
 11281 137f 52       		.byte	0x52
 11282 1380 D1000000 		.4byte	.LVL159-1
 11283 1384 D2000000 		.4byte	.LVL159
 11284 1388 0400     		.2byte	0x4
 11285 138a F3       		.byte	0xf3
 11286 138b 01       		.uleb128 0x1
 11287 138c 52       		.byte	0x52
 11288 138d 9F       		.byte	0x9f
 11289 138e 00000000 		.4byte	0
 11290 1392 00000000 		.4byte	0
 11291              	.LLST47:
 11292 1396 0A000000 		.4byte	.LVL125
 11293 139a 14000000 		.4byte	.LVL126
 11294 139e 0100     		.2byte	0x1
 11295 13a0 51       		.byte	0x51
 11296 13a1 26000000 		.4byte	.LVL128
 11297 13a5 2C000000 		.4byte	.LVL129
 11298 13a9 0100     		.2byte	0x1
 11299 13ab 51       		.byte	0x51
 11300 13ac 2C000000 		.4byte	.LVL129
 11301 13b0 30000000 		.4byte	.LVL130
 11302 13b4 0400     		.2byte	0x4
 11303 13b6 F3       		.byte	0xf3
ARM GAS  C:\Users\info\AppData\Local\Temp\ccQPGqkW.s 			page 228


 11304 13b7 01       		.uleb128 0x1
 11305 13b8 51       		.byte	0x51
 11306 13b9 9F       		.byte	0x9f
 11307 13ba 36000000 		.4byte	.LVL131
 11308 13be 3B000000 		.4byte	.LVL133-1
 11309 13c2 0100     		.2byte	0x1
 11310 13c4 51       		.byte	0x51
 11311 13c5 3B000000 		.4byte	.LVL133-1
 11312 13c9 9E000000 		.4byte	.LVL149
 11313 13cd 0400     		.2byte	0x4
 11314 13cf F3       		.byte	0xf3
 11315 13d0 01       		.uleb128 0x1
 11316 13d1 51       		.byte	0x51
 11317 13d2 9F       		.byte	0x9f
 11318 13d3 A4000000 		.4byte	.LVL150
 11319 13d7 A7000000 		.4byte	.LVL151-1
 11320 13db 0100     		.2byte	0x1
 11321 13dd 51       		.byte	0x51
 11322 13de A7000000 		.4byte	.LVL151-1
 11323 13e2 BA000000 		.4byte	.LVL154
 11324 13e6 0400     		.2byte	0x4
 11325 13e8 F3       		.byte	0xf3
 11326 13e9 01       		.uleb128 0x1
 11327 13ea 51       		.byte	0x51
 11328 13eb 9F       		.byte	0x9f
 11329 13ec CC000000 		.4byte	.LVL157
 11330 13f0 CE000000 		.4byte	.LVL158
 11331 13f4 0100     		.2byte	0x1
 11332 13f6 51       		.byte	0x51
 11333 13f7 CE000000 		.4byte	.LVL158
 11334 13fb D2000000 		.4byte	.LVL159
 11335 13ff 0400     		.2byte	0x4
 11336 1401 F3       		.byte	0xf3
 11337 1402 01       		.uleb128 0x1
 11338 1403 51       		.byte	0x51
 11339 1404 9F       		.byte	0x9f
 11340 1405 00000000 		.4byte	0
 11341 1409 00000000 		.4byte	0
 11342              	.LLST48:
 11343 140d 0A000000 		.4byte	.LVL125
 11344 1411 14000000 		.4byte	.LVL126
 11345 1415 0100     		.2byte	0x1
 11346 1417 50       		.byte	0x50
 11347 1418 26000000 		.4byte	.LVL128
 11348 141c 2F000000 		.4byte	.LVL130-1
 11349 1420 0100     		.2byte	0x1
 11350 1422 50       		.byte	0x50
 11351 1423 2F000000 		.4byte	.LVL130-1
 11352 1427 30000000 		.4byte	.LVL130
 11353 142b 0100     		.2byte	0x1
 11354 142d 55       		.byte	0x55
 11355 142e 36000000 		.4byte	.LVL131
 11356 1432 3B000000 		.4byte	.LVL133-1
 11357 1436 0100     		.2byte	0x1
 11358 1438 50       		.byte	0x50
 11359 1439 3B000000 		.4byte	.LVL133-1
 11360 143d 9E000000 		.4byte	.LVL149
ARM GAS  C:\Users\info\AppData\Local\Temp\ccQPGqkW.s 			page 229


 11361 1441 0100     		.2byte	0x1
 11362 1443 55       		.byte	0x55
 11363 1444 A4000000 		.4byte	.LVL150
 11364 1448 A7000000 		.4byte	.LVL151-1
 11365 144c 0100     		.2byte	0x1
 11366 144e 50       		.byte	0x50
 11367 144f A7000000 		.4byte	.LVL151-1
 11368 1453 BA000000 		.4byte	.LVL154
 11369 1457 0100     		.2byte	0x1
 11370 1459 55       		.byte	0x55
 11371 145a CC000000 		.4byte	.LVL157
 11372 145e D1000000 		.4byte	.LVL159-1
 11373 1462 0100     		.2byte	0x1
 11374 1464 50       		.byte	0x50
 11375 1465 D1000000 		.4byte	.LVL159-1
 11376 1469 D2000000 		.4byte	.LVL159
 11377 146d 0100     		.2byte	0x1
 11378 146f 55       		.byte	0x55
 11379 1470 00000000 		.4byte	0
 11380 1474 00000000 		.4byte	0
 11381              	.LLST49:
 11382 1478 38000000 		.4byte	.LVL132
 11383 147c 98000000 		.4byte	.LVL148
 11384 1480 0200     		.2byte	0x2
 11385 1482 3F       		.byte	0x3f
 11386 1483 9F       		.byte	0x9f
 11387 1484 00000000 		.4byte	0
 11388 1488 00000000 		.4byte	0
 11389              	.LLST50:
 11390 148c 38000000 		.4byte	.LVL132
 11391 1490 74000000 		.4byte	.LVL141
 11392 1494 0100     		.2byte	0x1
 11393 1496 57       		.byte	0x57
 11394 1497 74000000 		.4byte	.LVL141
 11395 149b 98000000 		.4byte	.LVL148
 11396 149f 0400     		.2byte	0x4
 11397 14a1 F3       		.byte	0xf3
 11398 14a2 01       		.uleb128 0x1
 11399 14a3 53       		.byte	0x53
 11400 14a4 9F       		.byte	0x9f
 11401 14a5 00000000 		.4byte	0
 11402 14a9 00000000 		.4byte	0
 11403              	.LLST51:
 11404 14ad 36000000 		.4byte	.LVL131
 11405 14b1 92000000 		.4byte	.LVL147
 11406 14b5 0100     		.2byte	0x1
 11407 14b7 54       		.byte	0x54
 11408 14b8 92000000 		.4byte	.LVL147
 11409 14bc 98000000 		.4byte	.LVL148
 11410 14c0 0100     		.2byte	0x1
 11411 14c2 52       		.byte	0x52
 11412 14c3 00000000 		.4byte	0
 11413 14c7 00000000 		.4byte	0
 11414              	.LLST52:
 11415 14cb 36000000 		.4byte	.LVL131
 11416 14cf 3B000000 		.4byte	.LVL133-1
 11417 14d3 0100     		.2byte	0x1
ARM GAS  C:\Users\info\AppData\Local\Temp\ccQPGqkW.s 			page 230


 11418 14d5 50       		.byte	0x50
 11419 14d6 3B000000 		.4byte	.LVL133-1
 11420 14da 98000000 		.4byte	.LVL148
 11421 14de 0100     		.2byte	0x1
 11422 14e0 55       		.byte	0x55
 11423 14e1 00000000 		.4byte	0
 11424 14e5 00000000 		.4byte	0
 11425              	.LLST53:
 11426 14e9 44000000 		.4byte	.LVL134
 11427 14ed 4A000000 		.4byte	.LVL135
 11428 14f1 0800     		.2byte	0x8
 11429 14f3 78       		.byte	0x78
 11430 14f4 00       		.sleb128 0
 11431 14f5 33       		.byte	0x33
 11432 14f6 24       		.byte	0x24
 11433 14f7 08       		.byte	0x8
 11434 14f8 F8       		.byte	0xf8
 11435 14f9 1A       		.byte	0x1a
 11436 14fa 9F       		.byte	0x9f
 11437 14fb 4A000000 		.4byte	.LVL135
 11438 14ff 4E000000 		.4byte	.LVL136
 11439 1503 0D00     		.2byte	0xd
 11440 1505 77       		.byte	0x77
 11441 1506 05       		.sleb128 5
 11442 1507 94       		.byte	0x94
 11443 1508 01       		.byte	0x1
 11444 1509 08       		.byte	0x8
 11445 150a FF       		.byte	0xff
 11446 150b 1A       		.byte	0x1a
 11447 150c 33       		.byte	0x33
 11448 150d 24       		.byte	0x24
 11449 150e 08       		.byte	0x8
 11450 150f F8       		.byte	0xf8
 11451 1510 1A       		.byte	0x1a
 11452 1511 9F       		.byte	0x9f
 11453 1512 4E000000 		.4byte	.LVL136
 11454 1516 98000000 		.4byte	.LVL148
 11455 151a 0100     		.2byte	0x1
 11456 151c 58       		.byte	0x58
 11457 151d 00000000 		.4byte	0
 11458 1521 00000000 		.4byte	0
 11459              	.LLST54:
 11460 1525 72000000 		.4byte	.LVL140
 11461 1529 76000000 		.4byte	.LVL142
 11462 152d 0100     		.2byte	0x1
 11463 152f 56       		.byte	0x56
 11464 1530 76000000 		.4byte	.LVL142
 11465 1534 78000000 		.4byte	.LVL143
 11466 1538 0500     		.2byte	0x5
 11467 153a F3       		.byte	0xf3
 11468 153b 01       		.uleb128 0x1
 11469 153c 53       		.byte	0x53
 11470 153d 23       		.byte	0x23
 11471 153e 04       		.uleb128 0x4
 11472 153f 78000000 		.4byte	.LVL143
 11473 1543 7E000000 		.4byte	.LVL144
 11474 1547 0100     		.2byte	0x1
ARM GAS  C:\Users\info\AppData\Local\Temp\ccQPGqkW.s 			page 231


 11475 1549 56       		.byte	0x56
 11476 154a 7E000000 		.4byte	.LVL144
 11477 154e 86000000 		.4byte	.LVL145
 11478 1552 0300     		.2byte	0x3
 11479 1554 09       		.byte	0x9
 11480 1555 84       		.byte	0x84
 11481 1556 9F       		.byte	0x9f
 11482 1557 86000000 		.4byte	.LVL145
 11483 155b 98000000 		.4byte	.LVL148
 11484 155f 0100     		.2byte	0x1
 11485 1561 56       		.byte	0x56
 11486 1562 00000000 		.4byte	0
 11487 1566 00000000 		.4byte	0
 11488              	.LLST55:
 11489 156a 78000000 		.4byte	.LVL143
 11490 156e 98000000 		.4byte	.LVL148
 11491 1572 0100     		.2byte	0x1
 11492 1574 57       		.byte	0x57
 11493 1575 00000000 		.4byte	0
 11494 1579 00000000 		.4byte	0
 11495              	.LLST56:
 11496 157d 00000000 		.4byte	.LVL170
 11497 1581 22000000 		.4byte	.LVL173
 11498 1585 0100     		.2byte	0x1
 11499 1587 50       		.byte	0x50
 11500 1588 22000000 		.4byte	.LVL173
 11501 158c 26000000 		.4byte	.LVL174
 11502 1590 0100     		.2byte	0x1
 11503 1592 55       		.byte	0x55
 11504 1593 26000000 		.4byte	.LVL174
 11505 1597 2F000000 		.4byte	.LVL176-1
 11506 159b 0100     		.2byte	0x1
 11507 159d 50       		.byte	0x50
 11508 159e 2F000000 		.4byte	.LVL176-1
 11509 15a2 36000000 		.4byte	.LVL177
 11510 15a6 0100     		.2byte	0x1
 11511 15a8 55       		.byte	0x55
 11512 15a9 36000000 		.4byte	.LVL177
 11513 15ad 3B000000 		.4byte	.LVL179-1
 11514 15b1 0100     		.2byte	0x1
 11515 15b3 50       		.byte	0x50
 11516 15b4 3B000000 		.4byte	.LVL179-1
 11517 15b8 A4000000 		.4byte	.LVL196
 11518 15bc 0100     		.2byte	0x1
 11519 15be 55       		.byte	0x55
 11520 15bf A4000000 		.4byte	.LVL196
 11521 15c3 A7000000 		.4byte	.LVL197-1
 11522 15c7 0100     		.2byte	0x1
 11523 15c9 50       		.byte	0x50
 11524 15ca A7000000 		.4byte	.LVL197-1
 11525 15ce BA000000 		.4byte	.LVL200
 11526 15d2 0100     		.2byte	0x1
 11527 15d4 55       		.byte	0x55
 11528 15d5 BA000000 		.4byte	.LVL200
 11529 15d9 BD000000 		.4byte	.LVL201-1
 11530 15dd 0100     		.2byte	0x1
 11531 15df 50       		.byte	0x50
ARM GAS  C:\Users\info\AppData\Local\Temp\ccQPGqkW.s 			page 232


 11532 15e0 BD000000 		.4byte	.LVL201-1
 11533 15e4 CC000000 		.4byte	.LVL203
 11534 15e8 0100     		.2byte	0x1
 11535 15ea 55       		.byte	0x55
 11536 15eb CC000000 		.4byte	.LVL203
 11537 15ef D1000000 		.4byte	.LVL205-1
 11538 15f3 0100     		.2byte	0x1
 11539 15f5 50       		.byte	0x50
 11540 15f6 D1000000 		.4byte	.LVL205-1
 11541 15fa D8000000 		.4byte	.LVL206
 11542 15fe 0100     		.2byte	0x1
 11543 1600 55       		.byte	0x55
 11544 1601 D8000000 		.4byte	.LVL206
 11545 1605 DD000000 		.4byte	.LVL208-1
 11546 1609 0100     		.2byte	0x1
 11547 160b 50       		.byte	0x50
 11548 160c DD000000 		.4byte	.LVL208-1
 11549 1610 E4000000 		.4byte	.LVL209
 11550 1614 0100     		.2byte	0x1
 11551 1616 55       		.byte	0x55
 11552 1617 E4000000 		.4byte	.LVL209
 11553 161b EB000000 		.4byte	.LVL211-1
 11554 161f 0100     		.2byte	0x1
 11555 1621 50       		.byte	0x50
 11556 1622 EB000000 		.4byte	.LVL211-1
 11557 1626 FA000000 		.4byte	.LVL212
 11558 162a 0100     		.2byte	0x1
 11559 162c 55       		.byte	0x55
 11560 162d FA000000 		.4byte	.LVL212
 11561 1631 FF000000 		.4byte	.LVL214-1
 11562 1635 0100     		.2byte	0x1
 11563 1637 50       		.byte	0x50
 11564 1638 FF000000 		.4byte	.LVL214-1
 11565 163c 0E010000 		.4byte	.LVL215
 11566 1640 0100     		.2byte	0x1
 11567 1642 55       		.byte	0x55
 11568 1643 0E010000 		.4byte	.LVL215
 11569 1647 28010000 		.4byte	.LFE4
 11570 164b 0400     		.2byte	0x4
 11571 164d F3       		.byte	0xf3
 11572 164e 01       		.uleb128 0x1
 11573 164f 50       		.byte	0x50
 11574 1650 9F       		.byte	0x9f
 11575 1651 00000000 		.4byte	0
 11576 1655 00000000 		.4byte	0
 11577              	.LLST57:
 11578 1659 00000000 		.4byte	.LVL170
 11579 165d 2C000000 		.4byte	.LVL175
 11580 1661 0100     		.2byte	0x1
 11581 1663 51       		.byte	0x51
 11582 1664 2C000000 		.4byte	.LVL175
 11583 1668 36000000 		.4byte	.LVL177
 11584 166c 0400     		.2byte	0x4
 11585 166e F3       		.byte	0xf3
 11586 166f 01       		.uleb128 0x1
 11587 1670 51       		.byte	0x51
 11588 1671 9F       		.byte	0x9f
ARM GAS  C:\Users\info\AppData\Local\Temp\ccQPGqkW.s 			page 233


 11589 1672 36000000 		.4byte	.LVL177
 11590 1676 3B000000 		.4byte	.LVL179-1
 11591 167a 0100     		.2byte	0x1
 11592 167c 51       		.byte	0x51
 11593 167d 3B000000 		.4byte	.LVL179-1
 11594 1681 A4000000 		.4byte	.LVL196
 11595 1685 0400     		.2byte	0x4
 11596 1687 F3       		.byte	0xf3
 11597 1688 01       		.uleb128 0x1
 11598 1689 51       		.byte	0x51
 11599 168a 9F       		.byte	0x9f
 11600 168b A4000000 		.4byte	.LVL196
 11601 168f A7000000 		.4byte	.LVL197-1
 11602 1693 0100     		.2byte	0x1
 11603 1695 51       		.byte	0x51
 11604 1696 A7000000 		.4byte	.LVL197-1
 11605 169a BA000000 		.4byte	.LVL200
 11606 169e 0400     		.2byte	0x4
 11607 16a0 F3       		.byte	0xf3
 11608 16a1 01       		.uleb128 0x1
 11609 16a2 51       		.byte	0x51
 11610 16a3 9F       		.byte	0x9f
 11611 16a4 BA000000 		.4byte	.LVL200
 11612 16a8 BD000000 		.4byte	.LVL201-1
 11613 16ac 0100     		.2byte	0x1
 11614 16ae 51       		.byte	0x51
 11615 16af BD000000 		.4byte	.LVL201-1
 11616 16b3 CC000000 		.4byte	.LVL203
 11617 16b7 0400     		.2byte	0x4
 11618 16b9 F3       		.byte	0xf3
 11619 16ba 01       		.uleb128 0x1
 11620 16bb 51       		.byte	0x51
 11621 16bc 9F       		.byte	0x9f
 11622 16bd CC000000 		.4byte	.LVL203
 11623 16c1 CE000000 		.4byte	.LVL204
 11624 16c5 0100     		.2byte	0x1
 11625 16c7 51       		.byte	0x51
 11626 16c8 CE000000 		.4byte	.LVL204
 11627 16cc D8000000 		.4byte	.LVL206
 11628 16d0 0400     		.2byte	0x4
 11629 16d2 F3       		.byte	0xf3
 11630 16d3 01       		.uleb128 0x1
 11631 16d4 51       		.byte	0x51
 11632 16d5 9F       		.byte	0x9f
 11633 16d6 D8000000 		.4byte	.LVL206
 11634 16da DA000000 		.4byte	.LVL207
 11635 16de 0100     		.2byte	0x1
 11636 16e0 51       		.byte	0x51
 11637 16e1 DA000000 		.4byte	.LVL207
 11638 16e5 E4000000 		.4byte	.LVL209
 11639 16e9 0400     		.2byte	0x4
 11640 16eb F3       		.byte	0xf3
 11641 16ec 01       		.uleb128 0x1
 11642 16ed 51       		.byte	0x51
 11643 16ee 9F       		.byte	0x9f
 11644 16ef E4000000 		.4byte	.LVL209
 11645 16f3 E8000000 		.4byte	.LVL210
ARM GAS  C:\Users\info\AppData\Local\Temp\ccQPGqkW.s 			page 234


 11646 16f7 0100     		.2byte	0x1
 11647 16f9 51       		.byte	0x51
 11648 16fa E8000000 		.4byte	.LVL210
 11649 16fe FA000000 		.4byte	.LVL212
 11650 1702 0400     		.2byte	0x4
 11651 1704 F3       		.byte	0xf3
 11652 1705 01       		.uleb128 0x1
 11653 1706 51       		.byte	0x51
 11654 1707 9F       		.byte	0x9f
 11655 1708 FA000000 		.4byte	.LVL212
 11656 170c FC000000 		.4byte	.LVL213
 11657 1710 0100     		.2byte	0x1
 11658 1712 51       		.byte	0x51
 11659 1713 FC000000 		.4byte	.LVL213
 11660 1717 28010000 		.4byte	.LFE4
 11661 171b 0400     		.2byte	0x4
 11662 171d F3       		.byte	0xf3
 11663 171e 01       		.uleb128 0x1
 11664 171f 51       		.byte	0x51
 11665 1720 9F       		.byte	0x9f
 11666 1721 00000000 		.4byte	0
 11667 1725 00000000 		.4byte	0
 11668              	.LLST58:
 11669 1729 00000000 		.4byte	.LVL170
 11670 172d 2F000000 		.4byte	.LVL176-1
 11671 1731 0100     		.2byte	0x1
 11672 1733 52       		.byte	0x52
 11673 1734 2F000000 		.4byte	.LVL176-1
 11674 1738 36000000 		.4byte	.LVL177
 11675 173c 0400     		.2byte	0x4
 11676 173e F3       		.byte	0xf3
 11677 173f 01       		.uleb128 0x1
 11678 1740 52       		.byte	0x52
 11679 1741 9F       		.byte	0x9f
 11680 1742 36000000 		.4byte	.LVL177
 11681 1746 3B000000 		.4byte	.LVL179-1
 11682 174a 0100     		.2byte	0x1
 11683 174c 52       		.byte	0x52
 11684 174d 3B000000 		.4byte	.LVL179-1
 11685 1751 A4000000 		.4byte	.LVL196
 11686 1755 0400     		.2byte	0x4
 11687 1757 F3       		.byte	0xf3
 11688 1758 01       		.uleb128 0x1
 11689 1759 52       		.byte	0x52
 11690 175a 9F       		.byte	0x9f
 11691 175b A4000000 		.4byte	.LVL196
 11692 175f A7000000 		.4byte	.LVL197-1
 11693 1763 0100     		.2byte	0x1
 11694 1765 52       		.byte	0x52
 11695 1766 A7000000 		.4byte	.LVL197-1
 11696 176a BA000000 		.4byte	.LVL200
 11697 176e 0400     		.2byte	0x4
 11698 1770 F3       		.byte	0xf3
 11699 1771 01       		.uleb128 0x1
 11700 1772 52       		.byte	0x52
 11701 1773 9F       		.byte	0x9f
 11702 1774 BA000000 		.4byte	.LVL200
ARM GAS  C:\Users\info\AppData\Local\Temp\ccQPGqkW.s 			page 235


 11703 1778 BD000000 		.4byte	.LVL201-1
 11704 177c 0100     		.2byte	0x1
 11705 177e 52       		.byte	0x52
 11706 177f BD000000 		.4byte	.LVL201-1
 11707 1783 CC000000 		.4byte	.LVL203
 11708 1787 0400     		.2byte	0x4
 11709 1789 F3       		.byte	0xf3
 11710 178a 01       		.uleb128 0x1
 11711 178b 52       		.byte	0x52
 11712 178c 9F       		.byte	0x9f
 11713 178d CC000000 		.4byte	.LVL203
 11714 1791 D1000000 		.4byte	.LVL205-1
 11715 1795 0100     		.2byte	0x1
 11716 1797 52       		.byte	0x52
 11717 1798 D1000000 		.4byte	.LVL205-1
 11718 179c D8000000 		.4byte	.LVL206
 11719 17a0 0400     		.2byte	0x4
 11720 17a2 F3       		.byte	0xf3
 11721 17a3 01       		.uleb128 0x1
 11722 17a4 52       		.byte	0x52
 11723 17a5 9F       		.byte	0x9f
 11724 17a6 D8000000 		.4byte	.LVL206
 11725 17aa DD000000 		.4byte	.LVL208-1
 11726 17ae 0100     		.2byte	0x1
 11727 17b0 52       		.byte	0x52
 11728 17b1 DD000000 		.4byte	.LVL208-1
 11729 17b5 E4000000 		.4byte	.LVL209
 11730 17b9 0400     		.2byte	0x4
 11731 17bb F3       		.byte	0xf3
 11732 17bc 01       		.uleb128 0x1
 11733 17bd 52       		.byte	0x52
 11734 17be 9F       		.byte	0x9f
 11735 17bf E4000000 		.4byte	.LVL209
 11736 17c3 EB000000 		.4byte	.LVL211-1
 11737 17c7 0100     		.2byte	0x1
 11738 17c9 52       		.byte	0x52
 11739 17ca EB000000 		.4byte	.LVL211-1
 11740 17ce FA000000 		.4byte	.LVL212
 11741 17d2 0400     		.2byte	0x4
 11742 17d4 F3       		.byte	0xf3
 11743 17d5 01       		.uleb128 0x1
 11744 17d6 52       		.byte	0x52
 11745 17d7 9F       		.byte	0x9f
 11746 17d8 FA000000 		.4byte	.LVL212
 11747 17dc FF000000 		.4byte	.LVL214-1
 11748 17e0 0100     		.2byte	0x1
 11749 17e2 52       		.byte	0x52
 11750 17e3 FF000000 		.4byte	.LVL214-1
 11751 17e7 28010000 		.4byte	.LFE4
 11752 17eb 0400     		.2byte	0x4
 11753 17ed F3       		.byte	0xf3
 11754 17ee 01       		.uleb128 0x1
 11755 17ef 52       		.byte	0x52
 11756 17f0 9F       		.byte	0x9f
 11757 17f1 00000000 		.4byte	0
 11758 17f5 00000000 		.4byte	0
 11759              	.LLST59:
ARM GAS  C:\Users\info\AppData\Local\Temp\ccQPGqkW.s 			page 236


 11760 17f9 00000000 		.4byte	.LVL170
 11761 17fd 2F000000 		.4byte	.LVL176-1
 11762 1801 0100     		.2byte	0x1
 11763 1803 53       		.byte	0x53
 11764 1804 2F000000 		.4byte	.LVL176-1
 11765 1808 36000000 		.4byte	.LVL177
 11766 180c 0400     		.2byte	0x4
 11767 180e F3       		.byte	0xf3
 11768 180f 01       		.uleb128 0x1
 11769 1810 53       		.byte	0x53
 11770 1811 9F       		.byte	0x9f
 11771 1812 36000000 		.4byte	.LVL177
 11772 1816 3B000000 		.4byte	.LVL179-1
 11773 181a 0100     		.2byte	0x1
 11774 181c 53       		.byte	0x53
 11775 181d 3B000000 		.4byte	.LVL179-1
 11776 1821 74000000 		.4byte	.LVL187
 11777 1825 0100     		.2byte	0x1
 11778 1827 57       		.byte	0x57
 11779 1828 74000000 		.4byte	.LVL187
 11780 182c A4000000 		.4byte	.LVL196
 11781 1830 0400     		.2byte	0x4
 11782 1832 F3       		.byte	0xf3
 11783 1833 01       		.uleb128 0x1
 11784 1834 53       		.byte	0x53
 11785 1835 9F       		.byte	0x9f
 11786 1836 A4000000 		.4byte	.LVL196
 11787 183a A7000000 		.4byte	.LVL197-1
 11788 183e 0100     		.2byte	0x1
 11789 1840 53       		.byte	0x53
 11790 1841 A7000000 		.4byte	.LVL197-1
 11791 1845 BA000000 		.4byte	.LVL200
 11792 1849 0400     		.2byte	0x4
 11793 184b F3       		.byte	0xf3
 11794 184c 01       		.uleb128 0x1
 11795 184d 53       		.byte	0x53
 11796 184e 9F       		.byte	0x9f
 11797 184f BA000000 		.4byte	.LVL200
 11798 1853 BD000000 		.4byte	.LVL201-1
 11799 1857 0100     		.2byte	0x1
 11800 1859 53       		.byte	0x53
 11801 185a BD000000 		.4byte	.LVL201-1
 11802 185e CC000000 		.4byte	.LVL203
 11803 1862 0400     		.2byte	0x4
 11804 1864 F3       		.byte	0xf3
 11805 1865 01       		.uleb128 0x1
 11806 1866 53       		.byte	0x53
 11807 1867 9F       		.byte	0x9f
 11808 1868 CC000000 		.4byte	.LVL203
 11809 186c D1000000 		.4byte	.LVL205-1
 11810 1870 0100     		.2byte	0x1
 11811 1872 53       		.byte	0x53
 11812 1873 D1000000 		.4byte	.LVL205-1
 11813 1877 D8000000 		.4byte	.LVL206
 11814 187b 0400     		.2byte	0x4
 11815 187d F3       		.byte	0xf3
 11816 187e 01       		.uleb128 0x1
ARM GAS  C:\Users\info\AppData\Local\Temp\ccQPGqkW.s 			page 237


 11817 187f 53       		.byte	0x53
 11818 1880 9F       		.byte	0x9f
 11819 1881 D8000000 		.4byte	.LVL206
 11820 1885 DD000000 		.4byte	.LVL208-1
 11821 1889 0100     		.2byte	0x1
 11822 188b 53       		.byte	0x53
 11823 188c DD000000 		.4byte	.LVL208-1
 11824 1890 E4000000 		.4byte	.LVL209
 11825 1894 0400     		.2byte	0x4
 11826 1896 F3       		.byte	0xf3
 11827 1897 01       		.uleb128 0x1
 11828 1898 53       		.byte	0x53
 11829 1899 9F       		.byte	0x9f
 11830 189a E4000000 		.4byte	.LVL209
 11831 189e EB000000 		.4byte	.LVL211-1
 11832 18a2 0100     		.2byte	0x1
 11833 18a4 53       		.byte	0x53
 11834 18a5 EB000000 		.4byte	.LVL211-1
 11835 18a9 FA000000 		.4byte	.LVL212
 11836 18ad 0400     		.2byte	0x4
 11837 18af F3       		.byte	0xf3
 11838 18b0 01       		.uleb128 0x1
 11839 18b1 53       		.byte	0x53
 11840 18b2 9F       		.byte	0x9f
 11841 18b3 FA000000 		.4byte	.LVL212
 11842 18b7 FF000000 		.4byte	.LVL214-1
 11843 18bb 0100     		.2byte	0x1
 11844 18bd 53       		.byte	0x53
 11845 18be FF000000 		.4byte	.LVL214-1
 11846 18c2 28010000 		.4byte	.LFE4
 11847 18c6 0400     		.2byte	0x4
 11848 18c8 F3       		.byte	0xf3
 11849 18c9 01       		.uleb128 0x1
 11850 18ca 53       		.byte	0x53
 11851 18cb 9F       		.byte	0x9f
 11852 18cc 00000000 		.4byte	0
 11853 18d0 00000000 		.4byte	0
 11854              	.LLST60:
 11855 18d4 0A000000 		.4byte	.LVL171
 11856 18d8 14000000 		.4byte	.LVL172
 11857 18dc 0100     		.2byte	0x1
 11858 18de 53       		.byte	0x53
 11859 18df 26000000 		.4byte	.LVL174
 11860 18e3 2F000000 		.4byte	.LVL176-1
 11861 18e7 0100     		.2byte	0x1
 11862 18e9 53       		.byte	0x53
 11863 18ea 2F000000 		.4byte	.LVL176-1
 11864 18ee 30000000 		.4byte	.LVL176
 11865 18f2 0400     		.2byte	0x4
 11866 18f4 F3       		.byte	0xf3
 11867 18f5 01       		.uleb128 0x1
 11868 18f6 53       		.byte	0x53
 11869 18f7 9F       		.byte	0x9f
 11870 18f8 36000000 		.4byte	.LVL177
 11871 18fc 3B000000 		.4byte	.LVL179-1
 11872 1900 0100     		.2byte	0x1
 11873 1902 53       		.byte	0x53
ARM GAS  C:\Users\info\AppData\Local\Temp\ccQPGqkW.s 			page 238


 11874 1903 3B000000 		.4byte	.LVL179-1
 11875 1907 74000000 		.4byte	.LVL187
 11876 190b 0100     		.2byte	0x1
 11877 190d 57       		.byte	0x57
 11878 190e 74000000 		.4byte	.LVL187
 11879 1912 9E000000 		.4byte	.LVL195
 11880 1916 0400     		.2byte	0x4
 11881 1918 F3       		.byte	0xf3
 11882 1919 01       		.uleb128 0x1
 11883 191a 53       		.byte	0x53
 11884 191b 9F       		.byte	0x9f
 11885 191c A4000000 		.4byte	.LVL196
 11886 1920 A7000000 		.4byte	.LVL197-1
 11887 1924 0100     		.2byte	0x1
 11888 1926 53       		.byte	0x53
 11889 1927 A7000000 		.4byte	.LVL197-1
 11890 192b BA000000 		.4byte	.LVL200
 11891 192f 0400     		.2byte	0x4
 11892 1931 F3       		.byte	0xf3
 11893 1932 01       		.uleb128 0x1
 11894 1933 53       		.byte	0x53
 11895 1934 9F       		.byte	0x9f
 11896 1935 CC000000 		.4byte	.LVL203
 11897 1939 D1000000 		.4byte	.LVL205-1
 11898 193d 0100     		.2byte	0x1
 11899 193f 53       		.byte	0x53
 11900 1940 D1000000 		.4byte	.LVL205-1
 11901 1944 D2000000 		.4byte	.LVL205
 11902 1948 0400     		.2byte	0x4
 11903 194a F3       		.byte	0xf3
 11904 194b 01       		.uleb128 0x1
 11905 194c 53       		.byte	0x53
 11906 194d 9F       		.byte	0x9f
 11907 194e 00000000 		.4byte	0
 11908 1952 00000000 		.4byte	0
 11909              	.LLST61:
 11910 1956 0A000000 		.4byte	.LVL171
 11911 195a 14000000 		.4byte	.LVL172
 11912 195e 0100     		.2byte	0x1
 11913 1960 52       		.byte	0x52
 11914 1961 26000000 		.4byte	.LVL174
 11915 1965 2F000000 		.4byte	.LVL176-1
 11916 1969 0100     		.2byte	0x1
 11917 196b 52       		.byte	0x52
 11918 196c 2F000000 		.4byte	.LVL176-1
 11919 1970 30000000 		.4byte	.LVL176
 11920 1974 0400     		.2byte	0x4
 11921 1976 F3       		.byte	0xf3
 11922 1977 01       		.uleb128 0x1
 11923 1978 52       		.byte	0x52
 11924 1979 9F       		.byte	0x9f
 11925 197a 36000000 		.4byte	.LVL177
 11926 197e 3B000000 		.4byte	.LVL179-1
 11927 1982 0100     		.2byte	0x1
 11928 1984 52       		.byte	0x52
 11929 1985 3B000000 		.4byte	.LVL179-1
 11930 1989 9E000000 		.4byte	.LVL195
ARM GAS  C:\Users\info\AppData\Local\Temp\ccQPGqkW.s 			page 239


 11931 198d 0400     		.2byte	0x4
 11932 198f F3       		.byte	0xf3
 11933 1990 01       		.uleb128 0x1
 11934 1991 52       		.byte	0x52
 11935 1992 9F       		.byte	0x9f
 11936 1993 A4000000 		.4byte	.LVL196
 11937 1997 A7000000 		.4byte	.LVL197-1
 11938 199b 0100     		.2byte	0x1
 11939 199d 52       		.byte	0x52
 11940 199e A7000000 		.4byte	.LVL197-1
 11941 19a2 BA000000 		.4byte	.LVL200
 11942 19a6 0400     		.2byte	0x4
 11943 19a8 F3       		.byte	0xf3
 11944 19a9 01       		.uleb128 0x1
 11945 19aa 52       		.byte	0x52
 11946 19ab 9F       		.byte	0x9f
 11947 19ac CC000000 		.4byte	.LVL203
 11948 19b0 D1000000 		.4byte	.LVL205-1
 11949 19b4 0100     		.2byte	0x1
 11950 19b6 52       		.byte	0x52
 11951 19b7 D1000000 		.4byte	.LVL205-1
 11952 19bb D2000000 		.4byte	.LVL205
 11953 19bf 0400     		.2byte	0x4
 11954 19c1 F3       		.byte	0xf3
 11955 19c2 01       		.uleb128 0x1
 11956 19c3 52       		.byte	0x52
 11957 19c4 9F       		.byte	0x9f
 11958 19c5 00000000 		.4byte	0
 11959 19c9 00000000 		.4byte	0
 11960              	.LLST62:
 11961 19cd 0A000000 		.4byte	.LVL171
 11962 19d1 14000000 		.4byte	.LVL172
 11963 19d5 0100     		.2byte	0x1
 11964 19d7 51       		.byte	0x51
 11965 19d8 26000000 		.4byte	.LVL174
 11966 19dc 2C000000 		.4byte	.LVL175
 11967 19e0 0100     		.2byte	0x1
 11968 19e2 51       		.byte	0x51
 11969 19e3 2C000000 		.4byte	.LVL175
 11970 19e7 30000000 		.4byte	.LVL176
 11971 19eb 0400     		.2byte	0x4
 11972 19ed F3       		.byte	0xf3
 11973 19ee 01       		.uleb128 0x1
 11974 19ef 51       		.byte	0x51
 11975 19f0 9F       		.byte	0x9f
 11976 19f1 36000000 		.4byte	.LVL177
 11977 19f5 3B000000 		.4byte	.LVL179-1
 11978 19f9 0100     		.2byte	0x1
 11979 19fb 51       		.byte	0x51
 11980 19fc 3B000000 		.4byte	.LVL179-1
 11981 1a00 9E000000 		.4byte	.LVL195
 11982 1a04 0400     		.2byte	0x4
 11983 1a06 F3       		.byte	0xf3
 11984 1a07 01       		.uleb128 0x1
 11985 1a08 51       		.byte	0x51
 11986 1a09 9F       		.byte	0x9f
 11987 1a0a A4000000 		.4byte	.LVL196
ARM GAS  C:\Users\info\AppData\Local\Temp\ccQPGqkW.s 			page 240


 11988 1a0e A7000000 		.4byte	.LVL197-1
 11989 1a12 0100     		.2byte	0x1
 11990 1a14 51       		.byte	0x51
 11991 1a15 A7000000 		.4byte	.LVL197-1
 11992 1a19 BA000000 		.4byte	.LVL200
 11993 1a1d 0400     		.2byte	0x4
 11994 1a1f F3       		.byte	0xf3
 11995 1a20 01       		.uleb128 0x1
 11996 1a21 51       		.byte	0x51
 11997 1a22 9F       		.byte	0x9f
 11998 1a23 CC000000 		.4byte	.LVL203
 11999 1a27 CE000000 		.4byte	.LVL204
 12000 1a2b 0100     		.2byte	0x1
 12001 1a2d 51       		.byte	0x51
 12002 1a2e CE000000 		.4byte	.LVL204
 12003 1a32 D2000000 		.4byte	.LVL205
 12004 1a36 0400     		.2byte	0x4
 12005 1a38 F3       		.byte	0xf3
 12006 1a39 01       		.uleb128 0x1
 12007 1a3a 51       		.byte	0x51
 12008 1a3b 9F       		.byte	0x9f
 12009 1a3c 00000000 		.4byte	0
 12010 1a40 00000000 		.4byte	0
 12011              	.LLST63:
 12012 1a44 0A000000 		.4byte	.LVL171
 12013 1a48 14000000 		.4byte	.LVL172
 12014 1a4c 0100     		.2byte	0x1
 12015 1a4e 50       		.byte	0x50
 12016 1a4f 26000000 		.4byte	.LVL174
 12017 1a53 2F000000 		.4byte	.LVL176-1
 12018 1a57 0100     		.2byte	0x1
 12019 1a59 50       		.byte	0x50
 12020 1a5a 2F000000 		.4byte	.LVL176-1
 12021 1a5e 30000000 		.4byte	.LVL176
 12022 1a62 0100     		.2byte	0x1
 12023 1a64 55       		.byte	0x55
 12024 1a65 36000000 		.4byte	.LVL177
 12025 1a69 3B000000 		.4byte	.LVL179-1
 12026 1a6d 0100     		.2byte	0x1
 12027 1a6f 50       		.byte	0x50
 12028 1a70 3B000000 		.4byte	.LVL179-1
 12029 1a74 9E000000 		.4byte	.LVL195
 12030 1a78 0100     		.2byte	0x1
 12031 1a7a 55       		.byte	0x55
 12032 1a7b A4000000 		.4byte	.LVL196
 12033 1a7f A7000000 		.4byte	.LVL197-1
 12034 1a83 0100     		.2byte	0x1
 12035 1a85 50       		.byte	0x50
 12036 1a86 A7000000 		.4byte	.LVL197-1
 12037 1a8a BA000000 		.4byte	.LVL200
 12038 1a8e 0100     		.2byte	0x1
 12039 1a90 55       		.byte	0x55
 12040 1a91 CC000000 		.4byte	.LVL203
 12041 1a95 D1000000 		.4byte	.LVL205-1
 12042 1a99 0100     		.2byte	0x1
 12043 1a9b 50       		.byte	0x50
 12044 1a9c D1000000 		.4byte	.LVL205-1
ARM GAS  C:\Users\info\AppData\Local\Temp\ccQPGqkW.s 			page 241


 12045 1aa0 D2000000 		.4byte	.LVL205
 12046 1aa4 0100     		.2byte	0x1
 12047 1aa6 55       		.byte	0x55
 12048 1aa7 00000000 		.4byte	0
 12049 1aab 00000000 		.4byte	0
 12050              	.LLST64:
 12051 1aaf 38000000 		.4byte	.LVL178
 12052 1ab3 98000000 		.4byte	.LVL194
 12053 1ab7 0200     		.2byte	0x2
 12054 1ab9 3F       		.byte	0x3f
 12055 1aba 9F       		.byte	0x9f
 12056 1abb 00000000 		.4byte	0
 12057 1abf 00000000 		.4byte	0
 12058              	.LLST65:
 12059 1ac3 38000000 		.4byte	.LVL178
 12060 1ac7 74000000 		.4byte	.LVL187
 12061 1acb 0100     		.2byte	0x1
 12062 1acd 57       		.byte	0x57
 12063 1ace 74000000 		.4byte	.LVL187
 12064 1ad2 98000000 		.4byte	.LVL194
 12065 1ad6 0400     		.2byte	0x4
 12066 1ad8 F3       		.byte	0xf3
 12067 1ad9 01       		.uleb128 0x1
 12068 1ada 53       		.byte	0x53
 12069 1adb 9F       		.byte	0x9f
 12070 1adc 00000000 		.4byte	0
 12071 1ae0 00000000 		.4byte	0
 12072              	.LLST66:
 12073 1ae4 36000000 		.4byte	.LVL177
 12074 1ae8 92000000 		.4byte	.LVL193
 12075 1aec 0100     		.2byte	0x1
 12076 1aee 54       		.byte	0x54
 12077 1aef 92000000 		.4byte	.LVL193
 12078 1af3 98000000 		.4byte	.LVL194
 12079 1af7 0100     		.2byte	0x1
 12080 1af9 52       		.byte	0x52
 12081 1afa 00000000 		.4byte	0
 12082 1afe 00000000 		.4byte	0
 12083              	.LLST67:
 12084 1b02 36000000 		.4byte	.LVL177
 12085 1b06 3B000000 		.4byte	.LVL179-1
 12086 1b0a 0100     		.2byte	0x1
 12087 1b0c 50       		.byte	0x50
 12088 1b0d 3B000000 		.4byte	.LVL179-1
 12089 1b11 98000000 		.4byte	.LVL194
 12090 1b15 0100     		.2byte	0x1
 12091 1b17 55       		.byte	0x55
 12092 1b18 00000000 		.4byte	0
 12093 1b1c 00000000 		.4byte	0
 12094              	.LLST68:
 12095 1b20 44000000 		.4byte	.LVL180
 12096 1b24 4A000000 		.4byte	.LVL181
 12097 1b28 0800     		.2byte	0x8
 12098 1b2a 78       		.byte	0x78
 12099 1b2b 00       		.sleb128 0
 12100 1b2c 33       		.byte	0x33
 12101 1b2d 24       		.byte	0x24
ARM GAS  C:\Users\info\AppData\Local\Temp\ccQPGqkW.s 			page 242


 12102 1b2e 08       		.byte	0x8
 12103 1b2f F8       		.byte	0xf8
 12104 1b30 1A       		.byte	0x1a
 12105 1b31 9F       		.byte	0x9f
 12106 1b32 4A000000 		.4byte	.LVL181
 12107 1b36 4E000000 		.4byte	.LVL182
 12108 1b3a 0D00     		.2byte	0xd
 12109 1b3c 77       		.byte	0x77
 12110 1b3d 05       		.sleb128 5
 12111 1b3e 94       		.byte	0x94
 12112 1b3f 01       		.byte	0x1
 12113 1b40 08       		.byte	0x8
 12114 1b41 FF       		.byte	0xff
 12115 1b42 1A       		.byte	0x1a
 12116 1b43 33       		.byte	0x33
 12117 1b44 24       		.byte	0x24
 12118 1b45 08       		.byte	0x8
 12119 1b46 F8       		.byte	0xf8
 12120 1b47 1A       		.byte	0x1a
 12121 1b48 9F       		.byte	0x9f
 12122 1b49 4E000000 		.4byte	.LVL182
 12123 1b4d 98000000 		.4byte	.LVL194
 12124 1b51 0100     		.2byte	0x1
 12125 1b53 58       		.byte	0x58
 12126 1b54 00000000 		.4byte	0
 12127 1b58 00000000 		.4byte	0
 12128              	.LLST69:
 12129 1b5c 72000000 		.4byte	.LVL186
 12130 1b60 76000000 		.4byte	.LVL188
 12131 1b64 0100     		.2byte	0x1
 12132 1b66 56       		.byte	0x56
 12133 1b67 76000000 		.4byte	.LVL188
 12134 1b6b 78000000 		.4byte	.LVL189
 12135 1b6f 0500     		.2byte	0x5
 12136 1b71 F3       		.byte	0xf3
 12137 1b72 01       		.uleb128 0x1
 12138 1b73 53       		.byte	0x53
 12139 1b74 23       		.byte	0x23
 12140 1b75 04       		.uleb128 0x4
 12141 1b76 78000000 		.4byte	.LVL189
 12142 1b7a 7E000000 		.4byte	.LVL190
 12143 1b7e 0100     		.2byte	0x1
 12144 1b80 56       		.byte	0x56
 12145 1b81 7E000000 		.4byte	.LVL190
 12146 1b85 86000000 		.4byte	.LVL191
 12147 1b89 0300     		.2byte	0x3
 12148 1b8b 09       		.byte	0x9
 12149 1b8c 84       		.byte	0x84
 12150 1b8d 9F       		.byte	0x9f
 12151 1b8e 86000000 		.4byte	.LVL191
 12152 1b92 98000000 		.4byte	.LVL194
 12153 1b96 0100     		.2byte	0x1
 12154 1b98 56       		.byte	0x56
 12155 1b99 00000000 		.4byte	0
 12156 1b9d 00000000 		.4byte	0
 12157              	.LLST70:
 12158 1ba1 78000000 		.4byte	.LVL189
ARM GAS  C:\Users\info\AppData\Local\Temp\ccQPGqkW.s 			page 243


 12159 1ba5 98000000 		.4byte	.LVL194
 12160 1ba9 0100     		.2byte	0x1
 12161 1bab 57       		.byte	0x57
 12162 1bac 00000000 		.4byte	0
 12163 1bb0 00000000 		.4byte	0
 12164              	.LLST71:
 12165 1bb4 00000000 		.4byte	.LVL216
 12166 1bb8 22000000 		.4byte	.LVL219
 12167 1bbc 0100     		.2byte	0x1
 12168 1bbe 50       		.byte	0x50
 12169 1bbf 22000000 		.4byte	.LVL219
 12170 1bc3 26000000 		.4byte	.LVL220
 12171 1bc7 0100     		.2byte	0x1
 12172 1bc9 55       		.byte	0x55
 12173 1bca 26000000 		.4byte	.LVL220
 12174 1bce 2F000000 		.4byte	.LVL222-1
 12175 1bd2 0100     		.2byte	0x1
 12176 1bd4 50       		.byte	0x50
 12177 1bd5 2F000000 		.4byte	.LVL222-1
 12178 1bd9 36000000 		.4byte	.LVL223
 12179 1bdd 0100     		.2byte	0x1
 12180 1bdf 55       		.byte	0x55
 12181 1be0 36000000 		.4byte	.LVL223
 12182 1be4 3B000000 		.4byte	.LVL224-1
 12183 1be8 0100     		.2byte	0x1
 12184 1bea 50       		.byte	0x50
 12185 1beb 3B000000 		.4byte	.LVL224-1
 12186 1bef A4000000 		.4byte	.LVL241
 12187 1bf3 0100     		.2byte	0x1
 12188 1bf5 55       		.byte	0x55
 12189 1bf6 A4000000 		.4byte	.LVL241
 12190 1bfa A7000000 		.4byte	.LVL242-1
 12191 1bfe 0100     		.2byte	0x1
 12192 1c00 50       		.byte	0x50
 12193 1c01 A7000000 		.4byte	.LVL242-1
 12194 1c05 BA000000 		.4byte	.LVL245
 12195 1c09 0100     		.2byte	0x1
 12196 1c0b 55       		.byte	0x55
 12197 1c0c BA000000 		.4byte	.LVL245
 12198 1c10 BD000000 		.4byte	.LVL246-1
 12199 1c14 0100     		.2byte	0x1
 12200 1c16 50       		.byte	0x50
 12201 1c17 BD000000 		.4byte	.LVL246-1
 12202 1c1b CC000000 		.4byte	.LVL248
 12203 1c1f 0100     		.2byte	0x1
 12204 1c21 55       		.byte	0x55
 12205 1c22 CC000000 		.4byte	.LVL248
 12206 1c26 D1000000 		.4byte	.LVL250-1
 12207 1c2a 0100     		.2byte	0x1
 12208 1c2c 50       		.byte	0x50
 12209 1c2d D1000000 		.4byte	.LVL250-1
 12210 1c31 D8000000 		.4byte	.LVL251
 12211 1c35 0100     		.2byte	0x1
 12212 1c37 55       		.byte	0x55
 12213 1c38 D8000000 		.4byte	.LVL251
 12214 1c3c DD000000 		.4byte	.LVL253-1
 12215 1c40 0100     		.2byte	0x1
ARM GAS  C:\Users\info\AppData\Local\Temp\ccQPGqkW.s 			page 244


 12216 1c42 50       		.byte	0x50
 12217 1c43 DD000000 		.4byte	.LVL253-1
 12218 1c47 E4000000 		.4byte	.LVL254
 12219 1c4b 0100     		.2byte	0x1
 12220 1c4d 55       		.byte	0x55
 12221 1c4e E4000000 		.4byte	.LVL254
 12222 1c52 EB000000 		.4byte	.LVL256-1
 12223 1c56 0100     		.2byte	0x1
 12224 1c58 50       		.byte	0x50
 12225 1c59 EB000000 		.4byte	.LVL256-1
 12226 1c5d FA000000 		.4byte	.LVL257
 12227 1c61 0100     		.2byte	0x1
 12228 1c63 55       		.byte	0x55
 12229 1c64 FA000000 		.4byte	.LVL257
 12230 1c68 FF000000 		.4byte	.LVL259-1
 12231 1c6c 0100     		.2byte	0x1
 12232 1c6e 50       		.byte	0x50
 12233 1c6f FF000000 		.4byte	.LVL259-1
 12234 1c73 0E010000 		.4byte	.LVL261
 12235 1c77 0100     		.2byte	0x1
 12236 1c79 55       		.byte	0x55
 12237 1c7a 0E010000 		.4byte	.LVL261
 12238 1c7e 28010000 		.4byte	.LFE5
 12239 1c82 0400     		.2byte	0x4
 12240 1c84 F3       		.byte	0xf3
 12241 1c85 01       		.uleb128 0x1
 12242 1c86 50       		.byte	0x50
 12243 1c87 9F       		.byte	0x9f
 12244 1c88 00000000 		.4byte	0
 12245 1c8c 00000000 		.4byte	0
 12246              	.LLST72:
 12247 1c90 00000000 		.4byte	.LVL216
 12248 1c94 2C000000 		.4byte	.LVL221
 12249 1c98 0100     		.2byte	0x1
 12250 1c9a 51       		.byte	0x51
 12251 1c9b 2C000000 		.4byte	.LVL221
 12252 1c9f 36000000 		.4byte	.LVL223
 12253 1ca3 0400     		.2byte	0x4
 12254 1ca5 F3       		.byte	0xf3
 12255 1ca6 01       		.uleb128 0x1
 12256 1ca7 51       		.byte	0x51
 12257 1ca8 9F       		.byte	0x9f
 12258 1ca9 36000000 		.4byte	.LVL223
 12259 1cad 3B000000 		.4byte	.LVL224-1
 12260 1cb1 0100     		.2byte	0x1
 12261 1cb3 51       		.byte	0x51
 12262 1cb4 3B000000 		.4byte	.LVL224-1
 12263 1cb8 A4000000 		.4byte	.LVL241
 12264 1cbc 0400     		.2byte	0x4
 12265 1cbe F3       		.byte	0xf3
 12266 1cbf 01       		.uleb128 0x1
 12267 1cc0 51       		.byte	0x51
 12268 1cc1 9F       		.byte	0x9f
 12269 1cc2 A4000000 		.4byte	.LVL241
 12270 1cc6 A7000000 		.4byte	.LVL242-1
 12271 1cca 0100     		.2byte	0x1
 12272 1ccc 51       		.byte	0x51
ARM GAS  C:\Users\info\AppData\Local\Temp\ccQPGqkW.s 			page 245


 12273 1ccd A7000000 		.4byte	.LVL242-1
 12274 1cd1 BA000000 		.4byte	.LVL245
 12275 1cd5 0400     		.2byte	0x4
 12276 1cd7 F3       		.byte	0xf3
 12277 1cd8 01       		.uleb128 0x1
 12278 1cd9 51       		.byte	0x51
 12279 1cda 9F       		.byte	0x9f
 12280 1cdb BA000000 		.4byte	.LVL245
 12281 1cdf BD000000 		.4byte	.LVL246-1
 12282 1ce3 0100     		.2byte	0x1
 12283 1ce5 51       		.byte	0x51
 12284 1ce6 BD000000 		.4byte	.LVL246-1
 12285 1cea CC000000 		.4byte	.LVL248
 12286 1cee 0400     		.2byte	0x4
 12287 1cf0 F3       		.byte	0xf3
 12288 1cf1 01       		.uleb128 0x1
 12289 1cf2 51       		.byte	0x51
 12290 1cf3 9F       		.byte	0x9f
 12291 1cf4 CC000000 		.4byte	.LVL248
 12292 1cf8 CE000000 		.4byte	.LVL249
 12293 1cfc 0100     		.2byte	0x1
 12294 1cfe 51       		.byte	0x51
 12295 1cff CE000000 		.4byte	.LVL249
 12296 1d03 D8000000 		.4byte	.LVL251
 12297 1d07 0400     		.2byte	0x4
 12298 1d09 F3       		.byte	0xf3
 12299 1d0a 01       		.uleb128 0x1
 12300 1d0b 51       		.byte	0x51
 12301 1d0c 9F       		.byte	0x9f
 12302 1d0d D8000000 		.4byte	.LVL251
 12303 1d11 DA000000 		.4byte	.LVL252
 12304 1d15 0100     		.2byte	0x1
 12305 1d17 51       		.byte	0x51
 12306 1d18 DA000000 		.4byte	.LVL252
 12307 1d1c E4000000 		.4byte	.LVL254
 12308 1d20 0400     		.2byte	0x4
 12309 1d22 F3       		.byte	0xf3
 12310 1d23 01       		.uleb128 0x1
 12311 1d24 51       		.byte	0x51
 12312 1d25 9F       		.byte	0x9f
 12313 1d26 E4000000 		.4byte	.LVL254
 12314 1d2a E8000000 		.4byte	.LVL255
 12315 1d2e 0100     		.2byte	0x1
 12316 1d30 51       		.byte	0x51
 12317 1d31 E8000000 		.4byte	.LVL255
 12318 1d35 FA000000 		.4byte	.LVL257
 12319 1d39 0400     		.2byte	0x4
 12320 1d3b F3       		.byte	0xf3
 12321 1d3c 01       		.uleb128 0x1
 12322 1d3d 51       		.byte	0x51
 12323 1d3e 9F       		.byte	0x9f
 12324 1d3f FA000000 		.4byte	.LVL257
 12325 1d43 FC000000 		.4byte	.LVL258
 12326 1d47 0100     		.2byte	0x1
 12327 1d49 51       		.byte	0x51
 12328 1d4a FC000000 		.4byte	.LVL258
 12329 1d4e 28010000 		.4byte	.LFE5
ARM GAS  C:\Users\info\AppData\Local\Temp\ccQPGqkW.s 			page 246


 12330 1d52 0400     		.2byte	0x4
 12331 1d54 F3       		.byte	0xf3
 12332 1d55 01       		.uleb128 0x1
 12333 1d56 51       		.byte	0x51
 12334 1d57 9F       		.byte	0x9f
 12335 1d58 00000000 		.4byte	0
 12336 1d5c 00000000 		.4byte	0
 12337              	.LLST73:
 12338 1d60 00000000 		.4byte	.LVL216
 12339 1d64 2F000000 		.4byte	.LVL222-1
 12340 1d68 0100     		.2byte	0x1
 12341 1d6a 52       		.byte	0x52
 12342 1d6b 2F000000 		.4byte	.LVL222-1
 12343 1d6f 36000000 		.4byte	.LVL223
 12344 1d73 0400     		.2byte	0x4
 12345 1d75 F3       		.byte	0xf3
 12346 1d76 01       		.uleb128 0x1
 12347 1d77 52       		.byte	0x52
 12348 1d78 9F       		.byte	0x9f
 12349 1d79 36000000 		.4byte	.LVL223
 12350 1d7d 3B000000 		.4byte	.LVL224-1
 12351 1d81 0100     		.2byte	0x1
 12352 1d83 52       		.byte	0x52
 12353 1d84 3B000000 		.4byte	.LVL224-1
 12354 1d88 A4000000 		.4byte	.LVL241
 12355 1d8c 0400     		.2byte	0x4
 12356 1d8e F3       		.byte	0xf3
 12357 1d8f 01       		.uleb128 0x1
 12358 1d90 52       		.byte	0x52
 12359 1d91 9F       		.byte	0x9f
 12360 1d92 A4000000 		.4byte	.LVL241
 12361 1d96 A7000000 		.4byte	.LVL242-1
 12362 1d9a 0100     		.2byte	0x1
 12363 1d9c 52       		.byte	0x52
 12364 1d9d A7000000 		.4byte	.LVL242-1
 12365 1da1 BA000000 		.4byte	.LVL245
 12366 1da5 0400     		.2byte	0x4
 12367 1da7 F3       		.byte	0xf3
 12368 1da8 01       		.uleb128 0x1
 12369 1da9 52       		.byte	0x52
 12370 1daa 9F       		.byte	0x9f
 12371 1dab BA000000 		.4byte	.LVL245
 12372 1daf BD000000 		.4byte	.LVL246-1
 12373 1db3 0100     		.2byte	0x1
 12374 1db5 52       		.byte	0x52
 12375 1db6 BD000000 		.4byte	.LVL246-1
 12376 1dba CC000000 		.4byte	.LVL248
 12377 1dbe 0400     		.2byte	0x4
 12378 1dc0 F3       		.byte	0xf3
 12379 1dc1 01       		.uleb128 0x1
 12380 1dc2 52       		.byte	0x52
 12381 1dc3 9F       		.byte	0x9f
 12382 1dc4 CC000000 		.4byte	.LVL248
 12383 1dc8 D1000000 		.4byte	.LVL250-1
 12384 1dcc 0100     		.2byte	0x1
 12385 1dce 52       		.byte	0x52
 12386 1dcf D1000000 		.4byte	.LVL250-1
ARM GAS  C:\Users\info\AppData\Local\Temp\ccQPGqkW.s 			page 247


 12387 1dd3 D8000000 		.4byte	.LVL251
 12388 1dd7 0400     		.2byte	0x4
 12389 1dd9 F3       		.byte	0xf3
 12390 1dda 01       		.uleb128 0x1
 12391 1ddb 52       		.byte	0x52
 12392 1ddc 9F       		.byte	0x9f
 12393 1ddd D8000000 		.4byte	.LVL251
 12394 1de1 DD000000 		.4byte	.LVL253-1
 12395 1de5 0100     		.2byte	0x1
 12396 1de7 52       		.byte	0x52
 12397 1de8 DD000000 		.4byte	.LVL253-1
 12398 1dec E4000000 		.4byte	.LVL254
 12399 1df0 0400     		.2byte	0x4
 12400 1df2 F3       		.byte	0xf3
 12401 1df3 01       		.uleb128 0x1
 12402 1df4 52       		.byte	0x52
 12403 1df5 9F       		.byte	0x9f
 12404 1df6 E4000000 		.4byte	.LVL254
 12405 1dfa EB000000 		.4byte	.LVL256-1
 12406 1dfe 0100     		.2byte	0x1
 12407 1e00 52       		.byte	0x52
 12408 1e01 EB000000 		.4byte	.LVL256-1
 12409 1e05 FA000000 		.4byte	.LVL257
 12410 1e09 0400     		.2byte	0x4
 12411 1e0b F3       		.byte	0xf3
 12412 1e0c 01       		.uleb128 0x1
 12413 1e0d 52       		.byte	0x52
 12414 1e0e 9F       		.byte	0x9f
 12415 1e0f FA000000 		.4byte	.LVL257
 12416 1e13 FF000000 		.4byte	.LVL259-1
 12417 1e17 0100     		.2byte	0x1
 12418 1e19 52       		.byte	0x52
 12419 1e1a FF000000 		.4byte	.LVL259-1
 12420 1e1e 28010000 		.4byte	.LFE5
 12421 1e22 0400     		.2byte	0x4
 12422 1e24 F3       		.byte	0xf3
 12423 1e25 01       		.uleb128 0x1
 12424 1e26 52       		.byte	0x52
 12425 1e27 9F       		.byte	0x9f
 12426 1e28 00000000 		.4byte	0
 12427 1e2c 00000000 		.4byte	0
 12428              	.LLST74:
 12429 1e30 00000000 		.4byte	.LVL216
 12430 1e34 2F000000 		.4byte	.LVL222-1
 12431 1e38 0100     		.2byte	0x1
 12432 1e3a 53       		.byte	0x53
 12433 1e3b 2F000000 		.4byte	.LVL222-1
 12434 1e3f 36000000 		.4byte	.LVL223
 12435 1e43 0400     		.2byte	0x4
 12436 1e45 F3       		.byte	0xf3
 12437 1e46 01       		.uleb128 0x1
 12438 1e47 53       		.byte	0x53
 12439 1e48 9F       		.byte	0x9f
 12440 1e49 36000000 		.4byte	.LVL223
 12441 1e4d 3B000000 		.4byte	.LVL224-1
 12442 1e51 0100     		.2byte	0x1
 12443 1e53 53       		.byte	0x53
ARM GAS  C:\Users\info\AppData\Local\Temp\ccQPGqkW.s 			page 248


 12444 1e54 3B000000 		.4byte	.LVL224-1
 12445 1e58 74000000 		.4byte	.LVL232
 12446 1e5c 0100     		.2byte	0x1
 12447 1e5e 57       		.byte	0x57
 12448 1e5f 74000000 		.4byte	.LVL232
 12449 1e63 A4000000 		.4byte	.LVL241
 12450 1e67 0400     		.2byte	0x4
 12451 1e69 F3       		.byte	0xf3
 12452 1e6a 01       		.uleb128 0x1
 12453 1e6b 53       		.byte	0x53
 12454 1e6c 9F       		.byte	0x9f
 12455 1e6d A4000000 		.4byte	.LVL241
 12456 1e71 A7000000 		.4byte	.LVL242-1
 12457 1e75 0100     		.2byte	0x1
 12458 1e77 53       		.byte	0x53
 12459 1e78 A7000000 		.4byte	.LVL242-1
 12460 1e7c BA000000 		.4byte	.LVL245
 12461 1e80 0400     		.2byte	0x4
 12462 1e82 F3       		.byte	0xf3
 12463 1e83 01       		.uleb128 0x1
 12464 1e84 53       		.byte	0x53
 12465 1e85 9F       		.byte	0x9f
 12466 1e86 BA000000 		.4byte	.LVL245
 12467 1e8a BD000000 		.4byte	.LVL246-1
 12468 1e8e 0100     		.2byte	0x1
 12469 1e90 53       		.byte	0x53
 12470 1e91 BD000000 		.4byte	.LVL246-1
 12471 1e95 CC000000 		.4byte	.LVL248
 12472 1e99 0400     		.2byte	0x4
 12473 1e9b F3       		.byte	0xf3
 12474 1e9c 01       		.uleb128 0x1
 12475 1e9d 53       		.byte	0x53
 12476 1e9e 9F       		.byte	0x9f
 12477 1e9f CC000000 		.4byte	.LVL248
 12478 1ea3 D1000000 		.4byte	.LVL250-1
 12479 1ea7 0100     		.2byte	0x1
 12480 1ea9 53       		.byte	0x53
 12481 1eaa D1000000 		.4byte	.LVL250-1
 12482 1eae D8000000 		.4byte	.LVL251
 12483 1eb2 0400     		.2byte	0x4
 12484 1eb4 F3       		.byte	0xf3
 12485 1eb5 01       		.uleb128 0x1
 12486 1eb6 53       		.byte	0x53
 12487 1eb7 9F       		.byte	0x9f
 12488 1eb8 D8000000 		.4byte	.LVL251
 12489 1ebc DD000000 		.4byte	.LVL253-1
 12490 1ec0 0100     		.2byte	0x1
 12491 1ec2 53       		.byte	0x53
 12492 1ec3 DD000000 		.4byte	.LVL253-1
 12493 1ec7 E4000000 		.4byte	.LVL254
 12494 1ecb 0400     		.2byte	0x4
 12495 1ecd F3       		.byte	0xf3
 12496 1ece 01       		.uleb128 0x1
 12497 1ecf 53       		.byte	0x53
 12498 1ed0 9F       		.byte	0x9f
 12499 1ed1 E4000000 		.4byte	.LVL254
 12500 1ed5 EB000000 		.4byte	.LVL256-1
ARM GAS  C:\Users\info\AppData\Local\Temp\ccQPGqkW.s 			page 249


 12501 1ed9 0100     		.2byte	0x1
 12502 1edb 53       		.byte	0x53
 12503 1edc EB000000 		.4byte	.LVL256-1
 12504 1ee0 FA000000 		.4byte	.LVL257
 12505 1ee4 0400     		.2byte	0x4
 12506 1ee6 F3       		.byte	0xf3
 12507 1ee7 01       		.uleb128 0x1
 12508 1ee8 53       		.byte	0x53
 12509 1ee9 9F       		.byte	0x9f
 12510 1eea FA000000 		.4byte	.LVL257
 12511 1eee FF000000 		.4byte	.LVL259-1
 12512 1ef2 0100     		.2byte	0x1
 12513 1ef4 53       		.byte	0x53
 12514 1ef5 FF000000 		.4byte	.LVL259-1
 12515 1ef9 28010000 		.4byte	.LFE5
 12516 1efd 0400     		.2byte	0x4
 12517 1eff F3       		.byte	0xf3
 12518 1f00 01       		.uleb128 0x1
 12519 1f01 53       		.byte	0x53
 12520 1f02 9F       		.byte	0x9f
 12521 1f03 00000000 		.4byte	0
 12522 1f07 00000000 		.4byte	0
 12523              	.LLST75:
 12524 1f0b 0A000000 		.4byte	.LVL217
 12525 1f0f 14000000 		.4byte	.LVL218
 12526 1f13 0100     		.2byte	0x1
 12527 1f15 53       		.byte	0x53
 12528 1f16 26000000 		.4byte	.LVL220
 12529 1f1a 2F000000 		.4byte	.LVL222-1
 12530 1f1e 0100     		.2byte	0x1
 12531 1f20 53       		.byte	0x53
 12532 1f21 2F000000 		.4byte	.LVL222-1
 12533 1f25 30000000 		.4byte	.LVL222
 12534 1f29 0400     		.2byte	0x4
 12535 1f2b F3       		.byte	0xf3
 12536 1f2c 01       		.uleb128 0x1
 12537 1f2d 53       		.byte	0x53
 12538 1f2e 9F       		.byte	0x9f
 12539 1f2f 36000000 		.4byte	.LVL223
 12540 1f33 3B000000 		.4byte	.LVL224-1
 12541 1f37 0100     		.2byte	0x1
 12542 1f39 53       		.byte	0x53
 12543 1f3a 3B000000 		.4byte	.LVL224-1
 12544 1f3e 74000000 		.4byte	.LVL232
 12545 1f42 0100     		.2byte	0x1
 12546 1f44 57       		.byte	0x57
 12547 1f45 74000000 		.4byte	.LVL232
 12548 1f49 9E000000 		.4byte	.LVL240
 12549 1f4d 0400     		.2byte	0x4
 12550 1f4f F3       		.byte	0xf3
 12551 1f50 01       		.uleb128 0x1
 12552 1f51 53       		.byte	0x53
 12553 1f52 9F       		.byte	0x9f
 12554 1f53 A4000000 		.4byte	.LVL241
 12555 1f57 A7000000 		.4byte	.LVL242-1
 12556 1f5b 0100     		.2byte	0x1
 12557 1f5d 53       		.byte	0x53
ARM GAS  C:\Users\info\AppData\Local\Temp\ccQPGqkW.s 			page 250


 12558 1f5e A7000000 		.4byte	.LVL242-1
 12559 1f62 BA000000 		.4byte	.LVL245
 12560 1f66 0400     		.2byte	0x4
 12561 1f68 F3       		.byte	0xf3
 12562 1f69 01       		.uleb128 0x1
 12563 1f6a 53       		.byte	0x53
 12564 1f6b 9F       		.byte	0x9f
 12565 1f6c CC000000 		.4byte	.LVL248
 12566 1f70 D1000000 		.4byte	.LVL250-1
 12567 1f74 0100     		.2byte	0x1
 12568 1f76 53       		.byte	0x53
 12569 1f77 D1000000 		.4byte	.LVL250-1
 12570 1f7b D2000000 		.4byte	.LVL250
 12571 1f7f 0400     		.2byte	0x4
 12572 1f81 F3       		.byte	0xf3
 12573 1f82 01       		.uleb128 0x1
 12574 1f83 53       		.byte	0x53
 12575 1f84 9F       		.byte	0x9f
 12576 1f85 00000000 		.4byte	0
 12577 1f89 00000000 		.4byte	0
 12578              	.LLST76:
 12579 1f8d 0A000000 		.4byte	.LVL217
 12580 1f91 14000000 		.4byte	.LVL218
 12581 1f95 0100     		.2byte	0x1
 12582 1f97 52       		.byte	0x52
 12583 1f98 26000000 		.4byte	.LVL220
 12584 1f9c 2F000000 		.4byte	.LVL222-1
 12585 1fa0 0100     		.2byte	0x1
 12586 1fa2 52       		.byte	0x52
 12587 1fa3 2F000000 		.4byte	.LVL222-1
 12588 1fa7 30000000 		.4byte	.LVL222
 12589 1fab 0400     		.2byte	0x4
 12590 1fad F3       		.byte	0xf3
 12591 1fae 01       		.uleb128 0x1
 12592 1faf 52       		.byte	0x52
 12593 1fb0 9F       		.byte	0x9f
 12594 1fb1 36000000 		.4byte	.LVL223
 12595 1fb5 3B000000 		.4byte	.LVL224-1
 12596 1fb9 0100     		.2byte	0x1
 12597 1fbb 52       		.byte	0x52
 12598 1fbc 3B000000 		.4byte	.LVL224-1
 12599 1fc0 9E000000 		.4byte	.LVL240
 12600 1fc4 0400     		.2byte	0x4
 12601 1fc6 F3       		.byte	0xf3
 12602 1fc7 01       		.uleb128 0x1
 12603 1fc8 52       		.byte	0x52
 12604 1fc9 9F       		.byte	0x9f
 12605 1fca A4000000 		.4byte	.LVL241
 12606 1fce A7000000 		.4byte	.LVL242-1
 12607 1fd2 0100     		.2byte	0x1
 12608 1fd4 52       		.byte	0x52
 12609 1fd5 A7000000 		.4byte	.LVL242-1
 12610 1fd9 BA000000 		.4byte	.LVL245
 12611 1fdd 0400     		.2byte	0x4
 12612 1fdf F3       		.byte	0xf3
 12613 1fe0 01       		.uleb128 0x1
 12614 1fe1 52       		.byte	0x52
ARM GAS  C:\Users\info\AppData\Local\Temp\ccQPGqkW.s 			page 251


 12615 1fe2 9F       		.byte	0x9f
 12616 1fe3 CC000000 		.4byte	.LVL248
 12617 1fe7 D1000000 		.4byte	.LVL250-1
 12618 1feb 0100     		.2byte	0x1
 12619 1fed 52       		.byte	0x52
 12620 1fee D1000000 		.4byte	.LVL250-1
 12621 1ff2 D2000000 		.4byte	.LVL250
 12622 1ff6 0400     		.2byte	0x4
 12623 1ff8 F3       		.byte	0xf3
 12624 1ff9 01       		.uleb128 0x1
 12625 1ffa 52       		.byte	0x52
 12626 1ffb 9F       		.byte	0x9f
 12627 1ffc 00000000 		.4byte	0
 12628 2000 00000000 		.4byte	0
 12629              	.LLST77:
 12630 2004 0A000000 		.4byte	.LVL217
 12631 2008 14000000 		.4byte	.LVL218
 12632 200c 0100     		.2byte	0x1
 12633 200e 51       		.byte	0x51
 12634 200f 26000000 		.4byte	.LVL220
 12635 2013 2C000000 		.4byte	.LVL221
 12636 2017 0100     		.2byte	0x1
 12637 2019 51       		.byte	0x51
 12638 201a 2C000000 		.4byte	.LVL221
 12639 201e 30000000 		.4byte	.LVL222
 12640 2022 0400     		.2byte	0x4
 12641 2024 F3       		.byte	0xf3
 12642 2025 01       		.uleb128 0x1
 12643 2026 51       		.byte	0x51
 12644 2027 9F       		.byte	0x9f
 12645 2028 36000000 		.4byte	.LVL223
 12646 202c 3B000000 		.4byte	.LVL224-1
 12647 2030 0100     		.2byte	0x1
 12648 2032 51       		.byte	0x51
 12649 2033 3B000000 		.4byte	.LVL224-1
 12650 2037 9E000000 		.4byte	.LVL240
 12651 203b 0400     		.2byte	0x4
 12652 203d F3       		.byte	0xf3
 12653 203e 01       		.uleb128 0x1
 12654 203f 51       		.byte	0x51
 12655 2040 9F       		.byte	0x9f
 12656 2041 A4000000 		.4byte	.LVL241
 12657 2045 A7000000 		.4byte	.LVL242-1
 12658 2049 0100     		.2byte	0x1
 12659 204b 51       		.byte	0x51
 12660 204c A7000000 		.4byte	.LVL242-1
 12661 2050 BA000000 		.4byte	.LVL245
 12662 2054 0400     		.2byte	0x4
 12663 2056 F3       		.byte	0xf3
 12664 2057 01       		.uleb128 0x1
 12665 2058 51       		.byte	0x51
 12666 2059 9F       		.byte	0x9f
 12667 205a CC000000 		.4byte	.LVL248
 12668 205e CE000000 		.4byte	.LVL249
 12669 2062 0100     		.2byte	0x1
 12670 2064 51       		.byte	0x51
 12671 2065 CE000000 		.4byte	.LVL249
ARM GAS  C:\Users\info\AppData\Local\Temp\ccQPGqkW.s 			page 252


 12672 2069 D2000000 		.4byte	.LVL250
 12673 206d 0400     		.2byte	0x4
 12674 206f F3       		.byte	0xf3
 12675 2070 01       		.uleb128 0x1
 12676 2071 51       		.byte	0x51
 12677 2072 9F       		.byte	0x9f
 12678 2073 00000000 		.4byte	0
 12679 2077 00000000 		.4byte	0
 12680              	.LLST78:
 12681 207b 0A000000 		.4byte	.LVL217
 12682 207f 14000000 		.4byte	.LVL218
 12683 2083 0100     		.2byte	0x1
 12684 2085 50       		.byte	0x50
 12685 2086 26000000 		.4byte	.LVL220
 12686 208a 2F000000 		.4byte	.LVL222-1
 12687 208e 0100     		.2byte	0x1
 12688 2090 50       		.byte	0x50
 12689 2091 2F000000 		.4byte	.LVL222-1
 12690 2095 30000000 		.4byte	.LVL222
 12691 2099 0100     		.2byte	0x1
 12692 209b 55       		.byte	0x55
 12693 209c 36000000 		.4byte	.LVL223
 12694 20a0 3B000000 		.4byte	.LVL224-1
 12695 20a4 0100     		.2byte	0x1
 12696 20a6 50       		.byte	0x50
 12697 20a7 3B000000 		.4byte	.LVL224-1
 12698 20ab 9E000000 		.4byte	.LVL240
 12699 20af 0100     		.2byte	0x1
 12700 20b1 55       		.byte	0x55
 12701 20b2 A4000000 		.4byte	.LVL241
 12702 20b6 A7000000 		.4byte	.LVL242-1
 12703 20ba 0100     		.2byte	0x1
 12704 20bc 50       		.byte	0x50
 12705 20bd A7000000 		.4byte	.LVL242-1
 12706 20c1 BA000000 		.4byte	.LVL245
 12707 20c5 0100     		.2byte	0x1
 12708 20c7 55       		.byte	0x55
 12709 20c8 CC000000 		.4byte	.LVL248
 12710 20cc D1000000 		.4byte	.LVL250-1
 12711 20d0 0100     		.2byte	0x1
 12712 20d2 50       		.byte	0x50
 12713 20d3 D1000000 		.4byte	.LVL250-1
 12714 20d7 D2000000 		.4byte	.LVL250
 12715 20db 0100     		.2byte	0x1
 12716 20dd 55       		.byte	0x55
 12717 20de 00000000 		.4byte	0
 12718 20e2 00000000 		.4byte	0
 12719              	.LLST79:
 12720 20e6 36000000 		.4byte	.LVL223
 12721 20ea 98000000 		.4byte	.LVL239
 12722 20ee 0200     		.2byte	0x2
 12723 20f0 3F       		.byte	0x3f
 12724 20f1 9F       		.byte	0x9f
 12725 20f2 00000000 		.4byte	0
 12726 20f6 00000000 		.4byte	0
 12727              	.LLST80:
 12728 20fa 36000000 		.4byte	.LVL223
ARM GAS  C:\Users\info\AppData\Local\Temp\ccQPGqkW.s 			page 253


 12729 20fe 3B000000 		.4byte	.LVL224-1
 12730 2102 0100     		.2byte	0x1
 12731 2104 53       		.byte	0x53
 12732 2105 3B000000 		.4byte	.LVL224-1
 12733 2109 74000000 		.4byte	.LVL232
 12734 210d 0100     		.2byte	0x1
 12735 210f 57       		.byte	0x57
 12736 2110 74000000 		.4byte	.LVL232
 12737 2114 98000000 		.4byte	.LVL239
 12738 2118 0400     		.2byte	0x4
 12739 211a F3       		.byte	0xf3
 12740 211b 01       		.uleb128 0x1
 12741 211c 53       		.byte	0x53
 12742 211d 9F       		.byte	0x9f
 12743 211e 00000000 		.4byte	0
 12744 2122 00000000 		.4byte	0
 12745              	.LLST81:
 12746 2126 36000000 		.4byte	.LVL223
 12747 212a 92000000 		.4byte	.LVL238
 12748 212e 0100     		.2byte	0x1
 12749 2130 54       		.byte	0x54
 12750 2131 92000000 		.4byte	.LVL238
 12751 2135 98000000 		.4byte	.LVL239
 12752 2139 0100     		.2byte	0x1
 12753 213b 52       		.byte	0x52
 12754 213c 00000000 		.4byte	0
 12755 2140 00000000 		.4byte	0
 12756              	.LLST82:
 12757 2144 36000000 		.4byte	.LVL223
 12758 2148 3B000000 		.4byte	.LVL224-1
 12759 214c 0100     		.2byte	0x1
 12760 214e 50       		.byte	0x50
 12761 214f 3B000000 		.4byte	.LVL224-1
 12762 2153 98000000 		.4byte	.LVL239
 12763 2157 0100     		.2byte	0x1
 12764 2159 55       		.byte	0x55
 12765 215a 00000000 		.4byte	0
 12766 215e 00000000 		.4byte	0
 12767              	.LLST83:
 12768 2162 44000000 		.4byte	.LVL225
 12769 2166 4A000000 		.4byte	.LVL226
 12770 216a 0800     		.2byte	0x8
 12771 216c 78       		.byte	0x78
 12772 216d 00       		.sleb128 0
 12773 216e 33       		.byte	0x33
 12774 216f 24       		.byte	0x24
 12775 2170 08       		.byte	0x8
 12776 2171 F8       		.byte	0xf8
 12777 2172 1A       		.byte	0x1a
 12778 2173 9F       		.byte	0x9f
 12779 2174 4A000000 		.4byte	.LVL226
 12780 2178 4E000000 		.4byte	.LVL227
 12781 217c 0D00     		.2byte	0xd
 12782 217e 77       		.byte	0x77
 12783 217f 05       		.sleb128 5
 12784 2180 94       		.byte	0x94
 12785 2181 01       		.byte	0x1
ARM GAS  C:\Users\info\AppData\Local\Temp\ccQPGqkW.s 			page 254


 12786 2182 08       		.byte	0x8
 12787 2183 FF       		.byte	0xff
 12788 2184 1A       		.byte	0x1a
 12789 2185 33       		.byte	0x33
 12790 2186 24       		.byte	0x24
 12791 2187 08       		.byte	0x8
 12792 2188 F8       		.byte	0xf8
 12793 2189 1A       		.byte	0x1a
 12794 218a 9F       		.byte	0x9f
 12795 218b 4E000000 		.4byte	.LVL227
 12796 218f 98000000 		.4byte	.LVL239
 12797 2193 0100     		.2byte	0x1
 12798 2195 58       		.byte	0x58
 12799 2196 00000000 		.4byte	0
 12800 219a 00000000 		.4byte	0
 12801              	.LLST84:
 12802 219e 72000000 		.4byte	.LVL231
 12803 21a2 76000000 		.4byte	.LVL233
 12804 21a6 0100     		.2byte	0x1
 12805 21a8 56       		.byte	0x56
 12806 21a9 76000000 		.4byte	.LVL233
 12807 21ad 78000000 		.4byte	.LVL234
 12808 21b1 0500     		.2byte	0x5
 12809 21b3 F3       		.byte	0xf3
 12810 21b4 01       		.uleb128 0x1
 12811 21b5 53       		.byte	0x53
 12812 21b6 23       		.byte	0x23
 12813 21b7 04       		.uleb128 0x4
 12814 21b8 78000000 		.4byte	.LVL234
 12815 21bc 7E000000 		.4byte	.LVL235
 12816 21c0 0100     		.2byte	0x1
 12817 21c2 56       		.byte	0x56
 12818 21c3 7E000000 		.4byte	.LVL235
 12819 21c7 86000000 		.4byte	.LVL236
 12820 21cb 0300     		.2byte	0x3
 12821 21cd 09       		.byte	0x9
 12822 21ce 84       		.byte	0x84
 12823 21cf 9F       		.byte	0x9f
 12824 21d0 86000000 		.4byte	.LVL236
 12825 21d4 98000000 		.4byte	.LVL239
 12826 21d8 0100     		.2byte	0x1
 12827 21da 56       		.byte	0x56
 12828 21db 00000000 		.4byte	0
 12829 21df 00000000 		.4byte	0
 12830              	.LLST85:
 12831 21e3 78000000 		.4byte	.LVL234
 12832 21e7 98000000 		.4byte	.LVL239
 12833 21eb 0100     		.2byte	0x1
 12834 21ed 57       		.byte	0x57
 12835 21ee 00000000 		.4byte	0
 12836 21f2 00000000 		.4byte	0
 12837              	.LLST86:
 12838 21f6 FA000000 		.4byte	.LVL257
 12839 21fa 0A010000 		.4byte	.LVL260
 12840 21fe 0200     		.2byte	0x2
 12841 2200 3D       		.byte	0x3d
 12842 2201 9F       		.byte	0x9f
ARM GAS  C:\Users\info\AppData\Local\Temp\ccQPGqkW.s 			page 255


 12843 2202 00000000 		.4byte	0
 12844 2206 00000000 		.4byte	0
 12845              	.LLST87:
 12846 220a FA000000 		.4byte	.LVL257
 12847 220e 0A010000 		.4byte	.LVL260
 12848 2212 0200     		.2byte	0x2
 12849 2214 30       		.byte	0x30
 12850 2215 9F       		.byte	0x9f
 12851 2216 00000000 		.4byte	0
 12852 221a 00000000 		.4byte	0
 12853              	.LLST88:
 12854 221e FA000000 		.4byte	.LVL257
 12855 2222 FF000000 		.4byte	.LVL259-1
 12856 2226 0100     		.2byte	0x1
 12857 2228 53       		.byte	0x53
 12858 2229 FF000000 		.4byte	.LVL259-1
 12859 222d 0A010000 		.4byte	.LVL260
 12860 2231 0400     		.2byte	0x4
 12861 2233 F3       		.byte	0xf3
 12862 2234 01       		.uleb128 0x1
 12863 2235 53       		.byte	0x53
 12864 2236 9F       		.byte	0x9f
 12865 2237 00000000 		.4byte	0
 12866 223b 00000000 		.4byte	0
 12867              	.LLST89:
 12868 223f FA000000 		.4byte	.LVL257
 12869 2243 FF000000 		.4byte	.LVL259-1
 12870 2247 0100     		.2byte	0x1
 12871 2249 50       		.byte	0x50
 12872 224a FF000000 		.4byte	.LVL259-1
 12873 224e 0A010000 		.4byte	.LVL260
 12874 2252 0100     		.2byte	0x1
 12875 2254 55       		.byte	0x55
 12876 2255 00000000 		.4byte	0
 12877 2259 00000000 		.4byte	0
 12878              	.LLST90:
 12879 225d 00000000 		.4byte	.LVL262
 12880 2261 22000000 		.4byte	.LVL265
 12881 2265 0100     		.2byte	0x1
 12882 2267 50       		.byte	0x50
 12883 2268 22000000 		.4byte	.LVL265
 12884 226c 26000000 		.4byte	.LVL266
 12885 2270 0100     		.2byte	0x1
 12886 2272 55       		.byte	0x55
 12887 2273 26000000 		.4byte	.LVL266
 12888 2277 2F000000 		.4byte	.LVL268-1
 12889 227b 0100     		.2byte	0x1
 12890 227d 50       		.byte	0x50
 12891 227e 2F000000 		.4byte	.LVL268-1
 12892 2282 36000000 		.4byte	.LVL270
 12893 2286 0100     		.2byte	0x1
 12894 2288 55       		.byte	0x55
 12895 2289 36000000 		.4byte	.LVL270
 12896 228d 3B000000 		.4byte	.LVL271-1
 12897 2291 0100     		.2byte	0x1
 12898 2293 50       		.byte	0x50
 12899 2294 3B000000 		.4byte	.LVL271-1
ARM GAS  C:\Users\info\AppData\Local\Temp\ccQPGqkW.s 			page 256


 12900 2298 A4000000 		.4byte	.LVL289
 12901 229c 0100     		.2byte	0x1
 12902 229e 55       		.byte	0x55
 12903 229f A4000000 		.4byte	.LVL289
 12904 22a3 A7000000 		.4byte	.LVL290-1
 12905 22a7 0100     		.2byte	0x1
 12906 22a9 50       		.byte	0x50
 12907 22aa A7000000 		.4byte	.LVL290-1
 12908 22ae BA000000 		.4byte	.LVL293
 12909 22b2 0100     		.2byte	0x1
 12910 22b4 55       		.byte	0x55
 12911 22b5 BA000000 		.4byte	.LVL293
 12912 22b9 BD000000 		.4byte	.LVL294-1
 12913 22bd 0100     		.2byte	0x1
 12914 22bf 50       		.byte	0x50
 12915 22c0 BD000000 		.4byte	.LVL294-1
 12916 22c4 CC000000 		.4byte	.LVL296
 12917 22c8 0100     		.2byte	0x1
 12918 22ca 55       		.byte	0x55
 12919 22cb CC000000 		.4byte	.LVL296
 12920 22cf D1000000 		.4byte	.LVL298-1
 12921 22d3 0100     		.2byte	0x1
 12922 22d5 50       		.byte	0x50
 12923 22d6 D1000000 		.4byte	.LVL298-1
 12924 22da D8000000 		.4byte	.LVL300
 12925 22de 0100     		.2byte	0x1
 12926 22e0 55       		.byte	0x55
 12927 22e1 D8000000 		.4byte	.LVL300
 12928 22e5 DD000000 		.4byte	.LVL302-1
 12929 22e9 0100     		.2byte	0x1
 12930 22eb 50       		.byte	0x50
 12931 22ec DD000000 		.4byte	.LVL302-1
 12932 22f0 E4000000 		.4byte	.LVL303
 12933 22f4 0100     		.2byte	0x1
 12934 22f6 55       		.byte	0x55
 12935 22f7 E4000000 		.4byte	.LVL303
 12936 22fb EB000000 		.4byte	.LVL305-1
 12937 22ff 0100     		.2byte	0x1
 12938 2301 50       		.byte	0x50
 12939 2302 EB000000 		.4byte	.LVL305-1
 12940 2306 FA000000 		.4byte	.LVL306
 12941 230a 0100     		.2byte	0x1
 12942 230c 55       		.byte	0x55
 12943 230d FA000000 		.4byte	.LVL306
 12944 2311 FF000000 		.4byte	.LVL308-1
 12945 2315 0100     		.2byte	0x1
 12946 2317 50       		.byte	0x50
 12947 2318 FF000000 		.4byte	.LVL308-1
 12948 231c 0E010000 		.4byte	.LVL310
 12949 2320 0100     		.2byte	0x1
 12950 2322 55       		.byte	0x55
 12951 2323 0E010000 		.4byte	.LVL310
 12952 2327 28010000 		.4byte	.LFE6
 12953 232b 0400     		.2byte	0x4
 12954 232d F3       		.byte	0xf3
 12955 232e 01       		.uleb128 0x1
 12956 232f 50       		.byte	0x50
ARM GAS  C:\Users\info\AppData\Local\Temp\ccQPGqkW.s 			page 257


 12957 2330 9F       		.byte	0x9f
 12958 2331 00000000 		.4byte	0
 12959 2335 00000000 		.4byte	0
 12960              	.LLST91:
 12961 2339 00000000 		.4byte	.LVL262
 12962 233d 2C000000 		.4byte	.LVL267
 12963 2341 0100     		.2byte	0x1
 12964 2343 51       		.byte	0x51
 12965 2344 2C000000 		.4byte	.LVL267
 12966 2348 36000000 		.4byte	.LVL270
 12967 234c 0400     		.2byte	0x4
 12968 234e F3       		.byte	0xf3
 12969 234f 01       		.uleb128 0x1
 12970 2350 51       		.byte	0x51
 12971 2351 9F       		.byte	0x9f
 12972 2352 36000000 		.4byte	.LVL270
 12973 2356 3B000000 		.4byte	.LVL271-1
 12974 235a 0100     		.2byte	0x1
 12975 235c 51       		.byte	0x51
 12976 235d 3B000000 		.4byte	.LVL271-1
 12977 2361 A4000000 		.4byte	.LVL289
 12978 2365 0400     		.2byte	0x4
 12979 2367 F3       		.byte	0xf3
 12980 2368 01       		.uleb128 0x1
 12981 2369 51       		.byte	0x51
 12982 236a 9F       		.byte	0x9f
 12983 236b A4000000 		.4byte	.LVL289
 12984 236f A7000000 		.4byte	.LVL290-1
 12985 2373 0100     		.2byte	0x1
 12986 2375 51       		.byte	0x51
 12987 2376 A7000000 		.4byte	.LVL290-1
 12988 237a BA000000 		.4byte	.LVL293
 12989 237e 0400     		.2byte	0x4
 12990 2380 F3       		.byte	0xf3
 12991 2381 01       		.uleb128 0x1
 12992 2382 51       		.byte	0x51
 12993 2383 9F       		.byte	0x9f
 12994 2384 BA000000 		.4byte	.LVL293
 12995 2388 BD000000 		.4byte	.LVL294-1
 12996 238c 0100     		.2byte	0x1
 12997 238e 51       		.byte	0x51
 12998 238f BD000000 		.4byte	.LVL294-1
 12999 2393 CC000000 		.4byte	.LVL296
 13000 2397 0400     		.2byte	0x4
 13001 2399 F3       		.byte	0xf3
 13002 239a 01       		.uleb128 0x1
 13003 239b 51       		.byte	0x51
 13004 239c 9F       		.byte	0x9f
 13005 239d CC000000 		.4byte	.LVL296
 13006 23a1 CE000000 		.4byte	.LVL297
 13007 23a5 0100     		.2byte	0x1
 13008 23a7 51       		.byte	0x51
 13009 23a8 CE000000 		.4byte	.LVL297
 13010 23ac D8000000 		.4byte	.LVL300
 13011 23b0 0400     		.2byte	0x4
 13012 23b2 F3       		.byte	0xf3
 13013 23b3 01       		.uleb128 0x1
ARM GAS  C:\Users\info\AppData\Local\Temp\ccQPGqkW.s 			page 258


 13014 23b4 51       		.byte	0x51
 13015 23b5 9F       		.byte	0x9f
 13016 23b6 D8000000 		.4byte	.LVL300
 13017 23ba DA000000 		.4byte	.LVL301
 13018 23be 0100     		.2byte	0x1
 13019 23c0 51       		.byte	0x51
 13020 23c1 DA000000 		.4byte	.LVL301
 13021 23c5 E4000000 		.4byte	.LVL303
 13022 23c9 0400     		.2byte	0x4
 13023 23cb F3       		.byte	0xf3
 13024 23cc 01       		.uleb128 0x1
 13025 23cd 51       		.byte	0x51
 13026 23ce 9F       		.byte	0x9f
 13027 23cf E4000000 		.4byte	.LVL303
 13028 23d3 E8000000 		.4byte	.LVL304
 13029 23d7 0100     		.2byte	0x1
 13030 23d9 51       		.byte	0x51
 13031 23da E8000000 		.4byte	.LVL304
 13032 23de FA000000 		.4byte	.LVL306
 13033 23e2 0400     		.2byte	0x4
 13034 23e4 F3       		.byte	0xf3
 13035 23e5 01       		.uleb128 0x1
 13036 23e6 51       		.byte	0x51
 13037 23e7 9F       		.byte	0x9f
 13038 23e8 FA000000 		.4byte	.LVL306
 13039 23ec FC000000 		.4byte	.LVL307
 13040 23f0 0100     		.2byte	0x1
 13041 23f2 51       		.byte	0x51
 13042 23f3 FC000000 		.4byte	.LVL307
 13043 23f7 28010000 		.4byte	.LFE6
 13044 23fb 0400     		.2byte	0x4
 13045 23fd F3       		.byte	0xf3
 13046 23fe 01       		.uleb128 0x1
 13047 23ff 51       		.byte	0x51
 13048 2400 9F       		.byte	0x9f
 13049 2401 00000000 		.4byte	0
 13050 2405 00000000 		.4byte	0
 13051              	.LLST92:
 13052 2409 00000000 		.4byte	.LVL262
 13053 240d 2F000000 		.4byte	.LVL268-1
 13054 2411 0100     		.2byte	0x1
 13055 2413 52       		.byte	0x52
 13056 2414 2F000000 		.4byte	.LVL268-1
 13057 2418 36000000 		.4byte	.LVL270
 13058 241c 0400     		.2byte	0x4
 13059 241e F3       		.byte	0xf3
 13060 241f 01       		.uleb128 0x1
 13061 2420 52       		.byte	0x52
 13062 2421 9F       		.byte	0x9f
 13063 2422 36000000 		.4byte	.LVL270
 13064 2426 3B000000 		.4byte	.LVL271-1
 13065 242a 0100     		.2byte	0x1
 13066 242c 52       		.byte	0x52
 13067 242d 3B000000 		.4byte	.LVL271-1
 13068 2431 A4000000 		.4byte	.LVL289
 13069 2435 0400     		.2byte	0x4
 13070 2437 F3       		.byte	0xf3
ARM GAS  C:\Users\info\AppData\Local\Temp\ccQPGqkW.s 			page 259


 13071 2438 01       		.uleb128 0x1
 13072 2439 52       		.byte	0x52
 13073 243a 9F       		.byte	0x9f
 13074 243b A4000000 		.4byte	.LVL289
 13075 243f A7000000 		.4byte	.LVL290-1
 13076 2443 0100     		.2byte	0x1
 13077 2445 52       		.byte	0x52
 13078 2446 A7000000 		.4byte	.LVL290-1
 13079 244a BA000000 		.4byte	.LVL293
 13080 244e 0400     		.2byte	0x4
 13081 2450 F3       		.byte	0xf3
 13082 2451 01       		.uleb128 0x1
 13083 2452 52       		.byte	0x52
 13084 2453 9F       		.byte	0x9f
 13085 2454 BA000000 		.4byte	.LVL293
 13086 2458 BD000000 		.4byte	.LVL294-1
 13087 245c 0100     		.2byte	0x1
 13088 245e 52       		.byte	0x52
 13089 245f BD000000 		.4byte	.LVL294-1
 13090 2463 CC000000 		.4byte	.LVL296
 13091 2467 0400     		.2byte	0x4
 13092 2469 F3       		.byte	0xf3
 13093 246a 01       		.uleb128 0x1
 13094 246b 52       		.byte	0x52
 13095 246c 9F       		.byte	0x9f
 13096 246d CC000000 		.4byte	.LVL296
 13097 2471 D1000000 		.4byte	.LVL298-1
 13098 2475 0100     		.2byte	0x1
 13099 2477 52       		.byte	0x52
 13100 2478 D1000000 		.4byte	.LVL298-1
 13101 247c D8000000 		.4byte	.LVL300
 13102 2480 0400     		.2byte	0x4
 13103 2482 F3       		.byte	0xf3
 13104 2483 01       		.uleb128 0x1
 13105 2484 52       		.byte	0x52
 13106 2485 9F       		.byte	0x9f
 13107 2486 D8000000 		.4byte	.LVL300
 13108 248a DD000000 		.4byte	.LVL302-1
 13109 248e 0100     		.2byte	0x1
 13110 2490 52       		.byte	0x52
 13111 2491 DD000000 		.4byte	.LVL302-1
 13112 2495 E4000000 		.4byte	.LVL303
 13113 2499 0400     		.2byte	0x4
 13114 249b F3       		.byte	0xf3
 13115 249c 01       		.uleb128 0x1
 13116 249d 52       		.byte	0x52
 13117 249e 9F       		.byte	0x9f
 13118 249f E4000000 		.4byte	.LVL303
 13119 24a3 EB000000 		.4byte	.LVL305-1
 13120 24a7 0100     		.2byte	0x1
 13121 24a9 52       		.byte	0x52
 13122 24aa EB000000 		.4byte	.LVL305-1
 13123 24ae FA000000 		.4byte	.LVL306
 13124 24b2 0400     		.2byte	0x4
 13125 24b4 F3       		.byte	0xf3
 13126 24b5 01       		.uleb128 0x1
 13127 24b6 52       		.byte	0x52
ARM GAS  C:\Users\info\AppData\Local\Temp\ccQPGqkW.s 			page 260


 13128 24b7 9F       		.byte	0x9f
 13129 24b8 FA000000 		.4byte	.LVL306
 13130 24bc FF000000 		.4byte	.LVL308-1
 13131 24c0 0100     		.2byte	0x1
 13132 24c2 52       		.byte	0x52
 13133 24c3 FF000000 		.4byte	.LVL308-1
 13134 24c7 28010000 		.4byte	.LFE6
 13135 24cb 0400     		.2byte	0x4
 13136 24cd F3       		.byte	0xf3
 13137 24ce 01       		.uleb128 0x1
 13138 24cf 52       		.byte	0x52
 13139 24d0 9F       		.byte	0x9f
 13140 24d1 00000000 		.4byte	0
 13141 24d5 00000000 		.4byte	0
 13142              	.LLST93:
 13143 24d9 00000000 		.4byte	.LVL262
 13144 24dd 2F000000 		.4byte	.LVL268-1
 13145 24e1 0100     		.2byte	0x1
 13146 24e3 53       		.byte	0x53
 13147 24e4 2F000000 		.4byte	.LVL268-1
 13148 24e8 36000000 		.4byte	.LVL270
 13149 24ec 0400     		.2byte	0x4
 13150 24ee F3       		.byte	0xf3
 13151 24ef 01       		.uleb128 0x1
 13152 24f0 53       		.byte	0x53
 13153 24f1 9F       		.byte	0x9f
 13154 24f2 36000000 		.4byte	.LVL270
 13155 24f6 3B000000 		.4byte	.LVL271-1
 13156 24fa 0100     		.2byte	0x1
 13157 24fc 53       		.byte	0x53
 13158 24fd 3B000000 		.4byte	.LVL271-1
 13159 2501 74000000 		.4byte	.LVL279
 13160 2505 0100     		.2byte	0x1
 13161 2507 57       		.byte	0x57
 13162 2508 74000000 		.4byte	.LVL279
 13163 250c A4000000 		.4byte	.LVL289
 13164 2510 0400     		.2byte	0x4
 13165 2512 F3       		.byte	0xf3
 13166 2513 01       		.uleb128 0x1
 13167 2514 53       		.byte	0x53
 13168 2515 9F       		.byte	0x9f
 13169 2516 A4000000 		.4byte	.LVL289
 13170 251a A7000000 		.4byte	.LVL290-1
 13171 251e 0100     		.2byte	0x1
 13172 2520 53       		.byte	0x53
 13173 2521 A7000000 		.4byte	.LVL290-1
 13174 2525 BA000000 		.4byte	.LVL293
 13175 2529 0400     		.2byte	0x4
 13176 252b F3       		.byte	0xf3
 13177 252c 01       		.uleb128 0x1
 13178 252d 53       		.byte	0x53
 13179 252e 9F       		.byte	0x9f
 13180 252f BA000000 		.4byte	.LVL293
 13181 2533 BD000000 		.4byte	.LVL294-1
 13182 2537 0100     		.2byte	0x1
 13183 2539 53       		.byte	0x53
 13184 253a BD000000 		.4byte	.LVL294-1
ARM GAS  C:\Users\info\AppData\Local\Temp\ccQPGqkW.s 			page 261


 13185 253e CC000000 		.4byte	.LVL296
 13186 2542 0400     		.2byte	0x4
 13187 2544 F3       		.byte	0xf3
 13188 2545 01       		.uleb128 0x1
 13189 2546 53       		.byte	0x53
 13190 2547 9F       		.byte	0x9f
 13191 2548 CC000000 		.4byte	.LVL296
 13192 254c D1000000 		.4byte	.LVL298-1
 13193 2550 0100     		.2byte	0x1
 13194 2552 53       		.byte	0x53
 13195 2553 D1000000 		.4byte	.LVL298-1
 13196 2557 D8000000 		.4byte	.LVL300
 13197 255b 0400     		.2byte	0x4
 13198 255d F3       		.byte	0xf3
 13199 255e 01       		.uleb128 0x1
 13200 255f 53       		.byte	0x53
 13201 2560 9F       		.byte	0x9f
 13202 2561 D8000000 		.4byte	.LVL300
 13203 2565 DD000000 		.4byte	.LVL302-1
 13204 2569 0100     		.2byte	0x1
 13205 256b 53       		.byte	0x53
 13206 256c DD000000 		.4byte	.LVL302-1
 13207 2570 E4000000 		.4byte	.LVL303
 13208 2574 0400     		.2byte	0x4
 13209 2576 F3       		.byte	0xf3
 13210 2577 01       		.uleb128 0x1
 13211 2578 53       		.byte	0x53
 13212 2579 9F       		.byte	0x9f
 13213 257a E4000000 		.4byte	.LVL303
 13214 257e EB000000 		.4byte	.LVL305-1
 13215 2582 0100     		.2byte	0x1
 13216 2584 53       		.byte	0x53
 13217 2585 EB000000 		.4byte	.LVL305-1
 13218 2589 FA000000 		.4byte	.LVL306
 13219 258d 0400     		.2byte	0x4
 13220 258f F3       		.byte	0xf3
 13221 2590 01       		.uleb128 0x1
 13222 2591 53       		.byte	0x53
 13223 2592 9F       		.byte	0x9f
 13224 2593 FA000000 		.4byte	.LVL306
 13225 2597 FF000000 		.4byte	.LVL308-1
 13226 259b 0100     		.2byte	0x1
 13227 259d 53       		.byte	0x53
 13228 259e FF000000 		.4byte	.LVL308-1
 13229 25a2 28010000 		.4byte	.LFE6
 13230 25a6 0400     		.2byte	0x4
 13231 25a8 F3       		.byte	0xf3
 13232 25a9 01       		.uleb128 0x1
 13233 25aa 53       		.byte	0x53
 13234 25ab 9F       		.byte	0x9f
 13235 25ac 00000000 		.4byte	0
 13236 25b0 00000000 		.4byte	0
 13237              	.LLST94:
 13238 25b4 0A000000 		.4byte	.LVL263
 13239 25b8 2F000000 		.4byte	.LVL268-1
 13240 25bc 0100     		.2byte	0x1
 13241 25be 53       		.byte	0x53
ARM GAS  C:\Users\info\AppData\Local\Temp\ccQPGqkW.s 			page 262


 13242 25bf 2F000000 		.4byte	.LVL268-1
 13243 25c3 32000000 		.4byte	.LVL269
 13244 25c7 0400     		.2byte	0x4
 13245 25c9 F3       		.byte	0xf3
 13246 25ca 01       		.uleb128 0x1
 13247 25cb 53       		.byte	0x53
 13248 25cc 9F       		.byte	0x9f
 13249 25cd 36000000 		.4byte	.LVL270
 13250 25d1 3B000000 		.4byte	.LVL271-1
 13251 25d5 0100     		.2byte	0x1
 13252 25d7 53       		.byte	0x53
 13253 25d8 3B000000 		.4byte	.LVL271-1
 13254 25dc 74000000 		.4byte	.LVL279
 13255 25e0 0100     		.2byte	0x1
 13256 25e2 57       		.byte	0x57
 13257 25e3 74000000 		.4byte	.LVL279
 13258 25e7 A0000000 		.4byte	.LVL288
 13259 25eb 0400     		.2byte	0x4
 13260 25ed F3       		.byte	0xf3
 13261 25ee 01       		.uleb128 0x1
 13262 25ef 53       		.byte	0x53
 13263 25f0 9F       		.byte	0x9f
 13264 25f1 A4000000 		.4byte	.LVL289
 13265 25f5 A7000000 		.4byte	.LVL290-1
 13266 25f9 0100     		.2byte	0x1
 13267 25fb 53       		.byte	0x53
 13268 25fc A7000000 		.4byte	.LVL290-1
 13269 2600 BA000000 		.4byte	.LVL293
 13270 2604 0400     		.2byte	0x4
 13271 2606 F3       		.byte	0xf3
 13272 2607 01       		.uleb128 0x1
 13273 2608 53       		.byte	0x53
 13274 2609 9F       		.byte	0x9f
 13275 260a BA000000 		.4byte	.LVL293
 13276 260e BD000000 		.4byte	.LVL294-1
 13277 2612 0100     		.2byte	0x1
 13278 2614 53       		.byte	0x53
 13279 2615 BD000000 		.4byte	.LVL294-1
 13280 2619 CC000000 		.4byte	.LVL296
 13281 261d 0400     		.2byte	0x4
 13282 261f F3       		.byte	0xf3
 13283 2620 01       		.uleb128 0x1
 13284 2621 53       		.byte	0x53
 13285 2622 9F       		.byte	0x9f
 13286 2623 CC000000 		.4byte	.LVL296
 13287 2627 D1000000 		.4byte	.LVL298-1
 13288 262b 0100     		.2byte	0x1
 13289 262d 53       		.byte	0x53
 13290 262e D1000000 		.4byte	.LVL298-1
 13291 2632 D4000000 		.4byte	.LVL299
 13292 2636 0400     		.2byte	0x4
 13293 2638 F3       		.byte	0xf3
 13294 2639 01       		.uleb128 0x1
 13295 263a 53       		.byte	0x53
 13296 263b 9F       		.byte	0x9f
 13297 263c D8000000 		.4byte	.LVL300
 13298 2640 DD000000 		.4byte	.LVL302-1
ARM GAS  C:\Users\info\AppData\Local\Temp\ccQPGqkW.s 			page 263


 13299 2644 0100     		.2byte	0x1
 13300 2646 53       		.byte	0x53
 13301 2647 DD000000 		.4byte	.LVL302-1
 13302 264b E4000000 		.4byte	.LVL303
 13303 264f 0400     		.2byte	0x4
 13304 2651 F3       		.byte	0xf3
 13305 2652 01       		.uleb128 0x1
 13306 2653 53       		.byte	0x53
 13307 2654 9F       		.byte	0x9f
 13308 2655 E4000000 		.4byte	.LVL303
 13309 2659 EB000000 		.4byte	.LVL305-1
 13310 265d 0100     		.2byte	0x1
 13311 265f 53       		.byte	0x53
 13312 2660 EB000000 		.4byte	.LVL305-1
 13313 2664 FA000000 		.4byte	.LVL306
 13314 2668 0400     		.2byte	0x4
 13315 266a F3       		.byte	0xf3
 13316 266b 01       		.uleb128 0x1
 13317 266c 53       		.byte	0x53
 13318 266d 9F       		.byte	0x9f
 13319 266e FA000000 		.4byte	.LVL306
 13320 2672 FF000000 		.4byte	.LVL308-1
 13321 2676 0100     		.2byte	0x1
 13322 2678 53       		.byte	0x53
 13323 2679 FF000000 		.4byte	.LVL308-1
 13324 267d 28010000 		.4byte	.LFE6
 13325 2681 0400     		.2byte	0x4
 13326 2683 F3       		.byte	0xf3
 13327 2684 01       		.uleb128 0x1
 13328 2685 53       		.byte	0x53
 13329 2686 9F       		.byte	0x9f
 13330 2687 00000000 		.4byte	0
 13331 268b 00000000 		.4byte	0
 13332              	.LLST95:
 13333 268f 0A000000 		.4byte	.LVL263
 13334 2693 2F000000 		.4byte	.LVL268-1
 13335 2697 0100     		.2byte	0x1
 13336 2699 52       		.byte	0x52
 13337 269a 2F000000 		.4byte	.LVL268-1
 13338 269e 32000000 		.4byte	.LVL269
 13339 26a2 0400     		.2byte	0x4
 13340 26a4 F3       		.byte	0xf3
 13341 26a5 01       		.uleb128 0x1
 13342 26a6 52       		.byte	0x52
 13343 26a7 9F       		.byte	0x9f
 13344 26a8 36000000 		.4byte	.LVL270
 13345 26ac 3B000000 		.4byte	.LVL271-1
 13346 26b0 0100     		.2byte	0x1
 13347 26b2 52       		.byte	0x52
 13348 26b3 3B000000 		.4byte	.LVL271-1
 13349 26b7 A0000000 		.4byte	.LVL288
 13350 26bb 0400     		.2byte	0x4
 13351 26bd F3       		.byte	0xf3
 13352 26be 01       		.uleb128 0x1
 13353 26bf 52       		.byte	0x52
 13354 26c0 9F       		.byte	0x9f
 13355 26c1 A4000000 		.4byte	.LVL289
ARM GAS  C:\Users\info\AppData\Local\Temp\ccQPGqkW.s 			page 264


 13356 26c5 A7000000 		.4byte	.LVL290-1
 13357 26c9 0100     		.2byte	0x1
 13358 26cb 52       		.byte	0x52
 13359 26cc A7000000 		.4byte	.LVL290-1
 13360 26d0 BA000000 		.4byte	.LVL293
 13361 26d4 0400     		.2byte	0x4
 13362 26d6 F3       		.byte	0xf3
 13363 26d7 01       		.uleb128 0x1
 13364 26d8 52       		.byte	0x52
 13365 26d9 9F       		.byte	0x9f
 13366 26da BA000000 		.4byte	.LVL293
 13367 26de BD000000 		.4byte	.LVL294-1
 13368 26e2 0100     		.2byte	0x1
 13369 26e4 52       		.byte	0x52
 13370 26e5 BD000000 		.4byte	.LVL294-1
 13371 26e9 CC000000 		.4byte	.LVL296
 13372 26ed 0400     		.2byte	0x4
 13373 26ef F3       		.byte	0xf3
 13374 26f0 01       		.uleb128 0x1
 13375 26f1 52       		.byte	0x52
 13376 26f2 9F       		.byte	0x9f
 13377 26f3 CC000000 		.4byte	.LVL296
 13378 26f7 D1000000 		.4byte	.LVL298-1
 13379 26fb 0100     		.2byte	0x1
 13380 26fd 52       		.byte	0x52
 13381 26fe D1000000 		.4byte	.LVL298-1
 13382 2702 D4000000 		.4byte	.LVL299
 13383 2706 0400     		.2byte	0x4
 13384 2708 F3       		.byte	0xf3
 13385 2709 01       		.uleb128 0x1
 13386 270a 52       		.byte	0x52
 13387 270b 9F       		.byte	0x9f
 13388 270c D8000000 		.4byte	.LVL300
 13389 2710 DD000000 		.4byte	.LVL302-1
 13390 2714 0100     		.2byte	0x1
 13391 2716 52       		.byte	0x52
 13392 2717 DD000000 		.4byte	.LVL302-1
 13393 271b E4000000 		.4byte	.LVL303
 13394 271f 0400     		.2byte	0x4
 13395 2721 F3       		.byte	0xf3
 13396 2722 01       		.uleb128 0x1
 13397 2723 52       		.byte	0x52
 13398 2724 9F       		.byte	0x9f
 13399 2725 E4000000 		.4byte	.LVL303
 13400 2729 EB000000 		.4byte	.LVL305-1
 13401 272d 0100     		.2byte	0x1
 13402 272f 52       		.byte	0x52
 13403 2730 EB000000 		.4byte	.LVL305-1
 13404 2734 FA000000 		.4byte	.LVL306
 13405 2738 0400     		.2byte	0x4
 13406 273a F3       		.byte	0xf3
 13407 273b 01       		.uleb128 0x1
 13408 273c 52       		.byte	0x52
 13409 273d 9F       		.byte	0x9f
 13410 273e FA000000 		.4byte	.LVL306
 13411 2742 FF000000 		.4byte	.LVL308-1
 13412 2746 0100     		.2byte	0x1
ARM GAS  C:\Users\info\AppData\Local\Temp\ccQPGqkW.s 			page 265


 13413 2748 52       		.byte	0x52
 13414 2749 FF000000 		.4byte	.LVL308-1
 13415 274d 28010000 		.4byte	.LFE6
 13416 2751 0400     		.2byte	0x4
 13417 2753 F3       		.byte	0xf3
 13418 2754 01       		.uleb128 0x1
 13419 2755 52       		.byte	0x52
 13420 2756 9F       		.byte	0x9f
 13421 2757 00000000 		.4byte	0
 13422 275b 00000000 		.4byte	0
 13423              	.LLST96:
 13424 275f 0A000000 		.4byte	.LVL263
 13425 2763 2C000000 		.4byte	.LVL267
 13426 2767 0100     		.2byte	0x1
 13427 2769 51       		.byte	0x51
 13428 276a 2C000000 		.4byte	.LVL267
 13429 276e 32000000 		.4byte	.LVL269
 13430 2772 0400     		.2byte	0x4
 13431 2774 F3       		.byte	0xf3
 13432 2775 01       		.uleb128 0x1
 13433 2776 51       		.byte	0x51
 13434 2777 9F       		.byte	0x9f
 13435 2778 36000000 		.4byte	.LVL270
 13436 277c 3B000000 		.4byte	.LVL271-1
 13437 2780 0100     		.2byte	0x1
 13438 2782 51       		.byte	0x51
 13439 2783 3B000000 		.4byte	.LVL271-1
 13440 2787 A0000000 		.4byte	.LVL288
 13441 278b 0400     		.2byte	0x4
 13442 278d F3       		.byte	0xf3
 13443 278e 01       		.uleb128 0x1
 13444 278f 51       		.byte	0x51
 13445 2790 9F       		.byte	0x9f
 13446 2791 A4000000 		.4byte	.LVL289
 13447 2795 A7000000 		.4byte	.LVL290-1
 13448 2799 0100     		.2byte	0x1
 13449 279b 51       		.byte	0x51
 13450 279c A7000000 		.4byte	.LVL290-1
 13451 27a0 BA000000 		.4byte	.LVL293
 13452 27a4 0400     		.2byte	0x4
 13453 27a6 F3       		.byte	0xf3
 13454 27a7 01       		.uleb128 0x1
 13455 27a8 51       		.byte	0x51
 13456 27a9 9F       		.byte	0x9f
 13457 27aa BA000000 		.4byte	.LVL293
 13458 27ae BD000000 		.4byte	.LVL294-1
 13459 27b2 0100     		.2byte	0x1
 13460 27b4 51       		.byte	0x51
 13461 27b5 BD000000 		.4byte	.LVL294-1
 13462 27b9 CC000000 		.4byte	.LVL296
 13463 27bd 0400     		.2byte	0x4
 13464 27bf F3       		.byte	0xf3
 13465 27c0 01       		.uleb128 0x1
 13466 27c1 51       		.byte	0x51
 13467 27c2 9F       		.byte	0x9f
 13468 27c3 CC000000 		.4byte	.LVL296
 13469 27c7 CE000000 		.4byte	.LVL297
ARM GAS  C:\Users\info\AppData\Local\Temp\ccQPGqkW.s 			page 266


 13470 27cb 0100     		.2byte	0x1
 13471 27cd 51       		.byte	0x51
 13472 27ce CE000000 		.4byte	.LVL297
 13473 27d2 D4000000 		.4byte	.LVL299
 13474 27d6 0400     		.2byte	0x4
 13475 27d8 F3       		.byte	0xf3
 13476 27d9 01       		.uleb128 0x1
 13477 27da 51       		.byte	0x51
 13478 27db 9F       		.byte	0x9f
 13479 27dc D8000000 		.4byte	.LVL300
 13480 27e0 DA000000 		.4byte	.LVL301
 13481 27e4 0100     		.2byte	0x1
 13482 27e6 51       		.byte	0x51
 13483 27e7 DA000000 		.4byte	.LVL301
 13484 27eb E4000000 		.4byte	.LVL303
 13485 27ef 0400     		.2byte	0x4
 13486 27f1 F3       		.byte	0xf3
 13487 27f2 01       		.uleb128 0x1
 13488 27f3 51       		.byte	0x51
 13489 27f4 9F       		.byte	0x9f
 13490 27f5 E4000000 		.4byte	.LVL303
 13491 27f9 E8000000 		.4byte	.LVL304
 13492 27fd 0100     		.2byte	0x1
 13493 27ff 51       		.byte	0x51
 13494 2800 E8000000 		.4byte	.LVL304
 13495 2804 FA000000 		.4byte	.LVL306
 13496 2808 0400     		.2byte	0x4
 13497 280a F3       		.byte	0xf3
 13498 280b 01       		.uleb128 0x1
 13499 280c 51       		.byte	0x51
 13500 280d 9F       		.byte	0x9f
 13501 280e FA000000 		.4byte	.LVL306
 13502 2812 FC000000 		.4byte	.LVL307
 13503 2816 0100     		.2byte	0x1
 13504 2818 51       		.byte	0x51
 13505 2819 FC000000 		.4byte	.LVL307
 13506 281d 28010000 		.4byte	.LFE6
 13507 2821 0400     		.2byte	0x4
 13508 2823 F3       		.byte	0xf3
 13509 2824 01       		.uleb128 0x1
 13510 2825 51       		.byte	0x51
 13511 2826 9F       		.byte	0x9f
 13512 2827 00000000 		.4byte	0
 13513 282b 00000000 		.4byte	0
 13514              	.LLST97:
 13515 282f 0A000000 		.4byte	.LVL263
 13516 2833 22000000 		.4byte	.LVL265
 13517 2837 0100     		.2byte	0x1
 13518 2839 50       		.byte	0x50
 13519 283a 22000000 		.4byte	.LVL265
 13520 283e 26000000 		.4byte	.LVL266
 13521 2842 0100     		.2byte	0x1
 13522 2844 55       		.byte	0x55
 13523 2845 26000000 		.4byte	.LVL266
 13524 2849 2F000000 		.4byte	.LVL268-1
 13525 284d 0100     		.2byte	0x1
 13526 284f 50       		.byte	0x50
ARM GAS  C:\Users\info\AppData\Local\Temp\ccQPGqkW.s 			page 267


 13527 2850 2F000000 		.4byte	.LVL268-1
 13528 2854 32000000 		.4byte	.LVL269
 13529 2858 0100     		.2byte	0x1
 13530 285a 55       		.byte	0x55
 13531 285b 36000000 		.4byte	.LVL270
 13532 285f 3B000000 		.4byte	.LVL271-1
 13533 2863 0100     		.2byte	0x1
 13534 2865 50       		.byte	0x50
 13535 2866 3B000000 		.4byte	.LVL271-1
 13536 286a A0000000 		.4byte	.LVL288
 13537 286e 0100     		.2byte	0x1
 13538 2870 55       		.byte	0x55
 13539 2871 A4000000 		.4byte	.LVL289
 13540 2875 A7000000 		.4byte	.LVL290-1
 13541 2879 0100     		.2byte	0x1
 13542 287b 50       		.byte	0x50
 13543 287c A7000000 		.4byte	.LVL290-1
 13544 2880 BA000000 		.4byte	.LVL293
 13545 2884 0100     		.2byte	0x1
 13546 2886 55       		.byte	0x55
 13547 2887 BA000000 		.4byte	.LVL293
 13548 288b BD000000 		.4byte	.LVL294-1
 13549 288f 0100     		.2byte	0x1
 13550 2891 50       		.byte	0x50
 13551 2892 BD000000 		.4byte	.LVL294-1
 13552 2896 CC000000 		.4byte	.LVL296
 13553 289a 0100     		.2byte	0x1
 13554 289c 55       		.byte	0x55
 13555 289d CC000000 		.4byte	.LVL296
 13556 28a1 D1000000 		.4byte	.LVL298-1
 13557 28a5 0100     		.2byte	0x1
 13558 28a7 50       		.byte	0x50
 13559 28a8 D1000000 		.4byte	.LVL298-1
 13560 28ac D4000000 		.4byte	.LVL299
 13561 28b0 0100     		.2byte	0x1
 13562 28b2 55       		.byte	0x55
 13563 28b3 D8000000 		.4byte	.LVL300
 13564 28b7 DD000000 		.4byte	.LVL302-1
 13565 28bb 0100     		.2byte	0x1
 13566 28bd 50       		.byte	0x50
 13567 28be DD000000 		.4byte	.LVL302-1
 13568 28c2 E4000000 		.4byte	.LVL303
 13569 28c6 0100     		.2byte	0x1
 13570 28c8 55       		.byte	0x55
 13571 28c9 E4000000 		.4byte	.LVL303
 13572 28cd EB000000 		.4byte	.LVL305-1
 13573 28d1 0100     		.2byte	0x1
 13574 28d3 50       		.byte	0x50
 13575 28d4 EB000000 		.4byte	.LVL305-1
 13576 28d8 FA000000 		.4byte	.LVL306
 13577 28dc 0100     		.2byte	0x1
 13578 28de 55       		.byte	0x55
 13579 28df FA000000 		.4byte	.LVL306
 13580 28e3 FF000000 		.4byte	.LVL308-1
 13581 28e7 0100     		.2byte	0x1
 13582 28e9 50       		.byte	0x50
 13583 28ea FF000000 		.4byte	.LVL308-1
ARM GAS  C:\Users\info\AppData\Local\Temp\ccQPGqkW.s 			page 268


 13584 28ee 0E010000 		.4byte	.LVL310
 13585 28f2 0100     		.2byte	0x1
 13586 28f4 55       		.byte	0x55
 13587 28f5 0E010000 		.4byte	.LVL310
 13588 28f9 28010000 		.4byte	.LFE6
 13589 28fd 0400     		.2byte	0x4
 13590 28ff F3       		.byte	0xf3
 13591 2900 01       		.uleb128 0x1
 13592 2901 50       		.byte	0x50
 13593 2902 9F       		.byte	0x9f
 13594 2903 00000000 		.4byte	0
 13595 2907 00000000 		.4byte	0
 13596              	.LLST98:
 13597 290b 0A000000 		.4byte	.LVL263
 13598 290f 14000000 		.4byte	.LVL264
 13599 2913 0100     		.2byte	0x1
 13600 2915 53       		.byte	0x53
 13601 2916 26000000 		.4byte	.LVL266
 13602 291a 2F000000 		.4byte	.LVL268-1
 13603 291e 0100     		.2byte	0x1
 13604 2920 53       		.byte	0x53
 13605 2921 2F000000 		.4byte	.LVL268-1
 13606 2925 30000000 		.4byte	.LVL268
 13607 2929 0400     		.2byte	0x4
 13608 292b F3       		.byte	0xf3
 13609 292c 01       		.uleb128 0x1
 13610 292d 53       		.byte	0x53
 13611 292e 9F       		.byte	0x9f
 13612 292f 36000000 		.4byte	.LVL270
 13613 2933 3B000000 		.4byte	.LVL271-1
 13614 2937 0100     		.2byte	0x1
 13615 2939 53       		.byte	0x53
 13616 293a 3B000000 		.4byte	.LVL271-1
 13617 293e 74000000 		.4byte	.LVL279
 13618 2942 0100     		.2byte	0x1
 13619 2944 57       		.byte	0x57
 13620 2945 74000000 		.4byte	.LVL279
 13621 2949 9E000000 		.4byte	.LVL287
 13622 294d 0400     		.2byte	0x4
 13623 294f F3       		.byte	0xf3
 13624 2950 01       		.uleb128 0x1
 13625 2951 53       		.byte	0x53
 13626 2952 9F       		.byte	0x9f
 13627 2953 A4000000 		.4byte	.LVL289
 13628 2957 A7000000 		.4byte	.LVL290-1
 13629 295b 0100     		.2byte	0x1
 13630 295d 53       		.byte	0x53
 13631 295e A7000000 		.4byte	.LVL290-1
 13632 2962 BA000000 		.4byte	.LVL293
 13633 2966 0400     		.2byte	0x4
 13634 2968 F3       		.byte	0xf3
 13635 2969 01       		.uleb128 0x1
 13636 296a 53       		.byte	0x53
 13637 296b 9F       		.byte	0x9f
 13638 296c CC000000 		.4byte	.LVL296
 13639 2970 D1000000 		.4byte	.LVL298-1
 13640 2974 0100     		.2byte	0x1
ARM GAS  C:\Users\info\AppData\Local\Temp\ccQPGqkW.s 			page 269


 13641 2976 53       		.byte	0x53
 13642 2977 D1000000 		.4byte	.LVL298-1
 13643 297b D2000000 		.4byte	.LVL298
 13644 297f 0400     		.2byte	0x4
 13645 2981 F3       		.byte	0xf3
 13646 2982 01       		.uleb128 0x1
 13647 2983 53       		.byte	0x53
 13648 2984 9F       		.byte	0x9f
 13649 2985 00000000 		.4byte	0
 13650 2989 00000000 		.4byte	0
 13651              	.LLST99:
 13652 298d 0A000000 		.4byte	.LVL263
 13653 2991 14000000 		.4byte	.LVL264
 13654 2995 0100     		.2byte	0x1
 13655 2997 52       		.byte	0x52
 13656 2998 26000000 		.4byte	.LVL266
 13657 299c 2F000000 		.4byte	.LVL268-1
 13658 29a0 0100     		.2byte	0x1
 13659 29a2 52       		.byte	0x52
 13660 29a3 2F000000 		.4byte	.LVL268-1
 13661 29a7 30000000 		.4byte	.LVL268
 13662 29ab 0400     		.2byte	0x4
 13663 29ad F3       		.byte	0xf3
 13664 29ae 01       		.uleb128 0x1
 13665 29af 52       		.byte	0x52
 13666 29b0 9F       		.byte	0x9f
 13667 29b1 36000000 		.4byte	.LVL270
 13668 29b5 3B000000 		.4byte	.LVL271-1
 13669 29b9 0100     		.2byte	0x1
 13670 29bb 52       		.byte	0x52
 13671 29bc 3B000000 		.4byte	.LVL271-1
 13672 29c0 9E000000 		.4byte	.LVL287
 13673 29c4 0400     		.2byte	0x4
 13674 29c6 F3       		.byte	0xf3
 13675 29c7 01       		.uleb128 0x1
 13676 29c8 52       		.byte	0x52
 13677 29c9 9F       		.byte	0x9f
 13678 29ca A4000000 		.4byte	.LVL289
 13679 29ce A7000000 		.4byte	.LVL290-1
 13680 29d2 0100     		.2byte	0x1
 13681 29d4 52       		.byte	0x52
 13682 29d5 A7000000 		.4byte	.LVL290-1
 13683 29d9 BA000000 		.4byte	.LVL293
 13684 29dd 0400     		.2byte	0x4
 13685 29df F3       		.byte	0xf3
 13686 29e0 01       		.uleb128 0x1
 13687 29e1 52       		.byte	0x52
 13688 29e2 9F       		.byte	0x9f
 13689 29e3 CC000000 		.4byte	.LVL296
 13690 29e7 D1000000 		.4byte	.LVL298-1
 13691 29eb 0100     		.2byte	0x1
 13692 29ed 52       		.byte	0x52
 13693 29ee D1000000 		.4byte	.LVL298-1
 13694 29f2 D2000000 		.4byte	.LVL298
 13695 29f6 0400     		.2byte	0x4
 13696 29f8 F3       		.byte	0xf3
 13697 29f9 01       		.uleb128 0x1
ARM GAS  C:\Users\info\AppData\Local\Temp\ccQPGqkW.s 			page 270


 13698 29fa 52       		.byte	0x52
 13699 29fb 9F       		.byte	0x9f
 13700 29fc 00000000 		.4byte	0
 13701 2a00 00000000 		.4byte	0
 13702              	.LLST100:
 13703 2a04 0A000000 		.4byte	.LVL263
 13704 2a08 14000000 		.4byte	.LVL264
 13705 2a0c 0100     		.2byte	0x1
 13706 2a0e 51       		.byte	0x51
 13707 2a0f 26000000 		.4byte	.LVL266
 13708 2a13 2C000000 		.4byte	.LVL267
 13709 2a17 0100     		.2byte	0x1
 13710 2a19 51       		.byte	0x51
 13711 2a1a 2C000000 		.4byte	.LVL267
 13712 2a1e 30000000 		.4byte	.LVL268
 13713 2a22 0400     		.2byte	0x4
 13714 2a24 F3       		.byte	0xf3
 13715 2a25 01       		.uleb128 0x1
 13716 2a26 51       		.byte	0x51
 13717 2a27 9F       		.byte	0x9f
 13718 2a28 36000000 		.4byte	.LVL270
 13719 2a2c 3B000000 		.4byte	.LVL271-1
 13720 2a30 0100     		.2byte	0x1
 13721 2a32 51       		.byte	0x51
 13722 2a33 3B000000 		.4byte	.LVL271-1
 13723 2a37 9E000000 		.4byte	.LVL287
 13724 2a3b 0400     		.2byte	0x4
 13725 2a3d F3       		.byte	0xf3
 13726 2a3e 01       		.uleb128 0x1
 13727 2a3f 51       		.byte	0x51
 13728 2a40 9F       		.byte	0x9f
 13729 2a41 A4000000 		.4byte	.LVL289
 13730 2a45 A7000000 		.4byte	.LVL290-1
 13731 2a49 0100     		.2byte	0x1
 13732 2a4b 51       		.byte	0x51
 13733 2a4c A7000000 		.4byte	.LVL290-1
 13734 2a50 BA000000 		.4byte	.LVL293
 13735 2a54 0400     		.2byte	0x4
 13736 2a56 F3       		.byte	0xf3
 13737 2a57 01       		.uleb128 0x1
 13738 2a58 51       		.byte	0x51
 13739 2a59 9F       		.byte	0x9f
 13740 2a5a CC000000 		.4byte	.LVL296
 13741 2a5e CE000000 		.4byte	.LVL297
 13742 2a62 0100     		.2byte	0x1
 13743 2a64 51       		.byte	0x51
 13744 2a65 CE000000 		.4byte	.LVL297
 13745 2a69 D2000000 		.4byte	.LVL298
 13746 2a6d 0400     		.2byte	0x4
 13747 2a6f F3       		.byte	0xf3
 13748 2a70 01       		.uleb128 0x1
 13749 2a71 51       		.byte	0x51
 13750 2a72 9F       		.byte	0x9f
 13751 2a73 00000000 		.4byte	0
 13752 2a77 00000000 		.4byte	0
 13753              	.LLST101:
 13754 2a7b 0A000000 		.4byte	.LVL263
ARM GAS  C:\Users\info\AppData\Local\Temp\ccQPGqkW.s 			page 271


 13755 2a7f 14000000 		.4byte	.LVL264
 13756 2a83 0100     		.2byte	0x1
 13757 2a85 50       		.byte	0x50
 13758 2a86 26000000 		.4byte	.LVL266
 13759 2a8a 2F000000 		.4byte	.LVL268-1
 13760 2a8e 0100     		.2byte	0x1
 13761 2a90 50       		.byte	0x50
 13762 2a91 2F000000 		.4byte	.LVL268-1
 13763 2a95 30000000 		.4byte	.LVL268
 13764 2a99 0100     		.2byte	0x1
 13765 2a9b 55       		.byte	0x55
 13766 2a9c 36000000 		.4byte	.LVL270
 13767 2aa0 3B000000 		.4byte	.LVL271-1
 13768 2aa4 0100     		.2byte	0x1
 13769 2aa6 50       		.byte	0x50
 13770 2aa7 3B000000 		.4byte	.LVL271-1
 13771 2aab 9E000000 		.4byte	.LVL287
 13772 2aaf 0100     		.2byte	0x1
 13773 2ab1 55       		.byte	0x55
 13774 2ab2 A4000000 		.4byte	.LVL289
 13775 2ab6 A7000000 		.4byte	.LVL290-1
 13776 2aba 0100     		.2byte	0x1
 13777 2abc 50       		.byte	0x50
 13778 2abd A7000000 		.4byte	.LVL290-1
 13779 2ac1 BA000000 		.4byte	.LVL293
 13780 2ac5 0100     		.2byte	0x1
 13781 2ac7 55       		.byte	0x55
 13782 2ac8 CC000000 		.4byte	.LVL296
 13783 2acc D1000000 		.4byte	.LVL298-1
 13784 2ad0 0100     		.2byte	0x1
 13785 2ad2 50       		.byte	0x50
 13786 2ad3 D1000000 		.4byte	.LVL298-1
 13787 2ad7 D2000000 		.4byte	.LVL298
 13788 2adb 0100     		.2byte	0x1
 13789 2add 55       		.byte	0x55
 13790 2ade 00000000 		.4byte	0
 13791 2ae2 00000000 		.4byte	0
 13792              	.LLST102:
 13793 2ae6 36000000 		.4byte	.LVL270
 13794 2aea 98000000 		.4byte	.LVL286
 13795 2aee 0200     		.2byte	0x2
 13796 2af0 3F       		.byte	0x3f
 13797 2af1 9F       		.byte	0x9f
 13798 2af2 00000000 		.4byte	0
 13799 2af6 00000000 		.4byte	0
 13800              	.LLST103:
 13801 2afa 36000000 		.4byte	.LVL270
 13802 2afe 3B000000 		.4byte	.LVL271-1
 13803 2b02 0100     		.2byte	0x1
 13804 2b04 53       		.byte	0x53
 13805 2b05 3B000000 		.4byte	.LVL271-1
 13806 2b09 74000000 		.4byte	.LVL279
 13807 2b0d 0100     		.2byte	0x1
 13808 2b0f 57       		.byte	0x57
 13809 2b10 74000000 		.4byte	.LVL279
 13810 2b14 98000000 		.4byte	.LVL286
 13811 2b18 0400     		.2byte	0x4
ARM GAS  C:\Users\info\AppData\Local\Temp\ccQPGqkW.s 			page 272


 13812 2b1a F3       		.byte	0xf3
 13813 2b1b 01       		.uleb128 0x1
 13814 2b1c 53       		.byte	0x53
 13815 2b1d 9F       		.byte	0x9f
 13816 2b1e 00000000 		.4byte	0
 13817 2b22 00000000 		.4byte	0
 13818              	.LLST104:
 13819 2b26 36000000 		.4byte	.LVL270
 13820 2b2a 92000000 		.4byte	.LVL285
 13821 2b2e 0100     		.2byte	0x1
 13822 2b30 54       		.byte	0x54
 13823 2b31 92000000 		.4byte	.LVL285
 13824 2b35 98000000 		.4byte	.LVL286
 13825 2b39 0100     		.2byte	0x1
 13826 2b3b 52       		.byte	0x52
 13827 2b3c 00000000 		.4byte	0
 13828 2b40 00000000 		.4byte	0
 13829              	.LLST105:
 13830 2b44 36000000 		.4byte	.LVL270
 13831 2b48 3B000000 		.4byte	.LVL271-1
 13832 2b4c 0100     		.2byte	0x1
 13833 2b4e 50       		.byte	0x50
 13834 2b4f 3B000000 		.4byte	.LVL271-1
 13835 2b53 98000000 		.4byte	.LVL286
 13836 2b57 0100     		.2byte	0x1
 13837 2b59 55       		.byte	0x55
 13838 2b5a 00000000 		.4byte	0
 13839 2b5e 00000000 		.4byte	0
 13840              	.LLST106:
 13841 2b62 44000000 		.4byte	.LVL272
 13842 2b66 4A000000 		.4byte	.LVL273
 13843 2b6a 0800     		.2byte	0x8
 13844 2b6c 78       		.byte	0x78
 13845 2b6d 00       		.sleb128 0
 13846 2b6e 33       		.byte	0x33
 13847 2b6f 24       		.byte	0x24
 13848 2b70 08       		.byte	0x8
 13849 2b71 F8       		.byte	0xf8
 13850 2b72 1A       		.byte	0x1a
 13851 2b73 9F       		.byte	0x9f
 13852 2b74 4A000000 		.4byte	.LVL273
 13853 2b78 4E000000 		.4byte	.LVL274
 13854 2b7c 0D00     		.2byte	0xd
 13855 2b7e 77       		.byte	0x77
 13856 2b7f 05       		.sleb128 5
 13857 2b80 94       		.byte	0x94
 13858 2b81 01       		.byte	0x1
 13859 2b82 08       		.byte	0x8
 13860 2b83 FF       		.byte	0xff
 13861 2b84 1A       		.byte	0x1a
 13862 2b85 33       		.byte	0x33
 13863 2b86 24       		.byte	0x24
 13864 2b87 08       		.byte	0x8
 13865 2b88 F8       		.byte	0xf8
 13866 2b89 1A       		.byte	0x1a
 13867 2b8a 9F       		.byte	0x9f
 13868 2b8b 4E000000 		.4byte	.LVL274
ARM GAS  C:\Users\info\AppData\Local\Temp\ccQPGqkW.s 			page 273


 13869 2b8f 98000000 		.4byte	.LVL286
 13870 2b93 0100     		.2byte	0x1
 13871 2b95 58       		.byte	0x58
 13872 2b96 00000000 		.4byte	0
 13873 2b9a 00000000 		.4byte	0
 13874              	.LLST107:
 13875 2b9e 72000000 		.4byte	.LVL278
 13876 2ba2 76000000 		.4byte	.LVL280
 13877 2ba6 0100     		.2byte	0x1
 13878 2ba8 56       		.byte	0x56
 13879 2ba9 76000000 		.4byte	.LVL280
 13880 2bad 78000000 		.4byte	.LVL281
 13881 2bb1 0500     		.2byte	0x5
 13882 2bb3 F3       		.byte	0xf3
 13883 2bb4 01       		.uleb128 0x1
 13884 2bb5 53       		.byte	0x53
 13885 2bb6 23       		.byte	0x23
 13886 2bb7 04       		.uleb128 0x4
 13887 2bb8 78000000 		.4byte	.LVL281
 13888 2bbc 7E000000 		.4byte	.LVL282
 13889 2bc0 0100     		.2byte	0x1
 13890 2bc2 56       		.byte	0x56
 13891 2bc3 7E000000 		.4byte	.LVL282
 13892 2bc7 86000000 		.4byte	.LVL283
 13893 2bcb 0300     		.2byte	0x3
 13894 2bcd 09       		.byte	0x9
 13895 2bce 84       		.byte	0x84
 13896 2bcf 9F       		.byte	0x9f
 13897 2bd0 86000000 		.4byte	.LVL283
 13898 2bd4 98000000 		.4byte	.LVL286
 13899 2bd8 0100     		.2byte	0x1
 13900 2bda 56       		.byte	0x56
 13901 2bdb 00000000 		.4byte	0
 13902 2bdf 00000000 		.4byte	0
 13903              	.LLST108:
 13904 2be3 78000000 		.4byte	.LVL281
 13905 2be7 98000000 		.4byte	.LVL286
 13906 2beb 0100     		.2byte	0x1
 13907 2bed 57       		.byte	0x57
 13908 2bee 00000000 		.4byte	0
 13909 2bf2 00000000 		.4byte	0
 13910              	.LLST109:
 13911 2bf6 FA000000 		.4byte	.LVL306
 13912 2bfa 0A010000 		.4byte	.LVL309
 13913 2bfe 0200     		.2byte	0x2
 13914 2c00 3D       		.byte	0x3d
 13915 2c01 9F       		.byte	0x9f
 13916 2c02 00000000 		.4byte	0
 13917 2c06 00000000 		.4byte	0
 13918              	.LLST110:
 13919 2c0a FA000000 		.4byte	.LVL306
 13920 2c0e 0A010000 		.4byte	.LVL309
 13921 2c12 0200     		.2byte	0x2
 13922 2c14 30       		.byte	0x30
 13923 2c15 9F       		.byte	0x9f
 13924 2c16 00000000 		.4byte	0
 13925 2c1a 00000000 		.4byte	0
ARM GAS  C:\Users\info\AppData\Local\Temp\ccQPGqkW.s 			page 274


 13926              	.LLST111:
 13927 2c1e FA000000 		.4byte	.LVL306
 13928 2c22 FF000000 		.4byte	.LVL308-1
 13929 2c26 0100     		.2byte	0x1
 13930 2c28 53       		.byte	0x53
 13931 2c29 FF000000 		.4byte	.LVL308-1
 13932 2c2d 0A010000 		.4byte	.LVL309
 13933 2c31 0400     		.2byte	0x4
 13934 2c33 F3       		.byte	0xf3
 13935 2c34 01       		.uleb128 0x1
 13936 2c35 53       		.byte	0x53
 13937 2c36 9F       		.byte	0x9f
 13938 2c37 00000000 		.4byte	0
 13939 2c3b 00000000 		.4byte	0
 13940              	.LLST112:
 13941 2c3f FA000000 		.4byte	.LVL306
 13942 2c43 FF000000 		.4byte	.LVL308-1
 13943 2c47 0100     		.2byte	0x1
 13944 2c49 50       		.byte	0x50
 13945 2c4a FF000000 		.4byte	.LVL308-1
 13946 2c4e 0A010000 		.4byte	.LVL309
 13947 2c52 0100     		.2byte	0x1
 13948 2c54 55       		.byte	0x55
 13949 2c55 00000000 		.4byte	0
 13950 2c59 00000000 		.4byte	0
 13951              	.LLST113:
 13952 2c5d 00000000 		.4byte	.LVL311
 13953 2c61 22000000 		.4byte	.LVL314
 13954 2c65 0100     		.2byte	0x1
 13955 2c67 50       		.byte	0x50
 13956 2c68 22000000 		.4byte	.LVL314
 13957 2c6c 26000000 		.4byte	.LVL315
 13958 2c70 0100     		.2byte	0x1
 13959 2c72 55       		.byte	0x55
 13960 2c73 26000000 		.4byte	.LVL315
 13961 2c77 2F000000 		.4byte	.LVL317-1
 13962 2c7b 0100     		.2byte	0x1
 13963 2c7d 50       		.byte	0x50
 13964 2c7e 2F000000 		.4byte	.LVL317-1
 13965 2c82 36000000 		.4byte	.LVL318
 13966 2c86 0100     		.2byte	0x1
 13967 2c88 55       		.byte	0x55
 13968 2c89 36000000 		.4byte	.LVL318
 13969 2c8d 3B000000 		.4byte	.LVL320-1
 13970 2c91 0100     		.2byte	0x1
 13971 2c93 50       		.byte	0x50
 13972 2c94 3B000000 		.4byte	.LVL320-1
 13973 2c98 A4000000 		.4byte	.LVL337
 13974 2c9c 0100     		.2byte	0x1
 13975 2c9e 55       		.byte	0x55
 13976 2c9f A4000000 		.4byte	.LVL337
 13977 2ca3 A7000000 		.4byte	.LVL338-1
 13978 2ca7 0100     		.2byte	0x1
 13979 2ca9 50       		.byte	0x50
 13980 2caa A7000000 		.4byte	.LVL338-1
 13981 2cae BA000000 		.4byte	.LVL341
 13982 2cb2 0100     		.2byte	0x1
ARM GAS  C:\Users\info\AppData\Local\Temp\ccQPGqkW.s 			page 275


 13983 2cb4 55       		.byte	0x55
 13984 2cb5 BA000000 		.4byte	.LVL341
 13985 2cb9 BD000000 		.4byte	.LVL342-1
 13986 2cbd 0100     		.2byte	0x1
 13987 2cbf 50       		.byte	0x50
 13988 2cc0 BD000000 		.4byte	.LVL342-1
 13989 2cc4 CC000000 		.4byte	.LVL344
 13990 2cc8 0100     		.2byte	0x1
 13991 2cca 55       		.byte	0x55
 13992 2ccb CC000000 		.4byte	.LVL344
 13993 2ccf D1000000 		.4byte	.LVL346-1
 13994 2cd3 0100     		.2byte	0x1
 13995 2cd5 50       		.byte	0x50
 13996 2cd6 D1000000 		.4byte	.LVL346-1
 13997 2cda D8000000 		.4byte	.LVL347
 13998 2cde 0100     		.2byte	0x1
 13999 2ce0 55       		.byte	0x55
 14000 2ce1 D8000000 		.4byte	.LVL347
 14001 2ce5 DD000000 		.4byte	.LVL349-1
 14002 2ce9 0100     		.2byte	0x1
 14003 2ceb 50       		.byte	0x50
 14004 2cec DD000000 		.4byte	.LVL349-1
 14005 2cf0 E4000000 		.4byte	.LVL350
 14006 2cf4 0100     		.2byte	0x1
 14007 2cf6 55       		.byte	0x55
 14008 2cf7 E4000000 		.4byte	.LVL350
 14009 2cfb EB000000 		.4byte	.LVL352-1
 14010 2cff 0100     		.2byte	0x1
 14011 2d01 50       		.byte	0x50
 14012 2d02 EB000000 		.4byte	.LVL352-1
 14013 2d06 FA000000 		.4byte	.LVL353
 14014 2d0a 0100     		.2byte	0x1
 14015 2d0c 55       		.byte	0x55
 14016 2d0d FA000000 		.4byte	.LVL353
 14017 2d11 FF000000 		.4byte	.LVL355-1
 14018 2d15 0100     		.2byte	0x1
 14019 2d17 50       		.byte	0x50
 14020 2d18 FF000000 		.4byte	.LVL355-1
 14021 2d1c 0E010000 		.4byte	.LVL356
 14022 2d20 0100     		.2byte	0x1
 14023 2d22 55       		.byte	0x55
 14024 2d23 0E010000 		.4byte	.LVL356
 14025 2d27 28010000 		.4byte	.LFE7
 14026 2d2b 0400     		.2byte	0x4
 14027 2d2d F3       		.byte	0xf3
 14028 2d2e 01       		.uleb128 0x1
 14029 2d2f 50       		.byte	0x50
 14030 2d30 9F       		.byte	0x9f
 14031 2d31 00000000 		.4byte	0
 14032 2d35 00000000 		.4byte	0
 14033              	.LLST114:
 14034 2d39 00000000 		.4byte	.LVL311
 14035 2d3d 2C000000 		.4byte	.LVL316
 14036 2d41 0100     		.2byte	0x1
 14037 2d43 51       		.byte	0x51
 14038 2d44 2C000000 		.4byte	.LVL316
 14039 2d48 36000000 		.4byte	.LVL318
ARM GAS  C:\Users\info\AppData\Local\Temp\ccQPGqkW.s 			page 276


 14040 2d4c 0400     		.2byte	0x4
 14041 2d4e F3       		.byte	0xf3
 14042 2d4f 01       		.uleb128 0x1
 14043 2d50 51       		.byte	0x51
 14044 2d51 9F       		.byte	0x9f
 14045 2d52 36000000 		.4byte	.LVL318
 14046 2d56 3B000000 		.4byte	.LVL320-1
 14047 2d5a 0100     		.2byte	0x1
 14048 2d5c 51       		.byte	0x51
 14049 2d5d 3B000000 		.4byte	.LVL320-1
 14050 2d61 A4000000 		.4byte	.LVL337
 14051 2d65 0400     		.2byte	0x4
 14052 2d67 F3       		.byte	0xf3
 14053 2d68 01       		.uleb128 0x1
 14054 2d69 51       		.byte	0x51
 14055 2d6a 9F       		.byte	0x9f
 14056 2d6b A4000000 		.4byte	.LVL337
 14057 2d6f A7000000 		.4byte	.LVL338-1
 14058 2d73 0100     		.2byte	0x1
 14059 2d75 51       		.byte	0x51
 14060 2d76 A7000000 		.4byte	.LVL338-1
 14061 2d7a BA000000 		.4byte	.LVL341
 14062 2d7e 0400     		.2byte	0x4
 14063 2d80 F3       		.byte	0xf3
 14064 2d81 01       		.uleb128 0x1
 14065 2d82 51       		.byte	0x51
 14066 2d83 9F       		.byte	0x9f
 14067 2d84 BA000000 		.4byte	.LVL341
 14068 2d88 BD000000 		.4byte	.LVL342-1
 14069 2d8c 0100     		.2byte	0x1
 14070 2d8e 51       		.byte	0x51
 14071 2d8f BD000000 		.4byte	.LVL342-1
 14072 2d93 CC000000 		.4byte	.LVL344
 14073 2d97 0400     		.2byte	0x4
 14074 2d99 F3       		.byte	0xf3
 14075 2d9a 01       		.uleb128 0x1
 14076 2d9b 51       		.byte	0x51
 14077 2d9c 9F       		.byte	0x9f
 14078 2d9d CC000000 		.4byte	.LVL344
 14079 2da1 CE000000 		.4byte	.LVL345
 14080 2da5 0100     		.2byte	0x1
 14081 2da7 51       		.byte	0x51
 14082 2da8 CE000000 		.4byte	.LVL345
 14083 2dac D8000000 		.4byte	.LVL347
 14084 2db0 0400     		.2byte	0x4
 14085 2db2 F3       		.byte	0xf3
 14086 2db3 01       		.uleb128 0x1
 14087 2db4 51       		.byte	0x51
 14088 2db5 9F       		.byte	0x9f
 14089 2db6 D8000000 		.4byte	.LVL347
 14090 2dba DA000000 		.4byte	.LVL348
 14091 2dbe 0100     		.2byte	0x1
 14092 2dc0 51       		.byte	0x51
 14093 2dc1 DA000000 		.4byte	.LVL348
 14094 2dc5 E4000000 		.4byte	.LVL350
 14095 2dc9 0400     		.2byte	0x4
 14096 2dcb F3       		.byte	0xf3
ARM GAS  C:\Users\info\AppData\Local\Temp\ccQPGqkW.s 			page 277


 14097 2dcc 01       		.uleb128 0x1
 14098 2dcd 51       		.byte	0x51
 14099 2dce 9F       		.byte	0x9f
 14100 2dcf E4000000 		.4byte	.LVL350
 14101 2dd3 E8000000 		.4byte	.LVL351
 14102 2dd7 0100     		.2byte	0x1
 14103 2dd9 51       		.byte	0x51
 14104 2dda E8000000 		.4byte	.LVL351
 14105 2dde FA000000 		.4byte	.LVL353
 14106 2de2 0400     		.2byte	0x4
 14107 2de4 F3       		.byte	0xf3
 14108 2de5 01       		.uleb128 0x1
 14109 2de6 51       		.byte	0x51
 14110 2de7 9F       		.byte	0x9f
 14111 2de8 FA000000 		.4byte	.LVL353
 14112 2dec FC000000 		.4byte	.LVL354
 14113 2df0 0100     		.2byte	0x1
 14114 2df2 51       		.byte	0x51
 14115 2df3 FC000000 		.4byte	.LVL354
 14116 2df7 28010000 		.4byte	.LFE7
 14117 2dfb 0400     		.2byte	0x4
 14118 2dfd F3       		.byte	0xf3
 14119 2dfe 01       		.uleb128 0x1
 14120 2dff 51       		.byte	0x51
 14121 2e00 9F       		.byte	0x9f
 14122 2e01 00000000 		.4byte	0
 14123 2e05 00000000 		.4byte	0
 14124              	.LLST115:
 14125 2e09 00000000 		.4byte	.LVL311
 14126 2e0d 2F000000 		.4byte	.LVL317-1
 14127 2e11 0100     		.2byte	0x1
 14128 2e13 52       		.byte	0x52
 14129 2e14 2F000000 		.4byte	.LVL317-1
 14130 2e18 36000000 		.4byte	.LVL318
 14131 2e1c 0400     		.2byte	0x4
 14132 2e1e F3       		.byte	0xf3
 14133 2e1f 01       		.uleb128 0x1
 14134 2e20 52       		.byte	0x52
 14135 2e21 9F       		.byte	0x9f
 14136 2e22 36000000 		.4byte	.LVL318
 14137 2e26 3B000000 		.4byte	.LVL320-1
 14138 2e2a 0100     		.2byte	0x1
 14139 2e2c 52       		.byte	0x52
 14140 2e2d 3B000000 		.4byte	.LVL320-1
 14141 2e31 A4000000 		.4byte	.LVL337
 14142 2e35 0400     		.2byte	0x4
 14143 2e37 F3       		.byte	0xf3
 14144 2e38 01       		.uleb128 0x1
 14145 2e39 52       		.byte	0x52
 14146 2e3a 9F       		.byte	0x9f
 14147 2e3b A4000000 		.4byte	.LVL337
 14148 2e3f A7000000 		.4byte	.LVL338-1
 14149 2e43 0100     		.2byte	0x1
 14150 2e45 52       		.byte	0x52
 14151 2e46 A7000000 		.4byte	.LVL338-1
 14152 2e4a BA000000 		.4byte	.LVL341
 14153 2e4e 0400     		.2byte	0x4
ARM GAS  C:\Users\info\AppData\Local\Temp\ccQPGqkW.s 			page 278


 14154 2e50 F3       		.byte	0xf3
 14155 2e51 01       		.uleb128 0x1
 14156 2e52 52       		.byte	0x52
 14157 2e53 9F       		.byte	0x9f
 14158 2e54 BA000000 		.4byte	.LVL341
 14159 2e58 BD000000 		.4byte	.LVL342-1
 14160 2e5c 0100     		.2byte	0x1
 14161 2e5e 52       		.byte	0x52
 14162 2e5f BD000000 		.4byte	.LVL342-1
 14163 2e63 CC000000 		.4byte	.LVL344
 14164 2e67 0400     		.2byte	0x4
 14165 2e69 F3       		.byte	0xf3
 14166 2e6a 01       		.uleb128 0x1
 14167 2e6b 52       		.byte	0x52
 14168 2e6c 9F       		.byte	0x9f
 14169 2e6d CC000000 		.4byte	.LVL344
 14170 2e71 D1000000 		.4byte	.LVL346-1
 14171 2e75 0100     		.2byte	0x1
 14172 2e77 52       		.byte	0x52
 14173 2e78 D1000000 		.4byte	.LVL346-1
 14174 2e7c D8000000 		.4byte	.LVL347
 14175 2e80 0400     		.2byte	0x4
 14176 2e82 F3       		.byte	0xf3
 14177 2e83 01       		.uleb128 0x1
 14178 2e84 52       		.byte	0x52
 14179 2e85 9F       		.byte	0x9f
 14180 2e86 D8000000 		.4byte	.LVL347
 14181 2e8a DD000000 		.4byte	.LVL349-1
 14182 2e8e 0100     		.2byte	0x1
 14183 2e90 52       		.byte	0x52
 14184 2e91 DD000000 		.4byte	.LVL349-1
 14185 2e95 E4000000 		.4byte	.LVL350
 14186 2e99 0400     		.2byte	0x4
 14187 2e9b F3       		.byte	0xf3
 14188 2e9c 01       		.uleb128 0x1
 14189 2e9d 52       		.byte	0x52
 14190 2e9e 9F       		.byte	0x9f
 14191 2e9f E4000000 		.4byte	.LVL350
 14192 2ea3 EB000000 		.4byte	.LVL352-1
 14193 2ea7 0100     		.2byte	0x1
 14194 2ea9 52       		.byte	0x52
 14195 2eaa EB000000 		.4byte	.LVL352-1
 14196 2eae FA000000 		.4byte	.LVL353
 14197 2eb2 0400     		.2byte	0x4
 14198 2eb4 F3       		.byte	0xf3
 14199 2eb5 01       		.uleb128 0x1
 14200 2eb6 52       		.byte	0x52
 14201 2eb7 9F       		.byte	0x9f
 14202 2eb8 FA000000 		.4byte	.LVL353
 14203 2ebc FF000000 		.4byte	.LVL355-1
 14204 2ec0 0100     		.2byte	0x1
 14205 2ec2 52       		.byte	0x52
 14206 2ec3 FF000000 		.4byte	.LVL355-1
 14207 2ec7 28010000 		.4byte	.LFE7
 14208 2ecb 0400     		.2byte	0x4
 14209 2ecd F3       		.byte	0xf3
 14210 2ece 01       		.uleb128 0x1
ARM GAS  C:\Users\info\AppData\Local\Temp\ccQPGqkW.s 			page 279


 14211 2ecf 52       		.byte	0x52
 14212 2ed0 9F       		.byte	0x9f
 14213 2ed1 00000000 		.4byte	0
 14214 2ed5 00000000 		.4byte	0
 14215              	.LLST116:
 14216 2ed9 00000000 		.4byte	.LVL311
 14217 2edd 2F000000 		.4byte	.LVL317-1
 14218 2ee1 0100     		.2byte	0x1
 14219 2ee3 53       		.byte	0x53
 14220 2ee4 2F000000 		.4byte	.LVL317-1
 14221 2ee8 36000000 		.4byte	.LVL318
 14222 2eec 0400     		.2byte	0x4
 14223 2eee F3       		.byte	0xf3
 14224 2eef 01       		.uleb128 0x1
 14225 2ef0 53       		.byte	0x53
 14226 2ef1 9F       		.byte	0x9f
 14227 2ef2 36000000 		.4byte	.LVL318
 14228 2ef6 3B000000 		.4byte	.LVL320-1
 14229 2efa 0100     		.2byte	0x1
 14230 2efc 53       		.byte	0x53
 14231 2efd 3B000000 		.4byte	.LVL320-1
 14232 2f01 74000000 		.4byte	.LVL328
 14233 2f05 0100     		.2byte	0x1
 14234 2f07 57       		.byte	0x57
 14235 2f08 74000000 		.4byte	.LVL328
 14236 2f0c A4000000 		.4byte	.LVL337
 14237 2f10 0400     		.2byte	0x4
 14238 2f12 F3       		.byte	0xf3
 14239 2f13 01       		.uleb128 0x1
 14240 2f14 53       		.byte	0x53
 14241 2f15 9F       		.byte	0x9f
 14242 2f16 A4000000 		.4byte	.LVL337
 14243 2f1a A7000000 		.4byte	.LVL338-1
 14244 2f1e 0100     		.2byte	0x1
 14245 2f20 53       		.byte	0x53
 14246 2f21 A7000000 		.4byte	.LVL338-1
 14247 2f25 BA000000 		.4byte	.LVL341
 14248 2f29 0400     		.2byte	0x4
 14249 2f2b F3       		.byte	0xf3
 14250 2f2c 01       		.uleb128 0x1
 14251 2f2d 53       		.byte	0x53
 14252 2f2e 9F       		.byte	0x9f
 14253 2f2f BA000000 		.4byte	.LVL341
 14254 2f33 BD000000 		.4byte	.LVL342-1
 14255 2f37 0100     		.2byte	0x1
 14256 2f39 53       		.byte	0x53
 14257 2f3a BD000000 		.4byte	.LVL342-1
 14258 2f3e CC000000 		.4byte	.LVL344
 14259 2f42 0400     		.2byte	0x4
 14260 2f44 F3       		.byte	0xf3
 14261 2f45 01       		.uleb128 0x1
 14262 2f46 53       		.byte	0x53
 14263 2f47 9F       		.byte	0x9f
 14264 2f48 CC000000 		.4byte	.LVL344
 14265 2f4c D1000000 		.4byte	.LVL346-1
 14266 2f50 0100     		.2byte	0x1
 14267 2f52 53       		.byte	0x53
ARM GAS  C:\Users\info\AppData\Local\Temp\ccQPGqkW.s 			page 280


 14268 2f53 D1000000 		.4byte	.LVL346-1
 14269 2f57 D8000000 		.4byte	.LVL347
 14270 2f5b 0400     		.2byte	0x4
 14271 2f5d F3       		.byte	0xf3
 14272 2f5e 01       		.uleb128 0x1
 14273 2f5f 53       		.byte	0x53
 14274 2f60 9F       		.byte	0x9f
 14275 2f61 D8000000 		.4byte	.LVL347
 14276 2f65 DD000000 		.4byte	.LVL349-1
 14277 2f69 0100     		.2byte	0x1
 14278 2f6b 53       		.byte	0x53
 14279 2f6c DD000000 		.4byte	.LVL349-1
 14280 2f70 E4000000 		.4byte	.LVL350
 14281 2f74 0400     		.2byte	0x4
 14282 2f76 F3       		.byte	0xf3
 14283 2f77 01       		.uleb128 0x1
 14284 2f78 53       		.byte	0x53
 14285 2f79 9F       		.byte	0x9f
 14286 2f7a E4000000 		.4byte	.LVL350
 14287 2f7e EB000000 		.4byte	.LVL352-1
 14288 2f82 0100     		.2byte	0x1
 14289 2f84 53       		.byte	0x53
 14290 2f85 EB000000 		.4byte	.LVL352-1
 14291 2f89 FA000000 		.4byte	.LVL353
 14292 2f8d 0400     		.2byte	0x4
 14293 2f8f F3       		.byte	0xf3
 14294 2f90 01       		.uleb128 0x1
 14295 2f91 53       		.byte	0x53
 14296 2f92 9F       		.byte	0x9f
 14297 2f93 FA000000 		.4byte	.LVL353
 14298 2f97 FF000000 		.4byte	.LVL355-1
 14299 2f9b 0100     		.2byte	0x1
 14300 2f9d 53       		.byte	0x53
 14301 2f9e FF000000 		.4byte	.LVL355-1
 14302 2fa2 28010000 		.4byte	.LFE7
 14303 2fa6 0400     		.2byte	0x4
 14304 2fa8 F3       		.byte	0xf3
 14305 2fa9 01       		.uleb128 0x1
 14306 2faa 53       		.byte	0x53
 14307 2fab 9F       		.byte	0x9f
 14308 2fac 00000000 		.4byte	0
 14309 2fb0 00000000 		.4byte	0
 14310              	.LLST117:
 14311 2fb4 0A000000 		.4byte	.LVL312
 14312 2fb8 14000000 		.4byte	.LVL313
 14313 2fbc 0100     		.2byte	0x1
 14314 2fbe 53       		.byte	0x53
 14315 2fbf 26000000 		.4byte	.LVL315
 14316 2fc3 2F000000 		.4byte	.LVL317-1
 14317 2fc7 0100     		.2byte	0x1
 14318 2fc9 53       		.byte	0x53
 14319 2fca 2F000000 		.4byte	.LVL317-1
 14320 2fce 30000000 		.4byte	.LVL317
 14321 2fd2 0400     		.2byte	0x4
 14322 2fd4 F3       		.byte	0xf3
 14323 2fd5 01       		.uleb128 0x1
 14324 2fd6 53       		.byte	0x53
ARM GAS  C:\Users\info\AppData\Local\Temp\ccQPGqkW.s 			page 281


 14325 2fd7 9F       		.byte	0x9f
 14326 2fd8 36000000 		.4byte	.LVL318
 14327 2fdc 3B000000 		.4byte	.LVL320-1
 14328 2fe0 0100     		.2byte	0x1
 14329 2fe2 53       		.byte	0x53
 14330 2fe3 3B000000 		.4byte	.LVL320-1
 14331 2fe7 74000000 		.4byte	.LVL328
 14332 2feb 0100     		.2byte	0x1
 14333 2fed 57       		.byte	0x57
 14334 2fee 74000000 		.4byte	.LVL328
 14335 2ff2 9E000000 		.4byte	.LVL336
 14336 2ff6 0400     		.2byte	0x4
 14337 2ff8 F3       		.byte	0xf3
 14338 2ff9 01       		.uleb128 0x1
 14339 2ffa 53       		.byte	0x53
 14340 2ffb 9F       		.byte	0x9f
 14341 2ffc A4000000 		.4byte	.LVL337
 14342 3000 A7000000 		.4byte	.LVL338-1
 14343 3004 0100     		.2byte	0x1
 14344 3006 53       		.byte	0x53
 14345 3007 A7000000 		.4byte	.LVL338-1
 14346 300b BA000000 		.4byte	.LVL341
 14347 300f 0400     		.2byte	0x4
 14348 3011 F3       		.byte	0xf3
 14349 3012 01       		.uleb128 0x1
 14350 3013 53       		.byte	0x53
 14351 3014 9F       		.byte	0x9f
 14352 3015 CC000000 		.4byte	.LVL344
 14353 3019 D1000000 		.4byte	.LVL346-1
 14354 301d 0100     		.2byte	0x1
 14355 301f 53       		.byte	0x53
 14356 3020 D1000000 		.4byte	.LVL346-1
 14357 3024 D2000000 		.4byte	.LVL346
 14358 3028 0400     		.2byte	0x4
 14359 302a F3       		.byte	0xf3
 14360 302b 01       		.uleb128 0x1
 14361 302c 53       		.byte	0x53
 14362 302d 9F       		.byte	0x9f
 14363 302e 00000000 		.4byte	0
 14364 3032 00000000 		.4byte	0
 14365              	.LLST118:
 14366 3036 0A000000 		.4byte	.LVL312
 14367 303a 14000000 		.4byte	.LVL313
 14368 303e 0100     		.2byte	0x1
 14369 3040 52       		.byte	0x52
 14370 3041 26000000 		.4byte	.LVL315
 14371 3045 2F000000 		.4byte	.LVL317-1
 14372 3049 0100     		.2byte	0x1
 14373 304b 52       		.byte	0x52
 14374 304c 2F000000 		.4byte	.LVL317-1
 14375 3050 30000000 		.4byte	.LVL317
 14376 3054 0400     		.2byte	0x4
 14377 3056 F3       		.byte	0xf3
 14378 3057 01       		.uleb128 0x1
 14379 3058 52       		.byte	0x52
 14380 3059 9F       		.byte	0x9f
 14381 305a 36000000 		.4byte	.LVL318
ARM GAS  C:\Users\info\AppData\Local\Temp\ccQPGqkW.s 			page 282


 14382 305e 3B000000 		.4byte	.LVL320-1
 14383 3062 0100     		.2byte	0x1
 14384 3064 52       		.byte	0x52
 14385 3065 3B000000 		.4byte	.LVL320-1
 14386 3069 9E000000 		.4byte	.LVL336
 14387 306d 0400     		.2byte	0x4
 14388 306f F3       		.byte	0xf3
 14389 3070 01       		.uleb128 0x1
 14390 3071 52       		.byte	0x52
 14391 3072 9F       		.byte	0x9f
 14392 3073 A4000000 		.4byte	.LVL337
 14393 3077 A7000000 		.4byte	.LVL338-1
 14394 307b 0100     		.2byte	0x1
 14395 307d 52       		.byte	0x52
 14396 307e A7000000 		.4byte	.LVL338-1
 14397 3082 BA000000 		.4byte	.LVL341
 14398 3086 0400     		.2byte	0x4
 14399 3088 F3       		.byte	0xf3
 14400 3089 01       		.uleb128 0x1
 14401 308a 52       		.byte	0x52
 14402 308b 9F       		.byte	0x9f
 14403 308c CC000000 		.4byte	.LVL344
 14404 3090 D1000000 		.4byte	.LVL346-1
 14405 3094 0100     		.2byte	0x1
 14406 3096 52       		.byte	0x52
 14407 3097 D1000000 		.4byte	.LVL346-1
 14408 309b D2000000 		.4byte	.LVL346
 14409 309f 0400     		.2byte	0x4
 14410 30a1 F3       		.byte	0xf3
 14411 30a2 01       		.uleb128 0x1
 14412 30a3 52       		.byte	0x52
 14413 30a4 9F       		.byte	0x9f
 14414 30a5 00000000 		.4byte	0
 14415 30a9 00000000 		.4byte	0
 14416              	.LLST119:
 14417 30ad 0A000000 		.4byte	.LVL312
 14418 30b1 14000000 		.4byte	.LVL313
 14419 30b5 0100     		.2byte	0x1
 14420 30b7 51       		.byte	0x51
 14421 30b8 26000000 		.4byte	.LVL315
 14422 30bc 2C000000 		.4byte	.LVL316
 14423 30c0 0100     		.2byte	0x1
 14424 30c2 51       		.byte	0x51
 14425 30c3 2C000000 		.4byte	.LVL316
 14426 30c7 30000000 		.4byte	.LVL317
 14427 30cb 0400     		.2byte	0x4
 14428 30cd F3       		.byte	0xf3
 14429 30ce 01       		.uleb128 0x1
 14430 30cf 51       		.byte	0x51
 14431 30d0 9F       		.byte	0x9f
 14432 30d1 36000000 		.4byte	.LVL318
 14433 30d5 3B000000 		.4byte	.LVL320-1
 14434 30d9 0100     		.2byte	0x1
 14435 30db 51       		.byte	0x51
 14436 30dc 3B000000 		.4byte	.LVL320-1
 14437 30e0 9E000000 		.4byte	.LVL336
 14438 30e4 0400     		.2byte	0x4
ARM GAS  C:\Users\info\AppData\Local\Temp\ccQPGqkW.s 			page 283


 14439 30e6 F3       		.byte	0xf3
 14440 30e7 01       		.uleb128 0x1
 14441 30e8 51       		.byte	0x51
 14442 30e9 9F       		.byte	0x9f
 14443 30ea A4000000 		.4byte	.LVL337
 14444 30ee A7000000 		.4byte	.LVL338-1
 14445 30f2 0100     		.2byte	0x1
 14446 30f4 51       		.byte	0x51
 14447 30f5 A7000000 		.4byte	.LVL338-1
 14448 30f9 BA000000 		.4byte	.LVL341
 14449 30fd 0400     		.2byte	0x4
 14450 30ff F3       		.byte	0xf3
 14451 3100 01       		.uleb128 0x1
 14452 3101 51       		.byte	0x51
 14453 3102 9F       		.byte	0x9f
 14454 3103 CC000000 		.4byte	.LVL344
 14455 3107 CE000000 		.4byte	.LVL345
 14456 310b 0100     		.2byte	0x1
 14457 310d 51       		.byte	0x51
 14458 310e CE000000 		.4byte	.LVL345
 14459 3112 D2000000 		.4byte	.LVL346
 14460 3116 0400     		.2byte	0x4
 14461 3118 F3       		.byte	0xf3
 14462 3119 01       		.uleb128 0x1
 14463 311a 51       		.byte	0x51
 14464 311b 9F       		.byte	0x9f
 14465 311c 00000000 		.4byte	0
 14466 3120 00000000 		.4byte	0
 14467              	.LLST120:
 14468 3124 0A000000 		.4byte	.LVL312
 14469 3128 14000000 		.4byte	.LVL313
 14470 312c 0100     		.2byte	0x1
 14471 312e 50       		.byte	0x50
 14472 312f 26000000 		.4byte	.LVL315
 14473 3133 2F000000 		.4byte	.LVL317-1
 14474 3137 0100     		.2byte	0x1
 14475 3139 50       		.byte	0x50
 14476 313a 2F000000 		.4byte	.LVL317-1
 14477 313e 30000000 		.4byte	.LVL317
 14478 3142 0100     		.2byte	0x1
 14479 3144 55       		.byte	0x55
 14480 3145 36000000 		.4byte	.LVL318
 14481 3149 3B000000 		.4byte	.LVL320-1
 14482 314d 0100     		.2byte	0x1
 14483 314f 50       		.byte	0x50
 14484 3150 3B000000 		.4byte	.LVL320-1
 14485 3154 9E000000 		.4byte	.LVL336
 14486 3158 0100     		.2byte	0x1
 14487 315a 55       		.byte	0x55
 14488 315b A4000000 		.4byte	.LVL337
 14489 315f A7000000 		.4byte	.LVL338-1
 14490 3163 0100     		.2byte	0x1
 14491 3165 50       		.byte	0x50
 14492 3166 A7000000 		.4byte	.LVL338-1
 14493 316a BA000000 		.4byte	.LVL341
 14494 316e 0100     		.2byte	0x1
 14495 3170 55       		.byte	0x55
ARM GAS  C:\Users\info\AppData\Local\Temp\ccQPGqkW.s 			page 284


 14496 3171 CC000000 		.4byte	.LVL344
 14497 3175 D1000000 		.4byte	.LVL346-1
 14498 3179 0100     		.2byte	0x1
 14499 317b 50       		.byte	0x50
 14500 317c D1000000 		.4byte	.LVL346-1
 14501 3180 D2000000 		.4byte	.LVL346
 14502 3184 0100     		.2byte	0x1
 14503 3186 55       		.byte	0x55
 14504 3187 00000000 		.4byte	0
 14505 318b 00000000 		.4byte	0
 14506              	.LLST121:
 14507 318f 38000000 		.4byte	.LVL319
 14508 3193 98000000 		.4byte	.LVL335
 14509 3197 0200     		.2byte	0x2
 14510 3199 3F       		.byte	0x3f
 14511 319a 9F       		.byte	0x9f
 14512 319b 00000000 		.4byte	0
 14513 319f 00000000 		.4byte	0
 14514              	.LLST122:
 14515 31a3 38000000 		.4byte	.LVL319
 14516 31a7 74000000 		.4byte	.LVL328
 14517 31ab 0100     		.2byte	0x1
 14518 31ad 57       		.byte	0x57
 14519 31ae 74000000 		.4byte	.LVL328
 14520 31b2 98000000 		.4byte	.LVL335
 14521 31b6 0400     		.2byte	0x4
 14522 31b8 F3       		.byte	0xf3
 14523 31b9 01       		.uleb128 0x1
 14524 31ba 53       		.byte	0x53
 14525 31bb 9F       		.byte	0x9f
 14526 31bc 00000000 		.4byte	0
 14527 31c0 00000000 		.4byte	0
 14528              	.LLST123:
 14529 31c4 36000000 		.4byte	.LVL318
 14530 31c8 92000000 		.4byte	.LVL334
 14531 31cc 0100     		.2byte	0x1
 14532 31ce 54       		.byte	0x54
 14533 31cf 92000000 		.4byte	.LVL334
 14534 31d3 98000000 		.4byte	.LVL335
 14535 31d7 0100     		.2byte	0x1
 14536 31d9 52       		.byte	0x52
 14537 31da 00000000 		.4byte	0
 14538 31de 00000000 		.4byte	0
 14539              	.LLST124:
 14540 31e2 36000000 		.4byte	.LVL318
 14541 31e6 3B000000 		.4byte	.LVL320-1
 14542 31ea 0100     		.2byte	0x1
 14543 31ec 50       		.byte	0x50
 14544 31ed 3B000000 		.4byte	.LVL320-1
 14545 31f1 98000000 		.4byte	.LVL335
 14546 31f5 0100     		.2byte	0x1
 14547 31f7 55       		.byte	0x55
 14548 31f8 00000000 		.4byte	0
 14549 31fc 00000000 		.4byte	0
 14550              	.LLST125:
 14551 3200 44000000 		.4byte	.LVL321
 14552 3204 4A000000 		.4byte	.LVL322
ARM GAS  C:\Users\info\AppData\Local\Temp\ccQPGqkW.s 			page 285


 14553 3208 0800     		.2byte	0x8
 14554 320a 78       		.byte	0x78
 14555 320b 00       		.sleb128 0
 14556 320c 33       		.byte	0x33
 14557 320d 24       		.byte	0x24
 14558 320e 08       		.byte	0x8
 14559 320f F8       		.byte	0xf8
 14560 3210 1A       		.byte	0x1a
 14561 3211 9F       		.byte	0x9f
 14562 3212 4A000000 		.4byte	.LVL322
 14563 3216 4E000000 		.4byte	.LVL323
 14564 321a 0D00     		.2byte	0xd
 14565 321c 77       		.byte	0x77
 14566 321d 05       		.sleb128 5
 14567 321e 94       		.byte	0x94
 14568 321f 01       		.byte	0x1
 14569 3220 08       		.byte	0x8
 14570 3221 FF       		.byte	0xff
 14571 3222 1A       		.byte	0x1a
 14572 3223 33       		.byte	0x33
 14573 3224 24       		.byte	0x24
 14574 3225 08       		.byte	0x8
 14575 3226 F8       		.byte	0xf8
 14576 3227 1A       		.byte	0x1a
 14577 3228 9F       		.byte	0x9f
 14578 3229 4E000000 		.4byte	.LVL323
 14579 322d 98000000 		.4byte	.LVL335
 14580 3231 0100     		.2byte	0x1
 14581 3233 58       		.byte	0x58
 14582 3234 00000000 		.4byte	0
 14583 3238 00000000 		.4byte	0
 14584              	.LLST126:
 14585 323c 72000000 		.4byte	.LVL327
 14586 3240 76000000 		.4byte	.LVL329
 14587 3244 0100     		.2byte	0x1
 14588 3246 56       		.byte	0x56
 14589 3247 76000000 		.4byte	.LVL329
 14590 324b 78000000 		.4byte	.LVL330
 14591 324f 0500     		.2byte	0x5
 14592 3251 F3       		.byte	0xf3
 14593 3252 01       		.uleb128 0x1
 14594 3253 53       		.byte	0x53
 14595 3254 23       		.byte	0x23
 14596 3255 04       		.uleb128 0x4
 14597 3256 78000000 		.4byte	.LVL330
 14598 325a 7E000000 		.4byte	.LVL331
 14599 325e 0100     		.2byte	0x1
 14600 3260 56       		.byte	0x56
 14601 3261 7E000000 		.4byte	.LVL331
 14602 3265 86000000 		.4byte	.LVL332
 14603 3269 0300     		.2byte	0x3
 14604 326b 09       		.byte	0x9
 14605 326c 84       		.byte	0x84
 14606 326d 9F       		.byte	0x9f
 14607 326e 86000000 		.4byte	.LVL332
 14608 3272 98000000 		.4byte	.LVL335
 14609 3276 0100     		.2byte	0x1
ARM GAS  C:\Users\info\AppData\Local\Temp\ccQPGqkW.s 			page 286


 14610 3278 56       		.byte	0x56
 14611 3279 00000000 		.4byte	0
 14612 327d 00000000 		.4byte	0
 14613              	.LLST127:
 14614 3281 78000000 		.4byte	.LVL330
 14615 3285 98000000 		.4byte	.LVL335
 14616 3289 0100     		.2byte	0x1
 14617 328b 57       		.byte	0x57
 14618 328c 00000000 		.4byte	0
 14619 3290 00000000 		.4byte	0
 14620              	.LLST128:
 14621 3294 00000000 		.4byte	.LVL357
 14622 3298 22000000 		.4byte	.LVL360
 14623 329c 0100     		.2byte	0x1
 14624 329e 50       		.byte	0x50
 14625 329f 22000000 		.4byte	.LVL360
 14626 32a3 26000000 		.4byte	.LVL361
 14627 32a7 0100     		.2byte	0x1
 14628 32a9 55       		.byte	0x55
 14629 32aa 26000000 		.4byte	.LVL361
 14630 32ae 2F000000 		.4byte	.LVL363-1
 14631 32b2 0100     		.2byte	0x1
 14632 32b4 50       		.byte	0x50
 14633 32b5 2F000000 		.4byte	.LVL363-1
 14634 32b9 36000000 		.4byte	.LVL364
 14635 32bd 0100     		.2byte	0x1
 14636 32bf 55       		.byte	0x55
 14637 32c0 36000000 		.4byte	.LVL364
 14638 32c4 3B000000 		.4byte	.LVL366-1
 14639 32c8 0100     		.2byte	0x1
 14640 32ca 50       		.byte	0x50
 14641 32cb 3B000000 		.4byte	.LVL366-1
 14642 32cf A4000000 		.4byte	.LVL383
 14643 32d3 0100     		.2byte	0x1
 14644 32d5 55       		.byte	0x55
 14645 32d6 A4000000 		.4byte	.LVL383
 14646 32da A7000000 		.4byte	.LVL384-1
 14647 32de 0100     		.2byte	0x1
 14648 32e0 50       		.byte	0x50
 14649 32e1 A7000000 		.4byte	.LVL384-1
 14650 32e5 BA000000 		.4byte	.LVL387
 14651 32e9 0100     		.2byte	0x1
 14652 32eb 55       		.byte	0x55
 14653 32ec BA000000 		.4byte	.LVL387
 14654 32f0 BD000000 		.4byte	.LVL388-1
 14655 32f4 0100     		.2byte	0x1
 14656 32f6 50       		.byte	0x50
 14657 32f7 BD000000 		.4byte	.LVL388-1
 14658 32fb CC000000 		.4byte	.LVL390
 14659 32ff 0100     		.2byte	0x1
 14660 3301 55       		.byte	0x55
 14661 3302 CC000000 		.4byte	.LVL390
 14662 3306 D1000000 		.4byte	.LVL392-1
 14663 330a 0100     		.2byte	0x1
 14664 330c 50       		.byte	0x50
 14665 330d D1000000 		.4byte	.LVL392-1
 14666 3311 D8000000 		.4byte	.LVL393
ARM GAS  C:\Users\info\AppData\Local\Temp\ccQPGqkW.s 			page 287


 14667 3315 0100     		.2byte	0x1
 14668 3317 55       		.byte	0x55
 14669 3318 D8000000 		.4byte	.LVL393
 14670 331c DD000000 		.4byte	.LVL395-1
 14671 3320 0100     		.2byte	0x1
 14672 3322 50       		.byte	0x50
 14673 3323 DD000000 		.4byte	.LVL395-1
 14674 3327 E4000000 		.4byte	.LVL396
 14675 332b 0100     		.2byte	0x1
 14676 332d 55       		.byte	0x55
 14677 332e E4000000 		.4byte	.LVL396
 14678 3332 EB000000 		.4byte	.LVL398-1
 14679 3336 0100     		.2byte	0x1
 14680 3338 50       		.byte	0x50
 14681 3339 EB000000 		.4byte	.LVL398-1
 14682 333d FA000000 		.4byte	.LVL399
 14683 3341 0100     		.2byte	0x1
 14684 3343 55       		.byte	0x55
 14685 3344 FA000000 		.4byte	.LVL399
 14686 3348 FF000000 		.4byte	.LVL401-1
 14687 334c 0100     		.2byte	0x1
 14688 334e 50       		.byte	0x50
 14689 334f FF000000 		.4byte	.LVL401-1
 14690 3353 0E010000 		.4byte	.LVL402
 14691 3357 0100     		.2byte	0x1
 14692 3359 55       		.byte	0x55
 14693 335a 0E010000 		.4byte	.LVL402
 14694 335e 28010000 		.4byte	.LFE8
 14695 3362 0400     		.2byte	0x4
 14696 3364 F3       		.byte	0xf3
 14697 3365 01       		.uleb128 0x1
 14698 3366 50       		.byte	0x50
 14699 3367 9F       		.byte	0x9f
 14700 3368 00000000 		.4byte	0
 14701 336c 00000000 		.4byte	0
 14702              	.LLST129:
 14703 3370 00000000 		.4byte	.LVL357
 14704 3374 2C000000 		.4byte	.LVL362
 14705 3378 0100     		.2byte	0x1
 14706 337a 51       		.byte	0x51
 14707 337b 2C000000 		.4byte	.LVL362
 14708 337f 36000000 		.4byte	.LVL364
 14709 3383 0400     		.2byte	0x4
 14710 3385 F3       		.byte	0xf3
 14711 3386 01       		.uleb128 0x1
 14712 3387 51       		.byte	0x51
 14713 3388 9F       		.byte	0x9f
 14714 3389 36000000 		.4byte	.LVL364
 14715 338d 3B000000 		.4byte	.LVL366-1
 14716 3391 0100     		.2byte	0x1
 14717 3393 51       		.byte	0x51
 14718 3394 3B000000 		.4byte	.LVL366-1
 14719 3398 A4000000 		.4byte	.LVL383
 14720 339c 0400     		.2byte	0x4
 14721 339e F3       		.byte	0xf3
 14722 339f 01       		.uleb128 0x1
 14723 33a0 51       		.byte	0x51
ARM GAS  C:\Users\info\AppData\Local\Temp\ccQPGqkW.s 			page 288


 14724 33a1 9F       		.byte	0x9f
 14725 33a2 A4000000 		.4byte	.LVL383
 14726 33a6 A7000000 		.4byte	.LVL384-1
 14727 33aa 0100     		.2byte	0x1
 14728 33ac 51       		.byte	0x51
 14729 33ad A7000000 		.4byte	.LVL384-1
 14730 33b1 BA000000 		.4byte	.LVL387
 14731 33b5 0400     		.2byte	0x4
 14732 33b7 F3       		.byte	0xf3
 14733 33b8 01       		.uleb128 0x1
 14734 33b9 51       		.byte	0x51
 14735 33ba 9F       		.byte	0x9f
 14736 33bb BA000000 		.4byte	.LVL387
 14737 33bf BD000000 		.4byte	.LVL388-1
 14738 33c3 0100     		.2byte	0x1
 14739 33c5 51       		.byte	0x51
 14740 33c6 BD000000 		.4byte	.LVL388-1
 14741 33ca CC000000 		.4byte	.LVL390
 14742 33ce 0400     		.2byte	0x4
 14743 33d0 F3       		.byte	0xf3
 14744 33d1 01       		.uleb128 0x1
 14745 33d2 51       		.byte	0x51
 14746 33d3 9F       		.byte	0x9f
 14747 33d4 CC000000 		.4byte	.LVL390
 14748 33d8 CE000000 		.4byte	.LVL391
 14749 33dc 0100     		.2byte	0x1
 14750 33de 51       		.byte	0x51
 14751 33df CE000000 		.4byte	.LVL391
 14752 33e3 D8000000 		.4byte	.LVL393
 14753 33e7 0400     		.2byte	0x4
 14754 33e9 F3       		.byte	0xf3
 14755 33ea 01       		.uleb128 0x1
 14756 33eb 51       		.byte	0x51
 14757 33ec 9F       		.byte	0x9f
 14758 33ed D8000000 		.4byte	.LVL393
 14759 33f1 DA000000 		.4byte	.LVL394
 14760 33f5 0100     		.2byte	0x1
 14761 33f7 51       		.byte	0x51
 14762 33f8 DA000000 		.4byte	.LVL394
 14763 33fc E4000000 		.4byte	.LVL396
 14764 3400 0400     		.2byte	0x4
 14765 3402 F3       		.byte	0xf3
 14766 3403 01       		.uleb128 0x1
 14767 3404 51       		.byte	0x51
 14768 3405 9F       		.byte	0x9f
 14769 3406 E4000000 		.4byte	.LVL396
 14770 340a E8000000 		.4byte	.LVL397
 14771 340e 0100     		.2byte	0x1
 14772 3410 51       		.byte	0x51
 14773 3411 E8000000 		.4byte	.LVL397
 14774 3415 FA000000 		.4byte	.LVL399
 14775 3419 0400     		.2byte	0x4
 14776 341b F3       		.byte	0xf3
 14777 341c 01       		.uleb128 0x1
 14778 341d 51       		.byte	0x51
 14779 341e 9F       		.byte	0x9f
 14780 341f FA000000 		.4byte	.LVL399
ARM GAS  C:\Users\info\AppData\Local\Temp\ccQPGqkW.s 			page 289


 14781 3423 FC000000 		.4byte	.LVL400
 14782 3427 0100     		.2byte	0x1
 14783 3429 51       		.byte	0x51
 14784 342a FC000000 		.4byte	.LVL400
 14785 342e 28010000 		.4byte	.LFE8
 14786 3432 0400     		.2byte	0x4
 14787 3434 F3       		.byte	0xf3
 14788 3435 01       		.uleb128 0x1
 14789 3436 51       		.byte	0x51
 14790 3437 9F       		.byte	0x9f
 14791 3438 00000000 		.4byte	0
 14792 343c 00000000 		.4byte	0
 14793              	.LLST130:
 14794 3440 00000000 		.4byte	.LVL357
 14795 3444 2F000000 		.4byte	.LVL363-1
 14796 3448 0100     		.2byte	0x1
 14797 344a 52       		.byte	0x52
 14798 344b 2F000000 		.4byte	.LVL363-1
 14799 344f 36000000 		.4byte	.LVL364
 14800 3453 0400     		.2byte	0x4
 14801 3455 F3       		.byte	0xf3
 14802 3456 01       		.uleb128 0x1
 14803 3457 52       		.byte	0x52
 14804 3458 9F       		.byte	0x9f
 14805 3459 36000000 		.4byte	.LVL364
 14806 345d 3B000000 		.4byte	.LVL366-1
 14807 3461 0100     		.2byte	0x1
 14808 3463 52       		.byte	0x52
 14809 3464 3B000000 		.4byte	.LVL366-1
 14810 3468 A4000000 		.4byte	.LVL383
 14811 346c 0400     		.2byte	0x4
 14812 346e F3       		.byte	0xf3
 14813 346f 01       		.uleb128 0x1
 14814 3470 52       		.byte	0x52
 14815 3471 9F       		.byte	0x9f
 14816 3472 A4000000 		.4byte	.LVL383
 14817 3476 A7000000 		.4byte	.LVL384-1
 14818 347a 0100     		.2byte	0x1
 14819 347c 52       		.byte	0x52
 14820 347d A7000000 		.4byte	.LVL384-1
 14821 3481 BA000000 		.4byte	.LVL387
 14822 3485 0400     		.2byte	0x4
 14823 3487 F3       		.byte	0xf3
 14824 3488 01       		.uleb128 0x1
 14825 3489 52       		.byte	0x52
 14826 348a 9F       		.byte	0x9f
 14827 348b BA000000 		.4byte	.LVL387
 14828 348f BD000000 		.4byte	.LVL388-1
 14829 3493 0100     		.2byte	0x1
 14830 3495 52       		.byte	0x52
 14831 3496 BD000000 		.4byte	.LVL388-1
 14832 349a CC000000 		.4byte	.LVL390
 14833 349e 0400     		.2byte	0x4
 14834 34a0 F3       		.byte	0xf3
 14835 34a1 01       		.uleb128 0x1
 14836 34a2 52       		.byte	0x52
 14837 34a3 9F       		.byte	0x9f
ARM GAS  C:\Users\info\AppData\Local\Temp\ccQPGqkW.s 			page 290


 14838 34a4 CC000000 		.4byte	.LVL390
 14839 34a8 D1000000 		.4byte	.LVL392-1
 14840 34ac 0100     		.2byte	0x1
 14841 34ae 52       		.byte	0x52
 14842 34af D1000000 		.4byte	.LVL392-1
 14843 34b3 D8000000 		.4byte	.LVL393
 14844 34b7 0400     		.2byte	0x4
 14845 34b9 F3       		.byte	0xf3
 14846 34ba 01       		.uleb128 0x1
 14847 34bb 52       		.byte	0x52
 14848 34bc 9F       		.byte	0x9f
 14849 34bd D8000000 		.4byte	.LVL393
 14850 34c1 DD000000 		.4byte	.LVL395-1
 14851 34c5 0100     		.2byte	0x1
 14852 34c7 52       		.byte	0x52
 14853 34c8 DD000000 		.4byte	.LVL395-1
 14854 34cc E4000000 		.4byte	.LVL396
 14855 34d0 0400     		.2byte	0x4
 14856 34d2 F3       		.byte	0xf3
 14857 34d3 01       		.uleb128 0x1
 14858 34d4 52       		.byte	0x52
 14859 34d5 9F       		.byte	0x9f
 14860 34d6 E4000000 		.4byte	.LVL396
 14861 34da EB000000 		.4byte	.LVL398-1
 14862 34de 0100     		.2byte	0x1
 14863 34e0 52       		.byte	0x52
 14864 34e1 EB000000 		.4byte	.LVL398-1
 14865 34e5 FA000000 		.4byte	.LVL399
 14866 34e9 0400     		.2byte	0x4
 14867 34eb F3       		.byte	0xf3
 14868 34ec 01       		.uleb128 0x1
 14869 34ed 52       		.byte	0x52
 14870 34ee 9F       		.byte	0x9f
 14871 34ef FA000000 		.4byte	.LVL399
 14872 34f3 FF000000 		.4byte	.LVL401-1
 14873 34f7 0100     		.2byte	0x1
 14874 34f9 52       		.byte	0x52
 14875 34fa FF000000 		.4byte	.LVL401-1
 14876 34fe 28010000 		.4byte	.LFE8
 14877 3502 0400     		.2byte	0x4
 14878 3504 F3       		.byte	0xf3
 14879 3505 01       		.uleb128 0x1
 14880 3506 52       		.byte	0x52
 14881 3507 9F       		.byte	0x9f
 14882 3508 00000000 		.4byte	0
 14883 350c 00000000 		.4byte	0
 14884              	.LLST131:
 14885 3510 00000000 		.4byte	.LVL357
 14886 3514 2F000000 		.4byte	.LVL363-1
 14887 3518 0100     		.2byte	0x1
 14888 351a 53       		.byte	0x53
 14889 351b 2F000000 		.4byte	.LVL363-1
 14890 351f 36000000 		.4byte	.LVL364
 14891 3523 0400     		.2byte	0x4
 14892 3525 F3       		.byte	0xf3
 14893 3526 01       		.uleb128 0x1
 14894 3527 53       		.byte	0x53
ARM GAS  C:\Users\info\AppData\Local\Temp\ccQPGqkW.s 			page 291


 14895 3528 9F       		.byte	0x9f
 14896 3529 36000000 		.4byte	.LVL364
 14897 352d 3B000000 		.4byte	.LVL366-1
 14898 3531 0100     		.2byte	0x1
 14899 3533 53       		.byte	0x53
 14900 3534 3B000000 		.4byte	.LVL366-1
 14901 3538 74000000 		.4byte	.LVL374
 14902 353c 0100     		.2byte	0x1
 14903 353e 57       		.byte	0x57
 14904 353f 74000000 		.4byte	.LVL374
 14905 3543 A4000000 		.4byte	.LVL383
 14906 3547 0400     		.2byte	0x4
 14907 3549 F3       		.byte	0xf3
 14908 354a 01       		.uleb128 0x1
 14909 354b 53       		.byte	0x53
 14910 354c 9F       		.byte	0x9f
 14911 354d A4000000 		.4byte	.LVL383
 14912 3551 A7000000 		.4byte	.LVL384-1
 14913 3555 0100     		.2byte	0x1
 14914 3557 53       		.byte	0x53
 14915 3558 A7000000 		.4byte	.LVL384-1
 14916 355c BA000000 		.4byte	.LVL387
 14917 3560 0400     		.2byte	0x4
 14918 3562 F3       		.byte	0xf3
 14919 3563 01       		.uleb128 0x1
 14920 3564 53       		.byte	0x53
 14921 3565 9F       		.byte	0x9f
 14922 3566 BA000000 		.4byte	.LVL387
 14923 356a BD000000 		.4byte	.LVL388-1
 14924 356e 0100     		.2byte	0x1
 14925 3570 53       		.byte	0x53
 14926 3571 BD000000 		.4byte	.LVL388-1
 14927 3575 CC000000 		.4byte	.LVL390
 14928 3579 0400     		.2byte	0x4
 14929 357b F3       		.byte	0xf3
 14930 357c 01       		.uleb128 0x1
 14931 357d 53       		.byte	0x53
 14932 357e 9F       		.byte	0x9f
 14933 357f CC000000 		.4byte	.LVL390
 14934 3583 D1000000 		.4byte	.LVL392-1
 14935 3587 0100     		.2byte	0x1
 14936 3589 53       		.byte	0x53
 14937 358a D1000000 		.4byte	.LVL392-1
 14938 358e D8000000 		.4byte	.LVL393
 14939 3592 0400     		.2byte	0x4
 14940 3594 F3       		.byte	0xf3
 14941 3595 01       		.uleb128 0x1
 14942 3596 53       		.byte	0x53
 14943 3597 9F       		.byte	0x9f
 14944 3598 D8000000 		.4byte	.LVL393
 14945 359c DD000000 		.4byte	.LVL395-1
 14946 35a0 0100     		.2byte	0x1
 14947 35a2 53       		.byte	0x53
 14948 35a3 DD000000 		.4byte	.LVL395-1
 14949 35a7 E4000000 		.4byte	.LVL396
 14950 35ab 0400     		.2byte	0x4
 14951 35ad F3       		.byte	0xf3
ARM GAS  C:\Users\info\AppData\Local\Temp\ccQPGqkW.s 			page 292


 14952 35ae 01       		.uleb128 0x1
 14953 35af 53       		.byte	0x53
 14954 35b0 9F       		.byte	0x9f
 14955 35b1 E4000000 		.4byte	.LVL396
 14956 35b5 EB000000 		.4byte	.LVL398-1
 14957 35b9 0100     		.2byte	0x1
 14958 35bb 53       		.byte	0x53
 14959 35bc EB000000 		.4byte	.LVL398-1
 14960 35c0 FA000000 		.4byte	.LVL399
 14961 35c4 0400     		.2byte	0x4
 14962 35c6 F3       		.byte	0xf3
 14963 35c7 01       		.uleb128 0x1
 14964 35c8 53       		.byte	0x53
 14965 35c9 9F       		.byte	0x9f
 14966 35ca FA000000 		.4byte	.LVL399
 14967 35ce FF000000 		.4byte	.LVL401-1
 14968 35d2 0100     		.2byte	0x1
 14969 35d4 53       		.byte	0x53
 14970 35d5 FF000000 		.4byte	.LVL401-1
 14971 35d9 28010000 		.4byte	.LFE8
 14972 35dd 0400     		.2byte	0x4
 14973 35df F3       		.byte	0xf3
 14974 35e0 01       		.uleb128 0x1
 14975 35e1 53       		.byte	0x53
 14976 35e2 9F       		.byte	0x9f
 14977 35e3 00000000 		.4byte	0
 14978 35e7 00000000 		.4byte	0
 14979              	.LLST132:
 14980 35eb 0A000000 		.4byte	.LVL358
 14981 35ef 14000000 		.4byte	.LVL359
 14982 35f3 0100     		.2byte	0x1
 14983 35f5 53       		.byte	0x53
 14984 35f6 26000000 		.4byte	.LVL361
 14985 35fa 2F000000 		.4byte	.LVL363-1
 14986 35fe 0100     		.2byte	0x1
 14987 3600 53       		.byte	0x53
 14988 3601 2F000000 		.4byte	.LVL363-1
 14989 3605 30000000 		.4byte	.LVL363
 14990 3609 0400     		.2byte	0x4
 14991 360b F3       		.byte	0xf3
 14992 360c 01       		.uleb128 0x1
 14993 360d 53       		.byte	0x53
 14994 360e 9F       		.byte	0x9f
 14995 360f 36000000 		.4byte	.LVL364
 14996 3613 3B000000 		.4byte	.LVL366-1
 14997 3617 0100     		.2byte	0x1
 14998 3619 53       		.byte	0x53
 14999 361a 3B000000 		.4byte	.LVL366-1
 15000 361e 74000000 		.4byte	.LVL374
 15001 3622 0100     		.2byte	0x1
 15002 3624 57       		.byte	0x57
 15003 3625 74000000 		.4byte	.LVL374
 15004 3629 9E000000 		.4byte	.LVL382
 15005 362d 0400     		.2byte	0x4
 15006 362f F3       		.byte	0xf3
 15007 3630 01       		.uleb128 0x1
 15008 3631 53       		.byte	0x53
ARM GAS  C:\Users\info\AppData\Local\Temp\ccQPGqkW.s 			page 293


 15009 3632 9F       		.byte	0x9f
 15010 3633 A4000000 		.4byte	.LVL383
 15011 3637 A7000000 		.4byte	.LVL384-1
 15012 363b 0100     		.2byte	0x1
 15013 363d 53       		.byte	0x53
 15014 363e A7000000 		.4byte	.LVL384-1
 15015 3642 BA000000 		.4byte	.LVL387
 15016 3646 0400     		.2byte	0x4
 15017 3648 F3       		.byte	0xf3
 15018 3649 01       		.uleb128 0x1
 15019 364a 53       		.byte	0x53
 15020 364b 9F       		.byte	0x9f
 15021 364c CC000000 		.4byte	.LVL390
 15022 3650 D1000000 		.4byte	.LVL392-1
 15023 3654 0100     		.2byte	0x1
 15024 3656 53       		.byte	0x53
 15025 3657 D1000000 		.4byte	.LVL392-1
 15026 365b D2000000 		.4byte	.LVL392
 15027 365f 0400     		.2byte	0x4
 15028 3661 F3       		.byte	0xf3
 15029 3662 01       		.uleb128 0x1
 15030 3663 53       		.byte	0x53
 15031 3664 9F       		.byte	0x9f
 15032 3665 00000000 		.4byte	0
 15033 3669 00000000 		.4byte	0
 15034              	.LLST133:
 15035 366d 0A000000 		.4byte	.LVL358
 15036 3671 14000000 		.4byte	.LVL359
 15037 3675 0100     		.2byte	0x1
 15038 3677 52       		.byte	0x52
 15039 3678 26000000 		.4byte	.LVL361
 15040 367c 2F000000 		.4byte	.LVL363-1
 15041 3680 0100     		.2byte	0x1
 15042 3682 52       		.byte	0x52
 15043 3683 2F000000 		.4byte	.LVL363-1
 15044 3687 30000000 		.4byte	.LVL363
 15045 368b 0400     		.2byte	0x4
 15046 368d F3       		.byte	0xf3
 15047 368e 01       		.uleb128 0x1
 15048 368f 52       		.byte	0x52
 15049 3690 9F       		.byte	0x9f
 15050 3691 36000000 		.4byte	.LVL364
 15051 3695 3B000000 		.4byte	.LVL366-1
 15052 3699 0100     		.2byte	0x1
 15053 369b 52       		.byte	0x52
 15054 369c 3B000000 		.4byte	.LVL366-1
 15055 36a0 9E000000 		.4byte	.LVL382
 15056 36a4 0400     		.2byte	0x4
 15057 36a6 F3       		.byte	0xf3
 15058 36a7 01       		.uleb128 0x1
 15059 36a8 52       		.byte	0x52
 15060 36a9 9F       		.byte	0x9f
 15061 36aa A4000000 		.4byte	.LVL383
 15062 36ae A7000000 		.4byte	.LVL384-1
 15063 36b2 0100     		.2byte	0x1
 15064 36b4 52       		.byte	0x52
 15065 36b5 A7000000 		.4byte	.LVL384-1
ARM GAS  C:\Users\info\AppData\Local\Temp\ccQPGqkW.s 			page 294


 15066 36b9 BA000000 		.4byte	.LVL387
 15067 36bd 0400     		.2byte	0x4
 15068 36bf F3       		.byte	0xf3
 15069 36c0 01       		.uleb128 0x1
 15070 36c1 52       		.byte	0x52
 15071 36c2 9F       		.byte	0x9f
 15072 36c3 CC000000 		.4byte	.LVL390
 15073 36c7 D1000000 		.4byte	.LVL392-1
 15074 36cb 0100     		.2byte	0x1
 15075 36cd 52       		.byte	0x52
 15076 36ce D1000000 		.4byte	.LVL392-1
 15077 36d2 D2000000 		.4byte	.LVL392
 15078 36d6 0400     		.2byte	0x4
 15079 36d8 F3       		.byte	0xf3
 15080 36d9 01       		.uleb128 0x1
 15081 36da 52       		.byte	0x52
 15082 36db 9F       		.byte	0x9f
 15083 36dc 00000000 		.4byte	0
 15084 36e0 00000000 		.4byte	0
 15085              	.LLST134:
 15086 36e4 0A000000 		.4byte	.LVL358
 15087 36e8 14000000 		.4byte	.LVL359
 15088 36ec 0100     		.2byte	0x1
 15089 36ee 51       		.byte	0x51
 15090 36ef 26000000 		.4byte	.LVL361
 15091 36f3 2C000000 		.4byte	.LVL362
 15092 36f7 0100     		.2byte	0x1
 15093 36f9 51       		.byte	0x51
 15094 36fa 2C000000 		.4byte	.LVL362
 15095 36fe 30000000 		.4byte	.LVL363
 15096 3702 0400     		.2byte	0x4
 15097 3704 F3       		.byte	0xf3
 15098 3705 01       		.uleb128 0x1
 15099 3706 51       		.byte	0x51
 15100 3707 9F       		.byte	0x9f
 15101 3708 36000000 		.4byte	.LVL364
 15102 370c 3B000000 		.4byte	.LVL366-1
 15103 3710 0100     		.2byte	0x1
 15104 3712 51       		.byte	0x51
 15105 3713 3B000000 		.4byte	.LVL366-1
 15106 3717 9E000000 		.4byte	.LVL382
 15107 371b 0400     		.2byte	0x4
 15108 371d F3       		.byte	0xf3
 15109 371e 01       		.uleb128 0x1
 15110 371f 51       		.byte	0x51
 15111 3720 9F       		.byte	0x9f
 15112 3721 A4000000 		.4byte	.LVL383
 15113 3725 A7000000 		.4byte	.LVL384-1
 15114 3729 0100     		.2byte	0x1
 15115 372b 51       		.byte	0x51
 15116 372c A7000000 		.4byte	.LVL384-1
 15117 3730 BA000000 		.4byte	.LVL387
 15118 3734 0400     		.2byte	0x4
 15119 3736 F3       		.byte	0xf3
 15120 3737 01       		.uleb128 0x1
 15121 3738 51       		.byte	0x51
 15122 3739 9F       		.byte	0x9f
ARM GAS  C:\Users\info\AppData\Local\Temp\ccQPGqkW.s 			page 295


 15123 373a CC000000 		.4byte	.LVL390
 15124 373e CE000000 		.4byte	.LVL391
 15125 3742 0100     		.2byte	0x1
 15126 3744 51       		.byte	0x51
 15127 3745 CE000000 		.4byte	.LVL391
 15128 3749 D2000000 		.4byte	.LVL392
 15129 374d 0400     		.2byte	0x4
 15130 374f F3       		.byte	0xf3
 15131 3750 01       		.uleb128 0x1
 15132 3751 51       		.byte	0x51
 15133 3752 9F       		.byte	0x9f
 15134 3753 00000000 		.4byte	0
 15135 3757 00000000 		.4byte	0
 15136              	.LLST135:
 15137 375b 0A000000 		.4byte	.LVL358
 15138 375f 14000000 		.4byte	.LVL359
 15139 3763 0100     		.2byte	0x1
 15140 3765 50       		.byte	0x50
 15141 3766 26000000 		.4byte	.LVL361
 15142 376a 2F000000 		.4byte	.LVL363-1
 15143 376e 0100     		.2byte	0x1
 15144 3770 50       		.byte	0x50
 15145 3771 2F000000 		.4byte	.LVL363-1
 15146 3775 30000000 		.4byte	.LVL363
 15147 3779 0100     		.2byte	0x1
 15148 377b 55       		.byte	0x55
 15149 377c 36000000 		.4byte	.LVL364
 15150 3780 3B000000 		.4byte	.LVL366-1
 15151 3784 0100     		.2byte	0x1
 15152 3786 50       		.byte	0x50
 15153 3787 3B000000 		.4byte	.LVL366-1
 15154 378b 9E000000 		.4byte	.LVL382
 15155 378f 0100     		.2byte	0x1
 15156 3791 55       		.byte	0x55
 15157 3792 A4000000 		.4byte	.LVL383
 15158 3796 A7000000 		.4byte	.LVL384-1
 15159 379a 0100     		.2byte	0x1
 15160 379c 50       		.byte	0x50
 15161 379d A7000000 		.4byte	.LVL384-1
 15162 37a1 BA000000 		.4byte	.LVL387
 15163 37a5 0100     		.2byte	0x1
 15164 37a7 55       		.byte	0x55
 15165 37a8 CC000000 		.4byte	.LVL390
 15166 37ac D1000000 		.4byte	.LVL392-1
 15167 37b0 0100     		.2byte	0x1
 15168 37b2 50       		.byte	0x50
 15169 37b3 D1000000 		.4byte	.LVL392-1
 15170 37b7 D2000000 		.4byte	.LVL392
 15171 37bb 0100     		.2byte	0x1
 15172 37bd 55       		.byte	0x55
 15173 37be 00000000 		.4byte	0
 15174 37c2 00000000 		.4byte	0
 15175              	.LLST136:
 15176 37c6 38000000 		.4byte	.LVL365
 15177 37ca 98000000 		.4byte	.LVL381
 15178 37ce 0200     		.2byte	0x2
 15179 37d0 3F       		.byte	0x3f
ARM GAS  C:\Users\info\AppData\Local\Temp\ccQPGqkW.s 			page 296


 15180 37d1 9F       		.byte	0x9f
 15181 37d2 00000000 		.4byte	0
 15182 37d6 00000000 		.4byte	0
 15183              	.LLST137:
 15184 37da 38000000 		.4byte	.LVL365
 15185 37de 74000000 		.4byte	.LVL374
 15186 37e2 0100     		.2byte	0x1
 15187 37e4 57       		.byte	0x57
 15188 37e5 74000000 		.4byte	.LVL374
 15189 37e9 98000000 		.4byte	.LVL381
 15190 37ed 0400     		.2byte	0x4
 15191 37ef F3       		.byte	0xf3
 15192 37f0 01       		.uleb128 0x1
 15193 37f1 53       		.byte	0x53
 15194 37f2 9F       		.byte	0x9f
 15195 37f3 00000000 		.4byte	0
 15196 37f7 00000000 		.4byte	0
 15197              	.LLST138:
 15198 37fb 36000000 		.4byte	.LVL364
 15199 37ff 92000000 		.4byte	.LVL380
 15200 3803 0100     		.2byte	0x1
 15201 3805 54       		.byte	0x54
 15202 3806 92000000 		.4byte	.LVL380
 15203 380a 98000000 		.4byte	.LVL381
 15204 380e 0100     		.2byte	0x1
 15205 3810 52       		.byte	0x52
 15206 3811 00000000 		.4byte	0
 15207 3815 00000000 		.4byte	0
 15208              	.LLST139:
 15209 3819 36000000 		.4byte	.LVL364
 15210 381d 3B000000 		.4byte	.LVL366-1
 15211 3821 0100     		.2byte	0x1
 15212 3823 50       		.byte	0x50
 15213 3824 3B000000 		.4byte	.LVL366-1
 15214 3828 98000000 		.4byte	.LVL381
 15215 382c 0100     		.2byte	0x1
 15216 382e 55       		.byte	0x55
 15217 382f 00000000 		.4byte	0
 15218 3833 00000000 		.4byte	0
 15219              	.LLST140:
 15220 3837 44000000 		.4byte	.LVL367
 15221 383b 4A000000 		.4byte	.LVL368
 15222 383f 0800     		.2byte	0x8
 15223 3841 78       		.byte	0x78
 15224 3842 00       		.sleb128 0
 15225 3843 33       		.byte	0x33
 15226 3844 24       		.byte	0x24
 15227 3845 08       		.byte	0x8
 15228 3846 F8       		.byte	0xf8
 15229 3847 1A       		.byte	0x1a
 15230 3848 9F       		.byte	0x9f
 15231 3849 4A000000 		.4byte	.LVL368
 15232 384d 4E000000 		.4byte	.LVL369
 15233 3851 0D00     		.2byte	0xd
 15234 3853 77       		.byte	0x77
 15235 3854 05       		.sleb128 5
 15236 3855 94       		.byte	0x94
ARM GAS  C:\Users\info\AppData\Local\Temp\ccQPGqkW.s 			page 297


 15237 3856 01       		.byte	0x1
 15238 3857 08       		.byte	0x8
 15239 3858 FF       		.byte	0xff
 15240 3859 1A       		.byte	0x1a
 15241 385a 33       		.byte	0x33
 15242 385b 24       		.byte	0x24
 15243 385c 08       		.byte	0x8
 15244 385d F8       		.byte	0xf8
 15245 385e 1A       		.byte	0x1a
 15246 385f 9F       		.byte	0x9f
 15247 3860 4E000000 		.4byte	.LVL369
 15248 3864 98000000 		.4byte	.LVL381
 15249 3868 0100     		.2byte	0x1
 15250 386a 58       		.byte	0x58
 15251 386b 00000000 		.4byte	0
 15252 386f 00000000 		.4byte	0
 15253              	.LLST141:
 15254 3873 72000000 		.4byte	.LVL373
 15255 3877 76000000 		.4byte	.LVL375
 15256 387b 0100     		.2byte	0x1
 15257 387d 56       		.byte	0x56
 15258 387e 76000000 		.4byte	.LVL375
 15259 3882 78000000 		.4byte	.LVL376
 15260 3886 0500     		.2byte	0x5
 15261 3888 F3       		.byte	0xf3
 15262 3889 01       		.uleb128 0x1
 15263 388a 53       		.byte	0x53
 15264 388b 23       		.byte	0x23
 15265 388c 04       		.uleb128 0x4
 15266 388d 78000000 		.4byte	.LVL376
 15267 3891 7E000000 		.4byte	.LVL377
 15268 3895 0100     		.2byte	0x1
 15269 3897 56       		.byte	0x56
 15270 3898 7E000000 		.4byte	.LVL377
 15271 389c 86000000 		.4byte	.LVL378
 15272 38a0 0300     		.2byte	0x3
 15273 38a2 09       		.byte	0x9
 15274 38a3 84       		.byte	0x84
 15275 38a4 9F       		.byte	0x9f
 15276 38a5 86000000 		.4byte	.LVL378
 15277 38a9 98000000 		.4byte	.LVL381
 15278 38ad 0100     		.2byte	0x1
 15279 38af 56       		.byte	0x56
 15280 38b0 00000000 		.4byte	0
 15281 38b4 00000000 		.4byte	0
 15282              	.LLST142:
 15283 38b8 78000000 		.4byte	.LVL376
 15284 38bc 98000000 		.4byte	.LVL381
 15285 38c0 0100     		.2byte	0x1
 15286 38c2 57       		.byte	0x57
 15287 38c3 00000000 		.4byte	0
 15288 38c7 00000000 		.4byte	0
 15289              	.LLST143:
 15290 38cb 00000000 		.4byte	.LVL403
 15291 38cf 22000000 		.4byte	.LVL406
 15292 38d3 0100     		.2byte	0x1
 15293 38d5 50       		.byte	0x50
ARM GAS  C:\Users\info\AppData\Local\Temp\ccQPGqkW.s 			page 298


 15294 38d6 22000000 		.4byte	.LVL406
 15295 38da 26000000 		.4byte	.LVL407
 15296 38de 0100     		.2byte	0x1
 15297 38e0 55       		.byte	0x55
 15298 38e1 26000000 		.4byte	.LVL407
 15299 38e5 2F000000 		.4byte	.LVL409-1
 15300 38e9 0100     		.2byte	0x1
 15301 38eb 50       		.byte	0x50
 15302 38ec 2F000000 		.4byte	.LVL409-1
 15303 38f0 36000000 		.4byte	.LVL410
 15304 38f4 0100     		.2byte	0x1
 15305 38f6 55       		.byte	0x55
 15306 38f7 36000000 		.4byte	.LVL410
 15307 38fb 3B000000 		.4byte	.LVL412-1
 15308 38ff 0100     		.2byte	0x1
 15309 3901 50       		.byte	0x50
 15310 3902 3B000000 		.4byte	.LVL412-1
 15311 3906 A4000000 		.4byte	.LVL429
 15312 390a 0100     		.2byte	0x1
 15313 390c 55       		.byte	0x55
 15314 390d A4000000 		.4byte	.LVL429
 15315 3911 A7000000 		.4byte	.LVL430-1
 15316 3915 0100     		.2byte	0x1
 15317 3917 50       		.byte	0x50
 15318 3918 A7000000 		.4byte	.LVL430-1
 15319 391c BA000000 		.4byte	.LVL433
 15320 3920 0100     		.2byte	0x1
 15321 3922 55       		.byte	0x55
 15322 3923 BA000000 		.4byte	.LVL433
 15323 3927 BD000000 		.4byte	.LVL434-1
 15324 392b 0100     		.2byte	0x1
 15325 392d 50       		.byte	0x50
 15326 392e BD000000 		.4byte	.LVL434-1
 15327 3932 CC000000 		.4byte	.LVL436
 15328 3936 0100     		.2byte	0x1
 15329 3938 55       		.byte	0x55
 15330 3939 CC000000 		.4byte	.LVL436
 15331 393d D1000000 		.4byte	.LVL438-1
 15332 3941 0100     		.2byte	0x1
 15333 3943 50       		.byte	0x50
 15334 3944 D1000000 		.4byte	.LVL438-1
 15335 3948 D8000000 		.4byte	.LVL439
 15336 394c 0100     		.2byte	0x1
 15337 394e 55       		.byte	0x55
 15338 394f D8000000 		.4byte	.LVL439
 15339 3953 DD000000 		.4byte	.LVL441-1
 15340 3957 0100     		.2byte	0x1
 15341 3959 50       		.byte	0x50
 15342 395a DD000000 		.4byte	.LVL441-1
 15343 395e E4000000 		.4byte	.LVL442
 15344 3962 0100     		.2byte	0x1
 15345 3964 55       		.byte	0x55
 15346 3965 E4000000 		.4byte	.LVL442
 15347 3969 EB000000 		.4byte	.LVL444-1
 15348 396d 0100     		.2byte	0x1
 15349 396f 50       		.byte	0x50
 15350 3970 EB000000 		.4byte	.LVL444-1
ARM GAS  C:\Users\info\AppData\Local\Temp\ccQPGqkW.s 			page 299


 15351 3974 FA000000 		.4byte	.LVL445
 15352 3978 0100     		.2byte	0x1
 15353 397a 55       		.byte	0x55
 15354 397b FA000000 		.4byte	.LVL445
 15355 397f FF000000 		.4byte	.LVL447-1
 15356 3983 0100     		.2byte	0x1
 15357 3985 50       		.byte	0x50
 15358 3986 FF000000 		.4byte	.LVL447-1
 15359 398a 0E010000 		.4byte	.LVL448
 15360 398e 0100     		.2byte	0x1
 15361 3990 55       		.byte	0x55
 15362 3991 0E010000 		.4byte	.LVL448
 15363 3995 28010000 		.4byte	.LFE9
 15364 3999 0400     		.2byte	0x4
 15365 399b F3       		.byte	0xf3
 15366 399c 01       		.uleb128 0x1
 15367 399d 50       		.byte	0x50
 15368 399e 9F       		.byte	0x9f
 15369 399f 00000000 		.4byte	0
 15370 39a3 00000000 		.4byte	0
 15371              	.LLST144:
 15372 39a7 00000000 		.4byte	.LVL403
 15373 39ab 2C000000 		.4byte	.LVL408
 15374 39af 0100     		.2byte	0x1
 15375 39b1 51       		.byte	0x51
 15376 39b2 2C000000 		.4byte	.LVL408
 15377 39b6 36000000 		.4byte	.LVL410
 15378 39ba 0400     		.2byte	0x4
 15379 39bc F3       		.byte	0xf3
 15380 39bd 01       		.uleb128 0x1
 15381 39be 51       		.byte	0x51
 15382 39bf 9F       		.byte	0x9f
 15383 39c0 36000000 		.4byte	.LVL410
 15384 39c4 3B000000 		.4byte	.LVL412-1
 15385 39c8 0100     		.2byte	0x1
 15386 39ca 51       		.byte	0x51
 15387 39cb 3B000000 		.4byte	.LVL412-1
 15388 39cf A4000000 		.4byte	.LVL429
 15389 39d3 0400     		.2byte	0x4
 15390 39d5 F3       		.byte	0xf3
 15391 39d6 01       		.uleb128 0x1
 15392 39d7 51       		.byte	0x51
 15393 39d8 9F       		.byte	0x9f
 15394 39d9 A4000000 		.4byte	.LVL429
 15395 39dd A7000000 		.4byte	.LVL430-1
 15396 39e1 0100     		.2byte	0x1
 15397 39e3 51       		.byte	0x51
 15398 39e4 A7000000 		.4byte	.LVL430-1
 15399 39e8 BA000000 		.4byte	.LVL433
 15400 39ec 0400     		.2byte	0x4
 15401 39ee F3       		.byte	0xf3
 15402 39ef 01       		.uleb128 0x1
 15403 39f0 51       		.byte	0x51
 15404 39f1 9F       		.byte	0x9f
 15405 39f2 BA000000 		.4byte	.LVL433
 15406 39f6 BD000000 		.4byte	.LVL434-1
 15407 39fa 0100     		.2byte	0x1
ARM GAS  C:\Users\info\AppData\Local\Temp\ccQPGqkW.s 			page 300


 15408 39fc 51       		.byte	0x51
 15409 39fd BD000000 		.4byte	.LVL434-1
 15410 3a01 CC000000 		.4byte	.LVL436
 15411 3a05 0400     		.2byte	0x4
 15412 3a07 F3       		.byte	0xf3
 15413 3a08 01       		.uleb128 0x1
 15414 3a09 51       		.byte	0x51
 15415 3a0a 9F       		.byte	0x9f
 15416 3a0b CC000000 		.4byte	.LVL436
 15417 3a0f CE000000 		.4byte	.LVL437
 15418 3a13 0100     		.2byte	0x1
 15419 3a15 51       		.byte	0x51
 15420 3a16 CE000000 		.4byte	.LVL437
 15421 3a1a D8000000 		.4byte	.LVL439
 15422 3a1e 0400     		.2byte	0x4
 15423 3a20 F3       		.byte	0xf3
 15424 3a21 01       		.uleb128 0x1
 15425 3a22 51       		.byte	0x51
 15426 3a23 9F       		.byte	0x9f
 15427 3a24 D8000000 		.4byte	.LVL439
 15428 3a28 DA000000 		.4byte	.LVL440
 15429 3a2c 0100     		.2byte	0x1
 15430 3a2e 51       		.byte	0x51
 15431 3a2f DA000000 		.4byte	.LVL440
 15432 3a33 E4000000 		.4byte	.LVL442
 15433 3a37 0400     		.2byte	0x4
 15434 3a39 F3       		.byte	0xf3
 15435 3a3a 01       		.uleb128 0x1
 15436 3a3b 51       		.byte	0x51
 15437 3a3c 9F       		.byte	0x9f
 15438 3a3d E4000000 		.4byte	.LVL442
 15439 3a41 E8000000 		.4byte	.LVL443
 15440 3a45 0100     		.2byte	0x1
 15441 3a47 51       		.byte	0x51
 15442 3a48 E8000000 		.4byte	.LVL443
 15443 3a4c FA000000 		.4byte	.LVL445
 15444 3a50 0400     		.2byte	0x4
 15445 3a52 F3       		.byte	0xf3
 15446 3a53 01       		.uleb128 0x1
 15447 3a54 51       		.byte	0x51
 15448 3a55 9F       		.byte	0x9f
 15449 3a56 FA000000 		.4byte	.LVL445
 15450 3a5a FC000000 		.4byte	.LVL446
 15451 3a5e 0100     		.2byte	0x1
 15452 3a60 51       		.byte	0x51
 15453 3a61 FC000000 		.4byte	.LVL446
 15454 3a65 28010000 		.4byte	.LFE9
 15455 3a69 0400     		.2byte	0x4
 15456 3a6b F3       		.byte	0xf3
 15457 3a6c 01       		.uleb128 0x1
 15458 3a6d 51       		.byte	0x51
 15459 3a6e 9F       		.byte	0x9f
 15460 3a6f 00000000 		.4byte	0
 15461 3a73 00000000 		.4byte	0
 15462              	.LLST145:
 15463 3a77 00000000 		.4byte	.LVL403
 15464 3a7b 2F000000 		.4byte	.LVL409-1
ARM GAS  C:\Users\info\AppData\Local\Temp\ccQPGqkW.s 			page 301


 15465 3a7f 0100     		.2byte	0x1
 15466 3a81 52       		.byte	0x52
 15467 3a82 2F000000 		.4byte	.LVL409-1
 15468 3a86 36000000 		.4byte	.LVL410
 15469 3a8a 0400     		.2byte	0x4
 15470 3a8c F3       		.byte	0xf3
 15471 3a8d 01       		.uleb128 0x1
 15472 3a8e 52       		.byte	0x52
 15473 3a8f 9F       		.byte	0x9f
 15474 3a90 36000000 		.4byte	.LVL410
 15475 3a94 3B000000 		.4byte	.LVL412-1
 15476 3a98 0100     		.2byte	0x1
 15477 3a9a 52       		.byte	0x52
 15478 3a9b 3B000000 		.4byte	.LVL412-1
 15479 3a9f A4000000 		.4byte	.LVL429
 15480 3aa3 0400     		.2byte	0x4
 15481 3aa5 F3       		.byte	0xf3
 15482 3aa6 01       		.uleb128 0x1
 15483 3aa7 52       		.byte	0x52
 15484 3aa8 9F       		.byte	0x9f
 15485 3aa9 A4000000 		.4byte	.LVL429
 15486 3aad A7000000 		.4byte	.LVL430-1
 15487 3ab1 0100     		.2byte	0x1
 15488 3ab3 52       		.byte	0x52
 15489 3ab4 A7000000 		.4byte	.LVL430-1
 15490 3ab8 BA000000 		.4byte	.LVL433
 15491 3abc 0400     		.2byte	0x4
 15492 3abe F3       		.byte	0xf3
 15493 3abf 01       		.uleb128 0x1
 15494 3ac0 52       		.byte	0x52
 15495 3ac1 9F       		.byte	0x9f
 15496 3ac2 BA000000 		.4byte	.LVL433
 15497 3ac6 BD000000 		.4byte	.LVL434-1
 15498 3aca 0100     		.2byte	0x1
 15499 3acc 52       		.byte	0x52
 15500 3acd BD000000 		.4byte	.LVL434-1
 15501 3ad1 CC000000 		.4byte	.LVL436
 15502 3ad5 0400     		.2byte	0x4
 15503 3ad7 F3       		.byte	0xf3
 15504 3ad8 01       		.uleb128 0x1
 15505 3ad9 52       		.byte	0x52
 15506 3ada 9F       		.byte	0x9f
 15507 3adb CC000000 		.4byte	.LVL436
 15508 3adf D1000000 		.4byte	.LVL438-1
 15509 3ae3 0100     		.2byte	0x1
 15510 3ae5 52       		.byte	0x52
 15511 3ae6 D1000000 		.4byte	.LVL438-1
 15512 3aea D8000000 		.4byte	.LVL439
 15513 3aee 0400     		.2byte	0x4
 15514 3af0 F3       		.byte	0xf3
 15515 3af1 01       		.uleb128 0x1
 15516 3af2 52       		.byte	0x52
 15517 3af3 9F       		.byte	0x9f
 15518 3af4 D8000000 		.4byte	.LVL439
 15519 3af8 DD000000 		.4byte	.LVL441-1
 15520 3afc 0100     		.2byte	0x1
 15521 3afe 52       		.byte	0x52
ARM GAS  C:\Users\info\AppData\Local\Temp\ccQPGqkW.s 			page 302


 15522 3aff DD000000 		.4byte	.LVL441-1
 15523 3b03 E4000000 		.4byte	.LVL442
 15524 3b07 0400     		.2byte	0x4
 15525 3b09 F3       		.byte	0xf3
 15526 3b0a 01       		.uleb128 0x1
 15527 3b0b 52       		.byte	0x52
 15528 3b0c 9F       		.byte	0x9f
 15529 3b0d E4000000 		.4byte	.LVL442
 15530 3b11 EB000000 		.4byte	.LVL444-1
 15531 3b15 0100     		.2byte	0x1
 15532 3b17 52       		.byte	0x52
 15533 3b18 EB000000 		.4byte	.LVL444-1
 15534 3b1c FA000000 		.4byte	.LVL445
 15535 3b20 0400     		.2byte	0x4
 15536 3b22 F3       		.byte	0xf3
 15537 3b23 01       		.uleb128 0x1
 15538 3b24 52       		.byte	0x52
 15539 3b25 9F       		.byte	0x9f
 15540 3b26 FA000000 		.4byte	.LVL445
 15541 3b2a FF000000 		.4byte	.LVL447-1
 15542 3b2e 0100     		.2byte	0x1
 15543 3b30 52       		.byte	0x52
 15544 3b31 FF000000 		.4byte	.LVL447-1
 15545 3b35 28010000 		.4byte	.LFE9
 15546 3b39 0400     		.2byte	0x4
 15547 3b3b F3       		.byte	0xf3
 15548 3b3c 01       		.uleb128 0x1
 15549 3b3d 52       		.byte	0x52
 15550 3b3e 9F       		.byte	0x9f
 15551 3b3f 00000000 		.4byte	0
 15552 3b43 00000000 		.4byte	0
 15553              	.LLST146:
 15554 3b47 00000000 		.4byte	.LVL403
 15555 3b4b 2F000000 		.4byte	.LVL409-1
 15556 3b4f 0100     		.2byte	0x1
 15557 3b51 53       		.byte	0x53
 15558 3b52 2F000000 		.4byte	.LVL409-1
 15559 3b56 36000000 		.4byte	.LVL410
 15560 3b5a 0400     		.2byte	0x4
 15561 3b5c F3       		.byte	0xf3
 15562 3b5d 01       		.uleb128 0x1
 15563 3b5e 53       		.byte	0x53
 15564 3b5f 9F       		.byte	0x9f
 15565 3b60 36000000 		.4byte	.LVL410
 15566 3b64 3B000000 		.4byte	.LVL412-1
 15567 3b68 0100     		.2byte	0x1
 15568 3b6a 53       		.byte	0x53
 15569 3b6b 3B000000 		.4byte	.LVL412-1
 15570 3b6f 74000000 		.4byte	.LVL420
 15571 3b73 0100     		.2byte	0x1
 15572 3b75 57       		.byte	0x57
 15573 3b76 74000000 		.4byte	.LVL420
 15574 3b7a A4000000 		.4byte	.LVL429
 15575 3b7e 0400     		.2byte	0x4
 15576 3b80 F3       		.byte	0xf3
 15577 3b81 01       		.uleb128 0x1
 15578 3b82 53       		.byte	0x53
ARM GAS  C:\Users\info\AppData\Local\Temp\ccQPGqkW.s 			page 303


 15579 3b83 9F       		.byte	0x9f
 15580 3b84 A4000000 		.4byte	.LVL429
 15581 3b88 A7000000 		.4byte	.LVL430-1
 15582 3b8c 0100     		.2byte	0x1
 15583 3b8e 53       		.byte	0x53
 15584 3b8f A7000000 		.4byte	.LVL430-1
 15585 3b93 BA000000 		.4byte	.LVL433
 15586 3b97 0400     		.2byte	0x4
 15587 3b99 F3       		.byte	0xf3
 15588 3b9a 01       		.uleb128 0x1
 15589 3b9b 53       		.byte	0x53
 15590 3b9c 9F       		.byte	0x9f
 15591 3b9d BA000000 		.4byte	.LVL433
 15592 3ba1 BD000000 		.4byte	.LVL434-1
 15593 3ba5 0100     		.2byte	0x1
 15594 3ba7 53       		.byte	0x53
 15595 3ba8 BD000000 		.4byte	.LVL434-1
 15596 3bac CC000000 		.4byte	.LVL436
 15597 3bb0 0400     		.2byte	0x4
 15598 3bb2 F3       		.byte	0xf3
 15599 3bb3 01       		.uleb128 0x1
 15600 3bb4 53       		.byte	0x53
 15601 3bb5 9F       		.byte	0x9f
 15602 3bb6 CC000000 		.4byte	.LVL436
 15603 3bba D1000000 		.4byte	.LVL438-1
 15604 3bbe 0100     		.2byte	0x1
 15605 3bc0 53       		.byte	0x53
 15606 3bc1 D1000000 		.4byte	.LVL438-1
 15607 3bc5 D8000000 		.4byte	.LVL439
 15608 3bc9 0400     		.2byte	0x4
 15609 3bcb F3       		.byte	0xf3
 15610 3bcc 01       		.uleb128 0x1
 15611 3bcd 53       		.byte	0x53
 15612 3bce 9F       		.byte	0x9f
 15613 3bcf D8000000 		.4byte	.LVL439
 15614 3bd3 DD000000 		.4byte	.LVL441-1
 15615 3bd7 0100     		.2byte	0x1
 15616 3bd9 53       		.byte	0x53
 15617 3bda DD000000 		.4byte	.LVL441-1
 15618 3bde E4000000 		.4byte	.LVL442
 15619 3be2 0400     		.2byte	0x4
 15620 3be4 F3       		.byte	0xf3
 15621 3be5 01       		.uleb128 0x1
 15622 3be6 53       		.byte	0x53
 15623 3be7 9F       		.byte	0x9f
 15624 3be8 E4000000 		.4byte	.LVL442
 15625 3bec EB000000 		.4byte	.LVL444-1
 15626 3bf0 0100     		.2byte	0x1
 15627 3bf2 53       		.byte	0x53
 15628 3bf3 EB000000 		.4byte	.LVL444-1
 15629 3bf7 FA000000 		.4byte	.LVL445
 15630 3bfb 0400     		.2byte	0x4
 15631 3bfd F3       		.byte	0xf3
 15632 3bfe 01       		.uleb128 0x1
 15633 3bff 53       		.byte	0x53
 15634 3c00 9F       		.byte	0x9f
 15635 3c01 FA000000 		.4byte	.LVL445
ARM GAS  C:\Users\info\AppData\Local\Temp\ccQPGqkW.s 			page 304


 15636 3c05 FF000000 		.4byte	.LVL447-1
 15637 3c09 0100     		.2byte	0x1
 15638 3c0b 53       		.byte	0x53
 15639 3c0c FF000000 		.4byte	.LVL447-1
 15640 3c10 28010000 		.4byte	.LFE9
 15641 3c14 0400     		.2byte	0x4
 15642 3c16 F3       		.byte	0xf3
 15643 3c17 01       		.uleb128 0x1
 15644 3c18 53       		.byte	0x53
 15645 3c19 9F       		.byte	0x9f
 15646 3c1a 00000000 		.4byte	0
 15647 3c1e 00000000 		.4byte	0
 15648              	.LLST147:
 15649 3c22 0A000000 		.4byte	.LVL404
 15650 3c26 14000000 		.4byte	.LVL405
 15651 3c2a 0100     		.2byte	0x1
 15652 3c2c 53       		.byte	0x53
 15653 3c2d 26000000 		.4byte	.LVL407
 15654 3c31 2F000000 		.4byte	.LVL409-1
 15655 3c35 0100     		.2byte	0x1
 15656 3c37 53       		.byte	0x53
 15657 3c38 2F000000 		.4byte	.LVL409-1
 15658 3c3c 30000000 		.4byte	.LVL409
 15659 3c40 0400     		.2byte	0x4
 15660 3c42 F3       		.byte	0xf3
 15661 3c43 01       		.uleb128 0x1
 15662 3c44 53       		.byte	0x53
 15663 3c45 9F       		.byte	0x9f
 15664 3c46 36000000 		.4byte	.LVL410
 15665 3c4a 3B000000 		.4byte	.LVL412-1
 15666 3c4e 0100     		.2byte	0x1
 15667 3c50 53       		.byte	0x53
 15668 3c51 3B000000 		.4byte	.LVL412-1
 15669 3c55 74000000 		.4byte	.LVL420
 15670 3c59 0100     		.2byte	0x1
 15671 3c5b 57       		.byte	0x57
 15672 3c5c 74000000 		.4byte	.LVL420
 15673 3c60 9E000000 		.4byte	.LVL428
 15674 3c64 0400     		.2byte	0x4
 15675 3c66 F3       		.byte	0xf3
 15676 3c67 01       		.uleb128 0x1
 15677 3c68 53       		.byte	0x53
 15678 3c69 9F       		.byte	0x9f
 15679 3c6a A4000000 		.4byte	.LVL429
 15680 3c6e A7000000 		.4byte	.LVL430-1
 15681 3c72 0100     		.2byte	0x1
 15682 3c74 53       		.byte	0x53
 15683 3c75 A7000000 		.4byte	.LVL430-1
 15684 3c79 BA000000 		.4byte	.LVL433
 15685 3c7d 0400     		.2byte	0x4
 15686 3c7f F3       		.byte	0xf3
 15687 3c80 01       		.uleb128 0x1
 15688 3c81 53       		.byte	0x53
 15689 3c82 9F       		.byte	0x9f
 15690 3c83 CC000000 		.4byte	.LVL436
 15691 3c87 D1000000 		.4byte	.LVL438-1
 15692 3c8b 0100     		.2byte	0x1
ARM GAS  C:\Users\info\AppData\Local\Temp\ccQPGqkW.s 			page 305


 15693 3c8d 53       		.byte	0x53
 15694 3c8e D1000000 		.4byte	.LVL438-1
 15695 3c92 D2000000 		.4byte	.LVL438
 15696 3c96 0400     		.2byte	0x4
 15697 3c98 F3       		.byte	0xf3
 15698 3c99 01       		.uleb128 0x1
 15699 3c9a 53       		.byte	0x53
 15700 3c9b 9F       		.byte	0x9f
 15701 3c9c 00000000 		.4byte	0
 15702 3ca0 00000000 		.4byte	0
 15703              	.LLST148:
 15704 3ca4 0A000000 		.4byte	.LVL404
 15705 3ca8 14000000 		.4byte	.LVL405
 15706 3cac 0100     		.2byte	0x1
 15707 3cae 52       		.byte	0x52
 15708 3caf 26000000 		.4byte	.LVL407
 15709 3cb3 2F000000 		.4byte	.LVL409-1
 15710 3cb7 0100     		.2byte	0x1
 15711 3cb9 52       		.byte	0x52
 15712 3cba 2F000000 		.4byte	.LVL409-1
 15713 3cbe 30000000 		.4byte	.LVL409
 15714 3cc2 0400     		.2byte	0x4
 15715 3cc4 F3       		.byte	0xf3
 15716 3cc5 01       		.uleb128 0x1
 15717 3cc6 52       		.byte	0x52
 15718 3cc7 9F       		.byte	0x9f
 15719 3cc8 36000000 		.4byte	.LVL410
 15720 3ccc 3B000000 		.4byte	.LVL412-1
 15721 3cd0 0100     		.2byte	0x1
 15722 3cd2 52       		.byte	0x52
 15723 3cd3 3B000000 		.4byte	.LVL412-1
 15724 3cd7 9E000000 		.4byte	.LVL428
 15725 3cdb 0400     		.2byte	0x4
 15726 3cdd F3       		.byte	0xf3
 15727 3cde 01       		.uleb128 0x1
 15728 3cdf 52       		.byte	0x52
 15729 3ce0 9F       		.byte	0x9f
 15730 3ce1 A4000000 		.4byte	.LVL429
 15731 3ce5 A7000000 		.4byte	.LVL430-1
 15732 3ce9 0100     		.2byte	0x1
 15733 3ceb 52       		.byte	0x52
 15734 3cec A7000000 		.4byte	.LVL430-1
 15735 3cf0 BA000000 		.4byte	.LVL433
 15736 3cf4 0400     		.2byte	0x4
 15737 3cf6 F3       		.byte	0xf3
 15738 3cf7 01       		.uleb128 0x1
 15739 3cf8 52       		.byte	0x52
 15740 3cf9 9F       		.byte	0x9f
 15741 3cfa CC000000 		.4byte	.LVL436
 15742 3cfe D1000000 		.4byte	.LVL438-1
 15743 3d02 0100     		.2byte	0x1
 15744 3d04 52       		.byte	0x52
 15745 3d05 D1000000 		.4byte	.LVL438-1
 15746 3d09 D2000000 		.4byte	.LVL438
 15747 3d0d 0400     		.2byte	0x4
 15748 3d0f F3       		.byte	0xf3
 15749 3d10 01       		.uleb128 0x1
ARM GAS  C:\Users\info\AppData\Local\Temp\ccQPGqkW.s 			page 306


 15750 3d11 52       		.byte	0x52
 15751 3d12 9F       		.byte	0x9f
 15752 3d13 00000000 		.4byte	0
 15753 3d17 00000000 		.4byte	0
 15754              	.LLST149:
 15755 3d1b 0A000000 		.4byte	.LVL404
 15756 3d1f 14000000 		.4byte	.LVL405
 15757 3d23 0100     		.2byte	0x1
 15758 3d25 51       		.byte	0x51
 15759 3d26 26000000 		.4byte	.LVL407
 15760 3d2a 2C000000 		.4byte	.LVL408
 15761 3d2e 0100     		.2byte	0x1
 15762 3d30 51       		.byte	0x51
 15763 3d31 2C000000 		.4byte	.LVL408
 15764 3d35 30000000 		.4byte	.LVL409
 15765 3d39 0400     		.2byte	0x4
 15766 3d3b F3       		.byte	0xf3
 15767 3d3c 01       		.uleb128 0x1
 15768 3d3d 51       		.byte	0x51
 15769 3d3e 9F       		.byte	0x9f
 15770 3d3f 36000000 		.4byte	.LVL410
 15771 3d43 3B000000 		.4byte	.LVL412-1
 15772 3d47 0100     		.2byte	0x1
 15773 3d49 51       		.byte	0x51
 15774 3d4a 3B000000 		.4byte	.LVL412-1
 15775 3d4e 9E000000 		.4byte	.LVL428
 15776 3d52 0400     		.2byte	0x4
 15777 3d54 F3       		.byte	0xf3
 15778 3d55 01       		.uleb128 0x1
 15779 3d56 51       		.byte	0x51
 15780 3d57 9F       		.byte	0x9f
 15781 3d58 A4000000 		.4byte	.LVL429
 15782 3d5c A7000000 		.4byte	.LVL430-1
 15783 3d60 0100     		.2byte	0x1
 15784 3d62 51       		.byte	0x51
 15785 3d63 A7000000 		.4byte	.LVL430-1
 15786 3d67 BA000000 		.4byte	.LVL433
 15787 3d6b 0400     		.2byte	0x4
 15788 3d6d F3       		.byte	0xf3
 15789 3d6e 01       		.uleb128 0x1
 15790 3d6f 51       		.byte	0x51
 15791 3d70 9F       		.byte	0x9f
 15792 3d71 CC000000 		.4byte	.LVL436
 15793 3d75 CE000000 		.4byte	.LVL437
 15794 3d79 0100     		.2byte	0x1
 15795 3d7b 51       		.byte	0x51
 15796 3d7c CE000000 		.4byte	.LVL437
 15797 3d80 D2000000 		.4byte	.LVL438
 15798 3d84 0400     		.2byte	0x4
 15799 3d86 F3       		.byte	0xf3
 15800 3d87 01       		.uleb128 0x1
 15801 3d88 51       		.byte	0x51
 15802 3d89 9F       		.byte	0x9f
 15803 3d8a 00000000 		.4byte	0
 15804 3d8e 00000000 		.4byte	0
 15805              	.LLST150:
 15806 3d92 0A000000 		.4byte	.LVL404
ARM GAS  C:\Users\info\AppData\Local\Temp\ccQPGqkW.s 			page 307


 15807 3d96 14000000 		.4byte	.LVL405
 15808 3d9a 0100     		.2byte	0x1
 15809 3d9c 50       		.byte	0x50
 15810 3d9d 26000000 		.4byte	.LVL407
 15811 3da1 2F000000 		.4byte	.LVL409-1
 15812 3da5 0100     		.2byte	0x1
 15813 3da7 50       		.byte	0x50
 15814 3da8 2F000000 		.4byte	.LVL409-1
 15815 3dac 30000000 		.4byte	.LVL409
 15816 3db0 0100     		.2byte	0x1
 15817 3db2 55       		.byte	0x55
 15818 3db3 36000000 		.4byte	.LVL410
 15819 3db7 3B000000 		.4byte	.LVL412-1
 15820 3dbb 0100     		.2byte	0x1
 15821 3dbd 50       		.byte	0x50
 15822 3dbe 3B000000 		.4byte	.LVL412-1
 15823 3dc2 9E000000 		.4byte	.LVL428
 15824 3dc6 0100     		.2byte	0x1
 15825 3dc8 55       		.byte	0x55
 15826 3dc9 A4000000 		.4byte	.LVL429
 15827 3dcd A7000000 		.4byte	.LVL430-1
 15828 3dd1 0100     		.2byte	0x1
 15829 3dd3 50       		.byte	0x50
 15830 3dd4 A7000000 		.4byte	.LVL430-1
 15831 3dd8 BA000000 		.4byte	.LVL433
 15832 3ddc 0100     		.2byte	0x1
 15833 3dde 55       		.byte	0x55
 15834 3ddf CC000000 		.4byte	.LVL436
 15835 3de3 D1000000 		.4byte	.LVL438-1
 15836 3de7 0100     		.2byte	0x1
 15837 3de9 50       		.byte	0x50
 15838 3dea D1000000 		.4byte	.LVL438-1
 15839 3dee D2000000 		.4byte	.LVL438
 15840 3df2 0100     		.2byte	0x1
 15841 3df4 55       		.byte	0x55
 15842 3df5 00000000 		.4byte	0
 15843 3df9 00000000 		.4byte	0
 15844              	.LLST151:
 15845 3dfd 38000000 		.4byte	.LVL411
 15846 3e01 98000000 		.4byte	.LVL427
 15847 3e05 0200     		.2byte	0x2
 15848 3e07 3F       		.byte	0x3f
 15849 3e08 9F       		.byte	0x9f
 15850 3e09 00000000 		.4byte	0
 15851 3e0d 00000000 		.4byte	0
 15852              	.LLST152:
 15853 3e11 38000000 		.4byte	.LVL411
 15854 3e15 74000000 		.4byte	.LVL420
 15855 3e19 0100     		.2byte	0x1
 15856 3e1b 57       		.byte	0x57
 15857 3e1c 74000000 		.4byte	.LVL420
 15858 3e20 98000000 		.4byte	.LVL427
 15859 3e24 0400     		.2byte	0x4
 15860 3e26 F3       		.byte	0xf3
 15861 3e27 01       		.uleb128 0x1
 15862 3e28 53       		.byte	0x53
 15863 3e29 9F       		.byte	0x9f
ARM GAS  C:\Users\info\AppData\Local\Temp\ccQPGqkW.s 			page 308


 15864 3e2a 00000000 		.4byte	0
 15865 3e2e 00000000 		.4byte	0
 15866              	.LLST153:
 15867 3e32 36000000 		.4byte	.LVL410
 15868 3e36 92000000 		.4byte	.LVL426
 15869 3e3a 0100     		.2byte	0x1
 15870 3e3c 54       		.byte	0x54
 15871 3e3d 92000000 		.4byte	.LVL426
 15872 3e41 98000000 		.4byte	.LVL427
 15873 3e45 0100     		.2byte	0x1
 15874 3e47 52       		.byte	0x52
 15875 3e48 00000000 		.4byte	0
 15876 3e4c 00000000 		.4byte	0
 15877              	.LLST154:
 15878 3e50 36000000 		.4byte	.LVL410
 15879 3e54 3B000000 		.4byte	.LVL412-1
 15880 3e58 0100     		.2byte	0x1
 15881 3e5a 50       		.byte	0x50
 15882 3e5b 3B000000 		.4byte	.LVL412-1
 15883 3e5f 98000000 		.4byte	.LVL427
 15884 3e63 0100     		.2byte	0x1
 15885 3e65 55       		.byte	0x55
 15886 3e66 00000000 		.4byte	0
 15887 3e6a 00000000 		.4byte	0
 15888              	.LLST155:
 15889 3e6e 44000000 		.4byte	.LVL413
 15890 3e72 4A000000 		.4byte	.LVL414
 15891 3e76 0800     		.2byte	0x8
 15892 3e78 78       		.byte	0x78
 15893 3e79 00       		.sleb128 0
 15894 3e7a 33       		.byte	0x33
 15895 3e7b 24       		.byte	0x24
 15896 3e7c 08       		.byte	0x8
 15897 3e7d F8       		.byte	0xf8
 15898 3e7e 1A       		.byte	0x1a
 15899 3e7f 9F       		.byte	0x9f
 15900 3e80 4A000000 		.4byte	.LVL414
 15901 3e84 4E000000 		.4byte	.LVL415
 15902 3e88 0D00     		.2byte	0xd
 15903 3e8a 77       		.byte	0x77
 15904 3e8b 05       		.sleb128 5
 15905 3e8c 94       		.byte	0x94
 15906 3e8d 01       		.byte	0x1
 15907 3e8e 08       		.byte	0x8
 15908 3e8f FF       		.byte	0xff
 15909 3e90 1A       		.byte	0x1a
 15910 3e91 33       		.byte	0x33
 15911 3e92 24       		.byte	0x24
 15912 3e93 08       		.byte	0x8
 15913 3e94 F8       		.byte	0xf8
 15914 3e95 1A       		.byte	0x1a
 15915 3e96 9F       		.byte	0x9f
 15916 3e97 4E000000 		.4byte	.LVL415
 15917 3e9b 98000000 		.4byte	.LVL427
 15918 3e9f 0100     		.2byte	0x1
 15919 3ea1 58       		.byte	0x58
 15920 3ea2 00000000 		.4byte	0
ARM GAS  C:\Users\info\AppData\Local\Temp\ccQPGqkW.s 			page 309


 15921 3ea6 00000000 		.4byte	0
 15922              	.LLST156:
 15923 3eaa 72000000 		.4byte	.LVL419
 15924 3eae 76000000 		.4byte	.LVL421
 15925 3eb2 0100     		.2byte	0x1
 15926 3eb4 56       		.byte	0x56
 15927 3eb5 76000000 		.4byte	.LVL421
 15928 3eb9 78000000 		.4byte	.LVL422
 15929 3ebd 0500     		.2byte	0x5
 15930 3ebf F3       		.byte	0xf3
 15931 3ec0 01       		.uleb128 0x1
 15932 3ec1 53       		.byte	0x53
 15933 3ec2 23       		.byte	0x23
 15934 3ec3 04       		.uleb128 0x4
 15935 3ec4 78000000 		.4byte	.LVL422
 15936 3ec8 7E000000 		.4byte	.LVL423
 15937 3ecc 0100     		.2byte	0x1
 15938 3ece 56       		.byte	0x56
 15939 3ecf 7E000000 		.4byte	.LVL423
 15940 3ed3 86000000 		.4byte	.LVL424
 15941 3ed7 0300     		.2byte	0x3
 15942 3ed9 09       		.byte	0x9
 15943 3eda 84       		.byte	0x84
 15944 3edb 9F       		.byte	0x9f
 15945 3edc 86000000 		.4byte	.LVL424
 15946 3ee0 98000000 		.4byte	.LVL427
 15947 3ee4 0100     		.2byte	0x1
 15948 3ee6 56       		.byte	0x56
 15949 3ee7 00000000 		.4byte	0
 15950 3eeb 00000000 		.4byte	0
 15951              	.LLST157:
 15952 3eef 78000000 		.4byte	.LVL422
 15953 3ef3 98000000 		.4byte	.LVL427
 15954 3ef7 0100     		.2byte	0x1
 15955 3ef9 57       		.byte	0x57
 15956 3efa 00000000 		.4byte	0
 15957 3efe 00000000 		.4byte	0
 15958              	.LLST158:
 15959 3f02 00000000 		.4byte	.LVL449
 15960 3f06 22000000 		.4byte	.LVL452
 15961 3f0a 0100     		.2byte	0x1
 15962 3f0c 50       		.byte	0x50
 15963 3f0d 22000000 		.4byte	.LVL452
 15964 3f11 26000000 		.4byte	.LVL453
 15965 3f15 0100     		.2byte	0x1
 15966 3f17 55       		.byte	0x55
 15967 3f18 26000000 		.4byte	.LVL453
 15968 3f1c 2F000000 		.4byte	.LVL455-1
 15969 3f20 0100     		.2byte	0x1
 15970 3f22 50       		.byte	0x50
 15971 3f23 2F000000 		.4byte	.LVL455-1
 15972 3f27 36000000 		.4byte	.LVL456
 15973 3f2b 0100     		.2byte	0x1
 15974 3f2d 55       		.byte	0x55
 15975 3f2e 36000000 		.4byte	.LVL456
 15976 3f32 3B000000 		.4byte	.LVL458-1
 15977 3f36 0100     		.2byte	0x1
ARM GAS  C:\Users\info\AppData\Local\Temp\ccQPGqkW.s 			page 310


 15978 3f38 50       		.byte	0x50
 15979 3f39 3B000000 		.4byte	.LVL458-1
 15980 3f3d A4000000 		.4byte	.LVL475
 15981 3f41 0100     		.2byte	0x1
 15982 3f43 55       		.byte	0x55
 15983 3f44 A4000000 		.4byte	.LVL475
 15984 3f48 A7000000 		.4byte	.LVL476-1
 15985 3f4c 0100     		.2byte	0x1
 15986 3f4e 50       		.byte	0x50
 15987 3f4f A7000000 		.4byte	.LVL476-1
 15988 3f53 BA000000 		.4byte	.LVL479
 15989 3f57 0100     		.2byte	0x1
 15990 3f59 55       		.byte	0x55
 15991 3f5a BA000000 		.4byte	.LVL479
 15992 3f5e BD000000 		.4byte	.LVL480-1
 15993 3f62 0100     		.2byte	0x1
 15994 3f64 50       		.byte	0x50
 15995 3f65 BD000000 		.4byte	.LVL480-1
 15996 3f69 CC000000 		.4byte	.LVL482
 15997 3f6d 0100     		.2byte	0x1
 15998 3f6f 55       		.byte	0x55
 15999 3f70 CC000000 		.4byte	.LVL482
 16000 3f74 D1000000 		.4byte	.LVL484-1
 16001 3f78 0100     		.2byte	0x1
 16002 3f7a 50       		.byte	0x50
 16003 3f7b D1000000 		.4byte	.LVL484-1
 16004 3f7f D8000000 		.4byte	.LVL485
 16005 3f83 0100     		.2byte	0x1
 16006 3f85 55       		.byte	0x55
 16007 3f86 D8000000 		.4byte	.LVL485
 16008 3f8a DD000000 		.4byte	.LVL487-1
 16009 3f8e 0100     		.2byte	0x1
 16010 3f90 50       		.byte	0x50
 16011 3f91 DD000000 		.4byte	.LVL487-1
 16012 3f95 E4000000 		.4byte	.LVL488
 16013 3f99 0100     		.2byte	0x1
 16014 3f9b 55       		.byte	0x55
 16015 3f9c E4000000 		.4byte	.LVL488
 16016 3fa0 EB000000 		.4byte	.LVL490-1
 16017 3fa4 0100     		.2byte	0x1
 16018 3fa6 50       		.byte	0x50
 16019 3fa7 EB000000 		.4byte	.LVL490-1
 16020 3fab FA000000 		.4byte	.LVL491
 16021 3faf 0100     		.2byte	0x1
 16022 3fb1 55       		.byte	0x55
 16023 3fb2 FA000000 		.4byte	.LVL491
 16024 3fb6 FF000000 		.4byte	.LVL493-1
 16025 3fba 0100     		.2byte	0x1
 16026 3fbc 50       		.byte	0x50
 16027 3fbd FF000000 		.4byte	.LVL493-1
 16028 3fc1 0E010000 		.4byte	.LVL494
 16029 3fc5 0100     		.2byte	0x1
 16030 3fc7 55       		.byte	0x55
 16031 3fc8 0E010000 		.4byte	.LVL494
 16032 3fcc 28010000 		.4byte	.LFE10
 16033 3fd0 0400     		.2byte	0x4
 16034 3fd2 F3       		.byte	0xf3
ARM GAS  C:\Users\info\AppData\Local\Temp\ccQPGqkW.s 			page 311


 16035 3fd3 01       		.uleb128 0x1
 16036 3fd4 50       		.byte	0x50
 16037 3fd5 9F       		.byte	0x9f
 16038 3fd6 00000000 		.4byte	0
 16039 3fda 00000000 		.4byte	0
 16040              	.LLST159:
 16041 3fde 00000000 		.4byte	.LVL449
 16042 3fe2 2C000000 		.4byte	.LVL454
 16043 3fe6 0100     		.2byte	0x1
 16044 3fe8 51       		.byte	0x51
 16045 3fe9 2C000000 		.4byte	.LVL454
 16046 3fed 36000000 		.4byte	.LVL456
 16047 3ff1 0400     		.2byte	0x4
 16048 3ff3 F3       		.byte	0xf3
 16049 3ff4 01       		.uleb128 0x1
 16050 3ff5 51       		.byte	0x51
 16051 3ff6 9F       		.byte	0x9f
 16052 3ff7 36000000 		.4byte	.LVL456
 16053 3ffb 3B000000 		.4byte	.LVL458-1
 16054 3fff 0100     		.2byte	0x1
 16055 4001 51       		.byte	0x51
 16056 4002 3B000000 		.4byte	.LVL458-1
 16057 4006 A4000000 		.4byte	.LVL475
 16058 400a 0400     		.2byte	0x4
 16059 400c F3       		.byte	0xf3
 16060 400d 01       		.uleb128 0x1
 16061 400e 51       		.byte	0x51
 16062 400f 9F       		.byte	0x9f
 16063 4010 A4000000 		.4byte	.LVL475
 16064 4014 A7000000 		.4byte	.LVL476-1
 16065 4018 0100     		.2byte	0x1
 16066 401a 51       		.byte	0x51
 16067 401b A7000000 		.4byte	.LVL476-1
 16068 401f BA000000 		.4byte	.LVL479
 16069 4023 0400     		.2byte	0x4
 16070 4025 F3       		.byte	0xf3
 16071 4026 01       		.uleb128 0x1
 16072 4027 51       		.byte	0x51
 16073 4028 9F       		.byte	0x9f
 16074 4029 BA000000 		.4byte	.LVL479
 16075 402d BD000000 		.4byte	.LVL480-1
 16076 4031 0100     		.2byte	0x1
 16077 4033 51       		.byte	0x51
 16078 4034 BD000000 		.4byte	.LVL480-1
 16079 4038 CC000000 		.4byte	.LVL482
 16080 403c 0400     		.2byte	0x4
 16081 403e F3       		.byte	0xf3
 16082 403f 01       		.uleb128 0x1
 16083 4040 51       		.byte	0x51
 16084 4041 9F       		.byte	0x9f
 16085 4042 CC000000 		.4byte	.LVL482
 16086 4046 CE000000 		.4byte	.LVL483
 16087 404a 0100     		.2byte	0x1
 16088 404c 51       		.byte	0x51
 16089 404d CE000000 		.4byte	.LVL483
 16090 4051 D8000000 		.4byte	.LVL485
 16091 4055 0400     		.2byte	0x4
ARM GAS  C:\Users\info\AppData\Local\Temp\ccQPGqkW.s 			page 312


 16092 4057 F3       		.byte	0xf3
 16093 4058 01       		.uleb128 0x1
 16094 4059 51       		.byte	0x51
 16095 405a 9F       		.byte	0x9f
 16096 405b D8000000 		.4byte	.LVL485
 16097 405f DA000000 		.4byte	.LVL486
 16098 4063 0100     		.2byte	0x1
 16099 4065 51       		.byte	0x51
 16100 4066 DA000000 		.4byte	.LVL486
 16101 406a E4000000 		.4byte	.LVL488
 16102 406e 0400     		.2byte	0x4
 16103 4070 F3       		.byte	0xf3
 16104 4071 01       		.uleb128 0x1
 16105 4072 51       		.byte	0x51
 16106 4073 9F       		.byte	0x9f
 16107 4074 E4000000 		.4byte	.LVL488
 16108 4078 E8000000 		.4byte	.LVL489
 16109 407c 0100     		.2byte	0x1
 16110 407e 51       		.byte	0x51
 16111 407f E8000000 		.4byte	.LVL489
 16112 4083 FA000000 		.4byte	.LVL491
 16113 4087 0400     		.2byte	0x4
 16114 4089 F3       		.byte	0xf3
 16115 408a 01       		.uleb128 0x1
 16116 408b 51       		.byte	0x51
 16117 408c 9F       		.byte	0x9f
 16118 408d FA000000 		.4byte	.LVL491
 16119 4091 FC000000 		.4byte	.LVL492
 16120 4095 0100     		.2byte	0x1
 16121 4097 51       		.byte	0x51
 16122 4098 FC000000 		.4byte	.LVL492
 16123 409c 28010000 		.4byte	.LFE10
 16124 40a0 0400     		.2byte	0x4
 16125 40a2 F3       		.byte	0xf3
 16126 40a3 01       		.uleb128 0x1
 16127 40a4 51       		.byte	0x51
 16128 40a5 9F       		.byte	0x9f
 16129 40a6 00000000 		.4byte	0
 16130 40aa 00000000 		.4byte	0
 16131              	.LLST160:
 16132 40ae 00000000 		.4byte	.LVL449
 16133 40b2 2F000000 		.4byte	.LVL455-1
 16134 40b6 0100     		.2byte	0x1
 16135 40b8 52       		.byte	0x52
 16136 40b9 2F000000 		.4byte	.LVL455-1
 16137 40bd 36000000 		.4byte	.LVL456
 16138 40c1 0400     		.2byte	0x4
 16139 40c3 F3       		.byte	0xf3
 16140 40c4 01       		.uleb128 0x1
 16141 40c5 52       		.byte	0x52
 16142 40c6 9F       		.byte	0x9f
 16143 40c7 36000000 		.4byte	.LVL456
 16144 40cb 3B000000 		.4byte	.LVL458-1
 16145 40cf 0100     		.2byte	0x1
 16146 40d1 52       		.byte	0x52
 16147 40d2 3B000000 		.4byte	.LVL458-1
 16148 40d6 A4000000 		.4byte	.LVL475
ARM GAS  C:\Users\info\AppData\Local\Temp\ccQPGqkW.s 			page 313


 16149 40da 0400     		.2byte	0x4
 16150 40dc F3       		.byte	0xf3
 16151 40dd 01       		.uleb128 0x1
 16152 40de 52       		.byte	0x52
 16153 40df 9F       		.byte	0x9f
 16154 40e0 A4000000 		.4byte	.LVL475
 16155 40e4 A7000000 		.4byte	.LVL476-1
 16156 40e8 0100     		.2byte	0x1
 16157 40ea 52       		.byte	0x52
 16158 40eb A7000000 		.4byte	.LVL476-1
 16159 40ef BA000000 		.4byte	.LVL479
 16160 40f3 0400     		.2byte	0x4
 16161 40f5 F3       		.byte	0xf3
 16162 40f6 01       		.uleb128 0x1
 16163 40f7 52       		.byte	0x52
 16164 40f8 9F       		.byte	0x9f
 16165 40f9 BA000000 		.4byte	.LVL479
 16166 40fd BD000000 		.4byte	.LVL480-1
 16167 4101 0100     		.2byte	0x1
 16168 4103 52       		.byte	0x52
 16169 4104 BD000000 		.4byte	.LVL480-1
 16170 4108 CC000000 		.4byte	.LVL482
 16171 410c 0400     		.2byte	0x4
 16172 410e F3       		.byte	0xf3
 16173 410f 01       		.uleb128 0x1
 16174 4110 52       		.byte	0x52
 16175 4111 9F       		.byte	0x9f
 16176 4112 CC000000 		.4byte	.LVL482
 16177 4116 D1000000 		.4byte	.LVL484-1
 16178 411a 0100     		.2byte	0x1
 16179 411c 52       		.byte	0x52
 16180 411d D1000000 		.4byte	.LVL484-1
 16181 4121 D8000000 		.4byte	.LVL485
 16182 4125 0400     		.2byte	0x4
 16183 4127 F3       		.byte	0xf3
 16184 4128 01       		.uleb128 0x1
 16185 4129 52       		.byte	0x52
 16186 412a 9F       		.byte	0x9f
 16187 412b D8000000 		.4byte	.LVL485
 16188 412f DD000000 		.4byte	.LVL487-1
 16189 4133 0100     		.2byte	0x1
 16190 4135 52       		.byte	0x52
 16191 4136 DD000000 		.4byte	.LVL487-1
 16192 413a E4000000 		.4byte	.LVL488
 16193 413e 0400     		.2byte	0x4
 16194 4140 F3       		.byte	0xf3
 16195 4141 01       		.uleb128 0x1
 16196 4142 52       		.byte	0x52
 16197 4143 9F       		.byte	0x9f
 16198 4144 E4000000 		.4byte	.LVL488
 16199 4148 EB000000 		.4byte	.LVL490-1
 16200 414c 0100     		.2byte	0x1
 16201 414e 52       		.byte	0x52
 16202 414f EB000000 		.4byte	.LVL490-1
 16203 4153 FA000000 		.4byte	.LVL491
 16204 4157 0400     		.2byte	0x4
 16205 4159 F3       		.byte	0xf3
ARM GAS  C:\Users\info\AppData\Local\Temp\ccQPGqkW.s 			page 314


 16206 415a 01       		.uleb128 0x1
 16207 415b 52       		.byte	0x52
 16208 415c 9F       		.byte	0x9f
 16209 415d FA000000 		.4byte	.LVL491
 16210 4161 FF000000 		.4byte	.LVL493-1
 16211 4165 0100     		.2byte	0x1
 16212 4167 52       		.byte	0x52
 16213 4168 FF000000 		.4byte	.LVL493-1
 16214 416c 28010000 		.4byte	.LFE10
 16215 4170 0400     		.2byte	0x4
 16216 4172 F3       		.byte	0xf3
 16217 4173 01       		.uleb128 0x1
 16218 4174 52       		.byte	0x52
 16219 4175 9F       		.byte	0x9f
 16220 4176 00000000 		.4byte	0
 16221 417a 00000000 		.4byte	0
 16222              	.LLST161:
 16223 417e 00000000 		.4byte	.LVL449
 16224 4182 2F000000 		.4byte	.LVL455-1
 16225 4186 0100     		.2byte	0x1
 16226 4188 53       		.byte	0x53
 16227 4189 2F000000 		.4byte	.LVL455-1
 16228 418d 36000000 		.4byte	.LVL456
 16229 4191 0400     		.2byte	0x4
 16230 4193 F3       		.byte	0xf3
 16231 4194 01       		.uleb128 0x1
 16232 4195 53       		.byte	0x53
 16233 4196 9F       		.byte	0x9f
 16234 4197 36000000 		.4byte	.LVL456
 16235 419b 3B000000 		.4byte	.LVL458-1
 16236 419f 0100     		.2byte	0x1
 16237 41a1 53       		.byte	0x53
 16238 41a2 3B000000 		.4byte	.LVL458-1
 16239 41a6 74000000 		.4byte	.LVL466
 16240 41aa 0100     		.2byte	0x1
 16241 41ac 57       		.byte	0x57
 16242 41ad 74000000 		.4byte	.LVL466
 16243 41b1 A4000000 		.4byte	.LVL475
 16244 41b5 0400     		.2byte	0x4
 16245 41b7 F3       		.byte	0xf3
 16246 41b8 01       		.uleb128 0x1
 16247 41b9 53       		.byte	0x53
 16248 41ba 9F       		.byte	0x9f
 16249 41bb A4000000 		.4byte	.LVL475
 16250 41bf A7000000 		.4byte	.LVL476-1
 16251 41c3 0100     		.2byte	0x1
 16252 41c5 53       		.byte	0x53
 16253 41c6 A7000000 		.4byte	.LVL476-1
 16254 41ca BA000000 		.4byte	.LVL479
 16255 41ce 0400     		.2byte	0x4
 16256 41d0 F3       		.byte	0xf3
 16257 41d1 01       		.uleb128 0x1
 16258 41d2 53       		.byte	0x53
 16259 41d3 9F       		.byte	0x9f
 16260 41d4 BA000000 		.4byte	.LVL479
 16261 41d8 BD000000 		.4byte	.LVL480-1
 16262 41dc 0100     		.2byte	0x1
ARM GAS  C:\Users\info\AppData\Local\Temp\ccQPGqkW.s 			page 315


 16263 41de 53       		.byte	0x53
 16264 41df BD000000 		.4byte	.LVL480-1
 16265 41e3 CC000000 		.4byte	.LVL482
 16266 41e7 0400     		.2byte	0x4
 16267 41e9 F3       		.byte	0xf3
 16268 41ea 01       		.uleb128 0x1
 16269 41eb 53       		.byte	0x53
 16270 41ec 9F       		.byte	0x9f
 16271 41ed CC000000 		.4byte	.LVL482
 16272 41f1 D1000000 		.4byte	.LVL484-1
 16273 41f5 0100     		.2byte	0x1
 16274 41f7 53       		.byte	0x53
 16275 41f8 D1000000 		.4byte	.LVL484-1
 16276 41fc D8000000 		.4byte	.LVL485
 16277 4200 0400     		.2byte	0x4
 16278 4202 F3       		.byte	0xf3
 16279 4203 01       		.uleb128 0x1
 16280 4204 53       		.byte	0x53
 16281 4205 9F       		.byte	0x9f
 16282 4206 D8000000 		.4byte	.LVL485
 16283 420a DD000000 		.4byte	.LVL487-1
 16284 420e 0100     		.2byte	0x1
 16285 4210 53       		.byte	0x53
 16286 4211 DD000000 		.4byte	.LVL487-1
 16287 4215 E4000000 		.4byte	.LVL488
 16288 4219 0400     		.2byte	0x4
 16289 421b F3       		.byte	0xf3
 16290 421c 01       		.uleb128 0x1
 16291 421d 53       		.byte	0x53
 16292 421e 9F       		.byte	0x9f
 16293 421f E4000000 		.4byte	.LVL488
 16294 4223 EB000000 		.4byte	.LVL490-1
 16295 4227 0100     		.2byte	0x1
 16296 4229 53       		.byte	0x53
 16297 422a EB000000 		.4byte	.LVL490-1
 16298 422e FA000000 		.4byte	.LVL491
 16299 4232 0400     		.2byte	0x4
 16300 4234 F3       		.byte	0xf3
 16301 4235 01       		.uleb128 0x1
 16302 4236 53       		.byte	0x53
 16303 4237 9F       		.byte	0x9f
 16304 4238 FA000000 		.4byte	.LVL491
 16305 423c FF000000 		.4byte	.LVL493-1
 16306 4240 0100     		.2byte	0x1
 16307 4242 53       		.byte	0x53
 16308 4243 FF000000 		.4byte	.LVL493-1
 16309 4247 28010000 		.4byte	.LFE10
 16310 424b 0400     		.2byte	0x4
 16311 424d F3       		.byte	0xf3
 16312 424e 01       		.uleb128 0x1
 16313 424f 53       		.byte	0x53
 16314 4250 9F       		.byte	0x9f
 16315 4251 00000000 		.4byte	0
 16316 4255 00000000 		.4byte	0
 16317              	.LLST162:
 16318 4259 0A000000 		.4byte	.LVL450
 16319 425d 14000000 		.4byte	.LVL451
ARM GAS  C:\Users\info\AppData\Local\Temp\ccQPGqkW.s 			page 316


 16320 4261 0100     		.2byte	0x1
 16321 4263 53       		.byte	0x53
 16322 4264 26000000 		.4byte	.LVL453
 16323 4268 2F000000 		.4byte	.LVL455-1
 16324 426c 0100     		.2byte	0x1
 16325 426e 53       		.byte	0x53
 16326 426f 2F000000 		.4byte	.LVL455-1
 16327 4273 30000000 		.4byte	.LVL455
 16328 4277 0400     		.2byte	0x4
 16329 4279 F3       		.byte	0xf3
 16330 427a 01       		.uleb128 0x1
 16331 427b 53       		.byte	0x53
 16332 427c 9F       		.byte	0x9f
 16333 427d 36000000 		.4byte	.LVL456
 16334 4281 3B000000 		.4byte	.LVL458-1
 16335 4285 0100     		.2byte	0x1
 16336 4287 53       		.byte	0x53
 16337 4288 3B000000 		.4byte	.LVL458-1
 16338 428c 74000000 		.4byte	.LVL466
 16339 4290 0100     		.2byte	0x1
 16340 4292 57       		.byte	0x57
 16341 4293 74000000 		.4byte	.LVL466
 16342 4297 9E000000 		.4byte	.LVL474
 16343 429b 0400     		.2byte	0x4
 16344 429d F3       		.byte	0xf3
 16345 429e 01       		.uleb128 0x1
 16346 429f 53       		.byte	0x53
 16347 42a0 9F       		.byte	0x9f
 16348 42a1 A4000000 		.4byte	.LVL475
 16349 42a5 A7000000 		.4byte	.LVL476-1
 16350 42a9 0100     		.2byte	0x1
 16351 42ab 53       		.byte	0x53
 16352 42ac A7000000 		.4byte	.LVL476-1
 16353 42b0 BA000000 		.4byte	.LVL479
 16354 42b4 0400     		.2byte	0x4
 16355 42b6 F3       		.byte	0xf3
 16356 42b7 01       		.uleb128 0x1
 16357 42b8 53       		.byte	0x53
 16358 42b9 9F       		.byte	0x9f
 16359 42ba CC000000 		.4byte	.LVL482
 16360 42be D1000000 		.4byte	.LVL484-1
 16361 42c2 0100     		.2byte	0x1
 16362 42c4 53       		.byte	0x53
 16363 42c5 D1000000 		.4byte	.LVL484-1
 16364 42c9 D2000000 		.4byte	.LVL484
 16365 42cd 0400     		.2byte	0x4
 16366 42cf F3       		.byte	0xf3
 16367 42d0 01       		.uleb128 0x1
 16368 42d1 53       		.byte	0x53
 16369 42d2 9F       		.byte	0x9f
 16370 42d3 00000000 		.4byte	0
 16371 42d7 00000000 		.4byte	0
 16372              	.LLST163:
 16373 42db 0A000000 		.4byte	.LVL450
 16374 42df 14000000 		.4byte	.LVL451
 16375 42e3 0100     		.2byte	0x1
 16376 42e5 52       		.byte	0x52
ARM GAS  C:\Users\info\AppData\Local\Temp\ccQPGqkW.s 			page 317


 16377 42e6 26000000 		.4byte	.LVL453
 16378 42ea 2F000000 		.4byte	.LVL455-1
 16379 42ee 0100     		.2byte	0x1
 16380 42f0 52       		.byte	0x52
 16381 42f1 2F000000 		.4byte	.LVL455-1
 16382 42f5 30000000 		.4byte	.LVL455
 16383 42f9 0400     		.2byte	0x4
 16384 42fb F3       		.byte	0xf3
 16385 42fc 01       		.uleb128 0x1
 16386 42fd 52       		.byte	0x52
 16387 42fe 9F       		.byte	0x9f
 16388 42ff 36000000 		.4byte	.LVL456
 16389 4303 3B000000 		.4byte	.LVL458-1
 16390 4307 0100     		.2byte	0x1
 16391 4309 52       		.byte	0x52
 16392 430a 3B000000 		.4byte	.LVL458-1
 16393 430e 9E000000 		.4byte	.LVL474
 16394 4312 0400     		.2byte	0x4
 16395 4314 F3       		.byte	0xf3
 16396 4315 01       		.uleb128 0x1
 16397 4316 52       		.byte	0x52
 16398 4317 9F       		.byte	0x9f
 16399 4318 A4000000 		.4byte	.LVL475
 16400 431c A7000000 		.4byte	.LVL476-1
 16401 4320 0100     		.2byte	0x1
 16402 4322 52       		.byte	0x52
 16403 4323 A7000000 		.4byte	.LVL476-1
 16404 4327 BA000000 		.4byte	.LVL479
 16405 432b 0400     		.2byte	0x4
 16406 432d F3       		.byte	0xf3
 16407 432e 01       		.uleb128 0x1
 16408 432f 52       		.byte	0x52
 16409 4330 9F       		.byte	0x9f
 16410 4331 CC000000 		.4byte	.LVL482
 16411 4335 D1000000 		.4byte	.LVL484-1
 16412 4339 0100     		.2byte	0x1
 16413 433b 52       		.byte	0x52
 16414 433c D1000000 		.4byte	.LVL484-1
 16415 4340 D2000000 		.4byte	.LVL484
 16416 4344 0400     		.2byte	0x4
 16417 4346 F3       		.byte	0xf3
 16418 4347 01       		.uleb128 0x1
 16419 4348 52       		.byte	0x52
 16420 4349 9F       		.byte	0x9f
 16421 434a 00000000 		.4byte	0
 16422 434e 00000000 		.4byte	0
 16423              	.LLST164:
 16424 4352 0A000000 		.4byte	.LVL450
 16425 4356 14000000 		.4byte	.LVL451
 16426 435a 0100     		.2byte	0x1
 16427 435c 51       		.byte	0x51
 16428 435d 26000000 		.4byte	.LVL453
 16429 4361 2C000000 		.4byte	.LVL454
 16430 4365 0100     		.2byte	0x1
 16431 4367 51       		.byte	0x51
 16432 4368 2C000000 		.4byte	.LVL454
 16433 436c 30000000 		.4byte	.LVL455
ARM GAS  C:\Users\info\AppData\Local\Temp\ccQPGqkW.s 			page 318


 16434 4370 0400     		.2byte	0x4
 16435 4372 F3       		.byte	0xf3
 16436 4373 01       		.uleb128 0x1
 16437 4374 51       		.byte	0x51
 16438 4375 9F       		.byte	0x9f
 16439 4376 36000000 		.4byte	.LVL456
 16440 437a 3B000000 		.4byte	.LVL458-1
 16441 437e 0100     		.2byte	0x1
 16442 4380 51       		.byte	0x51
 16443 4381 3B000000 		.4byte	.LVL458-1
 16444 4385 9E000000 		.4byte	.LVL474
 16445 4389 0400     		.2byte	0x4
 16446 438b F3       		.byte	0xf3
 16447 438c 01       		.uleb128 0x1
 16448 438d 51       		.byte	0x51
 16449 438e 9F       		.byte	0x9f
 16450 438f A4000000 		.4byte	.LVL475
 16451 4393 A7000000 		.4byte	.LVL476-1
 16452 4397 0100     		.2byte	0x1
 16453 4399 51       		.byte	0x51
 16454 439a A7000000 		.4byte	.LVL476-1
 16455 439e BA000000 		.4byte	.LVL479
 16456 43a2 0400     		.2byte	0x4
 16457 43a4 F3       		.byte	0xf3
 16458 43a5 01       		.uleb128 0x1
 16459 43a6 51       		.byte	0x51
 16460 43a7 9F       		.byte	0x9f
 16461 43a8 CC000000 		.4byte	.LVL482
 16462 43ac CE000000 		.4byte	.LVL483
 16463 43b0 0100     		.2byte	0x1
 16464 43b2 51       		.byte	0x51
 16465 43b3 CE000000 		.4byte	.LVL483
 16466 43b7 D2000000 		.4byte	.LVL484
 16467 43bb 0400     		.2byte	0x4
 16468 43bd F3       		.byte	0xf3
 16469 43be 01       		.uleb128 0x1
 16470 43bf 51       		.byte	0x51
 16471 43c0 9F       		.byte	0x9f
 16472 43c1 00000000 		.4byte	0
 16473 43c5 00000000 		.4byte	0
 16474              	.LLST165:
 16475 43c9 0A000000 		.4byte	.LVL450
 16476 43cd 14000000 		.4byte	.LVL451
 16477 43d1 0100     		.2byte	0x1
 16478 43d3 50       		.byte	0x50
 16479 43d4 26000000 		.4byte	.LVL453
 16480 43d8 2F000000 		.4byte	.LVL455-1
 16481 43dc 0100     		.2byte	0x1
 16482 43de 50       		.byte	0x50
 16483 43df 2F000000 		.4byte	.LVL455-1
 16484 43e3 30000000 		.4byte	.LVL455
 16485 43e7 0100     		.2byte	0x1
 16486 43e9 55       		.byte	0x55
 16487 43ea 36000000 		.4byte	.LVL456
 16488 43ee 3B000000 		.4byte	.LVL458-1
 16489 43f2 0100     		.2byte	0x1
 16490 43f4 50       		.byte	0x50
ARM GAS  C:\Users\info\AppData\Local\Temp\ccQPGqkW.s 			page 319


 16491 43f5 3B000000 		.4byte	.LVL458-1
 16492 43f9 9E000000 		.4byte	.LVL474
 16493 43fd 0100     		.2byte	0x1
 16494 43ff 55       		.byte	0x55
 16495 4400 A4000000 		.4byte	.LVL475
 16496 4404 A7000000 		.4byte	.LVL476-1
 16497 4408 0100     		.2byte	0x1
 16498 440a 50       		.byte	0x50
 16499 440b A7000000 		.4byte	.LVL476-1
 16500 440f BA000000 		.4byte	.LVL479
 16501 4413 0100     		.2byte	0x1
 16502 4415 55       		.byte	0x55
 16503 4416 CC000000 		.4byte	.LVL482
 16504 441a D1000000 		.4byte	.LVL484-1
 16505 441e 0100     		.2byte	0x1
 16506 4420 50       		.byte	0x50
 16507 4421 D1000000 		.4byte	.LVL484-1
 16508 4425 D2000000 		.4byte	.LVL484
 16509 4429 0100     		.2byte	0x1
 16510 442b 55       		.byte	0x55
 16511 442c 00000000 		.4byte	0
 16512 4430 00000000 		.4byte	0
 16513              	.LLST166:
 16514 4434 38000000 		.4byte	.LVL457
 16515 4438 98000000 		.4byte	.LVL473
 16516 443c 0200     		.2byte	0x2
 16517 443e 3F       		.byte	0x3f
 16518 443f 9F       		.byte	0x9f
 16519 4440 00000000 		.4byte	0
 16520 4444 00000000 		.4byte	0
 16521              	.LLST167:
 16522 4448 38000000 		.4byte	.LVL457
 16523 444c 74000000 		.4byte	.LVL466
 16524 4450 0100     		.2byte	0x1
 16525 4452 57       		.byte	0x57
 16526 4453 74000000 		.4byte	.LVL466
 16527 4457 98000000 		.4byte	.LVL473
 16528 445b 0400     		.2byte	0x4
 16529 445d F3       		.byte	0xf3
 16530 445e 01       		.uleb128 0x1
 16531 445f 53       		.byte	0x53
 16532 4460 9F       		.byte	0x9f
 16533 4461 00000000 		.4byte	0
 16534 4465 00000000 		.4byte	0
 16535              	.LLST168:
 16536 4469 36000000 		.4byte	.LVL456
 16537 446d 92000000 		.4byte	.LVL472
 16538 4471 0100     		.2byte	0x1
 16539 4473 54       		.byte	0x54
 16540 4474 92000000 		.4byte	.LVL472
 16541 4478 98000000 		.4byte	.LVL473
 16542 447c 0100     		.2byte	0x1
 16543 447e 52       		.byte	0x52
 16544 447f 00000000 		.4byte	0
 16545 4483 00000000 		.4byte	0
 16546              	.LLST169:
 16547 4487 36000000 		.4byte	.LVL456
ARM GAS  C:\Users\info\AppData\Local\Temp\ccQPGqkW.s 			page 320


 16548 448b 3B000000 		.4byte	.LVL458-1
 16549 448f 0100     		.2byte	0x1
 16550 4491 50       		.byte	0x50
 16551 4492 3B000000 		.4byte	.LVL458-1
 16552 4496 98000000 		.4byte	.LVL473
 16553 449a 0100     		.2byte	0x1
 16554 449c 55       		.byte	0x55
 16555 449d 00000000 		.4byte	0
 16556 44a1 00000000 		.4byte	0
 16557              	.LLST170:
 16558 44a5 44000000 		.4byte	.LVL459
 16559 44a9 4A000000 		.4byte	.LVL460
 16560 44ad 0800     		.2byte	0x8
 16561 44af 78       		.byte	0x78
 16562 44b0 00       		.sleb128 0
 16563 44b1 33       		.byte	0x33
 16564 44b2 24       		.byte	0x24
 16565 44b3 08       		.byte	0x8
 16566 44b4 F8       		.byte	0xf8
 16567 44b5 1A       		.byte	0x1a
 16568 44b6 9F       		.byte	0x9f
 16569 44b7 4A000000 		.4byte	.LVL460
 16570 44bb 4E000000 		.4byte	.LVL461
 16571 44bf 0D00     		.2byte	0xd
 16572 44c1 77       		.byte	0x77
 16573 44c2 05       		.sleb128 5
 16574 44c3 94       		.byte	0x94
 16575 44c4 01       		.byte	0x1
 16576 44c5 08       		.byte	0x8
 16577 44c6 FF       		.byte	0xff
 16578 44c7 1A       		.byte	0x1a
 16579 44c8 33       		.byte	0x33
 16580 44c9 24       		.byte	0x24
 16581 44ca 08       		.byte	0x8
 16582 44cb F8       		.byte	0xf8
 16583 44cc 1A       		.byte	0x1a
 16584 44cd 9F       		.byte	0x9f
 16585 44ce 4E000000 		.4byte	.LVL461
 16586 44d2 98000000 		.4byte	.LVL473
 16587 44d6 0100     		.2byte	0x1
 16588 44d8 58       		.byte	0x58
 16589 44d9 00000000 		.4byte	0
 16590 44dd 00000000 		.4byte	0
 16591              	.LLST171:
 16592 44e1 72000000 		.4byte	.LVL465
 16593 44e5 76000000 		.4byte	.LVL467
 16594 44e9 0100     		.2byte	0x1
 16595 44eb 56       		.byte	0x56
 16596 44ec 76000000 		.4byte	.LVL467
 16597 44f0 78000000 		.4byte	.LVL468
 16598 44f4 0500     		.2byte	0x5
 16599 44f6 F3       		.byte	0xf3
 16600 44f7 01       		.uleb128 0x1
 16601 44f8 53       		.byte	0x53
 16602 44f9 23       		.byte	0x23
 16603 44fa 04       		.uleb128 0x4
 16604 44fb 78000000 		.4byte	.LVL468
ARM GAS  C:\Users\info\AppData\Local\Temp\ccQPGqkW.s 			page 321


 16605 44ff 7E000000 		.4byte	.LVL469
 16606 4503 0100     		.2byte	0x1
 16607 4505 56       		.byte	0x56
 16608 4506 7E000000 		.4byte	.LVL469
 16609 450a 86000000 		.4byte	.LVL470
 16610 450e 0300     		.2byte	0x3
 16611 4510 09       		.byte	0x9
 16612 4511 84       		.byte	0x84
 16613 4512 9F       		.byte	0x9f
 16614 4513 86000000 		.4byte	.LVL470
 16615 4517 98000000 		.4byte	.LVL473
 16616 451b 0100     		.2byte	0x1
 16617 451d 56       		.byte	0x56
 16618 451e 00000000 		.4byte	0
 16619 4522 00000000 		.4byte	0
 16620              	.LLST172:
 16621 4526 78000000 		.4byte	.LVL468
 16622 452a 98000000 		.4byte	.LVL473
 16623 452e 0100     		.2byte	0x1
 16624 4530 57       		.byte	0x57
 16625 4531 00000000 		.4byte	0
 16626 4535 00000000 		.4byte	0
 16627              	.LLST173:
 16628 4539 00000000 		.4byte	.LVL495
 16629 453d 22000000 		.4byte	.LVL498
 16630 4541 0100     		.2byte	0x1
 16631 4543 50       		.byte	0x50
 16632 4544 22000000 		.4byte	.LVL498
 16633 4548 26000000 		.4byte	.LVL499
 16634 454c 0100     		.2byte	0x1
 16635 454e 55       		.byte	0x55
 16636 454f 26000000 		.4byte	.LVL499
 16637 4553 2F000000 		.4byte	.LVL501-1
 16638 4557 0100     		.2byte	0x1
 16639 4559 50       		.byte	0x50
 16640 455a 2F000000 		.4byte	.LVL501-1
 16641 455e 36000000 		.4byte	.LVL502
 16642 4562 0100     		.2byte	0x1
 16643 4564 55       		.byte	0x55
 16644 4565 36000000 		.4byte	.LVL502
 16645 4569 3B000000 		.4byte	.LVL504-1
 16646 456d 0100     		.2byte	0x1
 16647 456f 50       		.byte	0x50
 16648 4570 3B000000 		.4byte	.LVL504-1
 16649 4574 A4000000 		.4byte	.LVL521
 16650 4578 0100     		.2byte	0x1
 16651 457a 55       		.byte	0x55
 16652 457b A4000000 		.4byte	.LVL521
 16653 457f A7000000 		.4byte	.LVL522-1
 16654 4583 0100     		.2byte	0x1
 16655 4585 50       		.byte	0x50
 16656 4586 A7000000 		.4byte	.LVL522-1
 16657 458a BA000000 		.4byte	.LVL525
 16658 458e 0100     		.2byte	0x1
 16659 4590 55       		.byte	0x55
 16660 4591 BA000000 		.4byte	.LVL525
 16661 4595 BD000000 		.4byte	.LVL526-1
ARM GAS  C:\Users\info\AppData\Local\Temp\ccQPGqkW.s 			page 322


 16662 4599 0100     		.2byte	0x1
 16663 459b 50       		.byte	0x50
 16664 459c BD000000 		.4byte	.LVL526-1
 16665 45a0 CC000000 		.4byte	.LVL528
 16666 45a4 0100     		.2byte	0x1
 16667 45a6 55       		.byte	0x55
 16668 45a7 CC000000 		.4byte	.LVL528
 16669 45ab D1000000 		.4byte	.LVL530-1
 16670 45af 0100     		.2byte	0x1
 16671 45b1 50       		.byte	0x50
 16672 45b2 D1000000 		.4byte	.LVL530-1
 16673 45b6 D8000000 		.4byte	.LVL531
 16674 45ba 0100     		.2byte	0x1
 16675 45bc 55       		.byte	0x55
 16676 45bd D8000000 		.4byte	.LVL531
 16677 45c1 DD000000 		.4byte	.LVL533-1
 16678 45c5 0100     		.2byte	0x1
 16679 45c7 50       		.byte	0x50
 16680 45c8 DD000000 		.4byte	.LVL533-1
 16681 45cc E4000000 		.4byte	.LVL534
 16682 45d0 0100     		.2byte	0x1
 16683 45d2 55       		.byte	0x55
 16684 45d3 E4000000 		.4byte	.LVL534
 16685 45d7 EB000000 		.4byte	.LVL536-1
 16686 45db 0100     		.2byte	0x1
 16687 45dd 50       		.byte	0x50
 16688 45de EB000000 		.4byte	.LVL536-1
 16689 45e2 FA000000 		.4byte	.LVL537
 16690 45e6 0100     		.2byte	0x1
 16691 45e8 55       		.byte	0x55
 16692 45e9 FA000000 		.4byte	.LVL537
 16693 45ed FF000000 		.4byte	.LVL539-1
 16694 45f1 0100     		.2byte	0x1
 16695 45f3 50       		.byte	0x50
 16696 45f4 FF000000 		.4byte	.LVL539-1
 16697 45f8 0E010000 		.4byte	.LVL540
 16698 45fc 0100     		.2byte	0x1
 16699 45fe 55       		.byte	0x55
 16700 45ff 0E010000 		.4byte	.LVL540
 16701 4603 28010000 		.4byte	.LFE11
 16702 4607 0400     		.2byte	0x4
 16703 4609 F3       		.byte	0xf3
 16704 460a 01       		.uleb128 0x1
 16705 460b 50       		.byte	0x50
 16706 460c 9F       		.byte	0x9f
 16707 460d 00000000 		.4byte	0
 16708 4611 00000000 		.4byte	0
 16709              	.LLST174:
 16710 4615 00000000 		.4byte	.LVL495
 16711 4619 2C000000 		.4byte	.LVL500
 16712 461d 0100     		.2byte	0x1
 16713 461f 51       		.byte	0x51
 16714 4620 2C000000 		.4byte	.LVL500
 16715 4624 36000000 		.4byte	.LVL502
 16716 4628 0400     		.2byte	0x4
 16717 462a F3       		.byte	0xf3
 16718 462b 01       		.uleb128 0x1
ARM GAS  C:\Users\info\AppData\Local\Temp\ccQPGqkW.s 			page 323


 16719 462c 51       		.byte	0x51
 16720 462d 9F       		.byte	0x9f
 16721 462e 36000000 		.4byte	.LVL502
 16722 4632 3B000000 		.4byte	.LVL504-1
 16723 4636 0100     		.2byte	0x1
 16724 4638 51       		.byte	0x51
 16725 4639 3B000000 		.4byte	.LVL504-1
 16726 463d A4000000 		.4byte	.LVL521
 16727 4641 0400     		.2byte	0x4
 16728 4643 F3       		.byte	0xf3
 16729 4644 01       		.uleb128 0x1
 16730 4645 51       		.byte	0x51
 16731 4646 9F       		.byte	0x9f
 16732 4647 A4000000 		.4byte	.LVL521
 16733 464b A7000000 		.4byte	.LVL522-1
 16734 464f 0100     		.2byte	0x1
 16735 4651 51       		.byte	0x51
 16736 4652 A7000000 		.4byte	.LVL522-1
 16737 4656 BA000000 		.4byte	.LVL525
 16738 465a 0400     		.2byte	0x4
 16739 465c F3       		.byte	0xf3
 16740 465d 01       		.uleb128 0x1
 16741 465e 51       		.byte	0x51
 16742 465f 9F       		.byte	0x9f
 16743 4660 BA000000 		.4byte	.LVL525
 16744 4664 BD000000 		.4byte	.LVL526-1
 16745 4668 0100     		.2byte	0x1
 16746 466a 51       		.byte	0x51
 16747 466b BD000000 		.4byte	.LVL526-1
 16748 466f CC000000 		.4byte	.LVL528
 16749 4673 0400     		.2byte	0x4
 16750 4675 F3       		.byte	0xf3
 16751 4676 01       		.uleb128 0x1
 16752 4677 51       		.byte	0x51
 16753 4678 9F       		.byte	0x9f
 16754 4679 CC000000 		.4byte	.LVL528
 16755 467d CE000000 		.4byte	.LVL529
 16756 4681 0100     		.2byte	0x1
 16757 4683 51       		.byte	0x51
 16758 4684 CE000000 		.4byte	.LVL529
 16759 4688 D8000000 		.4byte	.LVL531
 16760 468c 0400     		.2byte	0x4
 16761 468e F3       		.byte	0xf3
 16762 468f 01       		.uleb128 0x1
 16763 4690 51       		.byte	0x51
 16764 4691 9F       		.byte	0x9f
 16765 4692 D8000000 		.4byte	.LVL531
 16766 4696 DA000000 		.4byte	.LVL532
 16767 469a 0100     		.2byte	0x1
 16768 469c 51       		.byte	0x51
 16769 469d DA000000 		.4byte	.LVL532
 16770 46a1 E4000000 		.4byte	.LVL534
 16771 46a5 0400     		.2byte	0x4
 16772 46a7 F3       		.byte	0xf3
 16773 46a8 01       		.uleb128 0x1
 16774 46a9 51       		.byte	0x51
 16775 46aa 9F       		.byte	0x9f
ARM GAS  C:\Users\info\AppData\Local\Temp\ccQPGqkW.s 			page 324


 16776 46ab E4000000 		.4byte	.LVL534
 16777 46af E8000000 		.4byte	.LVL535
 16778 46b3 0100     		.2byte	0x1
 16779 46b5 51       		.byte	0x51
 16780 46b6 E8000000 		.4byte	.LVL535
 16781 46ba FA000000 		.4byte	.LVL537
 16782 46be 0400     		.2byte	0x4
 16783 46c0 F3       		.byte	0xf3
 16784 46c1 01       		.uleb128 0x1
 16785 46c2 51       		.byte	0x51
 16786 46c3 9F       		.byte	0x9f
 16787 46c4 FA000000 		.4byte	.LVL537
 16788 46c8 FC000000 		.4byte	.LVL538
 16789 46cc 0100     		.2byte	0x1
 16790 46ce 51       		.byte	0x51
 16791 46cf FC000000 		.4byte	.LVL538
 16792 46d3 28010000 		.4byte	.LFE11
 16793 46d7 0400     		.2byte	0x4
 16794 46d9 F3       		.byte	0xf3
 16795 46da 01       		.uleb128 0x1
 16796 46db 51       		.byte	0x51
 16797 46dc 9F       		.byte	0x9f
 16798 46dd 00000000 		.4byte	0
 16799 46e1 00000000 		.4byte	0
 16800              	.LLST175:
 16801 46e5 00000000 		.4byte	.LVL495
 16802 46e9 2F000000 		.4byte	.LVL501-1
 16803 46ed 0100     		.2byte	0x1
 16804 46ef 52       		.byte	0x52
 16805 46f0 2F000000 		.4byte	.LVL501-1
 16806 46f4 36000000 		.4byte	.LVL502
 16807 46f8 0400     		.2byte	0x4
 16808 46fa F3       		.byte	0xf3
 16809 46fb 01       		.uleb128 0x1
 16810 46fc 52       		.byte	0x52
 16811 46fd 9F       		.byte	0x9f
 16812 46fe 36000000 		.4byte	.LVL502
 16813 4702 3B000000 		.4byte	.LVL504-1
 16814 4706 0100     		.2byte	0x1
 16815 4708 52       		.byte	0x52
 16816 4709 3B000000 		.4byte	.LVL504-1
 16817 470d A4000000 		.4byte	.LVL521
 16818 4711 0400     		.2byte	0x4
 16819 4713 F3       		.byte	0xf3
 16820 4714 01       		.uleb128 0x1
 16821 4715 52       		.byte	0x52
 16822 4716 9F       		.byte	0x9f
 16823 4717 A4000000 		.4byte	.LVL521
 16824 471b A7000000 		.4byte	.LVL522-1
 16825 471f 0100     		.2byte	0x1
 16826 4721 52       		.byte	0x52
 16827 4722 A7000000 		.4byte	.LVL522-1
 16828 4726 BA000000 		.4byte	.LVL525
 16829 472a 0400     		.2byte	0x4
 16830 472c F3       		.byte	0xf3
 16831 472d 01       		.uleb128 0x1
 16832 472e 52       		.byte	0x52
ARM GAS  C:\Users\info\AppData\Local\Temp\ccQPGqkW.s 			page 325


 16833 472f 9F       		.byte	0x9f
 16834 4730 BA000000 		.4byte	.LVL525
 16835 4734 BD000000 		.4byte	.LVL526-1
 16836 4738 0100     		.2byte	0x1
 16837 473a 52       		.byte	0x52
 16838 473b BD000000 		.4byte	.LVL526-1
 16839 473f CC000000 		.4byte	.LVL528
 16840 4743 0400     		.2byte	0x4
 16841 4745 F3       		.byte	0xf3
 16842 4746 01       		.uleb128 0x1
 16843 4747 52       		.byte	0x52
 16844 4748 9F       		.byte	0x9f
 16845 4749 CC000000 		.4byte	.LVL528
 16846 474d D1000000 		.4byte	.LVL530-1
 16847 4751 0100     		.2byte	0x1
 16848 4753 52       		.byte	0x52
 16849 4754 D1000000 		.4byte	.LVL530-1
 16850 4758 D8000000 		.4byte	.LVL531
 16851 475c 0400     		.2byte	0x4
 16852 475e F3       		.byte	0xf3
 16853 475f 01       		.uleb128 0x1
 16854 4760 52       		.byte	0x52
 16855 4761 9F       		.byte	0x9f
 16856 4762 D8000000 		.4byte	.LVL531
 16857 4766 DD000000 		.4byte	.LVL533-1
 16858 476a 0100     		.2byte	0x1
 16859 476c 52       		.byte	0x52
 16860 476d DD000000 		.4byte	.LVL533-1
 16861 4771 E4000000 		.4byte	.LVL534
 16862 4775 0400     		.2byte	0x4
 16863 4777 F3       		.byte	0xf3
 16864 4778 01       		.uleb128 0x1
 16865 4779 52       		.byte	0x52
 16866 477a 9F       		.byte	0x9f
 16867 477b E4000000 		.4byte	.LVL534
 16868 477f EB000000 		.4byte	.LVL536-1
 16869 4783 0100     		.2byte	0x1
 16870 4785 52       		.byte	0x52
 16871 4786 EB000000 		.4byte	.LVL536-1
 16872 478a FA000000 		.4byte	.LVL537
 16873 478e 0400     		.2byte	0x4
 16874 4790 F3       		.byte	0xf3
 16875 4791 01       		.uleb128 0x1
 16876 4792 52       		.byte	0x52
 16877 4793 9F       		.byte	0x9f
 16878 4794 FA000000 		.4byte	.LVL537
 16879 4798 FF000000 		.4byte	.LVL539-1
 16880 479c 0100     		.2byte	0x1
 16881 479e 52       		.byte	0x52
 16882 479f FF000000 		.4byte	.LVL539-1
 16883 47a3 28010000 		.4byte	.LFE11
 16884 47a7 0400     		.2byte	0x4
 16885 47a9 F3       		.byte	0xf3
 16886 47aa 01       		.uleb128 0x1
 16887 47ab 52       		.byte	0x52
 16888 47ac 9F       		.byte	0x9f
 16889 47ad 00000000 		.4byte	0
ARM GAS  C:\Users\info\AppData\Local\Temp\ccQPGqkW.s 			page 326


 16890 47b1 00000000 		.4byte	0
 16891              	.LLST176:
 16892 47b5 00000000 		.4byte	.LVL495
 16893 47b9 2F000000 		.4byte	.LVL501-1
 16894 47bd 0100     		.2byte	0x1
 16895 47bf 53       		.byte	0x53
 16896 47c0 2F000000 		.4byte	.LVL501-1
 16897 47c4 36000000 		.4byte	.LVL502
 16898 47c8 0400     		.2byte	0x4
 16899 47ca F3       		.byte	0xf3
 16900 47cb 01       		.uleb128 0x1
 16901 47cc 53       		.byte	0x53
 16902 47cd 9F       		.byte	0x9f
 16903 47ce 36000000 		.4byte	.LVL502
 16904 47d2 3B000000 		.4byte	.LVL504-1
 16905 47d6 0100     		.2byte	0x1
 16906 47d8 53       		.byte	0x53
 16907 47d9 3B000000 		.4byte	.LVL504-1
 16908 47dd 74000000 		.4byte	.LVL512
 16909 47e1 0100     		.2byte	0x1
 16910 47e3 57       		.byte	0x57
 16911 47e4 74000000 		.4byte	.LVL512
 16912 47e8 A4000000 		.4byte	.LVL521
 16913 47ec 0400     		.2byte	0x4
 16914 47ee F3       		.byte	0xf3
 16915 47ef 01       		.uleb128 0x1
 16916 47f0 53       		.byte	0x53
 16917 47f1 9F       		.byte	0x9f
 16918 47f2 A4000000 		.4byte	.LVL521
 16919 47f6 A7000000 		.4byte	.LVL522-1
 16920 47fa 0100     		.2byte	0x1
 16921 47fc 53       		.byte	0x53
 16922 47fd A7000000 		.4byte	.LVL522-1
 16923 4801 BA000000 		.4byte	.LVL525
 16924 4805 0400     		.2byte	0x4
 16925 4807 F3       		.byte	0xf3
 16926 4808 01       		.uleb128 0x1
 16927 4809 53       		.byte	0x53
 16928 480a 9F       		.byte	0x9f
 16929 480b BA000000 		.4byte	.LVL525
 16930 480f BD000000 		.4byte	.LVL526-1
 16931 4813 0100     		.2byte	0x1
 16932 4815 53       		.byte	0x53
 16933 4816 BD000000 		.4byte	.LVL526-1
 16934 481a CC000000 		.4byte	.LVL528
 16935 481e 0400     		.2byte	0x4
 16936 4820 F3       		.byte	0xf3
 16937 4821 01       		.uleb128 0x1
 16938 4822 53       		.byte	0x53
 16939 4823 9F       		.byte	0x9f
 16940 4824 CC000000 		.4byte	.LVL528
 16941 4828 D1000000 		.4byte	.LVL530-1
 16942 482c 0100     		.2byte	0x1
 16943 482e 53       		.byte	0x53
 16944 482f D1000000 		.4byte	.LVL530-1
 16945 4833 D8000000 		.4byte	.LVL531
 16946 4837 0400     		.2byte	0x4
ARM GAS  C:\Users\info\AppData\Local\Temp\ccQPGqkW.s 			page 327


 16947 4839 F3       		.byte	0xf3
 16948 483a 01       		.uleb128 0x1
 16949 483b 53       		.byte	0x53
 16950 483c 9F       		.byte	0x9f
 16951 483d D8000000 		.4byte	.LVL531
 16952 4841 DD000000 		.4byte	.LVL533-1
 16953 4845 0100     		.2byte	0x1
 16954 4847 53       		.byte	0x53
 16955 4848 DD000000 		.4byte	.LVL533-1
 16956 484c E4000000 		.4byte	.LVL534
 16957 4850 0400     		.2byte	0x4
 16958 4852 F3       		.byte	0xf3
 16959 4853 01       		.uleb128 0x1
 16960 4854 53       		.byte	0x53
 16961 4855 9F       		.byte	0x9f
 16962 4856 E4000000 		.4byte	.LVL534
 16963 485a EB000000 		.4byte	.LVL536-1
 16964 485e 0100     		.2byte	0x1
 16965 4860 53       		.byte	0x53
 16966 4861 EB000000 		.4byte	.LVL536-1
 16967 4865 FA000000 		.4byte	.LVL537
 16968 4869 0400     		.2byte	0x4
 16969 486b F3       		.byte	0xf3
 16970 486c 01       		.uleb128 0x1
 16971 486d 53       		.byte	0x53
 16972 486e 9F       		.byte	0x9f
 16973 486f FA000000 		.4byte	.LVL537
 16974 4873 FF000000 		.4byte	.LVL539-1
 16975 4877 0100     		.2byte	0x1
 16976 4879 53       		.byte	0x53
 16977 487a FF000000 		.4byte	.LVL539-1
 16978 487e 28010000 		.4byte	.LFE11
 16979 4882 0400     		.2byte	0x4
 16980 4884 F3       		.byte	0xf3
 16981 4885 01       		.uleb128 0x1
 16982 4886 53       		.byte	0x53
 16983 4887 9F       		.byte	0x9f
 16984 4888 00000000 		.4byte	0
 16985 488c 00000000 		.4byte	0
 16986              	.LLST177:
 16987 4890 0A000000 		.4byte	.LVL496
 16988 4894 14000000 		.4byte	.LVL497
 16989 4898 0100     		.2byte	0x1
 16990 489a 53       		.byte	0x53
 16991 489b 26000000 		.4byte	.LVL499
 16992 489f 2F000000 		.4byte	.LVL501-1
 16993 48a3 0100     		.2byte	0x1
 16994 48a5 53       		.byte	0x53
 16995 48a6 2F000000 		.4byte	.LVL501-1
 16996 48aa 30000000 		.4byte	.LVL501
 16997 48ae 0400     		.2byte	0x4
 16998 48b0 F3       		.byte	0xf3
 16999 48b1 01       		.uleb128 0x1
 17000 48b2 53       		.byte	0x53
 17001 48b3 9F       		.byte	0x9f
 17002 48b4 36000000 		.4byte	.LVL502
 17003 48b8 3B000000 		.4byte	.LVL504-1
ARM GAS  C:\Users\info\AppData\Local\Temp\ccQPGqkW.s 			page 328


 17004 48bc 0100     		.2byte	0x1
 17005 48be 53       		.byte	0x53
 17006 48bf 3B000000 		.4byte	.LVL504-1
 17007 48c3 74000000 		.4byte	.LVL512
 17008 48c7 0100     		.2byte	0x1
 17009 48c9 57       		.byte	0x57
 17010 48ca 74000000 		.4byte	.LVL512
 17011 48ce 9E000000 		.4byte	.LVL520
 17012 48d2 0400     		.2byte	0x4
 17013 48d4 F3       		.byte	0xf3
 17014 48d5 01       		.uleb128 0x1
 17015 48d6 53       		.byte	0x53
 17016 48d7 9F       		.byte	0x9f
 17017 48d8 A4000000 		.4byte	.LVL521
 17018 48dc A7000000 		.4byte	.LVL522-1
 17019 48e0 0100     		.2byte	0x1
 17020 48e2 53       		.byte	0x53
 17021 48e3 A7000000 		.4byte	.LVL522-1
 17022 48e7 BA000000 		.4byte	.LVL525
 17023 48eb 0400     		.2byte	0x4
 17024 48ed F3       		.byte	0xf3
 17025 48ee 01       		.uleb128 0x1
 17026 48ef 53       		.byte	0x53
 17027 48f0 9F       		.byte	0x9f
 17028 48f1 CC000000 		.4byte	.LVL528
 17029 48f5 D1000000 		.4byte	.LVL530-1
 17030 48f9 0100     		.2byte	0x1
 17031 48fb 53       		.byte	0x53
 17032 48fc D1000000 		.4byte	.LVL530-1
 17033 4900 D2000000 		.4byte	.LVL530
 17034 4904 0400     		.2byte	0x4
 17035 4906 F3       		.byte	0xf3
 17036 4907 01       		.uleb128 0x1
 17037 4908 53       		.byte	0x53
 17038 4909 9F       		.byte	0x9f
 17039 490a 00000000 		.4byte	0
 17040 490e 00000000 		.4byte	0
 17041              	.LLST178:
 17042 4912 0A000000 		.4byte	.LVL496
 17043 4916 14000000 		.4byte	.LVL497
 17044 491a 0100     		.2byte	0x1
 17045 491c 52       		.byte	0x52
 17046 491d 26000000 		.4byte	.LVL499
 17047 4921 2F000000 		.4byte	.LVL501-1
 17048 4925 0100     		.2byte	0x1
 17049 4927 52       		.byte	0x52
 17050 4928 2F000000 		.4byte	.LVL501-1
 17051 492c 30000000 		.4byte	.LVL501
 17052 4930 0400     		.2byte	0x4
 17053 4932 F3       		.byte	0xf3
 17054 4933 01       		.uleb128 0x1
 17055 4934 52       		.byte	0x52
 17056 4935 9F       		.byte	0x9f
 17057 4936 36000000 		.4byte	.LVL502
 17058 493a 3B000000 		.4byte	.LVL504-1
 17059 493e 0100     		.2byte	0x1
 17060 4940 52       		.byte	0x52
ARM GAS  C:\Users\info\AppData\Local\Temp\ccQPGqkW.s 			page 329


 17061 4941 3B000000 		.4byte	.LVL504-1
 17062 4945 9E000000 		.4byte	.LVL520
 17063 4949 0400     		.2byte	0x4
 17064 494b F3       		.byte	0xf3
 17065 494c 01       		.uleb128 0x1
 17066 494d 52       		.byte	0x52
 17067 494e 9F       		.byte	0x9f
 17068 494f A4000000 		.4byte	.LVL521
 17069 4953 A7000000 		.4byte	.LVL522-1
 17070 4957 0100     		.2byte	0x1
 17071 4959 52       		.byte	0x52
 17072 495a A7000000 		.4byte	.LVL522-1
 17073 495e BA000000 		.4byte	.LVL525
 17074 4962 0400     		.2byte	0x4
 17075 4964 F3       		.byte	0xf3
 17076 4965 01       		.uleb128 0x1
 17077 4966 52       		.byte	0x52
 17078 4967 9F       		.byte	0x9f
 17079 4968 CC000000 		.4byte	.LVL528
 17080 496c D1000000 		.4byte	.LVL530-1
 17081 4970 0100     		.2byte	0x1
 17082 4972 52       		.byte	0x52
 17083 4973 D1000000 		.4byte	.LVL530-1
 17084 4977 D2000000 		.4byte	.LVL530
 17085 497b 0400     		.2byte	0x4
 17086 497d F3       		.byte	0xf3
 17087 497e 01       		.uleb128 0x1
 17088 497f 52       		.byte	0x52
 17089 4980 9F       		.byte	0x9f
 17090 4981 00000000 		.4byte	0
 17091 4985 00000000 		.4byte	0
 17092              	.LLST179:
 17093 4989 0A000000 		.4byte	.LVL496
 17094 498d 14000000 		.4byte	.LVL497
 17095 4991 0100     		.2byte	0x1
 17096 4993 51       		.byte	0x51
 17097 4994 26000000 		.4byte	.LVL499
 17098 4998 2C000000 		.4byte	.LVL500
 17099 499c 0100     		.2byte	0x1
 17100 499e 51       		.byte	0x51
 17101 499f 2C000000 		.4byte	.LVL500
 17102 49a3 30000000 		.4byte	.LVL501
 17103 49a7 0400     		.2byte	0x4
 17104 49a9 F3       		.byte	0xf3
 17105 49aa 01       		.uleb128 0x1
 17106 49ab 51       		.byte	0x51
 17107 49ac 9F       		.byte	0x9f
 17108 49ad 36000000 		.4byte	.LVL502
 17109 49b1 3B000000 		.4byte	.LVL504-1
 17110 49b5 0100     		.2byte	0x1
 17111 49b7 51       		.byte	0x51
 17112 49b8 3B000000 		.4byte	.LVL504-1
 17113 49bc 9E000000 		.4byte	.LVL520
 17114 49c0 0400     		.2byte	0x4
 17115 49c2 F3       		.byte	0xf3
 17116 49c3 01       		.uleb128 0x1
 17117 49c4 51       		.byte	0x51
ARM GAS  C:\Users\info\AppData\Local\Temp\ccQPGqkW.s 			page 330


 17118 49c5 9F       		.byte	0x9f
 17119 49c6 A4000000 		.4byte	.LVL521
 17120 49ca A7000000 		.4byte	.LVL522-1
 17121 49ce 0100     		.2byte	0x1
 17122 49d0 51       		.byte	0x51
 17123 49d1 A7000000 		.4byte	.LVL522-1
 17124 49d5 BA000000 		.4byte	.LVL525
 17125 49d9 0400     		.2byte	0x4
 17126 49db F3       		.byte	0xf3
 17127 49dc 01       		.uleb128 0x1
 17128 49dd 51       		.byte	0x51
 17129 49de 9F       		.byte	0x9f
 17130 49df CC000000 		.4byte	.LVL528
 17131 49e3 CE000000 		.4byte	.LVL529
 17132 49e7 0100     		.2byte	0x1
 17133 49e9 51       		.byte	0x51
 17134 49ea CE000000 		.4byte	.LVL529
 17135 49ee D2000000 		.4byte	.LVL530
 17136 49f2 0400     		.2byte	0x4
 17137 49f4 F3       		.byte	0xf3
 17138 49f5 01       		.uleb128 0x1
 17139 49f6 51       		.byte	0x51
 17140 49f7 9F       		.byte	0x9f
 17141 49f8 00000000 		.4byte	0
 17142 49fc 00000000 		.4byte	0
 17143              	.LLST180:
 17144 4a00 0A000000 		.4byte	.LVL496
 17145 4a04 14000000 		.4byte	.LVL497
 17146 4a08 0100     		.2byte	0x1
 17147 4a0a 50       		.byte	0x50
 17148 4a0b 26000000 		.4byte	.LVL499
 17149 4a0f 2F000000 		.4byte	.LVL501-1
 17150 4a13 0100     		.2byte	0x1
 17151 4a15 50       		.byte	0x50
 17152 4a16 2F000000 		.4byte	.LVL501-1
 17153 4a1a 30000000 		.4byte	.LVL501
 17154 4a1e 0100     		.2byte	0x1
 17155 4a20 55       		.byte	0x55
 17156 4a21 36000000 		.4byte	.LVL502
 17157 4a25 3B000000 		.4byte	.LVL504-1
 17158 4a29 0100     		.2byte	0x1
 17159 4a2b 50       		.byte	0x50
 17160 4a2c 3B000000 		.4byte	.LVL504-1
 17161 4a30 9E000000 		.4byte	.LVL520
 17162 4a34 0100     		.2byte	0x1
 17163 4a36 55       		.byte	0x55
 17164 4a37 A4000000 		.4byte	.LVL521
 17165 4a3b A7000000 		.4byte	.LVL522-1
 17166 4a3f 0100     		.2byte	0x1
 17167 4a41 50       		.byte	0x50
 17168 4a42 A7000000 		.4byte	.LVL522-1
 17169 4a46 BA000000 		.4byte	.LVL525
 17170 4a4a 0100     		.2byte	0x1
 17171 4a4c 55       		.byte	0x55
 17172 4a4d CC000000 		.4byte	.LVL528
 17173 4a51 D1000000 		.4byte	.LVL530-1
 17174 4a55 0100     		.2byte	0x1
ARM GAS  C:\Users\info\AppData\Local\Temp\ccQPGqkW.s 			page 331


 17175 4a57 50       		.byte	0x50
 17176 4a58 D1000000 		.4byte	.LVL530-1
 17177 4a5c D2000000 		.4byte	.LVL530
 17178 4a60 0100     		.2byte	0x1
 17179 4a62 55       		.byte	0x55
 17180 4a63 00000000 		.4byte	0
 17181 4a67 00000000 		.4byte	0
 17182              	.LLST181:
 17183 4a6b 38000000 		.4byte	.LVL503
 17184 4a6f 98000000 		.4byte	.LVL519
 17185 4a73 0200     		.2byte	0x2
 17186 4a75 3F       		.byte	0x3f
 17187 4a76 9F       		.byte	0x9f
 17188 4a77 00000000 		.4byte	0
 17189 4a7b 00000000 		.4byte	0
 17190              	.LLST182:
 17191 4a7f 38000000 		.4byte	.LVL503
 17192 4a83 74000000 		.4byte	.LVL512
 17193 4a87 0100     		.2byte	0x1
 17194 4a89 57       		.byte	0x57
 17195 4a8a 74000000 		.4byte	.LVL512
 17196 4a8e 98000000 		.4byte	.LVL519
 17197 4a92 0400     		.2byte	0x4
 17198 4a94 F3       		.byte	0xf3
 17199 4a95 01       		.uleb128 0x1
 17200 4a96 53       		.byte	0x53
 17201 4a97 9F       		.byte	0x9f
 17202 4a98 00000000 		.4byte	0
 17203 4a9c 00000000 		.4byte	0
 17204              	.LLST183:
 17205 4aa0 36000000 		.4byte	.LVL502
 17206 4aa4 92000000 		.4byte	.LVL518
 17207 4aa8 0100     		.2byte	0x1
 17208 4aaa 54       		.byte	0x54
 17209 4aab 92000000 		.4byte	.LVL518
 17210 4aaf 98000000 		.4byte	.LVL519
 17211 4ab3 0100     		.2byte	0x1
 17212 4ab5 52       		.byte	0x52
 17213 4ab6 00000000 		.4byte	0
 17214 4aba 00000000 		.4byte	0
 17215              	.LLST184:
 17216 4abe 36000000 		.4byte	.LVL502
 17217 4ac2 3B000000 		.4byte	.LVL504-1
 17218 4ac6 0100     		.2byte	0x1
 17219 4ac8 50       		.byte	0x50
 17220 4ac9 3B000000 		.4byte	.LVL504-1
 17221 4acd 98000000 		.4byte	.LVL519
 17222 4ad1 0100     		.2byte	0x1
 17223 4ad3 55       		.byte	0x55
 17224 4ad4 00000000 		.4byte	0
 17225 4ad8 00000000 		.4byte	0
 17226              	.LLST185:
 17227 4adc 44000000 		.4byte	.LVL505
 17228 4ae0 4A000000 		.4byte	.LVL506
 17229 4ae4 0800     		.2byte	0x8
 17230 4ae6 78       		.byte	0x78
 17231 4ae7 00       		.sleb128 0
ARM GAS  C:\Users\info\AppData\Local\Temp\ccQPGqkW.s 			page 332


 17232 4ae8 33       		.byte	0x33
 17233 4ae9 24       		.byte	0x24
 17234 4aea 08       		.byte	0x8
 17235 4aeb F8       		.byte	0xf8
 17236 4aec 1A       		.byte	0x1a
 17237 4aed 9F       		.byte	0x9f
 17238 4aee 4A000000 		.4byte	.LVL506
 17239 4af2 4E000000 		.4byte	.LVL507
 17240 4af6 0D00     		.2byte	0xd
 17241 4af8 77       		.byte	0x77
 17242 4af9 05       		.sleb128 5
 17243 4afa 94       		.byte	0x94
 17244 4afb 01       		.byte	0x1
 17245 4afc 08       		.byte	0x8
 17246 4afd FF       		.byte	0xff
 17247 4afe 1A       		.byte	0x1a
 17248 4aff 33       		.byte	0x33
 17249 4b00 24       		.byte	0x24
 17250 4b01 08       		.byte	0x8
 17251 4b02 F8       		.byte	0xf8
 17252 4b03 1A       		.byte	0x1a
 17253 4b04 9F       		.byte	0x9f
 17254 4b05 4E000000 		.4byte	.LVL507
 17255 4b09 98000000 		.4byte	.LVL519
 17256 4b0d 0100     		.2byte	0x1
 17257 4b0f 58       		.byte	0x58
 17258 4b10 00000000 		.4byte	0
 17259 4b14 00000000 		.4byte	0
 17260              	.LLST186:
 17261 4b18 72000000 		.4byte	.LVL511
 17262 4b1c 76000000 		.4byte	.LVL513
 17263 4b20 0100     		.2byte	0x1
 17264 4b22 56       		.byte	0x56
 17265 4b23 76000000 		.4byte	.LVL513
 17266 4b27 78000000 		.4byte	.LVL514
 17267 4b2b 0500     		.2byte	0x5
 17268 4b2d F3       		.byte	0xf3
 17269 4b2e 01       		.uleb128 0x1
 17270 4b2f 53       		.byte	0x53
 17271 4b30 23       		.byte	0x23
 17272 4b31 04       		.uleb128 0x4
 17273 4b32 78000000 		.4byte	.LVL514
 17274 4b36 7E000000 		.4byte	.LVL515
 17275 4b3a 0100     		.2byte	0x1
 17276 4b3c 56       		.byte	0x56
 17277 4b3d 7E000000 		.4byte	.LVL515
 17278 4b41 86000000 		.4byte	.LVL516
 17279 4b45 0300     		.2byte	0x3
 17280 4b47 09       		.byte	0x9
 17281 4b48 84       		.byte	0x84
 17282 4b49 9F       		.byte	0x9f
 17283 4b4a 86000000 		.4byte	.LVL516
 17284 4b4e 98000000 		.4byte	.LVL519
 17285 4b52 0100     		.2byte	0x1
 17286 4b54 56       		.byte	0x56
 17287 4b55 00000000 		.4byte	0
 17288 4b59 00000000 		.4byte	0
ARM GAS  C:\Users\info\AppData\Local\Temp\ccQPGqkW.s 			page 333


 17289              	.LLST187:
 17290 4b5d 78000000 		.4byte	.LVL514
 17291 4b61 98000000 		.4byte	.LVL519
 17292 4b65 0100     		.2byte	0x1
 17293 4b67 57       		.byte	0x57
 17294 4b68 00000000 		.4byte	0
 17295 4b6c 00000000 		.4byte	0
 17296              	.LLST188:
 17297 4b70 00000000 		.4byte	.LVL541
 17298 4b74 22000000 		.4byte	.LVL544
 17299 4b78 0100     		.2byte	0x1
 17300 4b7a 50       		.byte	0x50
 17301 4b7b 22000000 		.4byte	.LVL544
 17302 4b7f 26000000 		.4byte	.LVL545
 17303 4b83 0100     		.2byte	0x1
 17304 4b85 55       		.byte	0x55
 17305 4b86 26000000 		.4byte	.LVL545
 17306 4b8a 2F000000 		.4byte	.LVL547-1
 17307 4b8e 0100     		.2byte	0x1
 17308 4b90 50       		.byte	0x50
 17309 4b91 2F000000 		.4byte	.LVL547-1
 17310 4b95 36000000 		.4byte	.LVL548
 17311 4b99 0100     		.2byte	0x1
 17312 4b9b 55       		.byte	0x55
 17313 4b9c 36000000 		.4byte	.LVL548
 17314 4ba0 3B000000 		.4byte	.LVL550-1
 17315 4ba4 0100     		.2byte	0x1
 17316 4ba6 50       		.byte	0x50
 17317 4ba7 3B000000 		.4byte	.LVL550-1
 17318 4bab A4000000 		.4byte	.LVL567
 17319 4baf 0100     		.2byte	0x1
 17320 4bb1 55       		.byte	0x55
 17321 4bb2 A4000000 		.4byte	.LVL567
 17322 4bb6 A7000000 		.4byte	.LVL568-1
 17323 4bba 0100     		.2byte	0x1
 17324 4bbc 50       		.byte	0x50
 17325 4bbd A7000000 		.4byte	.LVL568-1
 17326 4bc1 BA000000 		.4byte	.LVL571
 17327 4bc5 0100     		.2byte	0x1
 17328 4bc7 55       		.byte	0x55
 17329 4bc8 BA000000 		.4byte	.LVL571
 17330 4bcc BD000000 		.4byte	.LVL572-1
 17331 4bd0 0100     		.2byte	0x1
 17332 4bd2 50       		.byte	0x50
 17333 4bd3 BD000000 		.4byte	.LVL572-1
 17334 4bd7 CC000000 		.4byte	.LVL574
 17335 4bdb 0100     		.2byte	0x1
 17336 4bdd 55       		.byte	0x55
 17337 4bde CC000000 		.4byte	.LVL574
 17338 4be2 D1000000 		.4byte	.LVL576-1
 17339 4be6 0100     		.2byte	0x1
 17340 4be8 50       		.byte	0x50
 17341 4be9 D1000000 		.4byte	.LVL576-1
 17342 4bed D8000000 		.4byte	.LVL577
 17343 4bf1 0100     		.2byte	0x1
 17344 4bf3 55       		.byte	0x55
 17345 4bf4 D8000000 		.4byte	.LVL577
ARM GAS  C:\Users\info\AppData\Local\Temp\ccQPGqkW.s 			page 334


 17346 4bf8 DD000000 		.4byte	.LVL579-1
 17347 4bfc 0100     		.2byte	0x1
 17348 4bfe 50       		.byte	0x50
 17349 4bff DD000000 		.4byte	.LVL579-1
 17350 4c03 E4000000 		.4byte	.LVL580
 17351 4c07 0100     		.2byte	0x1
 17352 4c09 55       		.byte	0x55
 17353 4c0a E4000000 		.4byte	.LVL580
 17354 4c0e EB000000 		.4byte	.LVL582-1
 17355 4c12 0100     		.2byte	0x1
 17356 4c14 50       		.byte	0x50
 17357 4c15 EB000000 		.4byte	.LVL582-1
 17358 4c19 FA000000 		.4byte	.LVL583
 17359 4c1d 0100     		.2byte	0x1
 17360 4c1f 55       		.byte	0x55
 17361 4c20 FA000000 		.4byte	.LVL583
 17362 4c24 FF000000 		.4byte	.LVL585-1
 17363 4c28 0100     		.2byte	0x1
 17364 4c2a 50       		.byte	0x50
 17365 4c2b FF000000 		.4byte	.LVL585-1
 17366 4c2f 0E010000 		.4byte	.LVL586
 17367 4c33 0100     		.2byte	0x1
 17368 4c35 55       		.byte	0x55
 17369 4c36 0E010000 		.4byte	.LVL586
 17370 4c3a 28010000 		.4byte	.LFE12
 17371 4c3e 0400     		.2byte	0x4
 17372 4c40 F3       		.byte	0xf3
 17373 4c41 01       		.uleb128 0x1
 17374 4c42 50       		.byte	0x50
 17375 4c43 9F       		.byte	0x9f
 17376 4c44 00000000 		.4byte	0
 17377 4c48 00000000 		.4byte	0
 17378              	.LLST189:
 17379 4c4c 00000000 		.4byte	.LVL541
 17380 4c50 2C000000 		.4byte	.LVL546
 17381 4c54 0100     		.2byte	0x1
 17382 4c56 51       		.byte	0x51
 17383 4c57 2C000000 		.4byte	.LVL546
 17384 4c5b 36000000 		.4byte	.LVL548
 17385 4c5f 0400     		.2byte	0x4
 17386 4c61 F3       		.byte	0xf3
 17387 4c62 01       		.uleb128 0x1
 17388 4c63 51       		.byte	0x51
 17389 4c64 9F       		.byte	0x9f
 17390 4c65 36000000 		.4byte	.LVL548
 17391 4c69 3B000000 		.4byte	.LVL550-1
 17392 4c6d 0100     		.2byte	0x1
 17393 4c6f 51       		.byte	0x51
 17394 4c70 3B000000 		.4byte	.LVL550-1
 17395 4c74 A4000000 		.4byte	.LVL567
 17396 4c78 0400     		.2byte	0x4
 17397 4c7a F3       		.byte	0xf3
 17398 4c7b 01       		.uleb128 0x1
 17399 4c7c 51       		.byte	0x51
 17400 4c7d 9F       		.byte	0x9f
 17401 4c7e A4000000 		.4byte	.LVL567
 17402 4c82 A7000000 		.4byte	.LVL568-1
ARM GAS  C:\Users\info\AppData\Local\Temp\ccQPGqkW.s 			page 335


 17403 4c86 0100     		.2byte	0x1
 17404 4c88 51       		.byte	0x51
 17405 4c89 A7000000 		.4byte	.LVL568-1
 17406 4c8d BA000000 		.4byte	.LVL571
 17407 4c91 0400     		.2byte	0x4
 17408 4c93 F3       		.byte	0xf3
 17409 4c94 01       		.uleb128 0x1
 17410 4c95 51       		.byte	0x51
 17411 4c96 9F       		.byte	0x9f
 17412 4c97 BA000000 		.4byte	.LVL571
 17413 4c9b BD000000 		.4byte	.LVL572-1
 17414 4c9f 0100     		.2byte	0x1
 17415 4ca1 51       		.byte	0x51
 17416 4ca2 BD000000 		.4byte	.LVL572-1
 17417 4ca6 CC000000 		.4byte	.LVL574
 17418 4caa 0400     		.2byte	0x4
 17419 4cac F3       		.byte	0xf3
 17420 4cad 01       		.uleb128 0x1
 17421 4cae 51       		.byte	0x51
 17422 4caf 9F       		.byte	0x9f
 17423 4cb0 CC000000 		.4byte	.LVL574
 17424 4cb4 CE000000 		.4byte	.LVL575
 17425 4cb8 0100     		.2byte	0x1
 17426 4cba 51       		.byte	0x51
 17427 4cbb CE000000 		.4byte	.LVL575
 17428 4cbf D8000000 		.4byte	.LVL577
 17429 4cc3 0400     		.2byte	0x4
 17430 4cc5 F3       		.byte	0xf3
 17431 4cc6 01       		.uleb128 0x1
 17432 4cc7 51       		.byte	0x51
 17433 4cc8 9F       		.byte	0x9f
 17434 4cc9 D8000000 		.4byte	.LVL577
 17435 4ccd DA000000 		.4byte	.LVL578
 17436 4cd1 0100     		.2byte	0x1
 17437 4cd3 51       		.byte	0x51
 17438 4cd4 DA000000 		.4byte	.LVL578
 17439 4cd8 E4000000 		.4byte	.LVL580
 17440 4cdc 0400     		.2byte	0x4
 17441 4cde F3       		.byte	0xf3
 17442 4cdf 01       		.uleb128 0x1
 17443 4ce0 51       		.byte	0x51
 17444 4ce1 9F       		.byte	0x9f
 17445 4ce2 E4000000 		.4byte	.LVL580
 17446 4ce6 E8000000 		.4byte	.LVL581
 17447 4cea 0100     		.2byte	0x1
 17448 4cec 51       		.byte	0x51
 17449 4ced E8000000 		.4byte	.LVL581
 17450 4cf1 FA000000 		.4byte	.LVL583
 17451 4cf5 0400     		.2byte	0x4
 17452 4cf7 F3       		.byte	0xf3
 17453 4cf8 01       		.uleb128 0x1
 17454 4cf9 51       		.byte	0x51
 17455 4cfa 9F       		.byte	0x9f
 17456 4cfb FA000000 		.4byte	.LVL583
 17457 4cff FC000000 		.4byte	.LVL584
 17458 4d03 0100     		.2byte	0x1
 17459 4d05 51       		.byte	0x51
ARM GAS  C:\Users\info\AppData\Local\Temp\ccQPGqkW.s 			page 336


 17460 4d06 FC000000 		.4byte	.LVL584
 17461 4d0a 28010000 		.4byte	.LFE12
 17462 4d0e 0400     		.2byte	0x4
 17463 4d10 F3       		.byte	0xf3
 17464 4d11 01       		.uleb128 0x1
 17465 4d12 51       		.byte	0x51
 17466 4d13 9F       		.byte	0x9f
 17467 4d14 00000000 		.4byte	0
 17468 4d18 00000000 		.4byte	0
 17469              	.LLST190:
 17470 4d1c 00000000 		.4byte	.LVL541
 17471 4d20 2F000000 		.4byte	.LVL547-1
 17472 4d24 0100     		.2byte	0x1
 17473 4d26 52       		.byte	0x52
 17474 4d27 2F000000 		.4byte	.LVL547-1
 17475 4d2b 36000000 		.4byte	.LVL548
 17476 4d2f 0400     		.2byte	0x4
 17477 4d31 F3       		.byte	0xf3
 17478 4d32 01       		.uleb128 0x1
 17479 4d33 52       		.byte	0x52
 17480 4d34 9F       		.byte	0x9f
 17481 4d35 36000000 		.4byte	.LVL548
 17482 4d39 3B000000 		.4byte	.LVL550-1
 17483 4d3d 0100     		.2byte	0x1
 17484 4d3f 52       		.byte	0x52
 17485 4d40 3B000000 		.4byte	.LVL550-1
 17486 4d44 A4000000 		.4byte	.LVL567
 17487 4d48 0400     		.2byte	0x4
 17488 4d4a F3       		.byte	0xf3
 17489 4d4b 01       		.uleb128 0x1
 17490 4d4c 52       		.byte	0x52
 17491 4d4d 9F       		.byte	0x9f
 17492 4d4e A4000000 		.4byte	.LVL567
 17493 4d52 A7000000 		.4byte	.LVL568-1
 17494 4d56 0100     		.2byte	0x1
 17495 4d58 52       		.byte	0x52
 17496 4d59 A7000000 		.4byte	.LVL568-1
 17497 4d5d BA000000 		.4byte	.LVL571
 17498 4d61 0400     		.2byte	0x4
 17499 4d63 F3       		.byte	0xf3
 17500 4d64 01       		.uleb128 0x1
 17501 4d65 52       		.byte	0x52
 17502 4d66 9F       		.byte	0x9f
 17503 4d67 BA000000 		.4byte	.LVL571
 17504 4d6b BD000000 		.4byte	.LVL572-1
 17505 4d6f 0100     		.2byte	0x1
 17506 4d71 52       		.byte	0x52
 17507 4d72 BD000000 		.4byte	.LVL572-1
 17508 4d76 CC000000 		.4byte	.LVL574
 17509 4d7a 0400     		.2byte	0x4
 17510 4d7c F3       		.byte	0xf3
 17511 4d7d 01       		.uleb128 0x1
 17512 4d7e 52       		.byte	0x52
 17513 4d7f 9F       		.byte	0x9f
 17514 4d80 CC000000 		.4byte	.LVL574
 17515 4d84 D1000000 		.4byte	.LVL576-1
 17516 4d88 0100     		.2byte	0x1
ARM GAS  C:\Users\info\AppData\Local\Temp\ccQPGqkW.s 			page 337


 17517 4d8a 52       		.byte	0x52
 17518 4d8b D1000000 		.4byte	.LVL576-1
 17519 4d8f D8000000 		.4byte	.LVL577
 17520 4d93 0400     		.2byte	0x4
 17521 4d95 F3       		.byte	0xf3
 17522 4d96 01       		.uleb128 0x1
 17523 4d97 52       		.byte	0x52
 17524 4d98 9F       		.byte	0x9f
 17525 4d99 D8000000 		.4byte	.LVL577
 17526 4d9d DD000000 		.4byte	.LVL579-1
 17527 4da1 0100     		.2byte	0x1
 17528 4da3 52       		.byte	0x52
 17529 4da4 DD000000 		.4byte	.LVL579-1
 17530 4da8 E4000000 		.4byte	.LVL580
 17531 4dac 0400     		.2byte	0x4
 17532 4dae F3       		.byte	0xf3
 17533 4daf 01       		.uleb128 0x1
 17534 4db0 52       		.byte	0x52
 17535 4db1 9F       		.byte	0x9f
 17536 4db2 E4000000 		.4byte	.LVL580
 17537 4db6 EB000000 		.4byte	.LVL582-1
 17538 4dba 0100     		.2byte	0x1
 17539 4dbc 52       		.byte	0x52
 17540 4dbd EB000000 		.4byte	.LVL582-1
 17541 4dc1 FA000000 		.4byte	.LVL583
 17542 4dc5 0400     		.2byte	0x4
 17543 4dc7 F3       		.byte	0xf3
 17544 4dc8 01       		.uleb128 0x1
 17545 4dc9 52       		.byte	0x52
 17546 4dca 9F       		.byte	0x9f
 17547 4dcb FA000000 		.4byte	.LVL583
 17548 4dcf FF000000 		.4byte	.LVL585-1
 17549 4dd3 0100     		.2byte	0x1
 17550 4dd5 52       		.byte	0x52
 17551 4dd6 FF000000 		.4byte	.LVL585-1
 17552 4dda 28010000 		.4byte	.LFE12
 17553 4dde 0400     		.2byte	0x4
 17554 4de0 F3       		.byte	0xf3
 17555 4de1 01       		.uleb128 0x1
 17556 4de2 52       		.byte	0x52
 17557 4de3 9F       		.byte	0x9f
 17558 4de4 00000000 		.4byte	0
 17559 4de8 00000000 		.4byte	0
 17560              	.LLST191:
 17561 4dec 00000000 		.4byte	.LVL541
 17562 4df0 2F000000 		.4byte	.LVL547-1
 17563 4df4 0100     		.2byte	0x1
 17564 4df6 53       		.byte	0x53
 17565 4df7 2F000000 		.4byte	.LVL547-1
 17566 4dfb 36000000 		.4byte	.LVL548
 17567 4dff 0400     		.2byte	0x4
 17568 4e01 F3       		.byte	0xf3
 17569 4e02 01       		.uleb128 0x1
 17570 4e03 53       		.byte	0x53
 17571 4e04 9F       		.byte	0x9f
 17572 4e05 36000000 		.4byte	.LVL548
 17573 4e09 3B000000 		.4byte	.LVL550-1
ARM GAS  C:\Users\info\AppData\Local\Temp\ccQPGqkW.s 			page 338


 17574 4e0d 0100     		.2byte	0x1
 17575 4e0f 53       		.byte	0x53
 17576 4e10 3B000000 		.4byte	.LVL550-1
 17577 4e14 74000000 		.4byte	.LVL558
 17578 4e18 0100     		.2byte	0x1
 17579 4e1a 57       		.byte	0x57
 17580 4e1b 74000000 		.4byte	.LVL558
 17581 4e1f A4000000 		.4byte	.LVL567
 17582 4e23 0400     		.2byte	0x4
 17583 4e25 F3       		.byte	0xf3
 17584 4e26 01       		.uleb128 0x1
 17585 4e27 53       		.byte	0x53
 17586 4e28 9F       		.byte	0x9f
 17587 4e29 A4000000 		.4byte	.LVL567
 17588 4e2d A7000000 		.4byte	.LVL568-1
 17589 4e31 0100     		.2byte	0x1
 17590 4e33 53       		.byte	0x53
 17591 4e34 A7000000 		.4byte	.LVL568-1
 17592 4e38 BA000000 		.4byte	.LVL571
 17593 4e3c 0400     		.2byte	0x4
 17594 4e3e F3       		.byte	0xf3
 17595 4e3f 01       		.uleb128 0x1
 17596 4e40 53       		.byte	0x53
 17597 4e41 9F       		.byte	0x9f
 17598 4e42 BA000000 		.4byte	.LVL571
 17599 4e46 BD000000 		.4byte	.LVL572-1
 17600 4e4a 0100     		.2byte	0x1
 17601 4e4c 53       		.byte	0x53
 17602 4e4d BD000000 		.4byte	.LVL572-1
 17603 4e51 CC000000 		.4byte	.LVL574
 17604 4e55 0400     		.2byte	0x4
 17605 4e57 F3       		.byte	0xf3
 17606 4e58 01       		.uleb128 0x1
 17607 4e59 53       		.byte	0x53
 17608 4e5a 9F       		.byte	0x9f
 17609 4e5b CC000000 		.4byte	.LVL574
 17610 4e5f D1000000 		.4byte	.LVL576-1
 17611 4e63 0100     		.2byte	0x1
 17612 4e65 53       		.byte	0x53
 17613 4e66 D1000000 		.4byte	.LVL576-1
 17614 4e6a D8000000 		.4byte	.LVL577
 17615 4e6e 0400     		.2byte	0x4
 17616 4e70 F3       		.byte	0xf3
 17617 4e71 01       		.uleb128 0x1
 17618 4e72 53       		.byte	0x53
 17619 4e73 9F       		.byte	0x9f
 17620 4e74 D8000000 		.4byte	.LVL577
 17621 4e78 DD000000 		.4byte	.LVL579-1
 17622 4e7c 0100     		.2byte	0x1
 17623 4e7e 53       		.byte	0x53
 17624 4e7f DD000000 		.4byte	.LVL579-1
 17625 4e83 E4000000 		.4byte	.LVL580
 17626 4e87 0400     		.2byte	0x4
 17627 4e89 F3       		.byte	0xf3
 17628 4e8a 01       		.uleb128 0x1
 17629 4e8b 53       		.byte	0x53
 17630 4e8c 9F       		.byte	0x9f
ARM GAS  C:\Users\info\AppData\Local\Temp\ccQPGqkW.s 			page 339


 17631 4e8d E4000000 		.4byte	.LVL580
 17632 4e91 EB000000 		.4byte	.LVL582-1
 17633 4e95 0100     		.2byte	0x1
 17634 4e97 53       		.byte	0x53
 17635 4e98 EB000000 		.4byte	.LVL582-1
 17636 4e9c FA000000 		.4byte	.LVL583
 17637 4ea0 0400     		.2byte	0x4
 17638 4ea2 F3       		.byte	0xf3
 17639 4ea3 01       		.uleb128 0x1
 17640 4ea4 53       		.byte	0x53
 17641 4ea5 9F       		.byte	0x9f
 17642 4ea6 FA000000 		.4byte	.LVL583
 17643 4eaa FF000000 		.4byte	.LVL585-1
 17644 4eae 0100     		.2byte	0x1
 17645 4eb0 53       		.byte	0x53
 17646 4eb1 FF000000 		.4byte	.LVL585-1
 17647 4eb5 28010000 		.4byte	.LFE12
 17648 4eb9 0400     		.2byte	0x4
 17649 4ebb F3       		.byte	0xf3
 17650 4ebc 01       		.uleb128 0x1
 17651 4ebd 53       		.byte	0x53
 17652 4ebe 9F       		.byte	0x9f
 17653 4ebf 00000000 		.4byte	0
 17654 4ec3 00000000 		.4byte	0
 17655              	.LLST192:
 17656 4ec7 0A000000 		.4byte	.LVL542
 17657 4ecb 14000000 		.4byte	.LVL543
 17658 4ecf 0100     		.2byte	0x1
 17659 4ed1 53       		.byte	0x53
 17660 4ed2 26000000 		.4byte	.LVL545
 17661 4ed6 2F000000 		.4byte	.LVL547-1
 17662 4eda 0100     		.2byte	0x1
 17663 4edc 53       		.byte	0x53
 17664 4edd 2F000000 		.4byte	.LVL547-1
 17665 4ee1 30000000 		.4byte	.LVL547
 17666 4ee5 0400     		.2byte	0x4
 17667 4ee7 F3       		.byte	0xf3
 17668 4ee8 01       		.uleb128 0x1
 17669 4ee9 53       		.byte	0x53
 17670 4eea 9F       		.byte	0x9f
 17671 4eeb 36000000 		.4byte	.LVL548
 17672 4eef 3B000000 		.4byte	.LVL550-1
 17673 4ef3 0100     		.2byte	0x1
 17674 4ef5 53       		.byte	0x53
 17675 4ef6 3B000000 		.4byte	.LVL550-1
 17676 4efa 74000000 		.4byte	.LVL558
 17677 4efe 0100     		.2byte	0x1
 17678 4f00 57       		.byte	0x57
 17679 4f01 74000000 		.4byte	.LVL558
 17680 4f05 9E000000 		.4byte	.LVL566
 17681 4f09 0400     		.2byte	0x4
 17682 4f0b F3       		.byte	0xf3
 17683 4f0c 01       		.uleb128 0x1
 17684 4f0d 53       		.byte	0x53
 17685 4f0e 9F       		.byte	0x9f
 17686 4f0f A4000000 		.4byte	.LVL567
 17687 4f13 A7000000 		.4byte	.LVL568-1
ARM GAS  C:\Users\info\AppData\Local\Temp\ccQPGqkW.s 			page 340


 17688 4f17 0100     		.2byte	0x1
 17689 4f19 53       		.byte	0x53
 17690 4f1a A7000000 		.4byte	.LVL568-1
 17691 4f1e BA000000 		.4byte	.LVL571
 17692 4f22 0400     		.2byte	0x4
 17693 4f24 F3       		.byte	0xf3
 17694 4f25 01       		.uleb128 0x1
 17695 4f26 53       		.byte	0x53
 17696 4f27 9F       		.byte	0x9f
 17697 4f28 CC000000 		.4byte	.LVL574
 17698 4f2c D1000000 		.4byte	.LVL576-1
 17699 4f30 0100     		.2byte	0x1
 17700 4f32 53       		.byte	0x53
 17701 4f33 D1000000 		.4byte	.LVL576-1
 17702 4f37 D2000000 		.4byte	.LVL576
 17703 4f3b 0400     		.2byte	0x4
 17704 4f3d F3       		.byte	0xf3
 17705 4f3e 01       		.uleb128 0x1
 17706 4f3f 53       		.byte	0x53
 17707 4f40 9F       		.byte	0x9f
 17708 4f41 00000000 		.4byte	0
 17709 4f45 00000000 		.4byte	0
 17710              	.LLST193:
 17711 4f49 0A000000 		.4byte	.LVL542
 17712 4f4d 14000000 		.4byte	.LVL543
 17713 4f51 0100     		.2byte	0x1
 17714 4f53 52       		.byte	0x52
 17715 4f54 26000000 		.4byte	.LVL545
 17716 4f58 2F000000 		.4byte	.LVL547-1
 17717 4f5c 0100     		.2byte	0x1
 17718 4f5e 52       		.byte	0x52
 17719 4f5f 2F000000 		.4byte	.LVL547-1
 17720 4f63 30000000 		.4byte	.LVL547
 17721 4f67 0400     		.2byte	0x4
 17722 4f69 F3       		.byte	0xf3
 17723 4f6a 01       		.uleb128 0x1
 17724 4f6b 52       		.byte	0x52
 17725 4f6c 9F       		.byte	0x9f
 17726 4f6d 36000000 		.4byte	.LVL548
 17727 4f71 3B000000 		.4byte	.LVL550-1
 17728 4f75 0100     		.2byte	0x1
 17729 4f77 52       		.byte	0x52
 17730 4f78 3B000000 		.4byte	.LVL550-1
 17731 4f7c 9E000000 		.4byte	.LVL566
 17732 4f80 0400     		.2byte	0x4
 17733 4f82 F3       		.byte	0xf3
 17734 4f83 01       		.uleb128 0x1
 17735 4f84 52       		.byte	0x52
 17736 4f85 9F       		.byte	0x9f
 17737 4f86 A4000000 		.4byte	.LVL567
 17738 4f8a A7000000 		.4byte	.LVL568-1
 17739 4f8e 0100     		.2byte	0x1
 17740 4f90 52       		.byte	0x52
 17741 4f91 A7000000 		.4byte	.LVL568-1
 17742 4f95 BA000000 		.4byte	.LVL571
 17743 4f99 0400     		.2byte	0x4
 17744 4f9b F3       		.byte	0xf3
ARM GAS  C:\Users\info\AppData\Local\Temp\ccQPGqkW.s 			page 341


 17745 4f9c 01       		.uleb128 0x1
 17746 4f9d 52       		.byte	0x52
 17747 4f9e 9F       		.byte	0x9f
 17748 4f9f CC000000 		.4byte	.LVL574
 17749 4fa3 D1000000 		.4byte	.LVL576-1
 17750 4fa7 0100     		.2byte	0x1
 17751 4fa9 52       		.byte	0x52
 17752 4faa D1000000 		.4byte	.LVL576-1
 17753 4fae D2000000 		.4byte	.LVL576
 17754 4fb2 0400     		.2byte	0x4
 17755 4fb4 F3       		.byte	0xf3
 17756 4fb5 01       		.uleb128 0x1
 17757 4fb6 52       		.byte	0x52
 17758 4fb7 9F       		.byte	0x9f
 17759 4fb8 00000000 		.4byte	0
 17760 4fbc 00000000 		.4byte	0
 17761              	.LLST194:
 17762 4fc0 0A000000 		.4byte	.LVL542
 17763 4fc4 14000000 		.4byte	.LVL543
 17764 4fc8 0100     		.2byte	0x1
 17765 4fca 51       		.byte	0x51
 17766 4fcb 26000000 		.4byte	.LVL545
 17767 4fcf 2C000000 		.4byte	.LVL546
 17768 4fd3 0100     		.2byte	0x1
 17769 4fd5 51       		.byte	0x51
 17770 4fd6 2C000000 		.4byte	.LVL546
 17771 4fda 30000000 		.4byte	.LVL547
 17772 4fde 0400     		.2byte	0x4
 17773 4fe0 F3       		.byte	0xf3
 17774 4fe1 01       		.uleb128 0x1
 17775 4fe2 51       		.byte	0x51
 17776 4fe3 9F       		.byte	0x9f
 17777 4fe4 36000000 		.4byte	.LVL548
 17778 4fe8 3B000000 		.4byte	.LVL550-1
 17779 4fec 0100     		.2byte	0x1
 17780 4fee 51       		.byte	0x51
 17781 4fef 3B000000 		.4byte	.LVL550-1
 17782 4ff3 9E000000 		.4byte	.LVL566
 17783 4ff7 0400     		.2byte	0x4
 17784 4ff9 F3       		.byte	0xf3
 17785 4ffa 01       		.uleb128 0x1
 17786 4ffb 51       		.byte	0x51
 17787 4ffc 9F       		.byte	0x9f
 17788 4ffd A4000000 		.4byte	.LVL567
 17789 5001 A7000000 		.4byte	.LVL568-1
 17790 5005 0100     		.2byte	0x1
 17791 5007 51       		.byte	0x51
 17792 5008 A7000000 		.4byte	.LVL568-1
 17793 500c BA000000 		.4byte	.LVL571
 17794 5010 0400     		.2byte	0x4
 17795 5012 F3       		.byte	0xf3
 17796 5013 01       		.uleb128 0x1
 17797 5014 51       		.byte	0x51
 17798 5015 9F       		.byte	0x9f
 17799 5016 CC000000 		.4byte	.LVL574
 17800 501a CE000000 		.4byte	.LVL575
 17801 501e 0100     		.2byte	0x1
ARM GAS  C:\Users\info\AppData\Local\Temp\ccQPGqkW.s 			page 342


 17802 5020 51       		.byte	0x51
 17803 5021 CE000000 		.4byte	.LVL575
 17804 5025 D2000000 		.4byte	.LVL576
 17805 5029 0400     		.2byte	0x4
 17806 502b F3       		.byte	0xf3
 17807 502c 01       		.uleb128 0x1
 17808 502d 51       		.byte	0x51
 17809 502e 9F       		.byte	0x9f
 17810 502f 00000000 		.4byte	0
 17811 5033 00000000 		.4byte	0
 17812              	.LLST195:
 17813 5037 0A000000 		.4byte	.LVL542
 17814 503b 14000000 		.4byte	.LVL543
 17815 503f 0100     		.2byte	0x1
 17816 5041 50       		.byte	0x50
 17817 5042 26000000 		.4byte	.LVL545
 17818 5046 2F000000 		.4byte	.LVL547-1
 17819 504a 0100     		.2byte	0x1
 17820 504c 50       		.byte	0x50
 17821 504d 2F000000 		.4byte	.LVL547-1
 17822 5051 30000000 		.4byte	.LVL547
 17823 5055 0100     		.2byte	0x1
 17824 5057 55       		.byte	0x55
 17825 5058 36000000 		.4byte	.LVL548
 17826 505c 3B000000 		.4byte	.LVL550-1
 17827 5060 0100     		.2byte	0x1
 17828 5062 50       		.byte	0x50
 17829 5063 3B000000 		.4byte	.LVL550-1
 17830 5067 9E000000 		.4byte	.LVL566
 17831 506b 0100     		.2byte	0x1
 17832 506d 55       		.byte	0x55
 17833 506e A4000000 		.4byte	.LVL567
 17834 5072 A7000000 		.4byte	.LVL568-1
 17835 5076 0100     		.2byte	0x1
 17836 5078 50       		.byte	0x50
 17837 5079 A7000000 		.4byte	.LVL568-1
 17838 507d BA000000 		.4byte	.LVL571
 17839 5081 0100     		.2byte	0x1
 17840 5083 55       		.byte	0x55
 17841 5084 CC000000 		.4byte	.LVL574
 17842 5088 D1000000 		.4byte	.LVL576-1
 17843 508c 0100     		.2byte	0x1
 17844 508e 50       		.byte	0x50
 17845 508f D1000000 		.4byte	.LVL576-1
 17846 5093 D2000000 		.4byte	.LVL576
 17847 5097 0100     		.2byte	0x1
 17848 5099 55       		.byte	0x55
 17849 509a 00000000 		.4byte	0
 17850 509e 00000000 		.4byte	0
 17851              	.LLST196:
 17852 50a2 38000000 		.4byte	.LVL549
 17853 50a6 98000000 		.4byte	.LVL565
 17854 50aa 0200     		.2byte	0x2
 17855 50ac 3F       		.byte	0x3f
 17856 50ad 9F       		.byte	0x9f
 17857 50ae 00000000 		.4byte	0
 17858 50b2 00000000 		.4byte	0
ARM GAS  C:\Users\info\AppData\Local\Temp\ccQPGqkW.s 			page 343


 17859              	.LLST197:
 17860 50b6 38000000 		.4byte	.LVL549
 17861 50ba 74000000 		.4byte	.LVL558
 17862 50be 0100     		.2byte	0x1
 17863 50c0 57       		.byte	0x57
 17864 50c1 74000000 		.4byte	.LVL558
 17865 50c5 98000000 		.4byte	.LVL565
 17866 50c9 0400     		.2byte	0x4
 17867 50cb F3       		.byte	0xf3
 17868 50cc 01       		.uleb128 0x1
 17869 50cd 53       		.byte	0x53
 17870 50ce 9F       		.byte	0x9f
 17871 50cf 00000000 		.4byte	0
 17872 50d3 00000000 		.4byte	0
 17873              	.LLST198:
 17874 50d7 36000000 		.4byte	.LVL548
 17875 50db 92000000 		.4byte	.LVL564
 17876 50df 0100     		.2byte	0x1
 17877 50e1 54       		.byte	0x54
 17878 50e2 92000000 		.4byte	.LVL564
 17879 50e6 98000000 		.4byte	.LVL565
 17880 50ea 0100     		.2byte	0x1
 17881 50ec 52       		.byte	0x52
 17882 50ed 00000000 		.4byte	0
 17883 50f1 00000000 		.4byte	0
 17884              	.LLST199:
 17885 50f5 36000000 		.4byte	.LVL548
 17886 50f9 3B000000 		.4byte	.LVL550-1
 17887 50fd 0100     		.2byte	0x1
 17888 50ff 50       		.byte	0x50
 17889 5100 3B000000 		.4byte	.LVL550-1
 17890 5104 98000000 		.4byte	.LVL565
 17891 5108 0100     		.2byte	0x1
 17892 510a 55       		.byte	0x55
 17893 510b 00000000 		.4byte	0
 17894 510f 00000000 		.4byte	0
 17895              	.LLST200:
 17896 5113 44000000 		.4byte	.LVL551
 17897 5117 4A000000 		.4byte	.LVL552
 17898 511b 0800     		.2byte	0x8
 17899 511d 78       		.byte	0x78
 17900 511e 00       		.sleb128 0
 17901 511f 33       		.byte	0x33
 17902 5120 24       		.byte	0x24
 17903 5121 08       		.byte	0x8
 17904 5122 F8       		.byte	0xf8
 17905 5123 1A       		.byte	0x1a
 17906 5124 9F       		.byte	0x9f
 17907 5125 4A000000 		.4byte	.LVL552
 17908 5129 4E000000 		.4byte	.LVL553
 17909 512d 0D00     		.2byte	0xd
 17910 512f 77       		.byte	0x77
 17911 5130 05       		.sleb128 5
 17912 5131 94       		.byte	0x94
 17913 5132 01       		.byte	0x1
 17914 5133 08       		.byte	0x8
 17915 5134 FF       		.byte	0xff
ARM GAS  C:\Users\info\AppData\Local\Temp\ccQPGqkW.s 			page 344


 17916 5135 1A       		.byte	0x1a
 17917 5136 33       		.byte	0x33
 17918 5137 24       		.byte	0x24
 17919 5138 08       		.byte	0x8
 17920 5139 F8       		.byte	0xf8
 17921 513a 1A       		.byte	0x1a
 17922 513b 9F       		.byte	0x9f
 17923 513c 4E000000 		.4byte	.LVL553
 17924 5140 98000000 		.4byte	.LVL565
 17925 5144 0100     		.2byte	0x1
 17926 5146 58       		.byte	0x58
 17927 5147 00000000 		.4byte	0
 17928 514b 00000000 		.4byte	0
 17929              	.LLST201:
 17930 514f 72000000 		.4byte	.LVL557
 17931 5153 76000000 		.4byte	.LVL559
 17932 5157 0100     		.2byte	0x1
 17933 5159 56       		.byte	0x56
 17934 515a 76000000 		.4byte	.LVL559
 17935 515e 78000000 		.4byte	.LVL560
 17936 5162 0500     		.2byte	0x5
 17937 5164 F3       		.byte	0xf3
 17938 5165 01       		.uleb128 0x1
 17939 5166 53       		.byte	0x53
 17940 5167 23       		.byte	0x23
 17941 5168 04       		.uleb128 0x4
 17942 5169 78000000 		.4byte	.LVL560
 17943 516d 7E000000 		.4byte	.LVL561
 17944 5171 0100     		.2byte	0x1
 17945 5173 56       		.byte	0x56
 17946 5174 7E000000 		.4byte	.LVL561
 17947 5178 86000000 		.4byte	.LVL562
 17948 517c 0300     		.2byte	0x3
 17949 517e 09       		.byte	0x9
 17950 517f 84       		.byte	0x84
 17951 5180 9F       		.byte	0x9f
 17952 5181 86000000 		.4byte	.LVL562
 17953 5185 98000000 		.4byte	.LVL565
 17954 5189 0100     		.2byte	0x1
 17955 518b 56       		.byte	0x56
 17956 518c 00000000 		.4byte	0
 17957 5190 00000000 		.4byte	0
 17958              	.LLST202:
 17959 5194 78000000 		.4byte	.LVL560
 17960 5198 98000000 		.4byte	.LVL565
 17961 519c 0100     		.2byte	0x1
 17962 519e 57       		.byte	0x57
 17963 519f 00000000 		.4byte	0
 17964 51a3 00000000 		.4byte	0
 17965              		.section	.debug_aranges,"",%progbits
 17966 0000 7C000000 		.4byte	0x7c
 17967 0004 0200     		.2byte	0x2
 17968 0006 00000000 		.4byte	.Ldebug_info0
 17969 000a 04       		.byte	0x4
 17970 000b 00       		.byte	0
 17971 000c 0000     		.2byte	0
 17972 000e 0000     		.2byte	0
ARM GAS  C:\Users\info\AppData\Local\Temp\ccQPGqkW.s 			page 345


 17973 0010 00000000 		.4byte	.LFB0
 17974 0014 CC000000 		.4byte	.LFE0-.LFB0
 17975 0018 00000000 		.4byte	.LFB1
 17976 001c 28010000 		.4byte	.LFE1-.LFB1
 17977 0020 00000000 		.4byte	.LFB2
 17978 0024 28010000 		.4byte	.LFE2-.LFB2
 17979 0028 00000000 		.4byte	.LFB3
 17980 002c 28010000 		.4byte	.LFE3-.LFB3
 17981 0030 00000000 		.4byte	.LFB4
 17982 0034 28010000 		.4byte	.LFE4-.LFB4
 17983 0038 00000000 		.4byte	.LFB5
 17984 003c 28010000 		.4byte	.LFE5-.LFB5
 17985 0040 00000000 		.4byte	.LFB6
 17986 0044 28010000 		.4byte	.LFE6-.LFB6
 17987 0048 00000000 		.4byte	.LFB7
 17988 004c 28010000 		.4byte	.LFE7-.LFB7
 17989 0050 00000000 		.4byte	.LFB8
 17990 0054 28010000 		.4byte	.LFE8-.LFB8
 17991 0058 00000000 		.4byte	.LFB9
 17992 005c 28010000 		.4byte	.LFE9-.LFB9
 17993 0060 00000000 		.4byte	.LFB10
 17994 0064 28010000 		.4byte	.LFE10-.LFB10
 17995 0068 00000000 		.4byte	.LFB11
 17996 006c 28010000 		.4byte	.LFE11-.LFB11
 17997 0070 00000000 		.4byte	.LFB12
 17998 0074 28010000 		.4byte	.LFE12-.LFB12
 17999 0078 00000000 		.4byte	0
 18000 007c 00000000 		.4byte	0
 18001              		.section	.debug_ranges,"",%progbits
 18002              	.Ldebug_ranges0:
 18003 0000 00000000 		.4byte	.LBB10
 18004 0004 02000000 		.4byte	.LBE10
 18005 0008 0A000000 		.4byte	.LBB19
 18006 000c 14000000 		.4byte	.LBE19
 18007 0010 26000000 		.4byte	.LBB20
 18008 0014 30000000 		.4byte	.LBE20
 18009 0018 38000000 		.4byte	.LBB21
 18010 001c 9E000000 		.4byte	.LBE21
 18011 0020 A4000000 		.4byte	.LBB22
 18012 0024 BA000000 		.4byte	.LBE22
 18013 0028 CC000000 		.4byte	.LBB23
 18014 002c D2000000 		.4byte	.LBE23
 18015 0030 00000000 		.4byte	0
 18016 0034 00000000 		.4byte	0
 18017 0038 00000000 		.4byte	.LBB28
 18018 003c 02000000 		.4byte	.LBE28
 18019 0040 0A000000 		.4byte	.LBB37
 18020 0044 14000000 		.4byte	.LBE37
 18021 0048 26000000 		.4byte	.LBB38
 18022 004c 30000000 		.4byte	.LBE38
 18023 0050 38000000 		.4byte	.LBB39
 18024 0054 9E000000 		.4byte	.LBE39
 18025 0058 A4000000 		.4byte	.LBB40
 18026 005c BA000000 		.4byte	.LBE40
 18027 0060 CC000000 		.4byte	.LBB41
 18028 0064 D2000000 		.4byte	.LBE41
 18029 0068 00000000 		.4byte	0
ARM GAS  C:\Users\info\AppData\Local\Temp\ccQPGqkW.s 			page 346


 18030 006c 00000000 		.4byte	0
 18031 0070 00000000 		.4byte	.LBB46
 18032 0074 02000000 		.4byte	.LBE46
 18033 0078 0A000000 		.4byte	.LBB55
 18034 007c 14000000 		.4byte	.LBE55
 18035 0080 26000000 		.4byte	.LBB56
 18036 0084 30000000 		.4byte	.LBE56
 18037 0088 38000000 		.4byte	.LBB57
 18038 008c 9E000000 		.4byte	.LBE57
 18039 0090 A4000000 		.4byte	.LBB58
 18040 0094 BA000000 		.4byte	.LBE58
 18041 0098 CC000000 		.4byte	.LBB59
 18042 009c D2000000 		.4byte	.LBE59
 18043 00a0 00000000 		.4byte	0
 18044 00a4 00000000 		.4byte	0
 18045 00a8 00000000 		.4byte	.LBB64
 18046 00ac 02000000 		.4byte	.LBE64
 18047 00b0 0A000000 		.4byte	.LBB73
 18048 00b4 14000000 		.4byte	.LBE73
 18049 00b8 26000000 		.4byte	.LBB74
 18050 00bc 30000000 		.4byte	.LBE74
 18051 00c0 38000000 		.4byte	.LBB75
 18052 00c4 9E000000 		.4byte	.LBE75
 18053 00c8 A4000000 		.4byte	.LBB76
 18054 00cc BA000000 		.4byte	.LBE76
 18055 00d0 CC000000 		.4byte	.LBB77
 18056 00d4 D2000000 		.4byte	.LBE77
 18057 00d8 00000000 		.4byte	0
 18058 00dc 00000000 		.4byte	0
 18059 00e0 00000000 		.4byte	.LBB84
 18060 00e4 02000000 		.4byte	.LBE84
 18061 00e8 0A000000 		.4byte	.LBB93
 18062 00ec 14000000 		.4byte	.LBE93
 18063 00f0 26000000 		.4byte	.LBB94
 18064 00f4 30000000 		.4byte	.LBE94
 18065 00f8 38000000 		.4byte	.LBB95
 18066 00fc 9E000000 		.4byte	.LBE95
 18067 0100 A4000000 		.4byte	.LBB96
 18068 0104 BA000000 		.4byte	.LBE96
 18069 0108 CC000000 		.4byte	.LBB97
 18070 010c D2000000 		.4byte	.LBE97
 18071 0110 00000000 		.4byte	0
 18072 0114 00000000 		.4byte	0
 18073 0118 00000000 		.4byte	.LBB108
 18074 011c 02000000 		.4byte	.LBE108
 18075 0120 0A000000 		.4byte	.LBB130
 18076 0124 32000000 		.4byte	.LBE130
 18077 0128 38000000 		.4byte	.LBB131
 18078 012c A0000000 		.4byte	.LBE131
 18079 0130 A4000000 		.4byte	.LBB132
 18080 0134 D4000000 		.4byte	.LBE132
 18081 0138 D8000000 		.4byte	.LBB133
 18082 013c 28010000 		.4byte	.LBE133
 18083 0140 00000000 		.4byte	0
 18084 0144 00000000 		.4byte	0
 18085 0148 00000000 		.4byte	.LBB110
 18086 014c 02000000 		.4byte	.LBE110
ARM GAS  C:\Users\info\AppData\Local\Temp\ccQPGqkW.s 			page 347


 18087 0150 0A000000 		.4byte	.LBB119
 18088 0154 14000000 		.4byte	.LBE119
 18089 0158 26000000 		.4byte	.LBB120
 18090 015c 30000000 		.4byte	.LBE120
 18091 0160 38000000 		.4byte	.LBB121
 18092 0164 9E000000 		.4byte	.LBE121
 18093 0168 A4000000 		.4byte	.LBB122
 18094 016c BA000000 		.4byte	.LBE122
 18095 0170 CC000000 		.4byte	.LBB123
 18096 0174 D2000000 		.4byte	.LBE123
 18097 0178 00000000 		.4byte	0
 18098 017c 00000000 		.4byte	0
 18099 0180 00000000 		.4byte	.LBB138
 18100 0184 02000000 		.4byte	.LBE138
 18101 0188 0A000000 		.4byte	.LBB147
 18102 018c 14000000 		.4byte	.LBE147
 18103 0190 26000000 		.4byte	.LBB148
 18104 0194 30000000 		.4byte	.LBE148
 18105 0198 38000000 		.4byte	.LBB149
 18106 019c 9E000000 		.4byte	.LBE149
 18107 01a0 A4000000 		.4byte	.LBB150
 18108 01a4 BA000000 		.4byte	.LBE150
 18109 01a8 CC000000 		.4byte	.LBB151
 18110 01ac D2000000 		.4byte	.LBE151
 18111 01b0 00000000 		.4byte	0
 18112 01b4 00000000 		.4byte	0
 18113 01b8 00000000 		.4byte	.LBB156
 18114 01bc 02000000 		.4byte	.LBE156
 18115 01c0 0A000000 		.4byte	.LBB165
 18116 01c4 14000000 		.4byte	.LBE165
 18117 01c8 26000000 		.4byte	.LBB166
 18118 01cc 30000000 		.4byte	.LBE166
 18119 01d0 38000000 		.4byte	.LBB167
 18120 01d4 9E000000 		.4byte	.LBE167
 18121 01d8 A4000000 		.4byte	.LBB168
 18122 01dc BA000000 		.4byte	.LBE168
 18123 01e0 CC000000 		.4byte	.LBB169
 18124 01e4 D2000000 		.4byte	.LBE169
 18125 01e8 00000000 		.4byte	0
 18126 01ec 00000000 		.4byte	0
 18127 01f0 00000000 		.4byte	.LBB174
 18128 01f4 02000000 		.4byte	.LBE174
 18129 01f8 0A000000 		.4byte	.LBB183
 18130 01fc 14000000 		.4byte	.LBE183
 18131 0200 26000000 		.4byte	.LBB184
 18132 0204 30000000 		.4byte	.LBE184
 18133 0208 38000000 		.4byte	.LBB185
 18134 020c 9E000000 		.4byte	.LBE185
 18135 0210 A4000000 		.4byte	.LBB186
 18136 0214 BA000000 		.4byte	.LBE186
 18137 0218 CC000000 		.4byte	.LBB187
 18138 021c D2000000 		.4byte	.LBE187
 18139 0220 00000000 		.4byte	0
 18140 0224 00000000 		.4byte	0
 18141 0228 00000000 		.4byte	.LBB192
 18142 022c 02000000 		.4byte	.LBE192
 18143 0230 0A000000 		.4byte	.LBB201
ARM GAS  C:\Users\info\AppData\Local\Temp\ccQPGqkW.s 			page 348


 18144 0234 14000000 		.4byte	.LBE201
 18145 0238 26000000 		.4byte	.LBB202
 18146 023c 30000000 		.4byte	.LBE202
 18147 0240 38000000 		.4byte	.LBB203
 18148 0244 9E000000 		.4byte	.LBE203
 18149 0248 A4000000 		.4byte	.LBB204
 18150 024c BA000000 		.4byte	.LBE204
 18151 0250 CC000000 		.4byte	.LBB205
 18152 0254 D2000000 		.4byte	.LBE205
 18153 0258 00000000 		.4byte	0
 18154 025c 00000000 		.4byte	0
 18155 0260 00000000 		.4byte	.LBB210
 18156 0264 02000000 		.4byte	.LBE210
 18157 0268 0A000000 		.4byte	.LBB219
 18158 026c 14000000 		.4byte	.LBE219
 18159 0270 26000000 		.4byte	.LBB220
 18160 0274 30000000 		.4byte	.LBE220
 18161 0278 38000000 		.4byte	.LBB221
 18162 027c 9E000000 		.4byte	.LBE221
 18163 0280 A4000000 		.4byte	.LBB222
 18164 0284 BA000000 		.4byte	.LBE222
 18165 0288 CC000000 		.4byte	.LBB223
 18166 028c D2000000 		.4byte	.LBE223
 18167 0290 00000000 		.4byte	0
 18168 0294 00000000 		.4byte	0
 18169 0298 00000000 		.4byte	.LBB228
 18170 029c 02000000 		.4byte	.LBE228
 18171 02a0 0A000000 		.4byte	.LBB237
 18172 02a4 14000000 		.4byte	.LBE237
 18173 02a8 26000000 		.4byte	.LBB238
 18174 02ac 30000000 		.4byte	.LBE238
 18175 02b0 38000000 		.4byte	.LBB239
 18176 02b4 9E000000 		.4byte	.LBE239
 18177 02b8 A4000000 		.4byte	.LBB240
 18178 02bc BA000000 		.4byte	.LBE240
 18179 02c0 CC000000 		.4byte	.LBB241
 18180 02c4 D2000000 		.4byte	.LBE241
 18181 02c8 00000000 		.4byte	0
 18182 02cc 00000000 		.4byte	0
 18183 02d0 00000000 		.4byte	.LFB0
 18184 02d4 CC000000 		.4byte	.LFE0
 18185 02d8 00000000 		.4byte	.LFB1
 18186 02dc 28010000 		.4byte	.LFE1
 18187 02e0 00000000 		.4byte	.LFB2
 18188 02e4 28010000 		.4byte	.LFE2
 18189 02e8 00000000 		.4byte	.LFB3
 18190 02ec 28010000 		.4byte	.LFE3
 18191 02f0 00000000 		.4byte	.LFB4
 18192 02f4 28010000 		.4byte	.LFE4
 18193 02f8 00000000 		.4byte	.LFB5
 18194 02fc 28010000 		.4byte	.LFE5
 18195 0300 00000000 		.4byte	.LFB6
 18196 0304 28010000 		.4byte	.LFE6
 18197 0308 00000000 		.4byte	.LFB7
 18198 030c 28010000 		.4byte	.LFE7
 18199 0310 00000000 		.4byte	.LFB8
 18200 0314 28010000 		.4byte	.LFE8
ARM GAS  C:\Users\info\AppData\Local\Temp\ccQPGqkW.s 			page 349


 18201 0318 00000000 		.4byte	.LFB9
 18202 031c 28010000 		.4byte	.LFE9
 18203 0320 00000000 		.4byte	.LFB10
 18204 0324 28010000 		.4byte	.LFE10
 18205 0328 00000000 		.4byte	.LFB11
 18206 032c 28010000 		.4byte	.LFE11
 18207 0330 00000000 		.4byte	.LFB12
 18208 0334 28010000 		.4byte	.LFE12
 18209 0338 00000000 		.4byte	0
 18210 033c 00000000 		.4byte	0
 18211              		.section	.debug_line,"",%progbits
 18212              	.Ldebug_line0:
 18213 0000 32070000 		.section	.debug_str,"MS",%progbits,1
 18213      02004101 
 18213      00000201 
 18213      FB0E0D00 
 18213      01010101 
 18214              	.LASF74:
 18215 0000 75387838 		.ascii	"u8x8_d_st7565_nhd_c12832\000"
 18215      5F645F73 
 18215      74373536 
 18215      355F6E68 
 18215      645F6331 
 18216              	.LASF44:
 18217 0019 72657365 		.ascii	"reset_pulse_width_ms\000"
 18217      745F7075 
 18217      6C73655F 
 18217      77696474 
 18217      685F6D73 
 18218              	.LASF3:
 18219 002e 5F5F7569 		.ascii	"__uint8_t\000"
 18219      6E74385F 
 18219      7400
 18220              	.LASF21:
 18221 0038 62797465 		.ascii	"byte_cb\000"
 18221      5F636200 
 18222              	.LASF60:
 18223 0040 75387838 		.ascii	"u8x8_tile_struct\000"
 18223      5F74696C 
 18223      655F7374 
 18223      72756374 
 18223      00
 18224              	.LASF10:
 18225 0051 6C6F6E67 		.ascii	"long long unsigned int\000"
 18225      206C6F6E 
 18225      6720756E 
 18225      7369676E 
 18225      65642069 
 18226              	.LASF72:
 18227 0068 75387838 		.ascii	"u8x8_d_st7565_64128n\000"
 18227      5F645F73 
 18227      74373536 
 18227      355F3634 
 18227      3132386E 
 18228              	.LASF103:
 18229 007d 75387838 		.ascii	"u8x8_st7565_erc12864_display_info\000"
 18229      5F737437 
ARM GAS  C:\Users\info\AppData\Local\Temp\ccQPGqkW.s 			page 350


 18229      3536355F 
 18229      65726331 
 18229      32383634 
 18230              	.LASF45:
 18231 009f 706F7374 		.ascii	"post_reset_wait_ms\000"
 18231      5F726573 
 18231      65745F77 
 18231      6169745F 
 18231      6D7300
 18232              	.LASF31:
 18233 00b2 75746638 		.ascii	"utf8_state\000"
 18233      5F737461 
 18233      746500
 18234              	.LASF86:
 18235 00bd 75387838 		.ascii	"u8x8_d_st7565_flip1_seq\000"
 18235      5F645F73 
 18235      74373536 
 18235      355F666C 
 18235      6970315F 
 18236              	.LASF32:
 18237 00d5 6770696F 		.ascii	"gpio_result\000"
 18237      5F726573 
 18237      756C7400 
 18238              	.LASF9:
 18239 00e1 6C6F6E67 		.ascii	"long long int\000"
 18239      206C6F6E 
 18239      6720696E 
 18239      7400
 18240              	.LASF0:
 18241 00ef 7369676E 		.ascii	"signed char\000"
 18241      65642063 
 18241      68617200 
 18242              	.LASF27:
 18243 00fb 69735F66 		.ascii	"is_font_inverse_mode\000"
 18243      6F6E745F 
 18243      696E7665 
 18243      7273655F 
 18243      6D6F6465 
 18244              	.LASF19:
 18245 0110 64697370 		.ascii	"display_cb\000"
 18245      6C61795F 
 18245      636200
 18246              	.LASF99:
 18247 011b 75387838 		.ascii	"u8x8_st7565_lm6059_display_info\000"
 18247      5F737437 
 18247      3536355F 
 18247      6C6D3630 
 18247      35395F64 
 18248              	.LASF43:
 18249 013b 7072655F 		.ascii	"pre_chip_disable_wait_ns\000"
 18249      63686970 
 18249      5F646973 
 18249      61626C65 
 18249      5F776169 
 18250              	.LASF69:
 18251 0154 75387838 		.ascii	"u8x8_d_st7565_common\000"
 18251      5F645F73 
ARM GAS  C:\Users\info\AppData\Local\Temp\ccQPGqkW.s 			page 351


 18251      74373536 
 18251      355F636F 
 18251      6D6D6F6E 
 18252              	.LASF84:
 18253 0169 75387838 		.ascii	"u8x8_d_st7565_powersave1_seq\000"
 18253      5F645F73 
 18253      74373536 
 18253      355F706F 
 18253      77657273 
 18254              	.LASF6:
 18255 0186 6C6F6E67 		.ascii	"long int\000"
 18255      20696E74 
 18255      00
 18256              	.LASF111:
 18257 018f 75387838 		.ascii	"u8x8_cad_SendSequence\000"
 18257      5F636164 
 18257      5F53656E 
 18257      64536571 
 18257      75656E63 
 18258              	.LASF13:
 18259 01a5 75696E74 		.ascii	"uint16_t\000"
 18259      31365F74 
 18259      00
 18260              	.LASF18:
 18261 01ae 6E657874 		.ascii	"next_cb\000"
 18261      5F636200 
 18262              	.LASF65:
 18263 01b6 75387838 		.ascii	"u8x8_char_cb\000"
 18263      5F636861 
 18263      725F6362 
 18263      00
 18264              	.LASF22:
 18265 01c3 6770696F 		.ascii	"gpio_and_delay_cb\000"
 18265      5F616E64 
 18265      5F64656C 
 18265      61795F63 
 18265      6200
 18266              	.LASF104:
 18267 01d5 75387838 		.ascii	"u8x8_d_st7565_erc12864_alt_init_seq\000"
 18267      5F645F73 
 18267      74373536 
 18267      355F6572 
 18267      63313238 
 18268              	.LASF76:
 18269 01f9 75387838 		.ascii	"u8x8_d_st7565_lm6059\000"
 18269      5F645F73 
 18269      74373536 
 18269      355F6C6D 
 18269      36303539 
 18270              	.LASF37:
 18271 020e 75387838 		.ascii	"u8x8_display_info_t\000"
 18271      5F646973 
 18271      706C6179 
 18271      5F696E66 
 18271      6F5F7400 
 18272              	.LASF7:
 18273 0222 5F5F7569 		.ascii	"__uint32_t\000"
ARM GAS  C:\Users\info\AppData\Local\Temp\ccQPGqkW.s 			page 352


 18273      6E743332 
 18273      5F7400
 18274              	.LASF71:
 18275 022d 75387838 		.ascii	"u8x8_d_st7565_ea_dogm128\000"
 18275      5F645F73 
 18275      74373536 
 18275      355F6561 
 18275      5F646F67 
 18276              	.LASF46:
 18277 0246 7364615F 		.ascii	"sda_setup_time_ns\000"
 18277      73657475 
 18277      705F7469 
 18277      6D655F6E 
 18277      7300
 18278              	.LASF115:
 18279 0258 75387838 		.ascii	"u8x8_d_helper_display_setup_memory\000"
 18279      5F645F68 
 18279      656C7065 
 18279      725F6469 
 18279      73706C61 
 18280              	.LASF62:
 18281 027b 785F706F 		.ascii	"x_pos\000"
 18281      7300
 18282              	.LASF59:
 18283 0281 75387838 		.ascii	"u8x8_tile_t\000"
 18283      5F74696C 
 18283      655F7400 
 18284              	.LASF36:
 18285 028d 6465626F 		.ascii	"debounce_result_msg\000"
 18285      756E6365 
 18285      5F726573 
 18285      756C745F 
 18285      6D736700 
 18286              	.LASF11:
 18287 02a1 756E7369 		.ascii	"unsigned int\000"
 18287      676E6564 
 18287      20696E74 
 18287      00
 18288              	.LASF67:
 18289 02ae 6172675F 		.ascii	"arg_int\000"
 18289      696E7400 
 18290              	.LASF28:
 18291 02b6 6932635F 		.ascii	"i2c_address\000"
 18291      61646472 
 18291      65737300 
 18292              	.LASF8:
 18293 02c2 6C6F6E67 		.ascii	"long unsigned int\000"
 18293      20756E73 
 18293      69676E65 
 18293      6420696E 
 18293      7400
 18294              	.LASF93:
 18295 02d4 75387838 		.ascii	"u8x8_d_st7565_zolen_128x64_init_seq\000"
 18295      5F645F73 
 18295      74373536 
 18295      355F7A6F 
 18295      6C656E5F 
ARM GAS  C:\Users\info\AppData\Local\Temp\ccQPGqkW.s 			page 353


 18296              	.LASF88:
 18297 02f8 75387838 		.ascii	"u8x8_d_st7565_zflip1_seq\000"
 18297      5F645F73 
 18297      74373536 
 18297      355F7A66 
 18297      6C697031 
 18298              	.LASF107:
 18299 0311 75387838 		.ascii	"u8x8_d_st7565_dogm132_init_seq\000"
 18299      5F645F73 
 18299      74373536 
 18299      355F646F 
 18299      676D3133 
 18300              	.LASF89:
 18301 0330 75387838 		.ascii	"u8x8_st7565_128x64_display_info\000"
 18301      5F737437 
 18301      3536355F 
 18301      31323878 
 18301      36345F64 
 18302              	.LASF91:
 18303 0350 75387838 		.ascii	"u8x8_d_st7565_64128n_init_seq\000"
 18303      5F645F73 
 18303      74373536 
 18303      355F3634 
 18303      3132386E 
 18304              	.LASF110:
 18305 036e 75387838 		.ascii	"u8x8_cad_SendData\000"
 18305      5F636164 
 18305      5F53656E 
 18305      64446174 
 18305      6100
 18306              	.LASF5:
 18307 0380 73686F72 		.ascii	"short unsigned int\000"
 18307      7420756E 
 18307      7369676E 
 18307      65642069 
 18307      6E7400
 18308              	.LASF70:
 18309 0393 75387838 		.ascii	"u8x8_d_st7565_nhd_c12864\000"
 18309      5F645F73 
 18309      74373536 
 18309      355F6E68 
 18309      645F6331 
 18310              	.LASF81:
 18311 03ac 75387838 		.ascii	"u8x8_d_st7565_ea_dogm132\000"
 18311      5F645F73 
 18311      74373536 
 18311      355F6561 
 18311      5F646F67 
 18312              	.LASF96:
 18313 03c5 75387838 		.ascii	"u8x8_st7565_nhd_c12864_display_info\000"
 18313      5F737437 
 18313      3536355F 
 18313      6E68645F 
 18313      63313238 
 18314              	.LASF34:
 18315 03e9 6465626F 		.ascii	"debounce_last_pin_state\000"
 18315      756E6365 
ARM GAS  C:\Users\info\AppData\Local\Temp\ccQPGqkW.s 			page 354


 18315      5F6C6173 
 18315      745F7069 
 18315      6E5F7374 
 18316              	.LASF17:
 18317 0401 64697370 		.ascii	"display_info\000"
 18317      6C61795F 
 18317      696E666F 
 18317      00
 18318              	.LASF47:
 18319 040e 73636B5F 		.ascii	"sck_pulse_width_ns\000"
 18319      70756C73 
 18319      655F7769 
 18319      6474685F 
 18319      6E7300
 18320              	.LASF38:
 18321 0421 75387838 		.ascii	"u8x8_struct\000"
 18321      5F737472 
 18321      75637400 
 18322              	.LASF83:
 18323 042d 75387838 		.ascii	"u8x8_d_st7565_powersave0_seq\000"
 18323      5F645F73 
 18323      74373536 
 18323      355F706F 
 18323      77657273 
 18324              	.LASF55:
 18325 044a 64656661 		.ascii	"default_x_offset\000"
 18325      756C745F 
 18325      785F6F66 
 18325      66736574 
 18325      00
 18326              	.LASF25:
 18327 045b 656E636F 		.ascii	"encoding\000"
 18327      64696E67 
 18327      00
 18328              	.LASF56:
 18329 0464 666C6970 		.ascii	"flipmode_x_offset\000"
 18329      6D6F6465 
 18329      5F785F6F 
 18329      66667365 
 18329      7400
 18330              	.LASF85:
 18331 0476 75387838 		.ascii	"u8x8_d_st7565_flip0_seq\000"
 18331      5F645F73 
 18331      74373536 
 18331      355F666C 
 18331      6970305F 
 18332              	.LASF82:
 18333 048e 73697A65 		.ascii	"sizetype\000"
 18333      74797065 
 18333      00
 18334              	.LASF15:
 18335 0497 6C6F6E67 		.ascii	"long double\000"
 18335      20646F75 
 18335      626C6500 
 18336              	.LASF20:
 18337 04a3 6361645F 		.ascii	"cad_cb\000"
 18337      636200
ARM GAS  C:\Users\info\AppData\Local\Temp\ccQPGqkW.s 			page 355


 18338              	.LASF52:
 18339 04aa 77726974 		.ascii	"write_pulse_width_ns\000"
 18339      655F7075 
 18339      6C73655F 
 18339      77696474 
 18339      685F6E73 
 18340              	.LASF30:
 18341 04bf 64657669 		.ascii	"device_address\000"
 18341      63655F61 
 18341      64647265 
 18341      737300
 18342              	.LASF98:
 18343 04ce 75387838 		.ascii	"u8x8_d_st7565_lm6059_init_seq\000"
 18343      5F645F73 
 18343      74373536 
 18343      355F6C6D 
 18343      36303539 
 18344              	.LASF26:
 18345 04ec 785F6F66 		.ascii	"x_offset\000"
 18345      66736574 
 18345      00
 18346              	.LASF114:
 18347 04f5 75387838 		.ascii	"u8x8_d_helper_display_init\000"
 18347      5F645F68 
 18347      656C7065 
 18347      725F6469 
 18347      73706C61 
 18348              	.LASF97:
 18349 0510 75387838 		.ascii	"u8x8_d_st7565_nhd_c12864_init_seq\000"
 18349      5F645F73 
 18349      74373536 
 18349      355F6E68 
 18349      645F6331 
 18350              	.LASF54:
 18351 0532 74696C65 		.ascii	"tile_height\000"
 18351      5F686569 
 18351      67687400 
 18352              	.LASF64:
 18353 053e 75387838 		.ascii	"u8x8_msg_cb\000"
 18353      5F6D7367 
 18353      5F636200 
 18354              	.LASF117:
 18355 054a 2E2E5C75 		.ascii	"..\\u8g2-master\\csrc\\u8x8_d_st7565.c\000"
 18355      3867322D 
 18355      6D617374 
 18355      65725C63 
 18355      7372635C 
 18356              	.LASF1:
 18357 056e 756E7369 		.ascii	"unsigned char\000"
 18357      676E6564 
 18357      20636861 
 18357      7200
 18358              	.LASF95:
 18359 057c 75387838 		.ascii	"u8x8_d_st7565_nhd_c12832_init_seq\000"
 18359      5F645F73 
 18359      74373536 
 18359      355F6E68 
ARM GAS  C:\Users\info\AppData\Local\Temp\ccQPGqkW.s 			page 356


 18359      645F6331 
 18360              	.LASF2:
 18361 059e 73686F72 		.ascii	"short int\000"
 18361      7420696E 
 18361      7400
 18362              	.LASF66:
 18363 05a8 75387838 		.ascii	"u8x8\000"
 18363      00
 18364              	.LASF94:
 18365 05ad 75387838 		.ascii	"u8x8_st7565_128x32_display_info\000"
 18365      5F737437 
 18365      3536355F 
 18365      31323878 
 18365      33325F64 
 18366              	.LASF78:
 18367 05cd 75387838 		.ascii	"u8x8_d_st7565_erc12864\000"
 18367      5F645F73 
 18367      74373536 
 18367      355F6572 
 18367      63313238 
 18368              	.LASF51:
 18369 05e4 64617461 		.ascii	"data_setup_time_ns\000"
 18369      5F736574 
 18369      75705F74 
 18369      696D655F 
 18369      6E7300
 18370              	.LASF118:
 18371 05f7 433A5C55 		.ascii	"C:\\Users\\info\\Desktop\\Spring 2019 Classes\\6.11"
 18371      73657273 
 18371      5C696E66 
 18371      6F5C4465 
 18371      736B746F 
 18372 0625 355C362E 		.ascii	"5\\6.115-final\\PSoCCreator\\Final Project\\FinalEm"
 18372      3131352D 
 18372      66696E61 
 18372      6C5C5053 
 18372      6F434372 
 18373 0654 756C6174 		.ascii	"ulator.cydsn\000"
 18373      6F722E63 
 18373      7964736E 
 18373      00
 18374              	.LASF50:
 18375 0661 6932635F 		.ascii	"i2c_bus_clock_100kHz\000"
 18375      6275735F 
 18375      636C6F63 
 18375      6B5F3130 
 18375      306B487A 
 18376              	.LASF14:
 18377 0676 75696E74 		.ascii	"uint32_t\000"
 18377      33325F74 
 18377      00
 18378              	.LASF108:
 18379 067f 75387838 		.ascii	"u8x8_cad_StartTransfer\000"
 18379      5F636164 
 18379      5F537461 
 18379      72745472 
 18379      616E7366 
ARM GAS  C:\Users\info\AppData\Local\Temp\ccQPGqkW.s 			page 357


 18380              	.LASF79:
 18381 0696 75387838 		.ascii	"u8x8_d_st7565_erc12864_alt\000"
 18381      5F645F73 
 18381      74373536 
 18381      355F6572 
 18381      63313238 
 18382              	.LASF49:
 18383 06b1 7370695F 		.ascii	"spi_mode\000"
 18383      6D6F6465 
 18383      00
 18384              	.LASF40:
 18385 06ba 63686970 		.ascii	"chip_enable_level\000"
 18385      5F656E61 
 18385      626C655F 
 18385      6C657665 
 18385      6C00
 18386              	.LASF116:
 18387 06cc 474E5520 		.ascii	"GNU C11 5.4.1 20160609 (release) [ARM/embedded-5-br"
 18387      43313120 
 18387      352E342E 
 18387      31203230 
 18387      31363036 
 18388 06ff 616E6368 		.ascii	"anch revision 237715] -mcpu=cortex-m3 -mthumb -g -O"
 18388      20726576 
 18388      6973696F 
 18388      6E203233 
 18388      37373135 
 18389 0732 33202D66 		.ascii	"3 -ffunction-sections -ffat-lto-objects\000"
 18389      66756E63 
 18389      74696F6E 
 18389      2D736563 
 18389      74696F6E 
 18390              	.LASF61:
 18391 075a 74696C65 		.ascii	"tile_ptr\000"
 18391      5F707472 
 18391      00
 18392              	.LASF4:
 18393 0763 5F5F7569 		.ascii	"__uint16_t\000"
 18393      6E743136 
 18393      5F7400
 18394              	.LASF112:
 18395 076e 75387838 		.ascii	"u8x8_cad_EndTransfer\000"
 18395      5F636164 
 18395      5F456E64 
 18395      5472616E 
 18395      73666572 
 18396              	.LASF42:
 18397 0783 706F7374 		.ascii	"post_chip_enable_wait_ns\000"
 18397      5F636869 
 18397      705F656E 
 18397      61626C65 
 18397      5F776169 
 18398              	.LASF75:
 18399 079c 75387838 		.ascii	"u8x8_d_st7565_jlx12864\000"
 18399      5F645F73 
 18399      74373536 
 18399      355F6A6C 
ARM GAS  C:\Users\info\AppData\Local\Temp\ccQPGqkW.s 			page 358


 18399      78313238 
 18400              	.LASF16:
 18401 07b3 75387838 		.ascii	"u8x8_t\000"
 18401      5F7400
 18402              	.LASF23:
 18403 07ba 6275735F 		.ascii	"bus_clock\000"
 18403      636C6F63 
 18403      6B00
 18404              	.LASF35:
 18405 07c4 6465626F 		.ascii	"debounce_state\000"
 18405      756E6365 
 18405      5F737461 
 18405      746500
 18406              	.LASF68:
 18407 07d3 6172675F 		.ascii	"arg_ptr\000"
 18407      70747200 
 18408              	.LASF41:
 18409 07db 63686970 		.ascii	"chip_disable_level\000"
 18409      5F646973 
 18409      61626C65 
 18409      5F6C6576 
 18409      656C00
 18410              	.LASF24:
 18411 07ee 666F6E74 		.ascii	"font\000"
 18411      00
 18412              	.LASF73:
 18413 07f3 75387838 		.ascii	"u8x8_d_st7565_zolen_128x64\000"
 18413      5F645F73 
 18413      74373536 
 18413      355F7A6F 
 18413      6C656E5F 
 18414              	.LASF101:
 18415 080e 75387838 		.ascii	"u8x8_st7565_lx12864_display_info\000"
 18415      5F737437 
 18415      3536355F 
 18415      6C783132 
 18415      3836345F 
 18416              	.LASF12:
 18417 082f 75696E74 		.ascii	"uint8_t\000"
 18417      385F7400 
 18418              	.LASF29:
 18419 0837 6932635F 		.ascii	"i2c_started\000"
 18419      73746172 
 18419      74656400 
 18420              	.LASF87:
 18421 0843 75387838 		.ascii	"u8x8_d_st7565_zflip0_seq\000"
 18421      5F645F73 
 18421      74373536 
 18421      355F7A66 
 18421      6C697030 
 18422              	.LASF57:
 18423 085c 70697865 		.ascii	"pixel_width\000"
 18423      6C5F7769 
 18423      64746800 
 18424              	.LASF105:
 18425 0868 75387838 		.ascii	"u8x8_d_nt7534_tg12864r_init_seq\000"
 18425      5F645F6E 
ARM GAS  C:\Users\info\AppData\Local\Temp\ccQPGqkW.s 			page 359


 18425      74373533 
 18425      345F7467 
 18425      31323836 
 18426              	.LASF106:
 18427 0888 75387838 		.ascii	"u8x8_st7565_dogm132_display_info\000"
 18427      5F737437 
 18427      3536355F 
 18427      646F676D 
 18427      3133325F 
 18428              	.LASF53:
 18429 08a9 74696C65 		.ascii	"tile_width\000"
 18429      5F776964 
 18429      746800
 18430              	.LASF33:
 18431 08b4 6465626F 		.ascii	"debounce_default_pin_state\000"
 18431      756E6365 
 18431      5F646566 
 18431      61756C74 
 18431      5F70696E 
 18432              	.LASF63:
 18433 08cf 795F706F 		.ascii	"y_pos\000"
 18433      7300
 18434              	.LASF109:
 18435 08d5 75387838 		.ascii	"u8x8_cad_SendCmd\000"
 18435      5F636164 
 18435      5F53656E 
 18435      64436D64 
 18435      00
 18436              	.LASF90:
 18437 08e6 75387838 		.ascii	"u8x8_d_st7565_dogm128_init_seq\000"
 18437      5F645F73 
 18437      74373536 
 18437      355F646F 
 18437      676D3132 
 18438              	.LASF39:
 18439 0905 75387838 		.ascii	"u8x8_display_info_struct\000"
 18439      5F646973 
 18439      706C6179 
 18439      5F696E66 
 18439      6F5F7374 
 18440              	.LASF80:
 18441 091e 75387838 		.ascii	"u8x8_d_nt7534_tg12864r\000"
 18441      5F645F6E 
 18441      74373533 
 18441      345F7467 
 18441      31323836 
 18442              	.LASF92:
 18443 0935 75387838 		.ascii	"u8x8_st7565_64128n_display_info\000"
 18443      5F737437 
 18443      3536355F 
 18443      36343132 
 18443      386E5F64 
 18444              	.LASF113:
 18445 0955 75387838 		.ascii	"u8x8_cad_SendArg\000"
 18445      5F636164 
 18445      5F53656E 
 18445      64417267 
ARM GAS  C:\Users\info\AppData\Local\Temp\ccQPGqkW.s 			page 360


 18445      00
 18446              	.LASF77:
 18447 0966 75387838 		.ascii	"u8x8_d_st7565_lx12864\000"
 18447      5F645F73 
 18447      74373536 
 18447      355F6C78 
 18447      31323836 
 18448              	.LASF102:
 18449 097c 75387838 		.ascii	"u8x8_d_st7565_erc12864_init_seq\000"
 18449      5F645F73 
 18449      74373536 
 18449      355F6572 
 18449      63313238 
 18450              	.LASF100:
 18451 099c 75387838 		.ascii	"u8x8_d_st7565_lx12864_init_seq\000"
 18451      5F645F73 
 18451      74373536 
 18451      355F6C78 
 18451      31323836 
 18452              	.LASF58:
 18453 09bb 70697865 		.ascii	"pixel_height\000"
 18453      6C5F6865 
 18453      69676874 
 18453      00
 18454              	.LASF48:
 18455 09c8 73636B5F 		.ascii	"sck_clock_hz\000"
 18455      636C6F63 
 18455      6B5F687A 
 18455      00
 18456              		.ident	"GCC: (GNU Tools for ARM Embedded Processors) 5.4.1 20160609 (release) [ARM/embedded-5-bran
