ARM GAS  C:\Users\info\AppData\Local\Temp\ccnzSRwq.s 			page 1


   1              		.syntax unified
   2              		.cpu cortex-m3
   3              		.fpu softvfp
   4              		.eabi_attribute 20, 1
   5              		.eabi_attribute 21, 1
   6              		.eabi_attribute 23, 3
   7              		.eabi_attribute 24, 1
   8              		.eabi_attribute 25, 1
   9              		.eabi_attribute 26, 1
  10              		.eabi_attribute 30, 2
  11              		.eabi_attribute 34, 1
  12              		.eabi_attribute 18, 4
  13              		.thumb
  14              		.syntax unified
  15              		.file	"u8x8_d_ssd1318.c"
  16              		.text
  17              	.Ltext0:
  18              		.cfi_sections	.debug_frame
  19              		.section	.text.u8x8_d_ssd1318_128x96,"ax",%progbits
  20              		.align	2
  21              		.global	u8x8_d_ssd1318_128x96
  22              		.thumb
  23              		.thumb_func
  24              		.type	u8x8_d_ssd1318_128x96, %function
  25              	u8x8_d_ssd1318_128x96:
  26              	.LFB1:
  27              		.file 1 "..\\u8g2-master\\csrc\\u8x8_d_ssd1318.c"
   1:..\u8g2-master\csrc/u8x8_d_ssd1318.c **** /*
   2:..\u8g2-master\csrc/u8x8_d_ssd1318.c **** 
   3:..\u8g2-master\csrc/u8x8_d_ssd1318.c ****   u8x8_d_ssd1318.c
   4:..\u8g2-master\csrc/u8x8_d_ssd1318.c **** 
   5:..\u8g2-master\csrc/u8x8_d_ssd1318.c ****   Universal 8bit Graphics Library (https://github.com/olikraus/u8g2/)
   6:..\u8g2-master\csrc/u8x8_d_ssd1318.c **** 
   7:..\u8g2-master\csrc/u8x8_d_ssd1318.c ****   Copyright (c) 2019, olikraus@gmail.com
   8:..\u8g2-master\csrc/u8x8_d_ssd1318.c ****   All rights reserved.
   9:..\u8g2-master\csrc/u8x8_d_ssd1318.c **** 
  10:..\u8g2-master\csrc/u8x8_d_ssd1318.c ****   Redistribution and use in source and binary forms, with or without modification, 
  11:..\u8g2-master\csrc/u8x8_d_ssd1318.c ****   are permitted provided that the following conditions are met:
  12:..\u8g2-master\csrc/u8x8_d_ssd1318.c **** 
  13:..\u8g2-master\csrc/u8x8_d_ssd1318.c ****   * Redistributions of source code must retain the above copyright notice, this list 
  14:..\u8g2-master\csrc/u8x8_d_ssd1318.c ****     of conditions and the following disclaimer.
  15:..\u8g2-master\csrc/u8x8_d_ssd1318.c ****     
  16:..\u8g2-master\csrc/u8x8_d_ssd1318.c ****   * Redistributions in binary form must reproduce the above copyright notice, this 
  17:..\u8g2-master\csrc/u8x8_d_ssd1318.c ****     list of conditions and the following disclaimer in the documentation and/or other 
  18:..\u8g2-master\csrc/u8x8_d_ssd1318.c ****     materials provided with the distribution.
  19:..\u8g2-master\csrc/u8x8_d_ssd1318.c **** 
  20:..\u8g2-master\csrc/u8x8_d_ssd1318.c ****   THIS SOFTWARE IS PROVIDED BY THE COPYRIGHT HOLDERS AND 
  21:..\u8g2-master\csrc/u8x8_d_ssd1318.c ****   CONTRIBUTORS "AS IS" AND ANY EXPRESS OR IMPLIED WARRANTIES, 
  22:..\u8g2-master\csrc/u8x8_d_ssd1318.c ****   INCLUDING, BUT NOT LIMITED TO, THE IMPLIED WARRANTIES OF 
  23:..\u8g2-master\csrc/u8x8_d_ssd1318.c ****   MERCHANTABILITY AND FITNESS FOR A PARTICULAR PURPOSE ARE 
  24:..\u8g2-master\csrc/u8x8_d_ssd1318.c ****   DISCLAIMED. IN NO EVENT SHALL THE COPYRIGHT HOLDER OR 
  25:..\u8g2-master\csrc/u8x8_d_ssd1318.c ****   CONTRIBUTORS BE LIABLE FOR ANY DIRECT, INDIRECT, INCIDENTAL, 
  26:..\u8g2-master\csrc/u8x8_d_ssd1318.c ****   SPECIAL, EXEMPLARY, OR CONSEQUENTIAL DAMAGES (INCLUDING, BUT 
  27:..\u8g2-master\csrc/u8x8_d_ssd1318.c ****   NOT LIMITED TO, PROCUREMENT OF SUBSTITUTE GOODS OR SERVICES; 
  28:..\u8g2-master\csrc/u8x8_d_ssd1318.c ****   LOSS OF USE, DATA, OR PROFITS; OR BUSINESS INTERRUPTION) HOWEVER 
  29:..\u8g2-master\csrc/u8x8_d_ssd1318.c ****   CAUSED AND ON ANY THEORY OF LIABILITY, WHETHER IN CONTRACT, 
  30:..\u8g2-master\csrc/u8x8_d_ssd1318.c ****   STRICT LIABILITY, OR TORT (INCLUDING NEGLIGENCE OR OTHERWISE) 
ARM GAS  C:\Users\info\AppData\Local\Temp\ccnzSRwq.s 			page 2


  31:..\u8g2-master\csrc/u8x8_d_ssd1318.c ****   ARISING IN ANY WAY OUT OF THE USE OF THIS SOFTWARE, EVEN IF 
  32:..\u8g2-master\csrc/u8x8_d_ssd1318.c ****   ADVISED OF THE POSSIBILITY OF SUCH DAMAGE.  
  33:..\u8g2-master\csrc/u8x8_d_ssd1318.c **** 
  34:..\u8g2-master\csrc/u8x8_d_ssd1318.c **** 
  35:..\u8g2-master\csrc/u8x8_d_ssd1318.c ****   SSD1318: 128x96 OLED
  36:..\u8g2-master\csrc/u8x8_d_ssd1318.c ****   
  37:..\u8g2-master\csrc/u8x8_d_ssd1318.c ****   https://github.com/olikraus/u8g2/issues/784
  38:..\u8g2-master\csrc/u8x8_d_ssd1318.c **** 
  39:..\u8g2-master\csrc/u8x8_d_ssd1318.c **** */
  40:..\u8g2-master\csrc/u8x8_d_ssd1318.c **** 
  41:..\u8g2-master\csrc/u8x8_d_ssd1318.c **** 
  42:..\u8g2-master\csrc/u8x8_d_ssd1318.c **** #include "u8x8.h"
  43:..\u8g2-master\csrc/u8x8_d_ssd1318.c **** 
  44:..\u8g2-master\csrc/u8x8_d_ssd1318.c **** 
  45:..\u8g2-master\csrc/u8x8_d_ssd1318.c **** 
  46:..\u8g2-master\csrc/u8x8_d_ssd1318.c **** /* with internal charge pump (icp) */
  47:..\u8g2-master\csrc/u8x8_d_ssd1318.c **** static const uint8_t u8x8_d_ssd1318_128x96_icp_init_seq[] = {
  48:..\u8g2-master\csrc/u8x8_d_ssd1318.c ****     
  49:..\u8g2-master\csrc/u8x8_d_ssd1318.c ****   U8X8_START_TRANSFER(),             	/* enable chip, delay is part of the transfer start */
  50:..\u8g2-master\csrc/u8x8_d_ssd1318.c ****   
  51:..\u8g2-master\csrc/u8x8_d_ssd1318.c ****   
  52:..\u8g2-master\csrc/u8x8_d_ssd1318.c ****   U8X8_CA(0x0fd, 0x012),		/* unlock */
  53:..\u8g2-master\csrc/u8x8_d_ssd1318.c ****   U8X8_C(0x0ae),		                /* display off */
  54:..\u8g2-master\csrc/u8x8_d_ssd1318.c ****   U8X8_CA(0x0ad, 0x0d0),		/* external or internal IREF selection */
  55:..\u8g2-master\csrc/u8x8_d_ssd1318.c ****   U8X8_CA(0x0a8, 0x05f),		/* multiplex ratio, 96 duty */
  56:..\u8g2-master\csrc/u8x8_d_ssd1318.c ****   U8X8_CA(0x0d3, 0x000),		/* display offset */
  57:..\u8g2-master\csrc/u8x8_d_ssd1318.c ****   U8X8_CA(0x0a2, 0x000),		/* start line */
  58:..\u8g2-master\csrc/u8x8_d_ssd1318.c ****   
  59:..\u8g2-master\csrc/u8x8_d_ssd1318.c ****   
  60:..\u8g2-master\csrc/u8x8_d_ssd1318.c ****   // four possible charge pump setting from as per sec 6.8.2 of the ssd1318 datasheet
  61:..\u8g2-master\csrc/u8x8_d_ssd1318.c ****   // uncomment only one of the below for lines  
  62:..\u8g2-master\csrc/u8x8_d_ssd1318.c ****   // default: 
  63:..\u8g2-master\csrc/u8x8_d_ssd1318.c ****   // U8X8_CA(0x08d, 0x004, 0x0ac, 0x001),		/* Charge pump setting from sec 6.8.2 of SSD1318 datashe
  64:..\u8g2-master\csrc/u8x8_d_ssd1318.c ****   // U8X8_CA(0x08d, 0x044, 0x0ac, 0x001),		/* Charge pump setting from sec 6.8.2 of SSD1318 datashe
  65:..\u8g2-master\csrc/u8x8_d_ssd1318.c ****   // U8X8_CA(0x08d, 0x084, 0x0ac, 0x001),		/* Charge pump setting from sec 6.8.2 of SSD1318 datashe
  66:..\u8g2-master\csrc/u8x8_d_ssd1318.c ****   U8X8_CAAA(0x08d, 0x0c4, 0x0ac, 0x001),		/* Charge pump setting from sec 6.8.2 of SSD1318 datashee
  67:..\u8g2-master\csrc/u8x8_d_ssd1318.c ****   
  68:..\u8g2-master\csrc/u8x8_d_ssd1318.c **** 
  69:..\u8g2-master\csrc/u8x8_d_ssd1318.c ****   U8X8_C(0x0a1),				/* segment remap a0/a1*/
  70:..\u8g2-master\csrc/u8x8_d_ssd1318.c ****   U8X8_C(0x0c0),				/* c0: scan dir normal, c8: reverse */
  71:..\u8g2-master\csrc/u8x8_d_ssd1318.c ****   // Flipmode
  72:..\u8g2-master\csrc/u8x8_d_ssd1318.c ****   // U8X8_C(0x0a0),				/* segment remap a0/a1*/
  73:..\u8g2-master\csrc/u8x8_d_ssd1318.c ****   // U8X8_C(0x0c8),				/* c0: scan dir normal, c8: reverse */
  74:..\u8g2-master\csrc/u8x8_d_ssd1318.c ****   
  75:..\u8g2-master\csrc/u8x8_d_ssd1318.c ****   U8X8_CA(0x0da, 0x012),		/* com pin HW config, sequential com pin config (bit 4), disable left/rig
  76:..\u8g2-master\csrc/u8x8_d_ssd1318.c **** 
  77:..\u8g2-master\csrc/u8x8_d_ssd1318.c ****   U8X8_CA(0x081, 0x00f), 		/* value from issue 784, seems to be a little bit low... */
  78:..\u8g2-master\csrc/u8x8_d_ssd1318.c ****   
  79:..\u8g2-master\csrc/u8x8_d_ssd1318.c ****   
  80:..\u8g2-master\csrc/u8x8_d_ssd1318.c ****   U8X8_CA(0x0d5, 0x0d1),		/* clock divide ratio (0x00=1) and oscillator frequency (0x8), value from
  81:..\u8g2-master\csrc/u8x8_d_ssd1318.c ****   U8X8_CA(0x0d9, 0x022), 		/* [2] pre-charge period 0x022/f1, value from issue 784 example code */
  82:..\u8g2-master\csrc/u8x8_d_ssd1318.c ****   U8X8_CA(0x0db, 0x030), 		/* vcomh deselect level, value from issue 784 example code  */  
  83:..\u8g2-master\csrc/u8x8_d_ssd1318.c ****   
  84:..\u8g2-master\csrc/u8x8_d_ssd1318.c ****   
  85:..\u8g2-master\csrc/u8x8_d_ssd1318.c ****   //U8X8_CA(0x020, 0x000),		/* page addressing mode */
  86:..\u8g2-master\csrc/u8x8_d_ssd1318.c ****   //U8X8_C(0x02e),				/* Deactivate scroll */ 
  87:..\u8g2-master\csrc/u8x8_d_ssd1318.c ****   
ARM GAS  C:\Users\info\AppData\Local\Temp\ccnzSRwq.s 			page 3


  88:..\u8g2-master\csrc/u8x8_d_ssd1318.c ****   U8X8_C(0x0a4),				/* output ram to display */
  89:..\u8g2-master\csrc/u8x8_d_ssd1318.c ****   U8X8_C(0x0a6),				/* none inverted normal display mode */
  90:..\u8g2-master\csrc/u8x8_d_ssd1318.c ****     
  91:..\u8g2-master\csrc/u8x8_d_ssd1318.c ****   U8X8_END_TRANSFER(),             	/* disable chip */
  92:..\u8g2-master\csrc/u8x8_d_ssd1318.c ****   U8X8_END()             			/* end of sequence */
  93:..\u8g2-master\csrc/u8x8_d_ssd1318.c **** };
  94:..\u8g2-master\csrc/u8x8_d_ssd1318.c **** 
  95:..\u8g2-master\csrc/u8x8_d_ssd1318.c **** 
  96:..\u8g2-master\csrc/u8x8_d_ssd1318.c **** /* with external charge pump */
  97:..\u8g2-master\csrc/u8x8_d_ssd1318.c **** static const uint8_t u8x8_d_ssd1318_128x96_xcp_init_seq[] = {
  98:..\u8g2-master\csrc/u8x8_d_ssd1318.c ****     
  99:..\u8g2-master\csrc/u8x8_d_ssd1318.c ****   U8X8_START_TRANSFER(),             	/* enable chip, delay is part of the transfer start */
 100:..\u8g2-master\csrc/u8x8_d_ssd1318.c ****   
 101:..\u8g2-master\csrc/u8x8_d_ssd1318.c ****   
 102:..\u8g2-master\csrc/u8x8_d_ssd1318.c ****   U8X8_CA(0x0fd, 0x012),		/* unlock */
 103:..\u8g2-master\csrc/u8x8_d_ssd1318.c ****   U8X8_C(0x0ae),		                /* display off */
 104:..\u8g2-master\csrc/u8x8_d_ssd1318.c ****   U8X8_CA(0x0ad, 0x0d0),		/* external or internal IREF selection */
 105:..\u8g2-master\csrc/u8x8_d_ssd1318.c ****   U8X8_CA(0x0a8, 0x05f),		/* multiplex ratio, 96 duty */
 106:..\u8g2-master\csrc/u8x8_d_ssd1318.c ****   U8X8_CA(0x0d3, 0x000),		/* display offset */
 107:..\u8g2-master\csrc/u8x8_d_ssd1318.c ****   U8X8_CA(0x0a2, 0x000),		/* start line */
 108:..\u8g2-master\csrc/u8x8_d_ssd1318.c ****   
 109:..\u8g2-master\csrc/u8x8_d_ssd1318.c ****   
 110:..\u8g2-master\csrc/u8x8_d_ssd1318.c ****   // not sure if we have to set something for external charge pump
 111:..\u8g2-master\csrc/u8x8_d_ssd1318.c ****   // ...
 112:..\u8g2-master\csrc/u8x8_d_ssd1318.c ****   
 113:..\u8g2-master\csrc/u8x8_d_ssd1318.c **** 
 114:..\u8g2-master\csrc/u8x8_d_ssd1318.c ****   U8X8_C(0x0a1),				/* segment remap a0/a1*/
 115:..\u8g2-master\csrc/u8x8_d_ssd1318.c ****   U8X8_C(0x0c0),				/* c0: scan dir normal, c8: reverse */
 116:..\u8g2-master\csrc/u8x8_d_ssd1318.c ****   // Flipmode
 117:..\u8g2-master\csrc/u8x8_d_ssd1318.c ****   // U8X8_C(0x0a0),				/* segment remap a0/a1*/
 118:..\u8g2-master\csrc/u8x8_d_ssd1318.c ****   // U8X8_C(0x0c8),				/* c0: scan dir normal, c8: reverse */
 119:..\u8g2-master\csrc/u8x8_d_ssd1318.c ****   
 120:..\u8g2-master\csrc/u8x8_d_ssd1318.c ****   U8X8_CA(0x0da, 0x012),		/* com pin HW config, sequential com pin config (bit 4), disable left/rig
 121:..\u8g2-master\csrc/u8x8_d_ssd1318.c **** 
 122:..\u8g2-master\csrc/u8x8_d_ssd1318.c ****   U8X8_CA(0x081, 0x00f), 		/* value from issue 784, seems to be a little bit low... */
 123:..\u8g2-master\csrc/u8x8_d_ssd1318.c ****   
 124:..\u8g2-master\csrc/u8x8_d_ssd1318.c ****   
 125:..\u8g2-master\csrc/u8x8_d_ssd1318.c ****   U8X8_CA(0x0d5, 0x0d1),		/* clock divide ratio (0x00=1) and oscillator frequency (0x8), value from
 126:..\u8g2-master\csrc/u8x8_d_ssd1318.c ****   U8X8_CA(0x0d9, 0x022), 		/* [2] pre-charge period 0x022/f1, value from issue 784 example code */
 127:..\u8g2-master\csrc/u8x8_d_ssd1318.c ****   U8X8_CA(0x0db, 0x030), 		/* vcomh deselect level, value from issue 784 example code  */  
 128:..\u8g2-master\csrc/u8x8_d_ssd1318.c ****   
 129:..\u8g2-master\csrc/u8x8_d_ssd1318.c ****   
 130:..\u8g2-master\csrc/u8x8_d_ssd1318.c ****   //U8X8_CA(0x020, 0x000),		/* page addressing mode */
 131:..\u8g2-master\csrc/u8x8_d_ssd1318.c ****   //U8X8_C(0x02e),				/* Deactivate scroll */ 
 132:..\u8g2-master\csrc/u8x8_d_ssd1318.c ****   
 133:..\u8g2-master\csrc/u8x8_d_ssd1318.c ****   U8X8_C(0x0a4),				/* output ram to display */
 134:..\u8g2-master\csrc/u8x8_d_ssd1318.c ****   U8X8_C(0x0a6),				/* none inverted normal display mode */
 135:..\u8g2-master\csrc/u8x8_d_ssd1318.c ****     
 136:..\u8g2-master\csrc/u8x8_d_ssd1318.c ****   U8X8_END_TRANSFER(),             	/* disable chip */
 137:..\u8g2-master\csrc/u8x8_d_ssd1318.c ****   U8X8_END()             			/* end of sequence */
 138:..\u8g2-master\csrc/u8x8_d_ssd1318.c **** };
 139:..\u8g2-master\csrc/u8x8_d_ssd1318.c **** 
 140:..\u8g2-master\csrc/u8x8_d_ssd1318.c **** 
 141:..\u8g2-master\csrc/u8x8_d_ssd1318.c **** static const uint8_t u8x8_d_ssd1318_128x96_powersave0_seq[] = {
 142:..\u8g2-master\csrc/u8x8_d_ssd1318.c ****   U8X8_START_TRANSFER(),             	/* enable chip, delay is part of the transfer start */
 143:..\u8g2-master\csrc/u8x8_d_ssd1318.c ****   U8X8_C(0x0af),		                /* display on */
 144:..\u8g2-master\csrc/u8x8_d_ssd1318.c ****   U8X8_END_TRANSFER(),             	/* disable chip */
ARM GAS  C:\Users\info\AppData\Local\Temp\ccnzSRwq.s 			page 4


 145:..\u8g2-master\csrc/u8x8_d_ssd1318.c ****   U8X8_END()             			/* end of sequence */
 146:..\u8g2-master\csrc/u8x8_d_ssd1318.c **** };
 147:..\u8g2-master\csrc/u8x8_d_ssd1318.c **** 
 148:..\u8g2-master\csrc/u8x8_d_ssd1318.c **** static const uint8_t u8x8_d_ssd1318_128x96_powersave1_seq[] = {
 149:..\u8g2-master\csrc/u8x8_d_ssd1318.c ****   U8X8_START_TRANSFER(),             	/* enable chip, delay is part of the transfer start */
 150:..\u8g2-master\csrc/u8x8_d_ssd1318.c ****   U8X8_C(0x0ae),		                /* display off */
 151:..\u8g2-master\csrc/u8x8_d_ssd1318.c ****   U8X8_END_TRANSFER(),             	/* disable chip */
 152:..\u8g2-master\csrc/u8x8_d_ssd1318.c ****   U8X8_END()             			/* end of sequence */
 153:..\u8g2-master\csrc/u8x8_d_ssd1318.c **** };
 154:..\u8g2-master\csrc/u8x8_d_ssd1318.c **** 
 155:..\u8g2-master\csrc/u8x8_d_ssd1318.c **** static const uint8_t u8x8_d_ssd1318_128x96_flip0_seq[] = {
 156:..\u8g2-master\csrc/u8x8_d_ssd1318.c ****   U8X8_START_TRANSFER(),             	/* enable chip, delay is part of the transfer start */
 157:..\u8g2-master\csrc/u8x8_d_ssd1318.c ****   U8X8_C(0x0a1),				/* segment remap a0/a1*/
 158:..\u8g2-master\csrc/u8x8_d_ssd1318.c ****   U8X8_C(0x0c0),				/* c0: scan dir normal, c8: reverse */
 159:..\u8g2-master\csrc/u8x8_d_ssd1318.c ****   U8X8_END_TRANSFER(),             	/* disable chip */
 160:..\u8g2-master\csrc/u8x8_d_ssd1318.c ****   U8X8_END()             			/* end of sequence */
 161:..\u8g2-master\csrc/u8x8_d_ssd1318.c **** };
 162:..\u8g2-master\csrc/u8x8_d_ssd1318.c **** 
 163:..\u8g2-master\csrc/u8x8_d_ssd1318.c **** static const uint8_t u8x8_d_ssd1318_128x96_flip1_seq[] = {
 164:..\u8g2-master\csrc/u8x8_d_ssd1318.c ****   U8X8_START_TRANSFER(),             	/* enable chip, delay is part of the transfer start */
 165:..\u8g2-master\csrc/u8x8_d_ssd1318.c ****   U8X8_C(0x0a0),				/* segment remap a0/a1*/
 166:..\u8g2-master\csrc/u8x8_d_ssd1318.c ****   U8X8_C(0x0c8),				/* c0: scan dir normal, c8: reverse */
 167:..\u8g2-master\csrc/u8x8_d_ssd1318.c ****   U8X8_END_TRANSFER(),             	/* disable chip */
 168:..\u8g2-master\csrc/u8x8_d_ssd1318.c ****   U8X8_END()             			/* end of sequence */
 169:..\u8g2-master\csrc/u8x8_d_ssd1318.c **** };
 170:..\u8g2-master\csrc/u8x8_d_ssd1318.c **** 
 171:..\u8g2-master\csrc/u8x8_d_ssd1318.c **** 
 172:..\u8g2-master\csrc/u8x8_d_ssd1318.c **** static uint8_t u8x8_d_ssd1318_generic(u8x8_t *u8x8, uint8_t msg, uint8_t arg_int, void *arg_ptr)
 173:..\u8g2-master\csrc/u8x8_d_ssd1318.c **** {
 174:..\u8g2-master\csrc/u8x8_d_ssd1318.c ****   uint8_t x, c;
 175:..\u8g2-master\csrc/u8x8_d_ssd1318.c ****   uint8_t *ptr;
 176:..\u8g2-master\csrc/u8x8_d_ssd1318.c ****   switch(msg)
 177:..\u8g2-master\csrc/u8x8_d_ssd1318.c ****   {
 178:..\u8g2-master\csrc/u8x8_d_ssd1318.c ****     /* handled by the calling function
 179:..\u8g2-master\csrc/u8x8_d_ssd1318.c ****     case U8X8_MSG_DISPLAY_SETUP_MEMORY:
 180:..\u8g2-master\csrc/u8x8_d_ssd1318.c ****       u8x8_d_helper_display_setup_memory(u8x8, &u8x8_ssd1318_128x96_display_info);
 181:..\u8g2-master\csrc/u8x8_d_ssd1318.c ****       break;
 182:..\u8g2-master\csrc/u8x8_d_ssd1318.c ****     */
 183:..\u8g2-master\csrc/u8x8_d_ssd1318.c ****     /* handled by the calling function
 184:..\u8g2-master\csrc/u8x8_d_ssd1318.c ****     case U8X8_MSG_DISPLAY_INIT:
 185:..\u8g2-master\csrc/u8x8_d_ssd1318.c ****       u8x8_d_helper_display_init(u8x8);
 186:..\u8g2-master\csrc/u8x8_d_ssd1318.c ****       u8x8_cad_SendSequence(u8x8, u8x8_d_ssd1318_128x96_init_seq);    
 187:..\u8g2-master\csrc/u8x8_d_ssd1318.c ****       break;
 188:..\u8g2-master\csrc/u8x8_d_ssd1318.c ****     */
 189:..\u8g2-master\csrc/u8x8_d_ssd1318.c ****     case U8X8_MSG_DISPLAY_SET_POWER_SAVE:
 190:..\u8g2-master\csrc/u8x8_d_ssd1318.c ****       if ( arg_int == 0 )
 191:..\u8g2-master\csrc/u8x8_d_ssd1318.c **** 	u8x8_cad_SendSequence(u8x8, u8x8_d_ssd1318_128x96_powersave0_seq);
 192:..\u8g2-master\csrc/u8x8_d_ssd1318.c ****       else
 193:..\u8g2-master\csrc/u8x8_d_ssd1318.c **** 	u8x8_cad_SendSequence(u8x8, u8x8_d_ssd1318_128x96_powersave1_seq);
 194:..\u8g2-master\csrc/u8x8_d_ssd1318.c ****       break;
 195:..\u8g2-master\csrc/u8x8_d_ssd1318.c ****     case U8X8_MSG_DISPLAY_SET_FLIP_MODE:
 196:..\u8g2-master\csrc/u8x8_d_ssd1318.c ****       if ( arg_int == 0 )
 197:..\u8g2-master\csrc/u8x8_d_ssd1318.c ****       {
 198:..\u8g2-master\csrc/u8x8_d_ssd1318.c **** 	u8x8_cad_SendSequence(u8x8, u8x8_d_ssd1318_128x96_flip0_seq);
 199:..\u8g2-master\csrc/u8x8_d_ssd1318.c **** 	u8x8->x_offset = u8x8->display_info->default_x_offset;
 200:..\u8g2-master\csrc/u8x8_d_ssd1318.c ****       }
 201:..\u8g2-master\csrc/u8x8_d_ssd1318.c ****       else
ARM GAS  C:\Users\info\AppData\Local\Temp\ccnzSRwq.s 			page 5


 202:..\u8g2-master\csrc/u8x8_d_ssd1318.c ****       {
 203:..\u8g2-master\csrc/u8x8_d_ssd1318.c **** 	u8x8_cad_SendSequence(u8x8, u8x8_d_ssd1318_128x96_flip1_seq);
 204:..\u8g2-master\csrc/u8x8_d_ssd1318.c **** 	u8x8->x_offset = u8x8->display_info->flipmode_x_offset;
 205:..\u8g2-master\csrc/u8x8_d_ssd1318.c ****       }
 206:..\u8g2-master\csrc/u8x8_d_ssd1318.c ****       break;
 207:..\u8g2-master\csrc/u8x8_d_ssd1318.c **** #ifdef U8X8_WITH_SET_CONTRAST
 208:..\u8g2-master\csrc/u8x8_d_ssd1318.c ****     case U8X8_MSG_DISPLAY_SET_CONTRAST:
 209:..\u8g2-master\csrc/u8x8_d_ssd1318.c ****       u8x8_cad_StartTransfer(u8x8);
 210:..\u8g2-master\csrc/u8x8_d_ssd1318.c ****       u8x8_cad_SendCmd(u8x8, 0x081 );
 211:..\u8g2-master\csrc/u8x8_d_ssd1318.c ****       u8x8_cad_SendArg(u8x8, arg_int );	/* ssd1318 has range from 0 to 255 */
 212:..\u8g2-master\csrc/u8x8_d_ssd1318.c ****       u8x8_cad_EndTransfer(u8x8);
 213:..\u8g2-master\csrc/u8x8_d_ssd1318.c ****       break;
 214:..\u8g2-master\csrc/u8x8_d_ssd1318.c **** #endif
 215:..\u8g2-master\csrc/u8x8_d_ssd1318.c ****     case U8X8_MSG_DISPLAY_DRAW_TILE:
 216:..\u8g2-master\csrc/u8x8_d_ssd1318.c ****       u8x8_cad_StartTransfer(u8x8);
 217:..\u8g2-master\csrc/u8x8_d_ssd1318.c ****       x = ((u8x8_tile_t *)arg_ptr)->x_pos;    
 218:..\u8g2-master\csrc/u8x8_d_ssd1318.c ****       x *= 8;
 219:..\u8g2-master\csrc/u8x8_d_ssd1318.c ****       x += u8x8->x_offset;
 220:..\u8g2-master\csrc/u8x8_d_ssd1318.c ****     
 221:..\u8g2-master\csrc/u8x8_d_ssd1318.c ****       u8x8_cad_SendCmd(u8x8, 0x040 );	/* set line offset to 0 */
 222:..\u8g2-master\csrc/u8x8_d_ssd1318.c ****     
 223:..\u8g2-master\csrc/u8x8_d_ssd1318.c ****       u8x8_cad_SendCmd(u8x8, 0x010 | (x>>4) );
 224:..\u8g2-master\csrc/u8x8_d_ssd1318.c ****       u8x8_cad_SendArg(u8x8, 0x000 | ((x&15)));					/* probably wrong, should be SendCmd */
 225:..\u8g2-master\csrc/u8x8_d_ssd1318.c ****       u8x8_cad_SendArg(u8x8, 0x0b0 | (((u8x8_tile_t *)arg_ptr)->y_pos));	/* probably wrong, should 
 226:..\u8g2-master\csrc/u8x8_d_ssd1318.c **** 
 227:..\u8g2-master\csrc/u8x8_d_ssd1318.c ****     
 228:..\u8g2-master\csrc/u8x8_d_ssd1318.c ****       do
 229:..\u8g2-master\csrc/u8x8_d_ssd1318.c ****       {
 230:..\u8g2-master\csrc/u8x8_d_ssd1318.c **** 	c = ((u8x8_tile_t *)arg_ptr)->cnt;
 231:..\u8g2-master\csrc/u8x8_d_ssd1318.c **** 	ptr = ((u8x8_tile_t *)arg_ptr)->tile_ptr;
 232:..\u8g2-master\csrc/u8x8_d_ssd1318.c **** 	u8x8_cad_SendData(u8x8, c*8, ptr); 	/* note: SendData can not handle more than 255 bytes */
 233:..\u8g2-master\csrc/u8x8_d_ssd1318.c **** 	/*
 234:..\u8g2-master\csrc/u8x8_d_ssd1318.c **** 	do
 235:..\u8g2-master\csrc/u8x8_d_ssd1318.c **** 	{
 236:..\u8g2-master\csrc/u8x8_d_ssd1318.c **** 	  u8x8_cad_SendData(u8x8, 8, ptr);
 237:..\u8g2-master\csrc/u8x8_d_ssd1318.c **** 	  ptr += 8;
 238:..\u8g2-master\csrc/u8x8_d_ssd1318.c **** 	  c--;
 239:..\u8g2-master\csrc/u8x8_d_ssd1318.c **** 	} while( c > 0 );
 240:..\u8g2-master\csrc/u8x8_d_ssd1318.c **** 	*/
 241:..\u8g2-master\csrc/u8x8_d_ssd1318.c **** 	arg_int--;
 242:..\u8g2-master\csrc/u8x8_d_ssd1318.c ****       } while( arg_int > 0 );
 243:..\u8g2-master\csrc/u8x8_d_ssd1318.c ****       
 244:..\u8g2-master\csrc/u8x8_d_ssd1318.c ****       u8x8_cad_EndTransfer(u8x8);
 245:..\u8g2-master\csrc/u8x8_d_ssd1318.c ****       break;
 246:..\u8g2-master\csrc/u8x8_d_ssd1318.c ****     default:
 247:..\u8g2-master\csrc/u8x8_d_ssd1318.c ****       return 0;
 248:..\u8g2-master\csrc/u8x8_d_ssd1318.c ****   }
 249:..\u8g2-master\csrc/u8x8_d_ssd1318.c ****   return 1;
 250:..\u8g2-master\csrc/u8x8_d_ssd1318.c **** }
 251:..\u8g2-master\csrc/u8x8_d_ssd1318.c **** 
 252:..\u8g2-master\csrc/u8x8_d_ssd1318.c **** 
 253:..\u8g2-master\csrc/u8x8_d_ssd1318.c **** static const u8x8_display_info_t u8x8_ssd1318_128x96_display_info =
 254:..\u8g2-master\csrc/u8x8_d_ssd1318.c **** {
 255:..\u8g2-master\csrc/u8x8_d_ssd1318.c ****   /* chip_enable_level = */ 0,
 256:..\u8g2-master\csrc/u8x8_d_ssd1318.c ****   /* chip_disable_level = */ 1,
 257:..\u8g2-master\csrc/u8x8_d_ssd1318.c ****   
 258:..\u8g2-master\csrc/u8x8_d_ssd1318.c ****   /* post_chip_enable_wait_ns = */ 20,
ARM GAS  C:\Users\info\AppData\Local\Temp\ccnzSRwq.s 			page 6


 259:..\u8g2-master\csrc/u8x8_d_ssd1318.c ****   /* pre_chip_disable_wait_ns = */ 10,
 260:..\u8g2-master\csrc/u8x8_d_ssd1318.c ****   /* reset_pulse_width_ms = */ 100, 	/* SSD1306: 3 us */
 261:..\u8g2-master\csrc/u8x8_d_ssd1318.c ****   /* post_reset_wait_ms = */ 100, /* far east OLEDs need much longer setup time */
 262:..\u8g2-master\csrc/u8x8_d_ssd1318.c ****   /* sda_setup_time_ns = */ 50,		/* SSD1306: 15ns, but cycle time is 100ns, so use 100/2 */
 263:..\u8g2-master\csrc/u8x8_d_ssd1318.c ****   /* sck_pulse_width_ns = */ 50,	/* SSD1306: 20ns, but cycle time is 100ns, so use 100/2, AVR: belo
 264:..\u8g2-master\csrc/u8x8_d_ssd1318.c ****   /* sck_clock_hz = */ 8000000UL,	/* since Arduino 1.6.0, the SPI bus speed in Hz. Should be  10000
 265:..\u8g2-master\csrc/u8x8_d_ssd1318.c ****   /* spi_mode = */ 0,		/* active high, rising edge */
 266:..\u8g2-master\csrc/u8x8_d_ssd1318.c ****   /* i2c_bus_clock_100kHz = */ 4,
 267:..\u8g2-master\csrc/u8x8_d_ssd1318.c ****   /* data_setup_time_ns = */ 40,
 268:..\u8g2-master\csrc/u8x8_d_ssd1318.c ****   /* write_pulse_width_ns = */ 150,	/* SSD1306: cycle time is 300ns, so use 300/2 = 150 */
 269:..\u8g2-master\csrc/u8x8_d_ssd1318.c ****   /* tile_width = */ 16,
 270:..\u8g2-master\csrc/u8x8_d_ssd1318.c ****   /* tile_hight = */ 12,
 271:..\u8g2-master\csrc/u8x8_d_ssd1318.c ****   /* default_x_offset = */ 0,
 272:..\u8g2-master\csrc/u8x8_d_ssd1318.c ****   /* flipmode_x_offset = */ 0,
 273:..\u8g2-master\csrc/u8x8_d_ssd1318.c ****   /* pixel_width = */ 128,
 274:..\u8g2-master\csrc/u8x8_d_ssd1318.c ****   /* pixel_height = */ 96
 275:..\u8g2-master\csrc/u8x8_d_ssd1318.c **** };
 276:..\u8g2-master\csrc/u8x8_d_ssd1318.c **** 
 277:..\u8g2-master\csrc/u8x8_d_ssd1318.c **** uint8_t u8x8_d_ssd1318_128x96(u8x8_t *u8x8, uint8_t msg, uint8_t arg_int, void *arg_ptr)
 278:..\u8g2-master\csrc/u8x8_d_ssd1318.c **** {
  28              		.loc 1 278 0
  29              		.cfi_startproc
  30              		@ args = 0, pretend = 0, frame = 0
  31              		@ frame_needed = 0, uses_anonymous_args = 0
  32              	.LVL0:
  33 0000 F8B5     		push	{r3, r4, r5, r6, r7, lr}
  34              		.cfi_def_cfa_offset 24
  35              		.cfi_offset 3, -24
  36              		.cfi_offset 4, -20
  37              		.cfi_offset 5, -16
  38              		.cfi_offset 6, -12
  39              		.cfi_offset 7, -8
  40              		.cfi_offset 14, -4
  41              	.LBB4:
  42              	.LBB5:
 176:..\u8g2-master\csrc/u8x8_d_ssd1318.c ****   {
  43              		.loc 1 176 0
  44 0002 A1F10B07 		sub	r7, r1, #11
  45              	.LBE5:
  46              	.LBE4:
  47              		.loc 1 278 0
  48 0006 0546     		mov	r5, r0
  49              	.LVL1:
  50 0008 1446     		mov	r4, r2
  51              	.LVL2:
  52 000a 1E46     		mov	r6, r3
  53              	.LVL3:
  54              	.LBB15:
  55              	.LBB6:
 176:..\u8g2-master\csrc/u8x8_d_ssd1318.c ****   {
  56              		.loc 1 176 0
  57 000c 042F     		cmp	r7, #4
  58 000e 04D8     		bhi	.L2
  59 0010 DFE807F0 		tbb	[pc, r7]
  60              	.LVL4:
  61              	.L4:
  62 0014 58       		.byte	(.L3-.L4)/2
ARM GAS  C:\Users\info\AppData\Local\Temp\ccnzSRwq.s 			page 7


  63 0015 03       		.byte	(.L2-.L4)/2
  64 0016 3F       		.byte	(.L5-.L4)/2
  65 0017 49       		.byte	(.L6-.L4)/2
  66 0018 10       		.byte	(.L7-.L4)/2
  67 0019 00       		.p2align 1
  68              	.L2:
  69              	.LBE6:
  70              	.LBE15:
 279:..\u8g2-master\csrc/u8x8_d_ssd1318.c ****     
 280:..\u8g2-master\csrc/u8x8_d_ssd1318.c ****   if ( u8x8_d_ssd1318_generic(u8x8, msg, arg_int, arg_ptr) != 0 )
 281:..\u8g2-master\csrc/u8x8_d_ssd1318.c ****     return 1;
 282:..\u8g2-master\csrc/u8x8_d_ssd1318.c ****   
 283:..\u8g2-master\csrc/u8x8_d_ssd1318.c ****   switch(msg)
  71              		.loc 1 283 0
  72 001a 0929     		cmp	r1, #9
  73 001c 58D0     		beq	.L14
  74 001e 0A29     		cmp	r1, #10
  75 0020 5CD1     		bne	.L22
 284:..\u8g2-master\csrc/u8x8_d_ssd1318.c ****   {
 285:..\u8g2-master\csrc/u8x8_d_ssd1318.c ****     case U8X8_MSG_DISPLAY_INIT:
 286:..\u8g2-master\csrc/u8x8_d_ssd1318.c ****       u8x8_d_helper_display_init(u8x8);
  76              		.loc 1 286 0
  77 0022 2846     		mov	r0, r5
  78              	.LVL5:
  79 0024 FFF7FEFF 		bl	u8x8_d_helper_display_init
  80              	.LVL6:
 287:..\u8g2-master\csrc/u8x8_d_ssd1318.c ****       u8x8_cad_SendSequence(u8x8, u8x8_d_ssd1318_128x96_icp_init_seq);    
  81              		.loc 1 287 0
  82 0028 2846     		mov	r0, r5
  83 002a 3449     		ldr	r1, .L23
  84 002c FFF7FEFF 		bl	u8x8_cad_SendSequence
  85              	.LVL7:
 288:..\u8g2-master\csrc/u8x8_d_ssd1318.c ****       break;
 289:..\u8g2-master\csrc/u8x8_d_ssd1318.c ****     case U8X8_MSG_DISPLAY_SETUP_MEMORY:
 290:..\u8g2-master\csrc/u8x8_d_ssd1318.c ****       u8x8_d_helper_display_setup_memory(u8x8, &u8x8_ssd1318_128x96_display_info);
 291:..\u8g2-master\csrc/u8x8_d_ssd1318.c ****       break;
 292:..\u8g2-master\csrc/u8x8_d_ssd1318.c ****     default:
 293:..\u8g2-master\csrc/u8x8_d_ssd1318.c ****       return 0;
 294:..\u8g2-master\csrc/u8x8_d_ssd1318.c ****   }
 295:..\u8g2-master\csrc/u8x8_d_ssd1318.c ****   return 1;
  86              		.loc 1 295 0
  87 0030 0120     		movs	r0, #1
 288:..\u8g2-master\csrc/u8x8_d_ssd1318.c ****       break;
  88              		.loc 1 288 0
  89 0032 F8BD     		pop	{r3, r4, r5, r6, r7, pc}
  90              	.LVL8:
  91              	.L7:
  92              	.LBB16:
  93              	.LBB7:
 216:..\u8g2-master\csrc/u8x8_d_ssd1318.c ****       x = ((u8x8_tile_t *)arg_ptr)->x_pos;    
  94              		.loc 1 216 0
  95 0034 FFF7FEFF 		bl	u8x8_cad_StartTransfer
  96              	.LVL9:
 219:..\u8g2-master\csrc/u8x8_d_ssd1318.c ****     
  97              		.loc 1 219 0
  98 0038 95F82230 		ldrb	r3, [r5, #34]	@ zero_extendqisi2
 217:..\u8g2-master\csrc/u8x8_d_ssd1318.c ****       x *= 8;
ARM GAS  C:\Users\info\AppData\Local\Temp\ccnzSRwq.s 			page 8


  99              		.loc 1 217 0
 100 003c 7779     		ldrb	r7, [r6, #5]	@ zero_extendqisi2
 101              	.LVL10:
 221:..\u8g2-master\csrc/u8x8_d_ssd1318.c ****     
 102              		.loc 1 221 0
 103 003e 4021     		movs	r1, #64
 219:..\u8g2-master\csrc/u8x8_d_ssd1318.c ****     
 104              		.loc 1 219 0
 105 0040 03EBC707 		add	r7, r3, r7, lsl #3
 106              	.LVL11:
 107 0044 07F0FF07 		and	r7, r7, #255
 108              	.LVL12:
 221:..\u8g2-master\csrc/u8x8_d_ssd1318.c ****     
 109              		.loc 1 221 0
 110 0048 2846     		mov	r0, r5
 111 004a FFF7FEFF 		bl	u8x8_cad_SendCmd
 112              	.LVL13:
 223:..\u8g2-master\csrc/u8x8_d_ssd1318.c ****       u8x8_cad_SendArg(u8x8, 0x000 | ((x&15)));					/* probably wrong, should be SendCmd */
 113              		.loc 1 223 0
 114 004e 3909     		lsrs	r1, r7, #4
 115 0050 41F01001 		orr	r1, r1, #16
 116 0054 2846     		mov	r0, r5
 117 0056 FFF7FEFF 		bl	u8x8_cad_SendCmd
 118              	.LVL14:
 224:..\u8g2-master\csrc/u8x8_d_ssd1318.c ****       u8x8_cad_SendArg(u8x8, 0x0b0 | (((u8x8_tile_t *)arg_ptr)->y_pos));	/* probably wrong, should 
 119              		.loc 1 224 0
 120 005a 07F00F01 		and	r1, r7, #15
 121 005e 2846     		mov	r0, r5
 122 0060 FFF7FEFF 		bl	u8x8_cad_SendArg
 123              	.LVL15:
 225:..\u8g2-master\csrc/u8x8_d_ssd1318.c **** 
 124              		.loc 1 225 0
 125 0064 B179     		ldrb	r1, [r6, #6]	@ zero_extendqisi2
 126 0066 2846     		mov	r0, r5
 127 0068 41F0B001 		orr	r1, r1, #176
 128 006c FFF7FEFF 		bl	u8x8_cad_SendArg
 129              	.LVL16:
 130              	.L11:
 232:..\u8g2-master\csrc/u8x8_d_ssd1318.c **** 	/*
 131              		.loc 1 232 0
 132 0070 3179     		ldrb	r1, [r6, #4]	@ zero_extendqisi2
 133 0072 3268     		ldr	r2, [r6]
 134 0074 C900     		lsls	r1, r1, #3
 135 0076 01F0F801 		and	r1, r1, #248
 136 007a 2846     		mov	r0, r5
 137 007c FFF7FEFF 		bl	u8x8_cad_SendData
 138              	.LVL17:
 241:..\u8g2-master\csrc/u8x8_d_ssd1318.c ****       } while( arg_int > 0 );
 139              		.loc 1 241 0
 140 0080 621E     		subs	r2, r4, #1
 141              	.LVL18:
 242:..\u8g2-master\csrc/u8x8_d_ssd1318.c ****       
 142              		.loc 1 242 0
 143 0082 12F0FF04 		ands	r4, r2, #255
 144 0086 F3D1     		bne	.L11
 244:..\u8g2-master\csrc/u8x8_d_ssd1318.c ****       break;
 145              		.loc 1 244 0
ARM GAS  C:\Users\info\AppData\Local\Temp\ccnzSRwq.s 			page 9


 146 0088 2846     		mov	r0, r5
 147 008a FFF7FEFF 		bl	u8x8_cad_EndTransfer
 148              	.LVL19:
 149              	.LBE7:
 150              	.LBE16:
 281:..\u8g2-master\csrc/u8x8_d_ssd1318.c ****   
 151              		.loc 1 281 0
 152 008e 0120     		movs	r0, #1
 296:..\u8g2-master\csrc/u8x8_d_ssd1318.c **** }
 153              		.loc 1 296 0
 154 0090 F8BD     		pop	{r3, r4, r5, r6, r7, pc}
 155              	.LVL20:
 156              	.L5:
 157              	.LBB17:
 158              	.LBB8:
 196:..\u8g2-master\csrc/u8x8_d_ssd1318.c ****       {
 159              		.loc 1 196 0
 160 0092 52BB     		cbnz	r2, .L10
 198:..\u8g2-master\csrc/u8x8_d_ssd1318.c **** 	u8x8->x_offset = u8x8->display_info->default_x_offset;
 161              		.loc 1 198 0
 162 0094 1A49     		ldr	r1, .L23+4
 163              	.LVL21:
 164 0096 FFF7FEFF 		bl	u8x8_cad_SendSequence
 165              	.LVL22:
 199:..\u8g2-master\csrc/u8x8_d_ssd1318.c ****       }
 166              		.loc 1 199 0
 167 009a 2B68     		ldr	r3, [r5]
 168              	.LBE8:
 169              	.LBE17:
 281:..\u8g2-master\csrc/u8x8_d_ssd1318.c ****   
 170              		.loc 1 281 0
 171 009c 0120     		movs	r0, #1
 172              	.LBB18:
 173              	.LBB9:
 199:..\u8g2-master\csrc/u8x8_d_ssd1318.c ****       }
 174              		.loc 1 199 0
 175 009e 9B7C     		ldrb	r3, [r3, #18]	@ zero_extendqisi2
 176 00a0 85F82230 		strb	r3, [r5, #34]
 177              	.LVL23:
 178              	.LBE9:
 179              	.LBE18:
 180              		.loc 1 296 0
 181 00a4 F8BD     		pop	{r3, r4, r5, r6, r7, pc}
 182              	.LVL24:
 183              	.L6:
 184              	.LBB19:
 185              	.LBB10:
 209:..\u8g2-master\csrc/u8x8_d_ssd1318.c ****       u8x8_cad_SendCmd(u8x8, 0x081 );
 186              		.loc 1 209 0
 187 00a6 FFF7FEFF 		bl	u8x8_cad_StartTransfer
 188              	.LVL25:
 210:..\u8g2-master\csrc/u8x8_d_ssd1318.c ****       u8x8_cad_SendArg(u8x8, arg_int );	/* ssd1318 has range from 0 to 255 */
 189              		.loc 1 210 0
 190 00aa 8121     		movs	r1, #129
 191 00ac 2846     		mov	r0, r5
 192 00ae FFF7FEFF 		bl	u8x8_cad_SendCmd
 193              	.LVL26:
ARM GAS  C:\Users\info\AppData\Local\Temp\ccnzSRwq.s 			page 10


 211:..\u8g2-master\csrc/u8x8_d_ssd1318.c ****       u8x8_cad_EndTransfer(u8x8);
 194              		.loc 1 211 0
 195 00b2 2146     		mov	r1, r4
 196 00b4 2846     		mov	r0, r5
 197 00b6 FFF7FEFF 		bl	u8x8_cad_SendArg
 198              	.LVL27:
 212:..\u8g2-master\csrc/u8x8_d_ssd1318.c ****       break;
 199              		.loc 1 212 0
 200 00ba 2846     		mov	r0, r5
 201 00bc FFF7FEFF 		bl	u8x8_cad_EndTransfer
 202              	.LVL28:
 203              	.LBE10:
 204              	.LBE19:
 281:..\u8g2-master\csrc/u8x8_d_ssd1318.c ****   
 205              		.loc 1 281 0
 206 00c0 0120     		movs	r0, #1
 207              		.loc 1 296 0
 208 00c2 F8BD     		pop	{r3, r4, r5, r6, r7, pc}
 209              	.LVL29:
 210              	.L3:
 211              	.LBB20:
 212              	.LBB11:
 190:..\u8g2-master\csrc/u8x8_d_ssd1318.c **** 	u8x8_cad_SendSequence(u8x8, u8x8_d_ssd1318_128x96_powersave0_seq);
 213              		.loc 1 190 0
 214 00c4 62B9     		cbnz	r2, .L8
 191:..\u8g2-master\csrc/u8x8_d_ssd1318.c ****       else
 215              		.loc 1 191 0
 216 00c6 0F49     		ldr	r1, .L23+8
 217              	.LVL30:
 218 00c8 FFF7FEFF 		bl	u8x8_cad_SendSequence
 219              	.LVL31:
 220              	.LBE11:
 221              	.LBE20:
 281:..\u8g2-master\csrc/u8x8_d_ssd1318.c ****   
 222              		.loc 1 281 0
 223 00cc 0120     		movs	r0, #1
 224              		.loc 1 296 0
 225 00ce F8BD     		pop	{r3, r4, r5, r6, r7, pc}
 226              	.LVL32:
 227              	.L14:
 290:..\u8g2-master\csrc/u8x8_d_ssd1318.c ****       break;
 228              		.loc 1 290 0
 229 00d0 2846     		mov	r0, r5
 230              	.LVL33:
 231 00d2 0D49     		ldr	r1, .L23+12
 232              	.LVL34:
 233 00d4 FFF7FEFF 		bl	u8x8_d_helper_display_setup_memory
 234              	.LVL35:
 295:..\u8g2-master\csrc/u8x8_d_ssd1318.c **** }
 235              		.loc 1 295 0
 236 00d8 0120     		movs	r0, #1
 291:..\u8g2-master\csrc/u8x8_d_ssd1318.c ****     default:
 237              		.loc 1 291 0
 238 00da F8BD     		pop	{r3, r4, r5, r6, r7, pc}
 239              	.LVL36:
 240              	.L22:
 293:..\u8g2-master\csrc/u8x8_d_ssd1318.c ****   }
ARM GAS  C:\Users\info\AppData\Local\Temp\ccnzSRwq.s 			page 11


 241              		.loc 1 293 0
 242 00dc 0020     		movs	r0, #0
 243              	.LVL37:
 244 00de F8BD     		pop	{r3, r4, r5, r6, r7, pc}
 245              	.LVL38:
 246              	.L8:
 247              	.LBB21:
 248              	.LBB12:
 193:..\u8g2-master\csrc/u8x8_d_ssd1318.c ****       break;
 249              		.loc 1 193 0
 250 00e0 0A49     		ldr	r1, .L23+16
 251              	.LVL39:
 252 00e2 FFF7FEFF 		bl	u8x8_cad_SendSequence
 253              	.LVL40:
 254              	.LBE12:
 255              	.LBE21:
 281:..\u8g2-master\csrc/u8x8_d_ssd1318.c ****   
 256              		.loc 1 281 0
 257 00e6 0120     		movs	r0, #1
 258              		.loc 1 296 0
 259 00e8 F8BD     		pop	{r3, r4, r5, r6, r7, pc}
 260              	.LVL41:
 261              	.L10:
 262              	.LBB22:
 263              	.LBB13:
 203:..\u8g2-master\csrc/u8x8_d_ssd1318.c **** 	u8x8->x_offset = u8x8->display_info->flipmode_x_offset;
 264              		.loc 1 203 0
 265 00ea 0949     		ldr	r1, .L23+20
 266              	.LVL42:
 267 00ec FFF7FEFF 		bl	u8x8_cad_SendSequence
 268              	.LVL43:
 204:..\u8g2-master\csrc/u8x8_d_ssd1318.c ****       }
 269              		.loc 1 204 0
 270 00f0 2B68     		ldr	r3, [r5]
 271              	.LBE13:
 272              	.LBE22:
 281:..\u8g2-master\csrc/u8x8_d_ssd1318.c ****   
 273              		.loc 1 281 0
 274 00f2 0120     		movs	r0, #1
 275              	.LBB23:
 276              	.LBB14:
 204:..\u8g2-master\csrc/u8x8_d_ssd1318.c ****       }
 277              		.loc 1 204 0
 278 00f4 DB7C     		ldrb	r3, [r3, #19]	@ zero_extendqisi2
 279 00f6 85F82230 		strb	r3, [r5, #34]
 280              	.LVL44:
 281              	.LBE14:
 282              	.LBE23:
 283              		.loc 1 296 0
 284 00fa F8BD     		pop	{r3, r4, r5, r6, r7, pc}
 285              	.LVL45:
 286              	.L24:
 287              		.align	2
 288              	.L23:
 289 00fc 20000000 		.word	.LANCHOR0+32
 290 0100 10000000 		.word	.LANCHOR0+16
 291 0104 00000000 		.word	.LANCHOR0
ARM GAS  C:\Users\info\AppData\Local\Temp\ccnzSRwq.s 			page 12


 292 0108 60000000 		.word	.LANCHOR0+96
 293 010c 08000000 		.word	.LANCHOR0+8
 294 0110 18000000 		.word	.LANCHOR0+24
 295              		.cfi_endproc
 296              	.LFE1:
 297              		.size	u8x8_d_ssd1318_128x96, .-u8x8_d_ssd1318_128x96
 298              		.section	.text.u8x8_d_ssd1318_128x96_xcp,"ax",%progbits
 299              		.align	2
 300              		.global	u8x8_d_ssd1318_128x96_xcp
 301              		.thumb
 302              		.thumb_func
 303              		.type	u8x8_d_ssd1318_128x96_xcp, %function
 304              	u8x8_d_ssd1318_128x96_xcp:
 305              	.LFB2:
 297:..\u8g2-master\csrc/u8x8_d_ssd1318.c **** 
 298:..\u8g2-master\csrc/u8x8_d_ssd1318.c **** uint8_t u8x8_d_ssd1318_128x96_xcp(u8x8_t *u8x8, uint8_t msg, uint8_t arg_int, void *arg_ptr)
 299:..\u8g2-master\csrc/u8x8_d_ssd1318.c **** {
 306              		.loc 1 299 0
 307              		.cfi_startproc
 308              		@ args = 0, pretend = 0, frame = 0
 309              		@ frame_needed = 0, uses_anonymous_args = 0
 310              	.LVL46:
 311 0000 F8B5     		push	{r3, r4, r5, r6, r7, lr}
 312              		.cfi_def_cfa_offset 24
 313              		.cfi_offset 3, -24
 314              		.cfi_offset 4, -20
 315              		.cfi_offset 5, -16
 316              		.cfi_offset 6, -12
 317              		.cfi_offset 7, -8
 318              		.cfi_offset 14, -4
 319              	.LBB26:
 320              	.LBB27:
 176:..\u8g2-master\csrc/u8x8_d_ssd1318.c ****   {
 321              		.loc 1 176 0
 322 0002 A1F10B07 		sub	r7, r1, #11
 323              	.LBE27:
 324              	.LBE26:
 325              		.loc 1 299 0
 326 0006 0546     		mov	r5, r0
 327              	.LVL47:
 328 0008 1446     		mov	r4, r2
 329              	.LVL48:
 330 000a 1E46     		mov	r6, r3
 331              	.LVL49:
 332              	.LBB37:
 333              	.LBB28:
 176:..\u8g2-master\csrc/u8x8_d_ssd1318.c ****   {
 334              		.loc 1 176 0
 335 000c 042F     		cmp	r7, #4
 336 000e 04D8     		bhi	.L26
 337 0010 DFE807F0 		tbb	[pc, r7]
 338              	.LVL50:
 339              	.L28:
 340 0014 58       		.byte	(.L27-.L28)/2
 341 0015 03       		.byte	(.L26-.L28)/2
 342 0016 3F       		.byte	(.L29-.L28)/2
 343 0017 49       		.byte	(.L30-.L28)/2
ARM GAS  C:\Users\info\AppData\Local\Temp\ccnzSRwq.s 			page 13


 344 0018 10       		.byte	(.L31-.L28)/2
 345 0019 00       		.p2align 1
 346              	.L26:
 347              	.LBE28:
 348              	.LBE37:
 300:..\u8g2-master\csrc/u8x8_d_ssd1318.c ****     
 301:..\u8g2-master\csrc/u8x8_d_ssd1318.c ****   if ( u8x8_d_ssd1318_generic(u8x8, msg, arg_int, arg_ptr) != 0 )
 302:..\u8g2-master\csrc/u8x8_d_ssd1318.c ****     return 1;
 303:..\u8g2-master\csrc/u8x8_d_ssd1318.c ****   
 304:..\u8g2-master\csrc/u8x8_d_ssd1318.c ****   switch(msg)
 349              		.loc 1 304 0
 350 001a 0929     		cmp	r1, #9
 351 001c 58D0     		beq	.L38
 352 001e 0A29     		cmp	r1, #10
 353 0020 5CD1     		bne	.L45
 305:..\u8g2-master\csrc/u8x8_d_ssd1318.c ****   {
 306:..\u8g2-master\csrc/u8x8_d_ssd1318.c ****     case U8X8_MSG_DISPLAY_INIT:
 307:..\u8g2-master\csrc/u8x8_d_ssd1318.c ****       u8x8_d_helper_display_init(u8x8);
 354              		.loc 1 307 0
 355 0022 2846     		mov	r0, r5
 356              	.LVL51:
 357 0024 FFF7FEFF 		bl	u8x8_d_helper_display_init
 358              	.LVL52:
 308:..\u8g2-master\csrc/u8x8_d_ssd1318.c ****       u8x8_cad_SendSequence(u8x8, u8x8_d_ssd1318_128x96_xcp_init_seq);    
 359              		.loc 1 308 0
 360 0028 2846     		mov	r0, r5
 361 002a 3449     		ldr	r1, .L46
 362 002c FFF7FEFF 		bl	u8x8_cad_SendSequence
 363              	.LVL53:
 309:..\u8g2-master\csrc/u8x8_d_ssd1318.c ****       break;
 310:..\u8g2-master\csrc/u8x8_d_ssd1318.c ****     case U8X8_MSG_DISPLAY_SETUP_MEMORY:
 311:..\u8g2-master\csrc/u8x8_d_ssd1318.c ****       u8x8_d_helper_display_setup_memory(u8x8, &u8x8_ssd1318_128x96_display_info);
 312:..\u8g2-master\csrc/u8x8_d_ssd1318.c ****       break;
 313:..\u8g2-master\csrc/u8x8_d_ssd1318.c ****     default:
 314:..\u8g2-master\csrc/u8x8_d_ssd1318.c ****       return 0;
 315:..\u8g2-master\csrc/u8x8_d_ssd1318.c ****   }
 316:..\u8g2-master\csrc/u8x8_d_ssd1318.c ****   return 1;
 364              		.loc 1 316 0
 365 0030 0120     		movs	r0, #1
 309:..\u8g2-master\csrc/u8x8_d_ssd1318.c ****       break;
 366              		.loc 1 309 0
 367 0032 F8BD     		pop	{r3, r4, r5, r6, r7, pc}
 368              	.LVL54:
 369              	.L31:
 370              	.LBB38:
 371              	.LBB29:
 216:..\u8g2-master\csrc/u8x8_d_ssd1318.c ****       x = ((u8x8_tile_t *)arg_ptr)->x_pos;    
 372              		.loc 1 216 0
 373 0034 FFF7FEFF 		bl	u8x8_cad_StartTransfer
 374              	.LVL55:
 219:..\u8g2-master\csrc/u8x8_d_ssd1318.c ****     
 375              		.loc 1 219 0
 376 0038 95F82230 		ldrb	r3, [r5, #34]	@ zero_extendqisi2
 217:..\u8g2-master\csrc/u8x8_d_ssd1318.c ****       x *= 8;
 377              		.loc 1 217 0
 378 003c 7779     		ldrb	r7, [r6, #5]	@ zero_extendqisi2
 379              	.LVL56:
ARM GAS  C:\Users\info\AppData\Local\Temp\ccnzSRwq.s 			page 14


 221:..\u8g2-master\csrc/u8x8_d_ssd1318.c ****     
 380              		.loc 1 221 0
 381 003e 4021     		movs	r1, #64
 219:..\u8g2-master\csrc/u8x8_d_ssd1318.c ****     
 382              		.loc 1 219 0
 383 0040 03EBC707 		add	r7, r3, r7, lsl #3
 384              	.LVL57:
 385 0044 07F0FF07 		and	r7, r7, #255
 386              	.LVL58:
 221:..\u8g2-master\csrc/u8x8_d_ssd1318.c ****     
 387              		.loc 1 221 0
 388 0048 2846     		mov	r0, r5
 389 004a FFF7FEFF 		bl	u8x8_cad_SendCmd
 390              	.LVL59:
 223:..\u8g2-master\csrc/u8x8_d_ssd1318.c ****       u8x8_cad_SendArg(u8x8, 0x000 | ((x&15)));					/* probably wrong, should be SendCmd */
 391              		.loc 1 223 0
 392 004e 3909     		lsrs	r1, r7, #4
 393 0050 41F01001 		orr	r1, r1, #16
 394 0054 2846     		mov	r0, r5
 395 0056 FFF7FEFF 		bl	u8x8_cad_SendCmd
 396              	.LVL60:
 224:..\u8g2-master\csrc/u8x8_d_ssd1318.c ****       u8x8_cad_SendArg(u8x8, 0x0b0 | (((u8x8_tile_t *)arg_ptr)->y_pos));	/* probably wrong, should 
 397              		.loc 1 224 0
 398 005a 07F00F01 		and	r1, r7, #15
 399 005e 2846     		mov	r0, r5
 400 0060 FFF7FEFF 		bl	u8x8_cad_SendArg
 401              	.LVL61:
 225:..\u8g2-master\csrc/u8x8_d_ssd1318.c **** 
 402              		.loc 1 225 0
 403 0064 B179     		ldrb	r1, [r6, #6]	@ zero_extendqisi2
 404 0066 2846     		mov	r0, r5
 405 0068 41F0B001 		orr	r1, r1, #176
 406 006c FFF7FEFF 		bl	u8x8_cad_SendArg
 407              	.LVL62:
 408              	.L35:
 232:..\u8g2-master\csrc/u8x8_d_ssd1318.c **** 	/*
 409              		.loc 1 232 0
 410 0070 3179     		ldrb	r1, [r6, #4]	@ zero_extendqisi2
 411 0072 3268     		ldr	r2, [r6]
 412 0074 C900     		lsls	r1, r1, #3
 413 0076 01F0F801 		and	r1, r1, #248
 414 007a 2846     		mov	r0, r5
 415 007c FFF7FEFF 		bl	u8x8_cad_SendData
 416              	.LVL63:
 241:..\u8g2-master\csrc/u8x8_d_ssd1318.c ****       } while( arg_int > 0 );
 417              		.loc 1 241 0
 418 0080 621E     		subs	r2, r4, #1
 419              	.LVL64:
 242:..\u8g2-master\csrc/u8x8_d_ssd1318.c ****       
 420              		.loc 1 242 0
 421 0082 12F0FF04 		ands	r4, r2, #255
 422 0086 F3D1     		bne	.L35
 244:..\u8g2-master\csrc/u8x8_d_ssd1318.c ****       break;
 423              		.loc 1 244 0
 424 0088 2846     		mov	r0, r5
 425 008a FFF7FEFF 		bl	u8x8_cad_EndTransfer
 426              	.LVL65:
ARM GAS  C:\Users\info\AppData\Local\Temp\ccnzSRwq.s 			page 15


 427              	.LBE29:
 428              	.LBE38:
 302:..\u8g2-master\csrc/u8x8_d_ssd1318.c ****   
 429              		.loc 1 302 0
 430 008e 0120     		movs	r0, #1
 317:..\u8g2-master\csrc/u8x8_d_ssd1318.c **** }
 431              		.loc 1 317 0
 432 0090 F8BD     		pop	{r3, r4, r5, r6, r7, pc}
 433              	.LVL66:
 434              	.L29:
 435              	.LBB39:
 436              	.LBB30:
 196:..\u8g2-master\csrc/u8x8_d_ssd1318.c ****       {
 437              		.loc 1 196 0
 438 0092 52BB     		cbnz	r2, .L34
 198:..\u8g2-master\csrc/u8x8_d_ssd1318.c **** 	u8x8->x_offset = u8x8->display_info->default_x_offset;
 439              		.loc 1 198 0
 440 0094 1A49     		ldr	r1, .L46+4
 441              	.LVL67:
 442 0096 FFF7FEFF 		bl	u8x8_cad_SendSequence
 443              	.LVL68:
 199:..\u8g2-master\csrc/u8x8_d_ssd1318.c ****       }
 444              		.loc 1 199 0
 445 009a 2B68     		ldr	r3, [r5]
 446              	.LBE30:
 447              	.LBE39:
 302:..\u8g2-master\csrc/u8x8_d_ssd1318.c ****   
 448              		.loc 1 302 0
 449 009c 0120     		movs	r0, #1
 450              	.LBB40:
 451              	.LBB31:
 199:..\u8g2-master\csrc/u8x8_d_ssd1318.c ****       }
 452              		.loc 1 199 0
 453 009e 9B7C     		ldrb	r3, [r3, #18]	@ zero_extendqisi2
 454 00a0 85F82230 		strb	r3, [r5, #34]
 455              	.LVL69:
 456              	.LBE31:
 457              	.LBE40:
 458              		.loc 1 317 0
 459 00a4 F8BD     		pop	{r3, r4, r5, r6, r7, pc}
 460              	.LVL70:
 461              	.L30:
 462              	.LBB41:
 463              	.LBB32:
 209:..\u8g2-master\csrc/u8x8_d_ssd1318.c ****       u8x8_cad_SendCmd(u8x8, 0x081 );
 464              		.loc 1 209 0
 465 00a6 FFF7FEFF 		bl	u8x8_cad_StartTransfer
 466              	.LVL71:
 210:..\u8g2-master\csrc/u8x8_d_ssd1318.c ****       u8x8_cad_SendArg(u8x8, arg_int );	/* ssd1318 has range from 0 to 255 */
 467              		.loc 1 210 0
 468 00aa 8121     		movs	r1, #129
 469 00ac 2846     		mov	r0, r5
 470 00ae FFF7FEFF 		bl	u8x8_cad_SendCmd
 471              	.LVL72:
 211:..\u8g2-master\csrc/u8x8_d_ssd1318.c ****       u8x8_cad_EndTransfer(u8x8);
 472              		.loc 1 211 0
 473 00b2 2146     		mov	r1, r4
ARM GAS  C:\Users\info\AppData\Local\Temp\ccnzSRwq.s 			page 16


 474 00b4 2846     		mov	r0, r5
 475 00b6 FFF7FEFF 		bl	u8x8_cad_SendArg
 476              	.LVL73:
 212:..\u8g2-master\csrc/u8x8_d_ssd1318.c ****       break;
 477              		.loc 1 212 0
 478 00ba 2846     		mov	r0, r5
 479 00bc FFF7FEFF 		bl	u8x8_cad_EndTransfer
 480              	.LVL74:
 481              	.LBE32:
 482              	.LBE41:
 302:..\u8g2-master\csrc/u8x8_d_ssd1318.c ****   
 483              		.loc 1 302 0
 484 00c0 0120     		movs	r0, #1
 485              		.loc 1 317 0
 486 00c2 F8BD     		pop	{r3, r4, r5, r6, r7, pc}
 487              	.LVL75:
 488              	.L27:
 489              	.LBB42:
 490              	.LBB33:
 190:..\u8g2-master\csrc/u8x8_d_ssd1318.c **** 	u8x8_cad_SendSequence(u8x8, u8x8_d_ssd1318_128x96_powersave0_seq);
 491              		.loc 1 190 0
 492 00c4 62B9     		cbnz	r2, .L32
 191:..\u8g2-master\csrc/u8x8_d_ssd1318.c ****       else
 493              		.loc 1 191 0
 494 00c6 0F49     		ldr	r1, .L46+8
 495              	.LVL76:
 496 00c8 FFF7FEFF 		bl	u8x8_cad_SendSequence
 497              	.LVL77:
 498              	.LBE33:
 499              	.LBE42:
 302:..\u8g2-master\csrc/u8x8_d_ssd1318.c ****   
 500              		.loc 1 302 0
 501 00cc 0120     		movs	r0, #1
 502              		.loc 1 317 0
 503 00ce F8BD     		pop	{r3, r4, r5, r6, r7, pc}
 504              	.LVL78:
 505              	.L38:
 311:..\u8g2-master\csrc/u8x8_d_ssd1318.c ****       break;
 506              		.loc 1 311 0
 507 00d0 2846     		mov	r0, r5
 508              	.LVL79:
 509 00d2 0D49     		ldr	r1, .L46+12
 510              	.LVL80:
 511 00d4 FFF7FEFF 		bl	u8x8_d_helper_display_setup_memory
 512              	.LVL81:
 316:..\u8g2-master\csrc/u8x8_d_ssd1318.c **** }
 513              		.loc 1 316 0
 514 00d8 0120     		movs	r0, #1
 312:..\u8g2-master\csrc/u8x8_d_ssd1318.c ****     default:
 515              		.loc 1 312 0
 516 00da F8BD     		pop	{r3, r4, r5, r6, r7, pc}
 517              	.LVL82:
 518              	.L45:
 314:..\u8g2-master\csrc/u8x8_d_ssd1318.c ****   }
 519              		.loc 1 314 0
 520 00dc 0020     		movs	r0, #0
 521              	.LVL83:
ARM GAS  C:\Users\info\AppData\Local\Temp\ccnzSRwq.s 			page 17


 522 00de F8BD     		pop	{r3, r4, r5, r6, r7, pc}
 523              	.LVL84:
 524              	.L32:
 525              	.LBB43:
 526              	.LBB34:
 193:..\u8g2-master\csrc/u8x8_d_ssd1318.c ****       break;
 527              		.loc 1 193 0
 528 00e0 0A49     		ldr	r1, .L46+16
 529              	.LVL85:
 530 00e2 FFF7FEFF 		bl	u8x8_cad_SendSequence
 531              	.LVL86:
 532              	.LBE34:
 533              	.LBE43:
 302:..\u8g2-master\csrc/u8x8_d_ssd1318.c ****   
 534              		.loc 1 302 0
 535 00e6 0120     		movs	r0, #1
 536              		.loc 1 317 0
 537 00e8 F8BD     		pop	{r3, r4, r5, r6, r7, pc}
 538              	.LVL87:
 539              	.L34:
 540              	.LBB44:
 541              	.LBB35:
 203:..\u8g2-master\csrc/u8x8_d_ssd1318.c **** 	u8x8->x_offset = u8x8->display_info->flipmode_x_offset;
 542              		.loc 1 203 0
 543 00ea 0949     		ldr	r1, .L46+20
 544              	.LVL88:
 545 00ec FFF7FEFF 		bl	u8x8_cad_SendSequence
 546              	.LVL89:
 204:..\u8g2-master\csrc/u8x8_d_ssd1318.c ****       }
 547              		.loc 1 204 0
 548 00f0 2B68     		ldr	r3, [r5]
 549              	.LBE35:
 550              	.LBE44:
 302:..\u8g2-master\csrc/u8x8_d_ssd1318.c ****   
 551              		.loc 1 302 0
 552 00f2 0120     		movs	r0, #1
 553              	.LBB45:
 554              	.LBB36:
 204:..\u8g2-master\csrc/u8x8_d_ssd1318.c ****       }
 555              		.loc 1 204 0
 556 00f4 DB7C     		ldrb	r3, [r3, #19]	@ zero_extendqisi2
 557 00f6 85F82230 		strb	r3, [r5, #34]
 558              	.LVL90:
 559              	.LBE36:
 560              	.LBE45:
 561              		.loc 1 317 0
 562 00fa F8BD     		pop	{r3, r4, r5, r6, r7, pc}
 563              	.LVL91:
 564              	.L47:
 565              		.align	2
 566              	.L46:
 567 00fc 78000000 		.word	.LANCHOR0+120
 568 0100 10000000 		.word	.LANCHOR0+16
 569 0104 00000000 		.word	.LANCHOR0
 570 0108 60000000 		.word	.LANCHOR0+96
 571 010c 08000000 		.word	.LANCHOR0+8
 572 0110 18000000 		.word	.LANCHOR0+24
ARM GAS  C:\Users\info\AppData\Local\Temp\ccnzSRwq.s 			page 18


 573              		.cfi_endproc
 574              	.LFE2:
 575              		.size	u8x8_d_ssd1318_128x96_xcp, .-u8x8_d_ssd1318_128x96_xcp
 576              		.section	.rodata
 577              		.align	2
 578              		.set	.LANCHOR0,. + 0
 579              		.type	u8x8_d_ssd1318_128x96_powersave0_seq, %object
 580              		.size	u8x8_d_ssd1318_128x96_powersave0_seq, 5
 581              	u8x8_d_ssd1318_128x96_powersave0_seq:
 582 0000 18       		.byte	24
 583 0001 15       		.byte	21
 584 0002 AF       		.byte	-81
 585 0003 19       		.byte	25
 586 0004 FF       		.byte	-1
 587 0005 000000   		.space	3
 588              		.type	u8x8_d_ssd1318_128x96_powersave1_seq, %object
 589              		.size	u8x8_d_ssd1318_128x96_powersave1_seq, 5
 590              	u8x8_d_ssd1318_128x96_powersave1_seq:
 591 0008 18       		.byte	24
 592 0009 15       		.byte	21
 593 000a AE       		.byte	-82
 594 000b 19       		.byte	25
 595 000c FF       		.byte	-1
 596 000d 000000   		.space	3
 597              		.type	u8x8_d_ssd1318_128x96_flip0_seq, %object
 598              		.size	u8x8_d_ssd1318_128x96_flip0_seq, 7
 599              	u8x8_d_ssd1318_128x96_flip0_seq:
 600 0010 18       		.byte	24
 601 0011 15       		.byte	21
 602 0012 A1       		.byte	-95
 603 0013 15       		.byte	21
 604 0014 C0       		.byte	-64
 605 0015 19       		.byte	25
 606 0016 FF       		.byte	-1
 607 0017 00       		.space	1
 608              		.type	u8x8_d_ssd1318_128x96_flip1_seq, %object
 609              		.size	u8x8_d_ssd1318_128x96_flip1_seq, 7
 610              	u8x8_d_ssd1318_128x96_flip1_seq:
 611 0018 18       		.byte	24
 612 0019 15       		.byte	21
 613 001a A0       		.byte	-96
 614 001b 15       		.byte	21
 615 001c C8       		.byte	-56
 616 001d 19       		.byte	25
 617 001e FF       		.byte	-1
 618 001f 00       		.space	1
 619              		.type	u8x8_d_ssd1318_128x96_icp_init_seq, %object
 620              		.size	u8x8_d_ssd1318_128x96_icp_init_seq, 61
 621              	u8x8_d_ssd1318_128x96_icp_init_seq:
 622 0020 18       		.byte	24
 623 0021 15       		.byte	21
 624 0022 FD       		.byte	-3
 625 0023 16       		.byte	22
 626 0024 12       		.byte	18
 627 0025 15       		.byte	21
 628 0026 AE       		.byte	-82
 629 0027 15       		.byte	21
ARM GAS  C:\Users\info\AppData\Local\Temp\ccnzSRwq.s 			page 19


 630 0028 AD       		.byte	-83
 631 0029 16       		.byte	22
 632 002a D0       		.byte	-48
 633 002b 15       		.byte	21
 634 002c A8       		.byte	-88
 635 002d 16       		.byte	22
 636 002e 5F       		.byte	95
 637 002f 15       		.byte	21
 638 0030 D3       		.byte	-45
 639 0031 16       		.byte	22
 640 0032 00       		.byte	0
 641 0033 15       		.byte	21
 642 0034 A2       		.byte	-94
 643 0035 16       		.byte	22
 644 0036 00       		.byte	0
 645 0037 15       		.byte	21
 646 0038 8D       		.byte	-115
 647 0039 16       		.byte	22
 648 003a C4       		.byte	-60
 649 003b 16       		.byte	22
 650 003c AC       		.byte	-84
 651 003d 16       		.byte	22
 652 003e 01       		.byte	1
 653 003f 15       		.byte	21
 654 0040 A1       		.byte	-95
 655 0041 15       		.byte	21
 656 0042 C0       		.byte	-64
 657 0043 15       		.byte	21
 658 0044 DA       		.byte	-38
 659 0045 16       		.byte	22
 660 0046 12       		.byte	18
 661 0047 15       		.byte	21
 662 0048 81       		.byte	-127
 663 0049 16       		.byte	22
 664 004a 0F       		.byte	15
 665 004b 15       		.byte	21
 666 004c D5       		.byte	-43
 667 004d 16       		.byte	22
 668 004e D1       		.byte	-47
 669 004f 15       		.byte	21
 670 0050 D9       		.byte	-39
 671 0051 16       		.byte	22
 672 0052 22       		.byte	34
 673 0053 15       		.byte	21
 674 0054 DB       		.byte	-37
 675 0055 16       		.byte	22
 676 0056 30       		.byte	48
 677 0057 15       		.byte	21
 678 0058 A4       		.byte	-92
 679 0059 15       		.byte	21
 680 005a A6       		.byte	-90
 681 005b 19       		.byte	25
 682 005c FF       		.byte	-1
 683 005d 000000   		.space	3
 684              		.type	u8x8_ssd1318_128x96_display_info, %object
 685              		.size	u8x8_ssd1318_128x96_display_info, 24
 686              	u8x8_ssd1318_128x96_display_info:
ARM GAS  C:\Users\info\AppData\Local\Temp\ccnzSRwq.s 			page 20


 687 0060 00       		.byte	0
 688 0061 01       		.byte	1
 689 0062 14       		.byte	20
 690 0063 0A       		.byte	10
 691 0064 64       		.byte	100
 692 0065 64       		.byte	100
 693 0066 32       		.byte	50
 694 0067 32       		.byte	50
 695 0068 00127A00 		.word	8000000
 696 006c 00       		.byte	0
 697 006d 04       		.byte	4
 698 006e 28       		.byte	40
 699 006f 96       		.byte	-106
 700 0070 10       		.byte	16
 701 0071 0C       		.byte	12
 702 0072 00       		.byte	0
 703 0073 00       		.byte	0
 704 0074 8000     		.short	128
 705 0076 6000     		.short	96
 706              		.type	u8x8_d_ssd1318_128x96_xcp_init_seq, %object
 707              		.size	u8x8_d_ssd1318_128x96_xcp_init_seq, 53
 708              	u8x8_d_ssd1318_128x96_xcp_init_seq:
 709 0078 18       		.byte	24
 710 0079 15       		.byte	21
 711 007a FD       		.byte	-3
 712 007b 16       		.byte	22
 713 007c 12       		.byte	18
 714 007d 15       		.byte	21
 715 007e AE       		.byte	-82
 716 007f 15       		.byte	21
 717 0080 AD       		.byte	-83
 718 0081 16       		.byte	22
 719 0082 D0       		.byte	-48
 720 0083 15       		.byte	21
 721 0084 A8       		.byte	-88
 722 0085 16       		.byte	22
 723 0086 5F       		.byte	95
 724 0087 15       		.byte	21
 725 0088 D3       		.byte	-45
 726 0089 16       		.byte	22
 727 008a 00       		.byte	0
 728 008b 15       		.byte	21
 729 008c A2       		.byte	-94
 730 008d 16       		.byte	22
 731 008e 00       		.byte	0
 732 008f 15       		.byte	21
 733 0090 A1       		.byte	-95
 734 0091 15       		.byte	21
 735 0092 C0       		.byte	-64
 736 0093 15       		.byte	21
 737 0094 DA       		.byte	-38
 738 0095 16       		.byte	22
 739 0096 12       		.byte	18
 740 0097 15       		.byte	21
 741 0098 81       		.byte	-127
 742 0099 16       		.byte	22
 743 009a 0F       		.byte	15
ARM GAS  C:\Users\info\AppData\Local\Temp\ccnzSRwq.s 			page 21


 744 009b 15       		.byte	21
 745 009c D5       		.byte	-43
 746 009d 16       		.byte	22
 747 009e D1       		.byte	-47
 748 009f 15       		.byte	21
 749 00a0 D9       		.byte	-39
 750 00a1 16       		.byte	22
 751 00a2 22       		.byte	34
 752 00a3 15       		.byte	21
 753 00a4 DB       		.byte	-37
 754 00a5 16       		.byte	22
 755 00a6 30       		.byte	48
 756 00a7 15       		.byte	21
 757 00a8 A4       		.byte	-92
 758 00a9 15       		.byte	21
 759 00aa A6       		.byte	-90
 760 00ab 19       		.byte	25
 761 00ac FF       		.byte	-1
 762              		.text
 763              	.Letext0:
 764              		.file 2 "c:\\program files (x86)\\cypress\\psoc creator\\4.2\\psoc creator\\import\\gnu\\arm\\5.4.
 765              		.file 3 "c:\\program files (x86)\\cypress\\psoc creator\\4.2\\psoc creator\\import\\gnu\\arm\\5.4.
 766              		.file 4 "..\\u8g2-master\\csrc\\u8x8.h"