ARM GAS  C:\Users\info\AppData\Local\Temp\ccT4mdOB.s 			page 1


   1              		.syntax unified
   2              		.cpu cortex-m3
   3              		.fpu softvfp
   4              		.eabi_attribute 20, 1
   5              		.eabi_attribute 21, 1
   6              		.eabi_attribute 23, 3
   7              		.eabi_attribute 24, 1
   8              		.eabi_attribute 25, 1
   9              		.eabi_attribute 26, 1
  10              		.eabi_attribute 30, 2
  11              		.eabi_attribute 34, 1
  12              		.eabi_attribute 18, 4
  13              		.thumb
  14              		.syntax unified
  15              		.file	"u8x8_d_st7586s_erc240160.c"
  16              		.text
  17              	.Ltext0:
  18              		.cfi_sections	.debug_frame
  19              		.section	.text.u8x8_d_st7586s_erc240160,"ax",%progbits
  20              		.align	2
  21              		.global	u8x8_d_st7586s_erc240160
  22              		.thumb
  23              		.thumb_func
  24              		.type	u8x8_d_st7586s_erc240160, %function
  25              	u8x8_d_st7586s_erc240160:
  26              	.LFB0:
  27              		.file 1 "..\\u8g2-master\\csrc\\u8x8_d_st7586s_erc240160.c"
   1:..\u8g2-master\csrc/u8x8_d_st7586s_erc240160.c **** /*
   2:..\u8g2-master\csrc/u8x8_d_st7586s_erc240160.c ****   u8x8_d_st7586s_erc240160.c
   3:..\u8g2-master\csrc/u8x8_d_st7586s_erc240160.c ****   Universal 8bit Graphics Library (https://github.com/olikraus/u8g2/)
   4:..\u8g2-master\csrc/u8x8_d_st7586s_erc240160.c ****   Copyright (c) 2018, olikraus@gmail.com
   5:..\u8g2-master\csrc/u8x8_d_st7586s_erc240160.c ****   All rights reserved.
   6:..\u8g2-master\csrc/u8x8_d_st7586s_erc240160.c ****   Redistribution and use in source and binary forms, with or without modification, 
   7:..\u8g2-master\csrc/u8x8_d_st7586s_erc240160.c ****   are permitted provided that the following conditions are met:
   8:..\u8g2-master\csrc/u8x8_d_st7586s_erc240160.c ****   * Redistributions of source code must retain the above copyright notice, this list 
   9:..\u8g2-master\csrc/u8x8_d_st7586s_erc240160.c ****     of conditions and the following disclaimer.
  10:..\u8g2-master\csrc/u8x8_d_st7586s_erc240160.c ****     
  11:..\u8g2-master\csrc/u8x8_d_st7586s_erc240160.c ****   * Redistributions in binary form must reproduce the above copyright notice, this 
  12:..\u8g2-master\csrc/u8x8_d_st7586s_erc240160.c ****     list of conditions and the following disclaimer in the documentation and/or other 
  13:..\u8g2-master\csrc/u8x8_d_st7586s_erc240160.c ****     materials provided with the distribution.
  14:..\u8g2-master\csrc/u8x8_d_st7586s_erc240160.c ****   THIS SOFTWARE IS PROVIDED BY THE COPYRIGHT HOLDERS AND 
  15:..\u8g2-master\csrc/u8x8_d_st7586s_erc240160.c ****   CONTRIBUTORS "AS IS" AND ANY EXPRESS OR IMPLIED WARRANTIES, 
  16:..\u8g2-master\csrc/u8x8_d_st7586s_erc240160.c ****   INCLUDING, BUT NOT LIMITED TO, THE IMPLIED WARRANTIES OF 
  17:..\u8g2-master\csrc/u8x8_d_st7586s_erc240160.c ****   MERCHANTABILITY AND FITNESS FOR A PARTICULAR PURPOSE ARE 
  18:..\u8g2-master\csrc/u8x8_d_st7586s_erc240160.c ****   DISCLAIMED. IN NO EVENT SHALL THE COPYRIGHT HOLDER OR 
  19:..\u8g2-master\csrc/u8x8_d_st7586s_erc240160.c ****   CONTRIBUTORS BE LIABLE FOR ANY DIRECT, INDIRECT, INCIDENTAL, 
  20:..\u8g2-master\csrc/u8x8_d_st7586s_erc240160.c ****   SPECIAL, EXEMPLARY, OR CONSEQUENTIAL DAMAGES (INCLUDING, BUT 
  21:..\u8g2-master\csrc/u8x8_d_st7586s_erc240160.c ****   NOT LIMITED TO, PROCUREMENT OF SUBSTITUTE GOODS OR SERVICES; 
  22:..\u8g2-master\csrc/u8x8_d_st7586s_erc240160.c ****   LOSS OF USE, DATA, OR PROFITS; OR BUSINESS INTERRUPTION) HOWEVER 
  23:..\u8g2-master\csrc/u8x8_d_st7586s_erc240160.c ****   CAUSED AND ON ANY THEORY OF LIABILITY, WHETHER IN CONTRACT, 
  24:..\u8g2-master\csrc/u8x8_d_st7586s_erc240160.c ****   STRICT LIABILITY, OR TORT (INCLUDING NEGLIGENCE OR OTHERWISE) 
  25:..\u8g2-master\csrc/u8x8_d_st7586s_erc240160.c ****   ARISING IN ANY WAY OUT OF THE USE OF THIS SOFTWARE, EVEN IF 
  26:..\u8g2-master\csrc/u8x8_d_st7586s_erc240160.c ****   ADVISED OF THE POSSIBILITY OF SUCH DAMAGE.  
  27:..\u8g2-master\csrc/u8x8_d_st7586s_erc240160.c ****   
  28:..\u8g2-master\csrc/u8x8_d_st7586s_erc240160.c **** */
  29:..\u8g2-master\csrc/u8x8_d_st7586s_erc240160.c **** 
  30:..\u8g2-master\csrc/u8x8_d_st7586s_erc240160.c **** #include "u8g2.h"
ARM GAS  C:\Users\info\AppData\Local\Temp\ccT4mdOB.s 			page 2


  31:..\u8g2-master\csrc/u8x8_d_st7586s_erc240160.c **** 
  32:..\u8g2-master\csrc/u8x8_d_st7586s_erc240160.c **** 
  33:..\u8g2-master\csrc/u8x8_d_st7586s_erc240160.c **** static const uint8_t u8x8_d_st7586s_sleep_on[] = {
  34:..\u8g2-master\csrc/u8x8_d_st7586s_erc240160.c ****   U8X8_START_TRANSFER(),  /* enable chip, delay is part of the transfer start */
  35:..\u8g2-master\csrc/u8x8_d_st7586s_erc240160.c ****   U8X8_C(0x010), /* set power save mode */
  36:..\u8g2-master\csrc/u8x8_d_st7586s_erc240160.c ****   U8X8_END_TRANSFER(),  /* disable chip */
  37:..\u8g2-master\csrc/u8x8_d_st7586s_erc240160.c ****   U8X8_END()                  /* end of sequence */
  38:..\u8g2-master\csrc/u8x8_d_st7586s_erc240160.c **** };
  39:..\u8g2-master\csrc/u8x8_d_st7586s_erc240160.c **** 
  40:..\u8g2-master\csrc/u8x8_d_st7586s_erc240160.c **** static const uint8_t u8x8_d_st7586s_sleep_off[] = {
  41:..\u8g2-master\csrc/u8x8_d_st7586s_erc240160.c ****   U8X8_START_TRANSFER(),  /* enable chip, delay is part of the transfer start */
  42:..\u8g2-master\csrc/u8x8_d_st7586s_erc240160.c ****   U8X8_C(0x011), //Sleep out
  43:..\u8g2-master\csrc/u8x8_d_st7586s_erc240160.c ****   U8X8_DLY(50), /* delay 50 ms */
  44:..\u8g2-master\csrc/u8x8_d_st7586s_erc240160.c ****   U8X8_END_TRANSFER(),  /* disable chip */
  45:..\u8g2-master\csrc/u8x8_d_st7586s_erc240160.c ****   U8X8_END()                  /* end of sequence */
  46:..\u8g2-master\csrc/u8x8_d_st7586s_erc240160.c **** };
  47:..\u8g2-master\csrc/u8x8_d_st7586s_erc240160.c **** 
  48:..\u8g2-master\csrc/u8x8_d_st7586s_erc240160.c **** static const uint8_t u8x8_d_st7586s_erc240160_flip0_seq[] = {
  49:..\u8g2-master\csrc/u8x8_d_st7586s_erc240160.c ****   U8X8_START_TRANSFER(),             	/* enable chip, delay is part of the transfer start */
  50:..\u8g2-master\csrc/u8x8_d_st7586s_erc240160.c ****   U8X8_C(0x036),  /* Scan Direction Setting */
  51:..\u8g2-master\csrc/u8x8_d_st7586s_erc240160.c ****   U8X8_A(0x0C8),	/* COM159 -> COM0 SEG383 -> SEG0 */
  52:..\u8g2-master\csrc/u8x8_d_st7586s_erc240160.c ****   U8X8_C(0x037),	/* Start line 0 */
  53:..\u8g2-master\csrc/u8x8_d_st7586s_erc240160.c ****   U8X8_A(0x000),
  54:..\u8g2-master\csrc/u8x8_d_st7586s_erc240160.c ****   U8X8_C(0x02A), /* Column Address Setting */
  55:..\u8g2-master\csrc/u8x8_d_st7586s_erc240160.c ****   U8X8_A(0x000),  /* COL8 -> COL127 */
  56:..\u8g2-master\csrc/u8x8_d_st7586s_erc240160.c ****   U8X8_A(0x008),  
  57:..\u8g2-master\csrc/u8x8_d_st7586s_erc240160.c ****   U8X8_A(0x000), 
  58:..\u8g2-master\csrc/u8x8_d_st7586s_erc240160.c ****   U8X8_A(0x07F),  /* 120*3=240 pixels + 120 unused */
  59:..\u8g2-master\csrc/u8x8_d_st7586s_erc240160.c ****   U8X8_END_TRANSFER(),  /* disable chip */
  60:..\u8g2-master\csrc/u8x8_d_st7586s_erc240160.c ****   U8X8_END()           	/* end of sequence */
  61:..\u8g2-master\csrc/u8x8_d_st7586s_erc240160.c **** };
  62:..\u8g2-master\csrc/u8x8_d_st7586s_erc240160.c **** 
  63:..\u8g2-master\csrc/u8x8_d_st7586s_erc240160.c **** static const uint8_t u8x8_d_st7586s_erc240160_flip1_seq[] = {
  64:..\u8g2-master\csrc/u8x8_d_st7586s_erc240160.c ****   U8X8_START_TRANSFER(),             	/* enable chip, delay is part of the transfer start */
  65:..\u8g2-master\csrc/u8x8_d_st7586s_erc240160.c ****   U8X8_C(0x036),  /* Scan Direction Setting */
  66:..\u8g2-master\csrc/u8x8_d_st7586s_erc240160.c ****   U8X8_A(0x000),  /* COM0 -> COM159 SEG0 -> SEG383 */
  67:..\u8g2-master\csrc/u8x8_d_st7586s_erc240160.c ****   U8X8_C(0x037),  /* Start line 0 */
  68:..\u8g2-master\csrc/u8x8_d_st7586s_erc240160.c ****   U8X8_A(0x000),
  69:..\u8g2-master\csrc/u8x8_d_st7586s_erc240160.c ****   U8X8_C(0x02A),  /* Column Address Setting */
  70:..\u8g2-master\csrc/u8x8_d_st7586s_erc240160.c ****   U8X8_A(0x000),  /* COL0 -> COL119 */
  71:..\u8g2-master\csrc/u8x8_d_st7586s_erc240160.c ****   U8X8_A(0x000),
  72:..\u8g2-master\csrc/u8x8_d_st7586s_erc240160.c ****   U8X8_A(0x000),
  73:..\u8g2-master\csrc/u8x8_d_st7586s_erc240160.c ****   U8X8_A(0x077),  /* 120*3=240 pixels + 120 unused */
  74:..\u8g2-master\csrc/u8x8_d_st7586s_erc240160.c ****   U8X8_END_TRANSFER(),  /* disable chip */
  75:..\u8g2-master\csrc/u8x8_d_st7586s_erc240160.c ****   U8X8_END()            /* end of sequence */
  76:..\u8g2-master\csrc/u8x8_d_st7586s_erc240160.c **** };
  77:..\u8g2-master\csrc/u8x8_d_st7586s_erc240160.c **** 
  78:..\u8g2-master\csrc/u8x8_d_st7586s_erc240160.c **** static const uint8_t u8x8_d_st7586s_erc240160_init_seq[] = {
  79:..\u8g2-master\csrc/u8x8_d_st7586s_erc240160.c ****   U8X8_END_TRANSFER(),/* disable chip */
  80:..\u8g2-master\csrc/u8x8_d_st7586s_erc240160.c ****  // U8G_ESC_RST(1), /* hardware reset */
  81:..\u8g2-master\csrc/u8x8_d_st7586s_erc240160.c ****   U8X8_DLY(60),   /* Delay 60 ms */
  82:..\u8g2-master\csrc/u8x8_d_st7586s_erc240160.c ****   U8X8_START_TRANSFER(),/* enable chip */
  83:..\u8g2-master\csrc/u8x8_d_st7586s_erc240160.c **** 
  84:..\u8g2-master\csrc/u8x8_d_st7586s_erc240160.c ****   U8X8_C(0x001), // Soft reset
  85:..\u8g2-master\csrc/u8x8_d_st7586s_erc240160.c ****   U8X8_DLY(60), // Delay 120 ms
  86:..\u8g2-master\csrc/u8x8_d_st7586s_erc240160.c **** 
  87:..\u8g2-master\csrc/u8x8_d_st7586s_erc240160.c ****   U8X8_C(0x011), // Sleep Out
ARM GAS  C:\Users\info\AppData\Local\Temp\ccT4mdOB.s 			page 3


  88:..\u8g2-master\csrc/u8x8_d_st7586s_erc240160.c ****   U8X8_C(0x028), // Display OFF
  89:..\u8g2-master\csrc/u8x8_d_st7586s_erc240160.c ****   U8X8_DLY(25), // Delay 50 ms
  90:..\u8g2-master\csrc/u8x8_d_st7586s_erc240160.c **** 
  91:..\u8g2-master\csrc/u8x8_d_st7586s_erc240160.c ****   U8X8_CAA(0x0C0,0x036,0x01),// Vop = 136h data sheet suggested 0x0145 but this caused streaks
  92:..\u8g2-master\csrc/u8x8_d_st7586s_erc240160.c **** 
  93:..\u8g2-master\csrc/u8x8_d_st7586s_erc240160.c ****   U8X8_CA(0x0C3,0x000), // BIAS = 1/14
  94:..\u8g2-master\csrc/u8x8_d_st7586s_erc240160.c **** 
  95:..\u8g2-master\csrc/u8x8_d_st7586s_erc240160.c ****   U8X8_CA(0x0C4,0x007), // Booster = x8
  96:..\u8g2-master\csrc/u8x8_d_st7586s_erc240160.c **** 
  97:..\u8g2-master\csrc/u8x8_d_st7586s_erc240160.c ****   U8X8_CA(0x0D0,0x01D), // Enable Analog Circuit
  98:..\u8g2-master\csrc/u8x8_d_st7586s_erc240160.c **** 
  99:..\u8g2-master\csrc/u8x8_d_st7586s_erc240160.c ****   U8X8_CA(0x0B3,0x000), // Set FOSC divider
 100:..\u8g2-master\csrc/u8x8_d_st7586s_erc240160.c **** 
 101:..\u8g2-master\csrc/u8x8_d_st7586s_erc240160.c ****   U8X8_CA(0x0B5,0x000), // N-Line = 0
 102:..\u8g2-master\csrc/u8x8_d_st7586s_erc240160.c **** 
 103:..\u8g2-master\csrc/u8x8_d_st7586s_erc240160.c ****   U8X8_C(0x039), // 0x39 Monochrome mode. 0x38 - gray Mode
 104:..\u8g2-master\csrc/u8x8_d_st7586s_erc240160.c **** 
 105:..\u8g2-master\csrc/u8x8_d_st7586s_erc240160.c ****   U8X8_C(0x03A), // Enable DDRAM Interface
 106:..\u8g2-master\csrc/u8x8_d_st7586s_erc240160.c ****   U8X8_A(0x002), // monochrome and 4-level
 107:..\u8g2-master\csrc/u8x8_d_st7586s_erc240160.c **** 
 108:..\u8g2-master\csrc/u8x8_d_st7586s_erc240160.c ****   U8X8_C(0x036), // Scan Direction Setting
 109:..\u8g2-master\csrc/u8x8_d_st7586s_erc240160.c ****   U8X8_A(0x0C8), // COM:C159->C0   SEG: SEG383->SEG0
 110:..\u8g2-master\csrc/u8x8_d_st7586s_erc240160.c **** 
 111:..\u8g2-master\csrc/u8x8_d_st7586s_erc240160.c ****   U8X8_C(0x0B1), // First output COM
 112:..\u8g2-master\csrc/u8x8_d_st7586s_erc240160.c ****   U8X8_A(0x000), // 
 113:..\u8g2-master\csrc/u8x8_d_st7586s_erc240160.c ****   
 114:..\u8g2-master\csrc/u8x8_d_st7586s_erc240160.c ****   U8X8_C(0x0B0), // Duty Setting (num rows - 1)
 115:..\u8g2-master\csrc/u8x8_d_st7586s_erc240160.c ****   U8X8_A(0x09F), 
 116:..\u8g2-master\csrc/u8x8_d_st7586s_erc240160.c **** 
 117:..\u8g2-master\csrc/u8x8_d_st7586s_erc240160.c ****   U8X8_C(0x020), // Display inversion off
 118:..\u8g2-master\csrc/u8x8_d_st7586s_erc240160.c **** 
 119:..\u8g2-master\csrc/u8x8_d_st7586s_erc240160.c ****   U8X8_C(0x02A), // Column Address Setting
 120:..\u8g2-master\csrc/u8x8_d_st7586s_erc240160.c ****   U8X8_A(0x000), // COL0 -> COL127
 121:..\u8g2-master\csrc/u8x8_d_st7586s_erc240160.c ****   U8X8_A(0x008), // 
 122:..\u8g2-master\csrc/u8x8_d_st7586s_erc240160.c ****   U8X8_A(0x000), //
 123:..\u8g2-master\csrc/u8x8_d_st7586s_erc240160.c ****   U8X8_A(0x07F), // 80*3=240 pixels
 124:..\u8g2-master\csrc/u8x8_d_st7586s_erc240160.c **** 
 125:..\u8g2-master\csrc/u8x8_d_st7586s_erc240160.c ****   U8X8_C(0x02B), // Row Address Setting
 126:..\u8g2-master\csrc/u8x8_d_st7586s_erc240160.c ****   U8X8_A(0x000), // ROW0 -> ROW159
 127:..\u8g2-master\csrc/u8x8_d_st7586s_erc240160.c ****   U8X8_A(0x000), //
 128:..\u8g2-master\csrc/u8x8_d_st7586s_erc240160.c ****   U8X8_A(0x000), //
 129:..\u8g2-master\csrc/u8x8_d_st7586s_erc240160.c ****   U8X8_A(0x09F), // 160 pixels
 130:..\u8g2-master\csrc/u8x8_d_st7586s_erc240160.c **** 
 131:..\u8g2-master\csrc/u8x8_d_st7586s_erc240160.c ****   U8X8_C(0x029), // Display ON
 132:..\u8g2-master\csrc/u8x8_d_st7586s_erc240160.c ****   U8X8_END()  /* end of sequence */
 133:..\u8g2-master\csrc/u8x8_d_st7586s_erc240160.c **** };
 134:..\u8g2-master\csrc/u8x8_d_st7586s_erc240160.c **** 
 135:..\u8g2-master\csrc/u8x8_d_st7586s_erc240160.c **** static const u8x8_display_info_t u8x8_st7586s_erc240160_display_info =
 136:..\u8g2-master\csrc/u8x8_d_st7586s_erc240160.c **** {
 137:..\u8g2-master\csrc/u8x8_d_st7586s_erc240160.c ****   /* chip_enable_level = */ 0,
 138:..\u8g2-master\csrc/u8x8_d_st7586s_erc240160.c ****   /* chip_disable_level = */ 1,
 139:..\u8g2-master\csrc/u8x8_d_st7586s_erc240160.c **** 
 140:..\u8g2-master\csrc/u8x8_d_st7586s_erc240160.c ****   /* post_chip_enable_wait_ns = */ 5,
 141:..\u8g2-master\csrc/u8x8_d_st7586s_erc240160.c ****   /* pre_chip_disable_wait_ns = */ 5,
 142:..\u8g2-master\csrc/u8x8_d_st7586s_erc240160.c ****   /* reset_pulse_width_ms = */ 1,
 143:..\u8g2-master\csrc/u8x8_d_st7586s_erc240160.c ****   /* post_reset_wait_ms = */ 6,
 144:..\u8g2-master\csrc/u8x8_d_st7586s_erc240160.c ****   /* sda_setup_time_ns = */ 20,
ARM GAS  C:\Users\info\AppData\Local\Temp\ccT4mdOB.s 			page 4


 145:..\u8g2-master\csrc/u8x8_d_st7586s_erc240160.c ****   /* sck_pulse_width_ns = */  100,  /* datasheet ST7586S */
 146:..\u8g2-master\csrc/u8x8_d_st7586s_erc240160.c ****   /* sck_clock_hz = */ 8000000UL, /* since Arduino 1.6.0, the SPI bus speed in Hz. Should be  10000
 147:..\u8g2-master\csrc/u8x8_d_st7586s_erc240160.c ****   /* ST7586+Atmega128RFA1 works with 8MHz */
 148:..\u8g2-master\csrc/u8x8_d_st7586s_erc240160.c ****   /* spi_mode = */ 3,   /* active high, rising edge */
 149:..\u8g2-master\csrc/u8x8_d_st7586s_erc240160.c ****   /* i2c_bus_clock_100kHz = */ 4,
 150:..\u8g2-master\csrc/u8x8_d_st7586s_erc240160.c ****   /* data_setup_time_ns = */ 20, /* datasheet suggests min 20 */
 151:..\u8g2-master\csrc/u8x8_d_st7586s_erc240160.c ****   /* write_pulse_width_ns = */ 40,
 152:..\u8g2-master\csrc/u8x8_d_st7586s_erc240160.c ****   /* tile_width = */ 30,
 153:..\u8g2-master\csrc/u8x8_d_st7586s_erc240160.c ****   /* tile_height = */ 20,
 154:..\u8g2-master\csrc/u8x8_d_st7586s_erc240160.c ****   /* default_x_offset = */ 0,  /* abused as flag to know if we are flipped */
 155:..\u8g2-master\csrc/u8x8_d_st7586s_erc240160.c ****   /* flipmode_x_offset = */ 1, /* as pixel order different for normal/flipped  */
 156:..\u8g2-master\csrc/u8x8_d_st7586s_erc240160.c ****   /* pixel_width = */ 240,
 157:..\u8g2-master\csrc/u8x8_d_st7586s_erc240160.c ****   /* pixel_height = */ 160
 158:..\u8g2-master\csrc/u8x8_d_st7586s_erc240160.c **** };
 159:..\u8g2-master\csrc/u8x8_d_st7586s_erc240160.c **** 
 160:..\u8g2-master\csrc/u8x8_d_st7586s_erc240160.c **** /*******************************************************************************
 161:..\u8g2-master\csrc/u8x8_d_st7586s_erc240160.c ****  * st7586s_erc240160 driver. ST7586 based display from buydisplay.com
 162:..\u8g2-master\csrc/u8x8_d_st7586s_erc240160.c ****  ******************************************************************************/
 163:..\u8g2-master\csrc/u8x8_d_st7586s_erc240160.c **** uint8_t u8x8_d_st7586s_erc240160(u8x8_t *u8x8, uint8_t msg, uint8_t arg_int, void *arg_ptr) {
  28              		.loc 1 163 0
  29              		.cfi_startproc
  30              		@ args = 0, pretend = 0, frame = 16
  31              		@ frame_needed = 0, uses_anonymous_args = 0
  32              	.LVL0:
  33 0000 2DE9F047 		push	{r4, r5, r6, r7, r8, r9, r10, lr}
  34              		.cfi_def_cfa_offset 32
  35              		.cfi_offset 4, -32
  36              		.cfi_offset 5, -28
  37              		.cfi_offset 6, -24
  38              		.cfi_offset 7, -20
  39              		.cfi_offset 8, -16
  40              		.cfi_offset 9, -12
  41              		.cfi_offset 10, -8
  42              		.cfi_offset 14, -4
 164:..\u8g2-master\csrc/u8x8_d_st7586s_erc240160.c ****   
 165:..\u8g2-master\csrc/u8x8_d_st7586s_erc240160.c ****   uint8_t c;
 166:..\u8g2-master\csrc/u8x8_d_st7586s_erc240160.c ****   uint8_t *ptr;
 167:..\u8g2-master\csrc/u8x8_d_st7586s_erc240160.c ****   uint8_t i, byte;
 168:..\u8g2-master\csrc/u8x8_d_st7586s_erc240160.c ****   uint32_t input;
 169:..\u8g2-master\csrc/u8x8_d_st7586s_erc240160.c ****   uint8_t output[4];
 170:..\u8g2-master\csrc/u8x8_d_st7586s_erc240160.c ****   switch (msg) {
  43              		.loc 1 170 0
  44 0004 0939     		subs	r1, r1, #9
  45              	.LVL1:
 163:..\u8g2-master\csrc/u8x8_d_st7586s_erc240160.c ****   
  46              		.loc 1 163 0
  47 0006 84B0     		sub	sp, sp, #16
  48              		.cfi_def_cfa_offset 48
 163:..\u8g2-master\csrc/u8x8_d_st7586s_erc240160.c ****   
  49              		.loc 1 163 0
  50 0008 0446     		mov	r4, r0
  51 000a 1D46     		mov	r5, r3
  52              		.loc 1 170 0
  53 000c 0629     		cmp	r1, #6
  54 000e 00F20781 		bhi	.L38
  55 0012 DFE811F0 		tbh	[pc, r1, lsl #1]
  56              	.LVL2:
ARM GAS  C:\Users\info\AppData\Local\Temp\ccT4mdOB.s 			page 5


  57              	.L4:
  58 0016 CD00     		.2byte	(.L3-.L4)/2
  59 0018 D400     		.2byte	(.L5-.L4)/2
  60 001a DE00     		.2byte	(.L6-.L4)/2
  61 001c 0501     		.2byte	(.L38-.L4)/2
  62 001e E400     		.2byte	(.L7-.L4)/2
  63 0020 EE00     		.2byte	(.L8-.L4)/2
  64 0022 0700     		.2byte	(.L9-.L4)/2
  65              		.p2align 1
  66              	.L9:
 171:..\u8g2-master\csrc/u8x8_d_st7586s_erc240160.c ****     case U8X8_MSG_DISPLAY_DRAW_TILE:
 172:..\u8g2-master\csrc/u8x8_d_st7586s_erc240160.c ****     u8x8_cad_StartTransfer(u8x8); // OK Start transfer
  67              		.loc 1 172 0
  68 0024 FFF7FEFF 		bl	u8x8_cad_StartTransfer
  69              	.LVL3:
 173:..\u8g2-master\csrc/u8x8_d_st7586s_erc240160.c ****     u8x8_cad_SendCmd(u8x8, 0x02B);  /* Row Address Setting */
  70              		.loc 1 173 0
  71 0028 2B21     		movs	r1, #43
  72 002a 2046     		mov	r0, r4
  73 002c FFF7FEFF 		bl	u8x8_cad_SendCmd
  74              	.LVL4:
 174:..\u8g2-master\csrc/u8x8_d_st7586s_erc240160.c ****     u8x8_cad_SendArg(u8x8, 0x000);
  75              		.loc 1 174 0
  76 0030 0021     		movs	r1, #0
  77 0032 2046     		mov	r0, r4
  78 0034 FFF7FEFF 		bl	u8x8_cad_SendArg
  79              	.LVL5:
 175:..\u8g2-master\csrc/u8x8_d_st7586s_erc240160.c ****     u8x8_cad_SendArg(u8x8, 0x008 * ((u8x8_tile_t *)arg_ptr)->y_pos);
  80              		.loc 1 175 0
  81 0038 A979     		ldrb	r1, [r5, #6]	@ zero_extendqisi2
  82 003a 2046     		mov	r0, r4
  83 003c C900     		lsls	r1, r1, #3
  84 003e 01F0F801 		and	r1, r1, #248
  85 0042 FFF7FEFF 		bl	u8x8_cad_SendArg
  86              	.LVL6:
 176:..\u8g2-master\csrc/u8x8_d_st7586s_erc240160.c ****     u8x8_cad_SendArg(u8x8, 0x000);
  87              		.loc 1 176 0
  88 0046 0021     		movs	r1, #0
  89 0048 2046     		mov	r0, r4
  90 004a FFF7FEFF 		bl	u8x8_cad_SendArg
  91              	.LVL7:
 177:..\u8g2-master\csrc/u8x8_d_st7586s_erc240160.c ****     u8x8_cad_SendArg(u8x8, 0x09F); // should set end row based on display dimensions
  92              		.loc 1 177 0
  93 004e 9F21     		movs	r1, #159
  94 0050 2046     		mov	r0, r4
  95 0052 FFF7FEFF 		bl	u8x8_cad_SendArg
  96              	.LVL8:
 178:..\u8g2-master\csrc/u8x8_d_st7586s_erc240160.c ****     u8x8_cad_SendCmd(u8x8, 0x02C);  /* cmd write display data to ram */
  97              		.loc 1 178 0
  98 0056 2C21     		movs	r1, #44
  99 0058 2046     		mov	r0, r4
 100 005a FFF7FEFF 		bl	u8x8_cad_SendCmd
 101              	.LVL9:
 179:..\u8g2-master\csrc/u8x8_d_st7586s_erc240160.c ****     c = ((u8x8_tile_t *) arg_ptr)->cnt; //
 102              		.loc 1 179 0
 103 005e 2A79     		ldrb	r2, [r5, #4]	@ zero_extendqisi2
 104              	.LVL10:
ARM GAS  C:\Users\info\AppData\Local\Temp\ccT4mdOB.s 			page 6


 180:..\u8g2-master\csrc/u8x8_d_st7586s_erc240160.c ****     c *= 8;
 181:..\u8g2-master\csrc/u8x8_d_st7586s_erc240160.c ****     ptr = ((u8x8_tile_t *) arg_ptr)->tile_ptr;  //
 105              		.loc 1 181 0
 106 0060 2D68     		ldr	r5, [r5]
 107              	.LVL11:
 180:..\u8g2-master\csrc/u8x8_d_st7586s_erc240160.c ****     c *= 8;
 108              		.loc 1 180 0
 109 0062 D300     		lsls	r3, r2, #3
 110              	.LVL12:
 182:..\u8g2-master\csrc/u8x8_d_st7586s_erc240160.c **** 
 183:..\u8g2-master\csrc/u8x8_d_st7586s_erc240160.c **** // The ST7586S has an unusual 3 pixels per byte format the ERC240160 is even more annoying
 184:..\u8g2-master\csrc/u8x8_d_st7586s_erc240160.c **** // as it has every 3rd COM line disconnected for extra oddness so here we read in a byte 
 185:..\u8g2-master\csrc/u8x8_d_st7586s_erc240160.c **** // (8 pixels) and pack that into 4 bytes of 2 pixels + 1 unused each. This has to be done
 186:..\u8g2-master\csrc/u8x8_d_st7586s_erc240160.c **** // in a different order for flipped, normal UUx11x22 flipped 11x22xUU
 187:..\u8g2-master\csrc/u8x8_d_st7586s_erc240160.c **** 	while (c > 0) {
 111              		.loc 1 187 0
 112 0064 13F0FF03 		ands	r3, r3, #255
 113              	.LVL13:
 114 0068 00F0D380 		beq	.L58
 115 006c 013B     		subs	r3, r3, #1
 116 006e DEB2     		uxtb	r6, r3
 117 0070 2E44     		add	r6, r6, r5
 188:..\u8g2-master\csrc/u8x8_d_st7586s_erc240160.c ****       input = ((uint8_t)ptr[0]);
 189:..\u8g2-master\csrc/u8x8_d_st7586s_erc240160.c ****       
 190:..\u8g2-master\csrc/u8x8_d_st7586s_erc240160.c ****       for (i=0; i<4; i++)
 191:..\u8g2-master\csrc/u8x8_d_st7586s_erc240160.c ****       {
 192:..\u8g2-master\csrc/u8x8_d_st7586s_erc240160.c ****         byte = 0;
 193:..\u8g2-master\csrc/u8x8_d_st7586s_erc240160.c ****         if (u8x8->x_offset ==0){
 194:..\u8g2-master\csrc/u8x8_d_st7586s_erc240160.c ****           if (input & 0x80)          // if bit 7
 195:..\u8g2-master\csrc/u8x8_d_st7586s_erc240160.c ****             byte = byte | 0x18;  //set pixel 1
 196:..\u8g2-master\csrc/u8x8_d_st7586s_erc240160.c ****           if (input & 0x40)          // if bit 6
 197:..\u8g2-master\csrc/u8x8_d_st7586s_erc240160.c ****             byte = byte | 0x3;  //set pixel 2
 198:..\u8g2-master\csrc/u8x8_d_st7586s_erc240160.c ****         }
 199:..\u8g2-master\csrc/u8x8_d_st7586s_erc240160.c ****         if (u8x8->x_offset ==1){
 200:..\u8g2-master\csrc/u8x8_d_st7586s_erc240160.c ****           if (input & 0x80)          // if bit 7
 201:..\u8g2-master\csrc/u8x8_d_st7586s_erc240160.c ****             byte = byte | 0xC0;  //set pixel 1
 202:..\u8g2-master\csrc/u8x8_d_st7586s_erc240160.c ****           if (input & 0x40)          // if bit 6
 203:..\u8g2-master\csrc/u8x8_d_st7586s_erc240160.c ****             byte = byte | 0x18;  //set pixel 2
 204:..\u8g2-master\csrc/u8x8_d_st7586s_erc240160.c ****         }
 205:..\u8g2-master\csrc/u8x8_d_st7586s_erc240160.c ****         output[i] = byte;
 118              		.loc 1 205 0
 119 0072 0027     		movs	r7, #0
 120 0074 013D     		subs	r5, r5, #1
 121 0076 4EE0     		b	.L26
 122              	.LVL14:
 123              	.L60:
 194:..\u8g2-master\csrc/u8x8_d_st7586s_erc240160.c ****             byte = byte | 0x18;  //set pixel 1
 124              		.loc 1 194 0
 125 0078 23F07F02 		bic	r2, r3, #127
 126 007c 002A     		cmp	r2, #0
 206:..\u8g2-master\csrc/u8x8_d_st7586s_erc240160.c ****         input <<= 2;
 127              		.loc 1 206 0
 128 007e 4FEA8302 		lsl	r2, r3, #2
 194:..\u8g2-master\csrc/u8x8_d_st7586s_erc240160.c ****             byte = byte | 0x18;  //set pixel 1
 129              		.loc 1 194 0
 130 0082 02F08001 		and	r1, r2, #128
 131 0086 15BF     		itete	ne
ARM GAS  C:\Users\info\AppData\Local\Temp\ccT4mdOB.s 			page 7


 132 0088 1B20     		movne	r0, #27
 133 008a 0320     		moveq	r0, #3
 134 008c 4FF0180E 		movne	lr, #24
 135 0090 4FF0000E 		moveq	lr, #0
 136              	.LVL15:
 196:..\u8g2-master\csrc/u8x8_d_st7586s_erc240160.c ****             byte = byte | 0x3;  //set pixel 2
 137              		.loc 1 196 0
 138 0094 13F0400F 		tst	r3, #64
 139 0098 08BF     		it	eq
 140 009a 7046     		moveq	r0, lr
 141              	.LVL16:
 194:..\u8g2-master\csrc/u8x8_d_st7586s_erc240160.c ****             byte = byte | 0x18;  //set pixel 1
 142              		.loc 1 194 0
 143 009c 0029     		cmp	r1, #0
 144              		.loc 1 206 0
 145 009e 4FEA031E 		lsl	lr, r3, #4
 194:..\u8g2-master\csrc/u8x8_d_st7586s_erc240160.c ****             byte = byte | 0x18;  //set pixel 1
 146              		.loc 1 194 0
 147 00a2 15BF     		itete	ne
 148 00a4 4FF01B0C 		movne	ip, #27
 149 00a8 4FF0030C 		moveq	ip, #3
 150 00ac 1821     		movne	r1, #24
 151 00ae 0021     		moveq	r1, #0
 152              	.LVL17:
 197:..\u8g2-master\csrc/u8x8_d_st7586s_erc240160.c ****         }
 153              		.loc 1 197 0
 154 00b0 12F0400F 		tst	r2, #64
 194:..\u8g2-master\csrc/u8x8_d_st7586s_erc240160.c ****             byte = byte | 0x18;  //set pixel 1
 155              		.loc 1 194 0
 156 00b4 0EF08002 		and	r2, lr, #128
 157              	.LVL18:
 197:..\u8g2-master\csrc/u8x8_d_st7586s_erc240160.c ****         }
 158              		.loc 1 197 0
 159 00b8 18BF     		it	ne
 160 00ba 6146     		movne	r1, ip
 161              	.LVL19:
 162              		.loc 1 206 0
 163 00bc 9B01     		lsls	r3, r3, #6
 194:..\u8g2-master\csrc/u8x8_d_st7586s_erc240160.c ****             byte = byte | 0x18;  //set pixel 1
 164              		.loc 1 194 0
 165 00be 002A     		cmp	r2, #0
 166 00c0 15BF     		itete	ne
 167 00c2 4FF01B0C 		movne	ip, #27
 168 00c6 4FF0030C 		moveq	ip, #3
 169 00ca 1822     		movne	r2, #24
 170 00cc 0022     		moveq	r2, #0
 171              	.LVL20:
 197:..\u8g2-master\csrc/u8x8_d_st7586s_erc240160.c ****         }
 172              		.loc 1 197 0
 173 00ce 1EF0400F 		tst	lr, #64
 194:..\u8g2-master\csrc/u8x8_d_st7586s_erc240160.c ****             byte = byte | 0x18;  //set pixel 1
 174              		.loc 1 194 0
 175 00d2 03F0800E 		and	lr, r3, #128
 176              	.LVL21:
 197:..\u8g2-master\csrc/u8x8_d_st7586s_erc240160.c ****         }
 177              		.loc 1 197 0
 178 00d6 18BF     		it	ne
ARM GAS  C:\Users\info\AppData\Local\Temp\ccT4mdOB.s 			page 8


 179 00d8 6246     		movne	r2, ip
 180              	.LVL22:
 194:..\u8g2-master\csrc/u8x8_d_st7586s_erc240160.c ****             byte = byte | 0x18;  //set pixel 1
 181              		.loc 1 194 0
 182 00da BEF1000F 		cmp	lr, #0
 183 00de 15BF     		itete	ne
 184 00e0 4FF01B0E 		movne	lr, #27
 185 00e4 4FF0030E 		moveq	lr, #3
 186 00e8 4FF0180C 		movne	ip, #24
 187 00ec 4FF0000C 		moveq	ip, #0
 188              	.LVL23:
 196:..\u8g2-master\csrc/u8x8_d_st7586s_erc240160.c ****             byte = byte | 0x3;  //set pixel 2
 189              		.loc 1 196 0
 190 00f0 13F0400F 		tst	r3, #64
 191 00f4 08BF     		it	eq
 192 00f6 E646     		moveq	lr, ip
 205:..\u8g2-master\csrc/u8x8_d_st7586s_erc240160.c ****         input <<= 2;
 193              		.loc 1 205 0
 194 00f8 8DF80C00 		strb	r0, [sp, #12]
 195 00fc 8DF80D10 		strb	r1, [sp, #13]
 196 0100 8DF80E20 		strb	r2, [sp, #14]
 197              	.LVL24:
 198              	.L25:
 207:..\u8g2-master\csrc/u8x8_d_st7586s_erc240160.c ****       }
 208:..\u8g2-master\csrc/u8x8_d_st7586s_erc240160.c ****       
 209:..\u8g2-master\csrc/u8x8_d_st7586s_erc240160.c ****       u8x8_cad_SendData(u8x8, 4, output);
 199              		.loc 1 209 0
 200 0104 0421     		movs	r1, #4
 201 0106 03AA     		add	r2, sp, #12
 202 0108 2046     		mov	r0, r4
 205:..\u8g2-master\csrc/u8x8_d_st7586s_erc240160.c ****         input <<= 2;
 203              		.loc 1 205 0
 204 010a 8DF80FE0 		strb	lr, [sp, #15]
 205              	.LVL25:
 206              		.loc 1 209 0
 207 010e FFF7FEFF 		bl	u8x8_cad_SendData
 208              	.LVL26:
 187:..\u8g2-master\csrc/u8x8_d_st7586s_erc240160.c ****       input = ((uint8_t)ptr[0]);
 209              		.loc 1 187 0
 210 0112 AE42     		cmp	r6, r5
 211 0114 7DD0     		beq	.L58
 212              	.LVL27:
 213              	.L26:
 193:..\u8g2-master\csrc/u8x8_d_st7586s_erc240160.c ****           if (input & 0x80)          // if bit 7
 214              		.loc 1 193 0
 215 0116 94F82220 		ldrb	r2, [r4, #34]	@ zero_extendqisi2
 188:..\u8g2-master\csrc/u8x8_d_st7586s_erc240160.c ****       
 216              		.loc 1 188 0
 217 011a 15F8013F 		ldrb	r3, [r5, #1]!	@ zero_extendqisi2
 218              	.LVL28:
 193:..\u8g2-master\csrc/u8x8_d_st7586s_erc240160.c ****           if (input & 0x80)          // if bit 7
 219              		.loc 1 193 0
 220 011e 002A     		cmp	r2, #0
 221 0120 AAD0     		beq	.L60
 206:..\u8g2-master\csrc/u8x8_d_st7586s_erc240160.c ****       }
 222              		.loc 1 206 0
 223 0122 4FEA830E 		lsl	lr, r3, #2
ARM GAS  C:\Users\info\AppData\Local\Temp\ccT4mdOB.s 			page 9


 224 0126 1801     		lsls	r0, r3, #4
 225 0128 9901     		lsls	r1, r3, #6
 199:..\u8g2-master\csrc/u8x8_d_st7586s_erc240160.c ****           if (input & 0x80)          // if bit 7
 226              		.loc 1 199 0
 227 012a 012A     		cmp	r2, #1
 200:..\u8g2-master\csrc/u8x8_d_st7586s_erc240160.c ****             byte = byte | 0xC0;  //set pixel 1
 228              		.loc 1 200 0
 229 012c 23F07F0C 		bic	ip, r3, #127
 230 0130 0EF0800A 		and	r10, lr, #128
 231 0134 00F08009 		and	r9, r0, #128
 232 0138 01F08008 		and	r8, r1, #128
 199:..\u8g2-master\csrc/u8x8_d_st7586s_erc240160.c ****           if (input & 0x80)          // if bit 7
 233              		.loc 1 199 0
 234 013c 72D1     		bne	.L15
 200:..\u8g2-master\csrc/u8x8_d_st7586s_erc240160.c ****             byte = byte | 0xC0;  //set pixel 1
 235              		.loc 1 200 0
 236 013e BCF1000F 		cmp	ip, #0
 237 0142 0BBF     		itete	eq
 238 0144 0022     		moveq	r2, #0
 239 0146 C022     		movne	r2, #192
 240              	.LVL29:
 241 0148 4FF0180C 		moveq	ip, #24
 242 014c 4FF0D80C 		movne	ip, #216
 202:..\u8g2-master\csrc/u8x8_d_st7586s_erc240160.c ****             byte = byte | 0x18;  //set pixel 2
 243              		.loc 1 202 0
 244 0150 13F0400F 		tst	r3, #64
 245 0154 08BF     		it	eq
 246 0156 9446     		moveq	ip, r2
 247              	.LVL30:
 200:..\u8g2-master\csrc/u8x8_d_st7586s_erc240160.c ****             byte = byte | 0xC0;  //set pixel 1
 248              		.loc 1 200 0
 249 0158 BAF1000F 		cmp	r10, #0
 250 015c 0BBF     		itete	eq
 251 015e 1823     		moveq	r3, #24
 252 0160 D823     		movne	r3, #216
 253 0162 0022     		moveq	r2, #0
 254 0164 C022     		movne	r2, #192
 255              	.LVL31:
 203:..\u8g2-master\csrc/u8x8_d_st7586s_erc240160.c ****         }
 256              		.loc 1 203 0
 257 0166 1EF0400F 		tst	lr, #64
 258 016a 18BF     		it	ne
 259 016c 1A46     		movne	r2, r3
 260              	.LVL32:
 200:..\u8g2-master\csrc/u8x8_d_st7586s_erc240160.c ****             byte = byte | 0xC0;  //set pixel 1
 261              		.loc 1 200 0
 262 016e B9F1000F 		cmp	r9, #0
 263 0172 0BBF     		itete	eq
 264 0174 4FF0180E 		moveq	lr, #24
 265 0178 4FF0D80E 		movne	lr, #216
 266 017c 0023     		moveq	r3, #0
 267 017e C023     		movne	r3, #192
 268              	.LVL33:
 203:..\u8g2-master\csrc/u8x8_d_st7586s_erc240160.c ****         }
 269              		.loc 1 203 0
 270 0180 10F0400F 		tst	r0, #64
 271 0184 18BF     		it	ne
ARM GAS  C:\Users\info\AppData\Local\Temp\ccT4mdOB.s 			page 10


 272 0186 7346     		movne	r3, lr
 273              	.LVL34:
 200:..\u8g2-master\csrc/u8x8_d_st7586s_erc240160.c ****             byte = byte | 0xC0;  //set pixel 1
 274              		.loc 1 200 0
 275 0188 B8F1000F 		cmp	r8, #0
 276 018c 0BBF     		itete	eq
 277 018e 4FF0180E 		moveq	lr, #24
 278 0192 4FF0D80E 		movne	lr, #216
 279 0196 0020     		moveq	r0, #0
 280 0198 C020     		movne	r0, #192
 281              	.LVL35:
 202:..\u8g2-master\csrc/u8x8_d_st7586s_erc240160.c ****             byte = byte | 0x18;  //set pixel 2
 282              		.loc 1 202 0
 283 019a 11F0400F 		tst	r1, #64
 284 019e 08BF     		it	eq
 285 01a0 8646     		moveq	lr, r0
 205:..\u8g2-master\csrc/u8x8_d_st7586s_erc240160.c ****         input <<= 2;
 286              		.loc 1 205 0
 287 01a2 8DF80CC0 		strb	ip, [sp, #12]
 288 01a6 8DF80D20 		strb	r2, [sp, #13]
 289 01aa 8DF80E30 		strb	r3, [sp, #14]
 290 01ae A9E7     		b	.L25
 291              	.LVL36:
 292              	.L3:
 210:..\u8g2-master\csrc/u8x8_d_st7586s_erc240160.c ****       ptr += 1;
 211:..\u8g2-master\csrc/u8x8_d_st7586s_erc240160.c ****       c -= 1;
 212:..\u8g2-master\csrc/u8x8_d_st7586s_erc240160.c ****     }
 213:..\u8g2-master\csrc/u8x8_d_st7586s_erc240160.c ****     u8x8_cad_EndTransfer(u8x8); 
 214:..\u8g2-master\csrc/u8x8_d_st7586s_erc240160.c ****     break;
 215:..\u8g2-master\csrc/u8x8_d_st7586s_erc240160.c ****   case U8X8_MSG_DISPLAY_INIT:
 216:..\u8g2-master\csrc/u8x8_d_st7586s_erc240160.c ****     u8x8_d_helper_display_init(u8x8);
 217:..\u8g2-master\csrc/u8x8_d_st7586s_erc240160.c ****     u8x8_cad_SendSequence(u8x8, u8x8_d_st7586s_erc240160_init_seq);
 218:..\u8g2-master\csrc/u8x8_d_st7586s_erc240160.c ****     break;
 219:..\u8g2-master\csrc/u8x8_d_st7586s_erc240160.c ****   case U8X8_MSG_DISPLAY_SETUP_MEMORY:
 220:..\u8g2-master\csrc/u8x8_d_st7586s_erc240160.c ****     u8x8_d_helper_display_setup_memory(u8x8, &u8x8_st7586s_erc240160_display_info);
 293              		.loc 1 220 0
 294 01b0 2849     		ldr	r1, .L61
 295 01b2 FFF7FEFF 		bl	u8x8_d_helper_display_setup_memory
 296              	.LVL37:
 221:..\u8g2-master\csrc/u8x8_d_st7586s_erc240160.c ****     break;
 222:..\u8g2-master\csrc/u8x8_d_st7586s_erc240160.c ****   case U8X8_MSG_DISPLAY_SET_FLIP_MODE:
 223:..\u8g2-master\csrc/u8x8_d_st7586s_erc240160.c ****   	if ( arg_int == 0 )
 224:..\u8g2-master\csrc/u8x8_d_st7586s_erc240160.c ****     {
 225:..\u8g2-master\csrc/u8x8_d_st7586s_erc240160.c ****        u8x8_cad_SendSequence(u8x8, u8x8_d_st7586s_erc240160_flip0_seq);
 226:..\u8g2-master\csrc/u8x8_d_st7586s_erc240160.c ****        u8x8->x_offset = u8x8->display_info->default_x_offset;
 227:..\u8g2-master\csrc/u8x8_d_st7586s_erc240160.c ****     }
 228:..\u8g2-master\csrc/u8x8_d_st7586s_erc240160.c ****     else
 229:..\u8g2-master\csrc/u8x8_d_st7586s_erc240160.c ****     {
 230:..\u8g2-master\csrc/u8x8_d_st7586s_erc240160.c ****       u8x8_cad_SendSequence(u8x8, u8x8_d_st7586s_erc240160_flip1_seq);
 231:..\u8g2-master\csrc/u8x8_d_st7586s_erc240160.c ****       u8x8->x_offset = u8x8->display_info->flipmode_x_offset;
 232:..\u8g2-master\csrc/u8x8_d_st7586s_erc240160.c ****     }	
 233:..\u8g2-master\csrc/u8x8_d_st7586s_erc240160.c ****     break;
 234:..\u8g2-master\csrc/u8x8_d_st7586s_erc240160.c ****   case U8X8_MSG_DISPLAY_SET_POWER_SAVE:
 235:..\u8g2-master\csrc/u8x8_d_st7586s_erc240160.c ****     if (arg_int == 0)
 236:..\u8g2-master\csrc/u8x8_d_st7586s_erc240160.c ****       u8x8_cad_SendSequence(u8x8, u8x8_d_st7586s_sleep_off);
 237:..\u8g2-master\csrc/u8x8_d_st7586s_erc240160.c ****     else
 238:..\u8g2-master\csrc/u8x8_d_st7586s_erc240160.c ****       u8x8_cad_SendSequence(u8x8, u8x8_d_st7586s_sleep_on);
ARM GAS  C:\Users\info\AppData\Local\Temp\ccT4mdOB.s 			page 11


 239:..\u8g2-master\csrc/u8x8_d_st7586s_erc240160.c ****     break;
 240:..\u8g2-master\csrc/u8x8_d_st7586s_erc240160.c **** #ifdef U8X8_WITH_SET_CONTRAST
 241:..\u8g2-master\csrc/u8x8_d_st7586s_erc240160.c ****   case U8X8_MSG_DISPLAY_SET_CONTRAST:
 242:..\u8g2-master\csrc/u8x8_d_st7586s_erc240160.c ****     u8x8_cad_StartTransfer(u8x8);
 243:..\u8g2-master\csrc/u8x8_d_st7586s_erc240160.c ****     u8x8_cad_SendCmd(u8x8, 0x0C0);
 244:..\u8g2-master\csrc/u8x8_d_st7586s_erc240160.c ****     u8x8_cad_SendArg(u8x8, arg_int);
 245:..\u8g2-master\csrc/u8x8_d_st7586s_erc240160.c ****     u8x8_cad_SendArg(u8x8, 1);
 246:..\u8g2-master\csrc/u8x8_d_st7586s_erc240160.c ****     u8x8_cad_EndTransfer(u8x8);
 247:..\u8g2-master\csrc/u8x8_d_st7586s_erc240160.c ****     break;
 248:..\u8g2-master\csrc/u8x8_d_st7586s_erc240160.c **** #endif
 249:..\u8g2-master\csrc/u8x8_d_st7586s_erc240160.c ****   default:
 250:..\u8g2-master\csrc/u8x8_d_st7586s_erc240160.c ****     return 0;
 251:..\u8g2-master\csrc/u8x8_d_st7586s_erc240160.c ****   }
 252:..\u8g2-master\csrc/u8x8_d_st7586s_erc240160.c ****   return 1;
 297              		.loc 1 252 0
 298 01b6 0120     		movs	r0, #1
 299              	.L56:
 253:..\u8g2-master\csrc/u8x8_d_st7586s_erc240160.c **** }
 300              		.loc 1 253 0
 301 01b8 04B0     		add	sp, sp, #16
 302              		.cfi_remember_state
 303              		.cfi_def_cfa_offset 32
 304              		@ sp needed
 305 01ba BDE8F087 		pop	{r4, r5, r6, r7, r8, r9, r10, pc}
 306              	.LVL38:
 307              	.L5:
 308              		.cfi_restore_state
 216:..\u8g2-master\csrc/u8x8_d_st7586s_erc240160.c ****     u8x8_cad_SendSequence(u8x8, u8x8_d_st7586s_erc240160_init_seq);
 309              		.loc 1 216 0
 310 01be FFF7FEFF 		bl	u8x8_d_helper_display_init
 311              	.LVL39:
 217:..\u8g2-master\csrc/u8x8_d_st7586s_erc240160.c ****     break;
 312              		.loc 1 217 0
 313 01c2 2046     		mov	r0, r4
 314 01c4 2449     		ldr	r1, .L61+4
 315 01c6 FFF7FEFF 		bl	u8x8_cad_SendSequence
 316              	.LVL40:
 252:..\u8g2-master\csrc/u8x8_d_st7586s_erc240160.c **** }
 317              		.loc 1 252 0
 318 01ca 0120     		movs	r0, #1
 319              		.loc 1 253 0
 320 01cc 04B0     		add	sp, sp, #16
 321              		.cfi_remember_state
 322              		.cfi_def_cfa_offset 32
 323              		@ sp needed
 324 01ce BDE8F087 		pop	{r4, r5, r6, r7, r8, r9, r10, pc}
 325              	.LVL41:
 326              	.L6:
 327              		.cfi_restore_state
 235:..\u8g2-master\csrc/u8x8_d_st7586s_erc240160.c ****       u8x8_cad_SendSequence(u8x8, u8x8_d_st7586s_sleep_off);
 328              		.loc 1 235 0
 329 01d2 82BB     		cbnz	r2, .L29
 236:..\u8g2-master\csrc/u8x8_d_st7586s_erc240160.c ****     else
 330              		.loc 1 236 0
 331 01d4 2149     		ldr	r1, .L61+8
 332 01d6 FFF7FEFF 		bl	u8x8_cad_SendSequence
 333              	.LVL42:
ARM GAS  C:\Users\info\AppData\Local\Temp\ccT4mdOB.s 			page 12


 252:..\u8g2-master\csrc/u8x8_d_st7586s_erc240160.c **** }
 334              		.loc 1 252 0
 335 01da 0120     		movs	r0, #1
 336 01dc ECE7     		b	.L56
 337              	.LVL43:
 338              	.L7:
 223:..\u8g2-master\csrc/u8x8_d_st7586s_erc240160.c ****     {
 339              		.loc 1 223 0
 340 01de 7ABB     		cbnz	r2, .L28
 225:..\u8g2-master\csrc/u8x8_d_st7586s_erc240160.c ****        u8x8->x_offset = u8x8->display_info->default_x_offset;
 341              		.loc 1 225 0
 342 01e0 1F49     		ldr	r1, .L61+12
 343 01e2 FFF7FEFF 		bl	u8x8_cad_SendSequence
 344              	.LVL44:
 226:..\u8g2-master\csrc/u8x8_d_st7586s_erc240160.c ****     }
 345              		.loc 1 226 0
 346 01e6 2368     		ldr	r3, [r4]
 252:..\u8g2-master\csrc/u8x8_d_st7586s_erc240160.c **** }
 347              		.loc 1 252 0
 348 01e8 0120     		movs	r0, #1
 226:..\u8g2-master\csrc/u8x8_d_st7586s_erc240160.c ****     }
 349              		.loc 1 226 0
 350 01ea 9B7C     		ldrb	r3, [r3, #18]	@ zero_extendqisi2
 351 01ec 84F82230 		strb	r3, [r4, #34]
 352 01f0 E2E7     		b	.L56
 353              	.LVL45:
 354              	.L8:
 355 01f2 0192     		str	r2, [sp, #4]
 242:..\u8g2-master\csrc/u8x8_d_st7586s_erc240160.c ****     u8x8_cad_SendCmd(u8x8, 0x0C0);
 356              		.loc 1 242 0
 357 01f4 FFF7FEFF 		bl	u8x8_cad_StartTransfer
 358              	.LVL46:
 243:..\u8g2-master\csrc/u8x8_d_st7586s_erc240160.c ****     u8x8_cad_SendArg(u8x8, arg_int);
 359              		.loc 1 243 0
 360 01f8 C021     		movs	r1, #192
 361 01fa 2046     		mov	r0, r4
 362 01fc FFF7FEFF 		bl	u8x8_cad_SendCmd
 363              	.LVL47:
 244:..\u8g2-master\csrc/u8x8_d_st7586s_erc240160.c ****     u8x8_cad_SendArg(u8x8, 1);
 364              		.loc 1 244 0
 365 0200 019A     		ldr	r2, [sp, #4]
 366 0202 2046     		mov	r0, r4
 367 0204 1146     		mov	r1, r2
 368 0206 FFF7FEFF 		bl	u8x8_cad_SendArg
 369              	.LVL48:
 245:..\u8g2-master\csrc/u8x8_d_st7586s_erc240160.c ****     u8x8_cad_EndTransfer(u8x8);
 370              		.loc 1 245 0
 371 020a 0121     		movs	r1, #1
 372 020c 2046     		mov	r0, r4
 373 020e FFF7FEFF 		bl	u8x8_cad_SendArg
 374              	.LVL49:
 375              	.L58:
 246:..\u8g2-master\csrc/u8x8_d_st7586s_erc240160.c ****     break;
 376              		.loc 1 246 0
 377 0212 2046     		mov	r0, r4
 378 0214 FFF7FEFF 		bl	u8x8_cad_EndTransfer
 379              	.LVL50:
ARM GAS  C:\Users\info\AppData\Local\Temp\ccT4mdOB.s 			page 13


 252:..\u8g2-master\csrc/u8x8_d_st7586s_erc240160.c **** }
 380              		.loc 1 252 0
 381 0218 0120     		movs	r0, #1
 382              		.loc 1 253 0
 383 021a 04B0     		add	sp, sp, #16
 384              		.cfi_remember_state
 385              		.cfi_def_cfa_offset 32
 386              		@ sp needed
 387 021c BDE8F087 		pop	{r4, r5, r6, r7, r8, r9, r10, pc}
 388              	.LVL51:
 389              	.L38:
 390              		.cfi_restore_state
 250:..\u8g2-master\csrc/u8x8_d_st7586s_erc240160.c ****   }
 391              		.loc 1 250 0
 392 0220 0020     		movs	r0, #0
 393              	.LVL52:
 394 0222 C9E7     		b	.L56
 395              	.LVL53:
 396              	.L15:
 205:..\u8g2-master\csrc/u8x8_d_st7586s_erc240160.c ****         input <<= 2;
 397              		.loc 1 205 0
 398 0224 8DF80C70 		strb	r7, [sp, #12]
 399              	.LVL54:
 400 0228 8DF80D70 		strb	r7, [sp, #13]
 401              	.LVL55:
 402 022c 8DF80E70 		strb	r7, [sp, #14]
 403              	.LVL56:
 404 0230 4FF0000E 		mov	lr, #0
 405 0234 66E7     		b	.L25
 406              	.LVL57:
 407              	.L29:
 238:..\u8g2-master\csrc/u8x8_d_st7586s_erc240160.c ****     break;
 408              		.loc 1 238 0
 409 0236 0B49     		ldr	r1, .L61+16
 410 0238 FFF7FEFF 		bl	u8x8_cad_SendSequence
 411              	.LVL58:
 252:..\u8g2-master\csrc/u8x8_d_st7586s_erc240160.c **** }
 412              		.loc 1 252 0
 413 023c 0120     		movs	r0, #1
 414 023e BBE7     		b	.L56
 415              	.LVL59:
 416              	.L28:
 230:..\u8g2-master\csrc/u8x8_d_st7586s_erc240160.c ****       u8x8->x_offset = u8x8->display_info->flipmode_x_offset;
 417              		.loc 1 230 0
 418 0240 0949     		ldr	r1, .L61+20
 419 0242 FFF7FEFF 		bl	u8x8_cad_SendSequence
 420              	.LVL60:
 231:..\u8g2-master\csrc/u8x8_d_st7586s_erc240160.c ****     }	
 421              		.loc 1 231 0
 422 0246 2368     		ldr	r3, [r4]
 252:..\u8g2-master\csrc/u8x8_d_st7586s_erc240160.c **** }
 423              		.loc 1 252 0
 424 0248 0120     		movs	r0, #1
 231:..\u8g2-master\csrc/u8x8_d_st7586s_erc240160.c ****     }	
 425              		.loc 1 231 0
 426 024a DB7C     		ldrb	r3, [r3, #19]	@ zero_extendqisi2
 427 024c 84F82230 		strb	r3, [r4, #34]
ARM GAS  C:\Users\info\AppData\Local\Temp\ccT4mdOB.s 			page 14


 428 0250 B2E7     		b	.L56
 429              	.L62:
 430 0252 00BF     		.align	2
 431              	.L61:
 432 0254 54000000 		.word	.LANCHOR0+84
 433 0258 00000000 		.word	.LANCHOR0
 434 025c 9C000000 		.word	.LANCHOR0+156
 435 0260 6C000000 		.word	.LANCHOR0+108
 436 0264 A4000000 		.word	.LANCHOR0+164
 437 0268 84000000 		.word	.LANCHOR0+132
 438              		.cfi_endproc
 439              	.LFE0:
 440              		.size	u8x8_d_st7586s_erc240160, .-u8x8_d_st7586s_erc240160
 441              		.section	.rodata
 442              		.align	2
 443              		.set	.LANCHOR0,. + 0
 444              		.type	u8x8_d_st7586s_erc240160_init_seq, %object
 445              		.size	u8x8_d_st7586s_erc240160_init_seq, 83
 446              	u8x8_d_st7586s_erc240160_init_seq:
 447 0000 19       		.byte	25
 448 0001 FE       		.byte	-2
 449 0002 3C       		.byte	60
 450 0003 18       		.byte	24
 451 0004 15       		.byte	21
 452 0005 01       		.byte	1
 453 0006 FE       		.byte	-2
 454 0007 3C       		.byte	60
 455 0008 15       		.byte	21
 456 0009 11       		.byte	17
 457 000a 15       		.byte	21
 458 000b 28       		.byte	40
 459 000c FE       		.byte	-2
 460 000d 19       		.byte	25
 461 000e 15       		.byte	21
 462 000f C0       		.byte	-64
 463 0010 16       		.byte	22
 464 0011 36       		.byte	54
 465 0012 16       		.byte	22
 466 0013 01       		.byte	1
 467 0014 15       		.byte	21
 468 0015 C3       		.byte	-61
 469 0016 16       		.byte	22
 470 0017 00       		.byte	0
 471 0018 15       		.byte	21
 472 0019 C4       		.byte	-60
 473 001a 16       		.byte	22
 474 001b 07       		.byte	7
 475 001c 15       		.byte	21
 476 001d D0       		.byte	-48
 477 001e 16       		.byte	22
 478 001f 1D       		.byte	29
 479 0020 15       		.byte	21
 480 0021 B3       		.byte	-77
 481 0022 16       		.byte	22
 482 0023 00       		.byte	0
 483 0024 15       		.byte	21
 484 0025 B5       		.byte	-75
ARM GAS  C:\Users\info\AppData\Local\Temp\ccT4mdOB.s 			page 15


 485 0026 16       		.byte	22
 486 0027 00       		.byte	0
 487 0028 15       		.byte	21
 488 0029 39       		.byte	57
 489 002a 15       		.byte	21
 490 002b 3A       		.byte	58
 491 002c 16       		.byte	22
 492 002d 02       		.byte	2
 493 002e 15       		.byte	21
 494 002f 36       		.byte	54
 495 0030 16       		.byte	22
 496 0031 C8       		.byte	-56
 497 0032 15       		.byte	21
 498 0033 B1       		.byte	-79
 499 0034 16       		.byte	22
 500 0035 00       		.byte	0
 501 0036 15       		.byte	21
 502 0037 B0       		.byte	-80
 503 0038 16       		.byte	22
 504 0039 9F       		.byte	-97
 505 003a 15       		.byte	21
 506 003b 20       		.byte	32
 507 003c 15       		.byte	21
 508 003d 2A       		.byte	42
 509 003e 16       		.byte	22
 510 003f 00       		.byte	0
 511 0040 16       		.byte	22
 512 0041 08       		.byte	8
 513 0042 16       		.byte	22
 514 0043 00       		.byte	0
 515 0044 16       		.byte	22
 516 0045 7F       		.byte	127
 517 0046 15       		.byte	21
 518 0047 2B       		.byte	43
 519 0048 16       		.byte	22
 520 0049 00       		.byte	0
 521 004a 16       		.byte	22
 522 004b 00       		.byte	0
 523 004c 16       		.byte	22
 524 004d 00       		.byte	0
 525 004e 16       		.byte	22
 526 004f 9F       		.byte	-97
 527 0050 15       		.byte	21
 528 0051 29       		.byte	41
 529 0052 FF       		.byte	-1
 530 0053 00       		.space	1
 531              		.type	u8x8_st7586s_erc240160_display_info, %object
 532              		.size	u8x8_st7586s_erc240160_display_info, 24
 533              	u8x8_st7586s_erc240160_display_info:
 534 0054 00       		.byte	0
 535 0055 01       		.byte	1
 536 0056 05       		.byte	5
 537 0057 05       		.byte	5
 538 0058 01       		.byte	1
 539 0059 06       		.byte	6
 540 005a 14       		.byte	20
 541 005b 64       		.byte	100
ARM GAS  C:\Users\info\AppData\Local\Temp\ccT4mdOB.s 			page 16


 542 005c 00127A00 		.word	8000000
 543 0060 03       		.byte	3
 544 0061 04       		.byte	4
 545 0062 14       		.byte	20
 546 0063 28       		.byte	40
 547 0064 1E       		.byte	30
 548 0065 14       		.byte	20
 549 0066 00       		.byte	0
 550 0067 01       		.byte	1
 551 0068 F000     		.short	240
 552 006a A000     		.short	160
 553              		.type	u8x8_d_st7586s_erc240160_flip0_seq, %object
 554              		.size	u8x8_d_st7586s_erc240160_flip0_seq, 21
 555              	u8x8_d_st7586s_erc240160_flip0_seq:
 556 006c 18       		.byte	24
 557 006d 15       		.byte	21
 558 006e 36       		.byte	54
 559 006f 16       		.byte	22
 560 0070 C8       		.byte	-56
 561 0071 15       		.byte	21
 562 0072 37       		.byte	55
 563 0073 16       		.byte	22
 564 0074 00       		.byte	0
 565 0075 15       		.byte	21
 566 0076 2A       		.byte	42
 567 0077 16       		.byte	22
 568 0078 00       		.byte	0
 569 0079 16       		.byte	22
 570 007a 08       		.byte	8
 571 007b 16       		.byte	22
 572 007c 00       		.byte	0
 573 007d 16       		.byte	22
 574 007e 7F       		.byte	127
 575 007f 19       		.byte	25
 576 0080 FF       		.byte	-1
 577 0081 000000   		.space	3
 578              		.type	u8x8_d_st7586s_erc240160_flip1_seq, %object
 579              		.size	u8x8_d_st7586s_erc240160_flip1_seq, 21
 580              	u8x8_d_st7586s_erc240160_flip1_seq:
 581 0084 18       		.byte	24
 582 0085 15       		.byte	21
 583 0086 36       		.byte	54
 584 0087 16       		.byte	22
 585 0088 00       		.byte	0
 586 0089 15       		.byte	21
 587 008a 37       		.byte	55
 588 008b 16       		.byte	22
 589 008c 00       		.byte	0
 590 008d 15       		.byte	21
 591 008e 2A       		.byte	42
 592 008f 16       		.byte	22
 593 0090 00       		.byte	0
 594 0091 16       		.byte	22
 595 0092 00       		.byte	0
 596 0093 16       		.byte	22
 597 0094 00       		.byte	0
 598 0095 16       		.byte	22
ARM GAS  C:\Users\info\AppData\Local\Temp\ccT4mdOB.s 			page 17


 599 0096 77       		.byte	119
 600 0097 19       		.byte	25
 601 0098 FF       		.byte	-1
 602 0099 000000   		.space	3
 603              		.type	u8x8_d_st7586s_sleep_off, %object
 604              		.size	u8x8_d_st7586s_sleep_off, 7
 605              	u8x8_d_st7586s_sleep_off:
 606 009c 18       		.byte	24
 607 009d 15       		.byte	21
 608 009e 11       		.byte	17
 609 009f FE       		.byte	-2
 610 00a0 32       		.byte	50
 611 00a1 19       		.byte	25
 612 00a2 FF       		.byte	-1
 613 00a3 00       		.space	1
 614              		.type	u8x8_d_st7586s_sleep_on, %object
 615              		.size	u8x8_d_st7586s_sleep_on, 5
 616              	u8x8_d_st7586s_sleep_on:
 617 00a4 18       		.byte	24
 618 00a5 15       		.byte	21
 619 00a6 10       		.byte	16
 620 00a7 19       		.byte	25
 621 00a8 FF       		.byte	-1
 622              		.text
 623              	.Letext0:
 624              		.file 2 "c:\\program files (x86)\\cypress\\psoc creator\\4.2\\psoc creator\\import\\gnu\\arm\\5.4.
 625              		.file 3 "c:\\program files (x86)\\cypress\\psoc creator\\4.2\\psoc creator\\import\\gnu\\arm\\5.4.
 626              		.file 4 "..\\u8g2-master\\csrc\\u8x8.h"