ARM GAS  C:\Users\info\AppData\Local\Temp\ccPgyeGN.s 			page 1


   1              		.syntax unified
   2              		.cpu cortex-m3
   3              		.fpu softvfp
   4              		.eabi_attribute 20, 1
   5              		.eabi_attribute 21, 1
   6              		.eabi_attribute 23, 3
   7              		.eabi_attribute 24, 1
   8              		.eabi_attribute 25, 1
   9              		.eabi_attribute 26, 1
  10              		.eabi_attribute 30, 4
  11              		.eabi_attribute 34, 1
  12              		.eabi_attribute 18, 4
  13              		.thumb
  14              		.syntax unified
  15              		.file	"u8x8_debounce.c"
  16              		.text
  17              	.Ltext0:
  18              		.section	.gnu.lto_.profile.bf14ddb8,"",%progbits
  19 0000 789C6361 		.ascii	"x\234ca`d`a`\000\222\221\216\000\001]\000\245"
  19      60646061 
  19      60009291 
  19      8E00015D 
  19      00A5
  20              		.text
  21              		.section	.gnu.lto_.icf.bf14ddb8,"",%progbits
  22 0000 789C6361 		.ascii	"x\234ca`d\000\001\021\006\004`f\270\330tk\013\017\343"
  22      60640001 
  22      11060460 
  22      66B8D874 
  22      6B0B0FE3 
  23 0014 9BBDB726 		.ascii	"\233\275\267&\3632-\370\275\345\027'\003\000c\252\011"
  23      F3322DF8 
  23      BDE51727 
  23      030063AA 
  23      09
  24 0025 82       		.ascii	"\202"
  25              		.text
  26              		.section	.gnu.lto_.jmpfuncs.bf14ddb8,"",%progbits
  27 0000 789C6361 		.ascii	"x\234ca`d\000\201p\006\004`f`bdd\256\257g\004\202z6"
  27      60640081 
  27      70060460 
  27      66606264 
  27      64AEAF67 
  28 0018 A64A0606 		.ascii	"\246J\006\006F\306\003L\177\231\030\267\266\237\331"
  28      46C6034C 
  28      7F9918B7 
  28      B69FD9
  29 0027 C8F585A9 		.ascii	"\310\365\205\251\225\031(\300\270\234Q\006\244\230\021"
  29      951928C0 
  29      B89C5106 
  29      A49811
  30 0036 283EADF5 		.ascii	"(>\255\365\320yv\2108\003\343\012\2208\023H+\013\304"
  30      D0797688 
  30      3803E30A 
  30      90381348 
  30      2B0BC4
  31 0049 3826A009 		.ascii	"8&\240\011 K\0001O\0204"
ARM GAS  C:\Users\info\AppData\Local\Temp\ccPgyeGN.s 			page 2


  31      204B0031 
  31      4F1034
  32              		.text
  33              		.section	.gnu.lto_.inline.bf14ddb8,"",%progbits
  34 0000 789C6361 		.ascii	"x\234ca`d\000\201t\006\004`f`\340\326ddb\340\000J1\202"
  34      60640081 
  34      74060460 
  34      6660E0D6 
  34      646462E0 
  35 0018 0866BE05 		.ascii	"\010f\276\005\275,\014l\013\344\231\030\230\016\371"
  35      BD2C0C6C 
  35      0BE49918 
  35      980EF9
  36 0027 F080D430 		.ascii	"\360\200\32402\010t0220\011|\350ac\340\370U\303\004"
  36      32087430 
  36      32323009 
  36      7CE86163 
  36      E0F855C3 
  37 003c 1264E165 		.ascii	"\022d\341ed`n\346\235\340\307\300\304\240#\016\2245"
  37      64606EE6 
  37      9DE0C7C0 
  37      C4A0230E 
  37      9435
  38 004e DB50C820 		.ascii	"\333P\310 2\301\024*\311\300\3004\301o\202\0373\320"
  38      32C1142A 
  38      C9C0C034 
  38      C16F821F 
  38      33D0
  39 0060 0046A01A 		.ascii	"\000F\240\032\000\255U\016H"
  39      00AD550E 
  39      48
  40              		.text
  41              		.section	.gnu.lto_.pureconst.bf14ddb8,"",%progbits
  42 0000 789C6361 		.ascii	"x\234ca`d`g```f``\224b\222\002\000\001*\000G"
  42      60646067 
  42      60606066 
  42      60609462 
  42      92020001 
  43              		.text
  44              		.section	.gnu.lto_u8x8_find_first_diff.bf14ddb8,"",%progbits
  45 0000 789C6D52 		.ascii	"x\234mR\315KTQ\024\277\347\236\367\256oF\307Z\270ha"
  45      CD4B5451 
  45      14BFE79E 
  45      F7AE6F46 
  45      C75AB868 
  46 0015 20D124B6 		.ascii	" \321$\266\220\276\026\256\202\376\205\226R\210N\222"
  46      90BE16AE 
  46      82FE8596 
  46      52884E92 
  47 0025 11152482 		.ascii	"\021\025$\202\273\256\276\351E`\220\221\232 \030\224"
  47      BBAEBEE9 
  47      45609091 
  47      9A201894 
  48 0035 69A68DD3 		.ascii	"i\246\215\323hPA<?\232\"\007#\2026mlbZT\224#}\220\230"
  48      6850413C 
  48      3F9A2207 
  48      2382366D 
ARM GAS  C:\Users\info\AppData\Local\Temp\ccPgyeGN.s 			page 3


  48      6C625A54 
  49 004e D339F7CD 		.ascii	"\3239\367\315\224P\027f\356\327\357\353\234\373,\001"
  49      94501766 
  49      EED7EFEB 
  49      9CFB2C01 
  50 005e 82471485 		.ascii	"\202G\024\205\330Ms#\375\240L\200\274\274$D\227#\001"
  50      D84D7323 
  50      FDA04C80 
  50      BCBC2444 
  50      972301
  51 0071 83054A7B 		.ascii	"\203\005J{\016\205\016[K\317\205\320\025\226T\227fi"
  51      0E850E5B 
  51      4BCF85D0 
  51      15965497 
  51      6669
  52 0083 11B6DD08 		.ascii	"\021\266\335\010mU\000;d\003\360\254\035\020\347$Z\312"
  52      6D55003B 
  52      6403F0AC 
  52      1D10E724 
  52      5ACA
  53 0095 069A04F8 		.ascii	"\006\232\004\370\026\330\306\345\233\374%a\361\307\263"
  53      16D8C6E5 
  53      9BFC2561 
  53      F1C7B3
  54 00a4 9E70DDA8 		.ascii	"\236p\335\250\326\335z97\\50\346\303yr/H\001\373\253"
  54      D6DD7A39 
  54      375C3530 
  54      E6C37972 
  54      2F4801FB 
  55 00b9 614F3527 		.ascii	"aO5'\030\205:B.\367\334\237\214`\015\010Z?\271\036\177"
  55      18853A42 
  55      2EF7DC9F 
  55      8C600D08 
  55      5A3FB91E 
  56 00ce 59593BC2 		.ascii	"YY;\302,\375\350\250F\242\300\030\340_\026k\300m\250"
  56      2CFDE8A8 
  56      46A2C018 
  56      E05F166B 
  56      C06DA8
  57 00e1 25EC9037 		.ascii	"%\354\2207\236C\334ax\037\275\325\317%^\276\310\033"
  57      9E43DC61 
  57      781FBDD5 
  57      CF255EBE 
  57      C81B
  58 00f3 FF877707 		.ascii	"\377\207w\007j\031<\2628\377\270\022w\032\342\315\354"
  58      6A193CB2 
  58      38FFB812 
  58      771AE2CD 
  58      EC
  59 0104 F0558CDE 		.ascii	"\360U\214\336`\242\337\227\216\014h\277\253\206\311"
  59      60A2DF97 
  59      8E0C68BF 
  59      AB86C9
  60 0113 139BC93C 		.ascii	"\023\233\311<\010[\2705u\321\301]\2067\367}\271\327"
  60      085BB835 
  60      75D1C15D 
  60      8637F77D 
ARM GAS  C:\Users\info\AppData\Local\Temp\ccPgyeGN.s 			page 4


  60      B9D7
  61 0125 2AF2AEA4 		.ascii	"*\362\256\244\313\365\224v\230v\367?\264lr\243/\242"
  61      CBF59476 
  61      9876F73F 
  61      B46C72A3 
  61      2FA2
  62 0137 E29A460D 		.ascii	"\342\232F\015$ \012\223\020\345>P\240)P\3640\262t\232"
  62      24200A93 
  62      10E53E50 
  62      A02950F4 
  62      30B2749A 
  63 014b 38ECEB42 		.ascii	"8\354\353B\301\325~\257\232}\250\312A\360\005\311\321"
  63      C1D57EAF 
  63      9A7DA8CA 
  63      41F005C9 
  63      D1
  64 015c 15720596 		.ascii	"\025r\005\226YR\373\251\001\012\270\2342:\006\207\377"
  64      5952FBA9 
  64      010AB89C 
  64      323A0687 
  64      FF
  65 016d 42062CC4 		.ascii	"B\006,\304\012\011\257m\021y)i\302,t\373\003^\2051\242"
  65      0A09AF6D 
  65      11792969 
  65      C22C74FB 
  65      035E8531 
  66 0182 6B4A3373 		.ascii	"kJ3s!\223\014\177\225\034\026 \011\325\202!\203ii \223"
  66      21930C7F 
  66      951C1620 
  66      09D58221 
  66      83696920 
  67 0197 06921B9B 		.ascii	"\006\222\033\233\177W\204(\270\007\\H\236\036\230\336"
  67      7F578428 
  67      B8075C48 
  67      9E1E98DE 
  68 01a7 9CF5B69A 		.ascii	"\234\365\266\232\020.J\021l\022\274\001\361\036\334"
  68      102E4A11 
  68      6C12BC01 
  68      F11EDC
  69 01b6 7E6FE39A 		.ascii	"~o\343\232\261r\321\242{Rz\345.\274\300@\251\000\220"
  69      B172D1A2 
  69      7B527AE5 
  69      2EBCC040 
  69      A90090
  70 01c9 326E7F9C 		.ascii	"2n\177\234\010\305\2545/=\330\030\260\312\\\264]T|\272"
  70      08C5AC35 
  70      2F3DD818 
  70      B0CA5CB4 
  70      5D547CBA 
  71 01dd AE822387 		.ascii	"\256\202#\207\264\351B\274\205\370\033\267\245xF\312"
  71      B4E942BC 
  71      85F81BB7 
  71      A57846CA 
  72 01ed 894F0F7E 		.ascii	"\211O\017~FX\031\250K\323&\243X\015*\222\323{]\014\251"
  72      465819A8 
  72      4BD326A3 
  72      580D2A92 
ARM GAS  C:\Users\info\AppData\Local\Temp\ccPgyeGN.s 			page 5


  72      D37B5D0C 
  73 0202 8954DB2A 		.ascii	"\211T\333*\231Q~\231IV\221\231ZOn\243B,A\0377\222\305"
  73      99517E99 
  73      49569199 
  73      5A4F6EA3 
  73      422C411F 
  74 0219 8AF77AF0 		.ascii	"\212\367z\360@\240\030\"\027\022\235^x\3529,*IifSZS"
  74      40A01822 
  74      17129D5E 
  74      78EA392C 
  74      2A496966 
  75 0230 632808F1 		.ascii	"c(\010\361\245\007\2135\226|\251\347J\364\037\204\274"
  75      A5078B35 
  75      967CA9E7 
  75      4AF41F84 
  75      BC
  76 0241 B4B9E71F 		.ascii	"\264\271\347\037\270-.\242I\204\204\303\241T'\347\260"
  76      B82D2EA2 
  76      498484C3 
  76      A15427E7 
  76      B0
  77 0252 32A936C2 		.ascii	"2\2516\302\002\201\350\221\266\327\327\037\351h8\276"
  77      0281E891 
  77      B6D7D71F 
  77      E96838BE 
  78 0262 AF29D67E 		.ascii	"\257)\326~6F\253\316\206\246c\255-g:N\307Z\353c\002"
  78      3646ABCE 
  78      86A663AD 
  78      2D673A4E 
  78      C75AEB63 
  79 0277 9AA1054E 		.ascii	"\232\241\005NX\247\232\333O\376\006\372\361\010~"
  79      58A79ADB 
  79      4FFE06FA 
  79      F1087E
  80              		.text
  81              		.section	.gnu.lto_u8x8_read_pin_state.bf14ddb8,"",%progbits
  82 0000 789C7553 		.ascii	"x\234uS\315KTQ\024?\347\336\367\346{\306\011Z\032\270"
  82      CD4B5451 
  82      143FE7DE 
  82      F7E67BC6 
  82      095A1AB8 
  83 0014 19442847 		.ascii	"\031D(Gr\343\262\377 h\321\252\220\232\206p\221E*\264"
  83      72E3B2FF 
  83      2068D1AA 
  83      909A8670 
  83      91452AB4 
  84 0028 9BE73C47 		.ascii	"\233\347<G]\264p\221#D\241a\242e~\345Wj\306d\222\241"
  84      5DB47091 
  84      2344A161 
  84      A2657EE5 
  84      576AC664 
  85 003e 9545AECA 		.ascii	"\225E\256\312\205ZId\0373\203i\220:\235s\257\222A\015"
  85      855A4964 
  85      1F338369 
  85      903A9D73 
  85      AF92410D 
  86 0052 CC79F79E 		.ascii	"\314y\367\236\367;\277\363;\277{\237\001\010\374;l\000"
ARM GAS  C:\Users\info\AppData\Local\Temp\ccPgyeGN.s 			page 6


  86      F73BBFF3 
  86      3BBF7B9F 
  86      0108FC3B 
  86      6C00
  87 0064 94D0F338 		.ascii	"\224\320\3638\375\321\001(\232^\002\324\272\004\032"
  87      FDD10128 
  87      9A5E02D4 
  87      BA041A
  88 0073 7A21F5E2 		.ascii	"z!\365\342\261\313\020\362\327\024\200\3451\233\275"
  88      B1CB10F2 
  88      D71480E5 
  88      319BBD
  89 0082 60F94C44 		.ascii	"`\371LD\316[.\204\230\220\206\2111a\000\246\014t\250"
  89      CE5B2E84 
  89      98908689 
  89      316100A6 
  89      0C74A8
  90 0095 C0D43FC4 		.ascii	"\300\324?\304\266\300\271\315gW=E\235\226\025\267\226"
  90      B6C0B9CD 
  90      67573D45 
  90      9D9615B7 
  90      96
  91 00a6 12C9832D 		.ascii	"\022\311\203-])LH\200\234\000,\315\307\222|n\333\211"
  91      5D294C48 
  91      809C002C 
  91      CDC7927C 
  91      6EDB89
  92 00b9 45847C5D 		.ascii	"E\204|]\327\177C\256\213\204D4h\233yq\375}\200\267\002"
  92      D77F43AE 
  92      8B844434 
  92      689B7971 
  92      FD7D80B7 
  93 00ce 0B68DBB6 		.ascii	"\013h\333\266\320\276\350\220\005\010\264N\316.|\363"
  93      D0BEE890 
  93      0508B44E 
  93      CE2E7CF3 
  94 00de 177630A7 		.ascii	"\027v0\2475\026\265\334\011)\361.J\346\274\203\371\330"
  94      3516B5DC 
  94      0929F12E 
  94      4AE6BC83 
  94      F9D8
  95 00f0 85F94029 		.ascii	"\205\371@)\300n,d\270\335\331S.C\252\262\251\355\326"
  95      C06E2C64 
  95      B8DDD953 
  95      2E43AAB2 
  95      A9EDD6
  96 0103 923BD4CE 		.ascii	"\222;\324\316\225\251\321\013-V\252\266\200\324\340"
  96      95A9D10B 
  96      2D56AAB6 
  96      80D4E0
  97 0112 3D5DBC27 		.ascii	"=]\274'\010\030\3321\367\344Q@\206U\331\355\225\326"
  97      0818DA31 
  97      F7E45140 
  97      8655D9ED 
  97      95D6
  98 0124 6B72B76C 		.ascii	"kr\267l\350\264e\037\343\242\336\177\024\255\014\354"
  98      E8B4651F 
ARM GAS  C:\Users\info\AppData\Local\Temp\ccPgyeGN.s 			page 7


  98      E3A2DE7F 
  98      14AD0CEC 
  99 0134 34FB1D75 		.ascii	"4\373\035u\026\375\012\260\017C\330\203!\236\225\206"
  99      16FD0AB0 
  99      0F43D883 
  99      219E9586 
 100 0144 EC276700 		.ascii	"\354'g\000\304^\266\357D\312\312\345l+5h~\224\007\020"
 100      C45EB6EF 
 100      44CACAE5 
 100      6C2B3568 
 100      7E940710 
 101 0158 384F6CF4 		.ascii	"8Ol\364\306T\321\201,\337E\203\030\036\016^\012\246"
 101      C654D181 
 101      2CDF4583 
 101      181E0E5E 
 101      0AA6
 102 016a 8F839F43 		.ascii	"\217\203\237C\200C\236B\006U-@\232\332\320\321d\204"
 102      80439E42 
 102      06552D40 
 102      9ADAD0D1 
 102      6484
 103 017c A0875CC1 		.ascii	"\240\207\\\301xj\242Fu%\014I{cO\317+{\001s\210\003\344"
 103      786AA246 
 103      75250C49 
 103      7B634FCF 
 103      2B7B0173 
 104 0193 1143262B 		.ascii	"\021C&+\024\244OA\222\211\251y\247\206\000\336G\236"
 104      14A44F41 
 104      9289A979 
 104      A78600DE 
 104      479E
 105 01a5 2A2324D0 		.ascii	"*#$\320\261\313U\264\323\365O7$\243mi\332\222\317vh"
 105      B1CB55B4 
 105      D3F54F37 
 105      24A36D69 
 105      DA92CF76 
 106 01ba 7AA6DEC5 		.ascii	"z\246\336\305x\022\213\203\212Q\354u$\020\254b|==\034"
 106      78128B83 
 106      8A51EC75 
 106      2410AC62 
 106      7C3D3D1C 
 107 01ce E6D47E76 		.ascii	"\346\324~v\251<\335\234\231m\364\265\342\315Z6\253\224"
 107      A93CDD9C 
 107      996DF4B5 
 107      E2CD5A36 
 107      AB94
 108 01e0 C671DAC4 		.ascii	"\306q\332\3043\304]\331\375\017\361^g\370\010K\031\306"
 108      33C45DD9 
 108      FD0FF15E 
 108      67F8084B 
 108      19C6
 109 01f2 56DC610B 		.ascii	"V\334a\013\001G0L\357\206\033\236\017x\264L\304Q* q"
 109      0147304C 
 109      EF861B9E 
 109      0F78B44C 
 109      C4512A20 
 110 0207 C9FAD593 		.ascii	"\311\372\325\223Z\233\313\226H\240\267[\337\263>\015"
ARM GAS  C:\Users\info\AppData\Local\Temp\ccPgyeGN.s 			page 8


 110      5A9BCB96 
 110      48A0B75B 
 110      DFB33E0D 
 111 0217 7A05F880 		.ascii	"z\005\370\200P\237H\030!\230}l\354\313;gl\333j\264\254"
 111      509F4818 
 111      21987D6C 
 111      ECCB3B67 
 111      6CDB6AB4 
 112 022c 6042BA72 		.ascii	"`B\272r\202N\006\3070\006$\201\030x\366\204t\263\376"
 112      824E06C7 
 112      30062481 
 112      1878F684 
 112      74B3FE
 113 023f F1CC48B1 		.ascii	"\361\314H\261\346\365\354\323\214\377W;\376G\355\004"
 113      E6F5ECD3 
 113      8CFF573B 
 113      FE47ED04 
 114 024f 869922DB 		.ascii	"\206\231\"\333\260\205\232\302K,,v\313\241\367>J\355"
 114      B0859AC2 
 114      4B2C2C76 
 114      CBA1F73E 
 114      4AED
 115 0261 9F87BE29 		.ascii	"\237\207\276)|\250\346\211g\235\032\342\327>\332?wK"
 115      7CA8E689 
 115      679D1AE2 
 115      D73EDA3F 
 115      774B
 116 0273 02AACABF 		.ascii	"\002\252\312\277\037\222G\331\277\235\317\323\216l$"
 116      1F9247D9 
 116      BF9DCFD3 
 116      8E6C24
 117 0282 BC1A1124 		.ascii	"\274\032\021$K\224Q{\250>F\005\325\361\032@\2371\337"
 117      4B94517B 
 117      A83E4605 
 117      D5F11A40 
 117      9F31DF
 118 0295 9620E862 		.ascii	"\226 \350b\001z\2430\010\313X7o\0074\017\373\272\263"
 118      017AA330 
 118      08CB5837 
 118      6F07340F 
 118      FBBAB3
 119 02a8 B6BCE6D7 		.ascii	"\266\274\346\327\276\2328\251\356\010dI7Y&\272$\261"
 119      BE9A38A9 
 119      EE086449 
 119      375926BA 
 119      24B1
 120 02ba CA466F96 		.ascii	"\312Fo\226\332\320\005\023\213\335\344R\236\\\374\352"
 120      DAD00513 
 120      8BDDE452 
 120      9E5CFCEA 
 121 02ca A44626DF 		.ascii	"\244F&\337\312\317t\3452\025\232M\231\224&\353\233\275"
 121      CACF74E5 
 121      32159A4D 
 121      999426EB 
 121      9BBD
 122 02dc B43C545C 		.ascii	"\264<T\\|\252\246\354\374\321\362H\325\345\010\255\256"
 122      7CAAA6EC 
ARM GAS  C:\Users\info\AppData\Local\Temp\ccPgyeGN.s 			page 9


 122      FCD1F248 
 122      D5E508AD 
 122      AE
 123 02ed 94959F8B 		.ascii	"\224\225\237\213\236\275XS\031\211\026G\300\340\204"
 123      9EBD5853 
 123      19891647 
 123      C0E084
 124 02fc FB524565 		.ascii	"\373REeyU\365\231\352(V\374\006\365AV\342"
 124      7955F599 
 124      EA2856FC 
 124      06F54156 
 124      E2
 125              		.text
 126              		.section	.gnu.lto_u8x8_GetMenuEvent.bf14ddb8,"",%progbits
 127 0000 789C9555 		.ascii	"x\234\225U\335O\034U\024\277g\356\354\316\307\356\014"
 127      DD4F1C55 
 127      14BF67EE 
 127      ECCEC7EE 
 127      0C
 128 0011 600BE903 		.ascii	"`\013\351\003&\304\2044}(\220\372 \376\011\276\372l"
 128      26C48434 
 128      7D2890FA 
 128      20FE09BE 
 128      FA6C
 129 0023 421449A3 		.ascii	"B\024I\243\251\325\0240\2761\354\262\204\207F\333\207"
 129      A9D51430 
 129      BE31ECB2 
 129      848746DB 
 129      87
 130 0034 D2C440C0 		.ascii	"\322\304@\300 R?(\213\332R\012m\267\225R\334\226\217"
 130      20523F28 
 130      8BDA520A 
 130      6DB79552 
 130      DC968F
 131 0047 0295F2D1 		.ascii	"\002\225\362\321\332\"m\210\242]V\2641\012\3539\367"
 131      DA226D88 
 131      A25D56B4 
 131      310AEB39 
 131      F7
 132 0058 CE3010DA 		.ascii	"\3160\020\332\204\335d\317\334{\347\376\3169\277\337"
 132      84DD64CF 
 132      DC7BE7FE 
 132      CE39BFDF 
 133 0068 3977AECA 		.ascii	"9w\256\312\200\321\3577\235\261W\361y\031\377\220\303"
 133      80D1EF37 
 133      9DB157F1 
 133      7919FF90 
 133      C3
 134 0079 403931C6 		.ascii	"@91\306X\275\256\004\254\211\034\346\350\\\330\200\260"
 134      58BDAE04 
 134      AC891CE6 
 134      E85CD880 
 134      B0
 135 008a BAB021B9 		.ascii	"\272\260!\271\256\250\355\345\3141\355T>s\302*\330\022"
 135      AEA8EDE5 
 135      CC31ED54 
 135      3E73C22A 
ARM GAS  C:\Users\info\AppData\Local\Temp\ccPgyeGN.s 			page 10


 135      D812
 136 009c 165082B4 		.ascii	"\026P\202\264`j\3642\034\364\2265o\240+\206\200\231"
 136      606AF432 
 136      1CF49635 
 136      6FA02B86 
 136      8099
 137 00ae 026678CB 		.ascii	"\002fx\313\2467\010)a\201\267\005>\354-[\336\300\006"
 137      A6370829 
 137      6181B705 
 137      3EEC2D5B 
 137      DEC006
 138 00c1 A081A303 		.ascii	"\240\201\243\003\253S\270\032\010j\272a\206\302\226"
 138      AB53B81A 
 138      086ABA61 
 138      86C296
 139 00d0 0D75F097 		.ascii	"\015u\360\227\262\256\300\315\247#\307\315\003]\216"
 139      B2AEC0CD 
 139      A723C7CD 
 139      035D8E
 140 00df 13711E5C 		.ascii	"\023q\036\\\357zm5\022\333\027\343\214e\024\006/\027"
 140      EF7A6D35 
 140      12DB17E3 
 140      8C651406 
 140      2F17
 141 00f1 425921B1 		.ascii	"BY!\261\354\202\003\270\363vC\274\205\257)1\016\240"
 141      EC8203B8 
 141      F37643BC 
 141      85AF2931 
 141      0EA0
 142 0103 E27475F4 		.ascii	"\342tu\364\323_l\232*P\204\323\366\351\216\205 /\002"
 142      D35F6C9A 
 142      2A5084D3 
 142      F6E98E85 
 142      202F02
 143 0116 86E3E6E4 		.ascii	"\206\343\346\344\364\037\326\376N\362\351\234\256r\214"
 143      F41FD6FE 
 143      4EF2E99C 
 143      AE728C
 144 0125 18E7F015 		.ascii	"\030\347\360\025p\362\371%\024\302\031(d\270\304\340"
 144      70F2F925 
 144      14C21928 
 144      64B8C4E0 
 145 0135 6BD84FDB 		.ascii	"k\330O\333\033\222\303\017C\274X@\243m\177\016\205\213"
 145      1B92C30F 
 145      43BC5840 
 145      A36D7F0E 
 145      858B
 146 0147 3B089A98 		.ascii	";\010\232\230JZ\247\235D}\021\346\003\337H\270\227\022"
 146      4A5AA79D 
 146      447D11E6 
 146      03DF48B8 
 146      9712
 147 0159 137BBBBA 		.ascii	"\023{\273\272+x\231\200\235h\377\354\201\341\302&\222"
 147      2B789980 
 147      9D68FFEC 
 147      81E1C226 
 147      92
ARM GAS  C:\Users\info\AppData\Local\Temp\ccPgyeGN.s 			page 11


 148 016a 2127EEE8 		.ascii	"!'\356\350\204:\373\014\324b\357\306)+\330\340\340\257"
 148      843AFB0C 
 148      D462EFC6 
 148      292BD8E0 
 148      E0AF
 149 017c 087AA018 		.ascii	"\010z\240\030\272\241\230\350\"\3178\004\261\306\212"
 149      BAA198E8 
 149      22CF3804 
 149      B1C68A
 150 018b B7DAF37A 		.ascii	"\267\332\363z\302\311d\242N\342\212y\365\274\275\017"
 150      C2C964A2 
 150      4EE28A79 
 150      F5BCBD0F 
 151 019b 182DAA40 		.ascii	"\030-\252@i\007\031m\322\220\206\252\2231\311\330d\362"
 151      6907196D 
 151      D29086AA 
 151      9331C9D8 
 151      64F2
 152 01ad C8EC21B3 		.ascii	"\310\354!\263\227L\276\000\025\320\220\261\024F\241"
 152      974CBE00 
 152      15D090B1 
 152      1446A1
 153 01bc 6AAC2A0A 		.ascii	"j\254*\012=\371\"D\210\244\210\213\273H\271\330\265"
 153      3DF92244 
 153      88A4888B 
 153      BB48B9D8 
 153      B5
 154 01cd 718D44C5 		.ascii	"q\215D\305f\203^\324i\031\032\0223I\233\266Dy\020w\364"
 154      66835ED4 
 154      69191A12 
 154      33499BB6 
 154      44791077 
 155 01e2 F7AFCC6B 		.ascii	"\367\257\314ku\353N\223\343\344\306x \243`\306\360-"
 155      75EB4E93 
 155      E3E4C678 
 155      20A360C6 
 155      F02D
 156 01f4 D4B12857 		.ascii	"\324\261(Wc<\310\026A\021\3760=\004\260\307\020\271"
 156      633CC816 
 156      4111FE30 
 156      3D04B0C7 
 156      10B9
 157 0206 D83BB3C8 		.ascii	"\330;\263\310\245\003mk\010.\224{z#\331\024n\203V\210"
 157      A5036D6B 
 157      082E947B 
 157      7A23D914 
 157      6E835688 
 158 021a 710D5DC0 		.ascii	"q\015]\300w\030\224\326;\227\"g\265\322\203\224\311"
 158      771894D6 
 158      3B972267 
 158      B5D28394 
 158      C9
 159 022b F7D0061B 		.ascii	"\367\320\006\033$\020\203sP\312\036A\243\243m\3617\373"
 159      24108373 
 159      50CA1E41 
 159      A3A36DF1 
 159      37FB
ARM GAS  C:\Users\info\AppData\Local\Temp\ccPgyeGN.s 			page 12


 160 023d F972E024 		.ascii	"\371r\340$|R\217\222&Z\307\3201\036\020\207\213\355"
 160      7C528F92 
 160      265AC7D0 
 160      311E1087 
 160      8BED
 161 024f E7E124E0 		.ascii	"\347\341$\340\226\236\225\376\177,\012\251\212\220\353"
 161      969E95FE 
 161      7F2C0AA9 
 161      8A90EB
 162 025e 932D31DD 		.ascii	"\223-1\335C\244L\004@\037Fu8\0350\270 1\223\251[\255"
 162      43A44C04 
 162      401F4675 
 162      381D30B8 
 162      203193A9 
 163 0274 2189C9C5 		.ascii	"!\211\311\305i\337Z\337\200\341a6\004\246_`D\341.J\314"
 163      69DF5ADF 
 163      80E16136 
 163      04A65F60 
 163      44E12E4A 
 164 0289 664BAAA2 		.ascii	"fK\252\242%\247\333\232fs<\314`\2100\003\002C\311\301"
 164      25A7DB9A 
 164      66733CCC 
 164      60883003 
 164      0243C9C1 
 165 029d A0C40CF4 		.ascii	"\240\304\014\364\015\016\007$\246\014\247_\244;\357"
 165      0D0E0724 
 165      A60CA75F 
 165      A43BEF
 166 02ac 6D62D202 		.ascii	"mb\322\002sI`T\302\\F\014\243\372q6\221\303\227\240"
 166      73496054 
 166      C25C460C 
 166      A3FA7136 
 166      91C397A0 
 167 02c0 3E9774A0 		.ascii	">\227t\240\304I\347\325\205H@\352\242\357N\330+BX\301"
 167      C449E7D5 
 167      854840EA 
 167      A2EF4ED8 
 167      2B4258C1 
 168 02d4 3A81C23E 		.ascii	":\201\302>\204\206\371\350\273n\251\243$\243\210\245"
 168      8486F9E8 
 168      BB6EA9A3 
 168      24A388A5 
 169 02e4 B2F61047 		.ascii	"\262\366\020G\377k\361\373i\341\177\213\363zjc\353\371"
 169      FF6BF1FB 
 169      69E17F8B 
 169      F37A6A63 
 169      EBF9
 170 02f6 11AEFAA5 		.ascii	"\021\256\372\245\273\006\245\370\356\324\350\245\273"
 170      BB06A5F8 
 170      EED4E8A5 
 170      BB
 171 0303 5C36D80B 		.ascii	"\\6\330\013\360\003\0010B`;\033E\262Y\362\330\230\273"
 171      F0030130 
 171      42603B1B 
 171      45B259F2 
 171      D898BB
 172 0316 6333E4B3 		.ascii	"c3\344\263\271.\331\314mac\272l\202,\256\0126\251GY"
ARM GAS  C:\Users\info\AppData\Local\Temp\ccPgyeGN.s 			page 13


 172      B92ED9CC 
 172      6D6163BA 
 172      6C822CAE 
 172      0A36A947 
 173 032b B319F6D9 		.ascii	"\263\031\366\331\334\200Rq>\310\245\346\012\324\334"
 173      DC805271 
 173      3EC8A5E6 
 173      0AD4DC
 174 033a BB1231B2 		.ascii	"\273\0221\262t9\"\\\212&\372\021J\335\023\263\026\377"
 174      7439225C 
 174      8A26FA11 
 174      4ADD13B3 
 174      16FF
 175 034c 3DEBDC92 		.ascii	"=\353\334\222~n7\205\322\221\177GV\015\251\364Kp\313"
 175      7E6E3785 
 175      D2917F47 
 175      560DA9F4 
 175      4B70CB
 176 035f 4D55DFAE 		.ascii	"MU\337\2564\227J?\361\224\266w\247\364\250\237\364\330"
 176      34974A3F 
 176      F194B677 
 176      A7F4A89F 
 176      F4D8
 177 0371 CEBEB15D 		.ascii	"\316\276\261]\245\015\257oRkY\263\031\367\331LlQ\332"
 177      A50DAF6F 
 177      526B59B3 
 177      19F7D94C 
 177      6C51DA
 178 0384 DC2CDEDF 		.ascii	"\334,\336\337Y\273\274\355\273\234\024\002u\304\317"
 178      59BBBCED 
 178      BB9C1402 
 178      75C4CF
 179 0393 34BAAD58 		.ascii	"4\272\255X\006Sn\204\320v\201T)\320\272'P\336\356\004"
 179      06536E84 
 179      D0768154 
 179      29D0BA27 
 179      50DEEE04 
 180 03a7 9AF65BF1 		.ascii	"\232\366[\361\316\316V\314s\005\012o\262\331\310\232"
 180      CECE56CC 
 180      73050A6F 
 180      B2D9C89A 
 181 03b7 CD4F3E9B 		.ascii	"\315O>\233\031W \361\251\315\244\335O\355\236\335ez"
 181      195720F1 
 181      A9CDA4DD 
 181      4FED9EDD 
 181      657A
 182 03c9 D72FE52C 		.ascii	"\327/\345,f\272\014.\321\275;>\365F\206\266\301\234"
 182      66BA0C2E 
 182      D1BD3B3E 
 182      F54686B6 
 182      C19C
 183 03db F8D4E761 		.ascii	"\370\324\347a\200\030\236\251\307\020mn\\\001\211\311"
 183      80189EA9 
 183      C7106D6E 
 183      5C0189C9 
 184 03eb 97B0B9FF 		.ascii	"\227\260\271\377\236\244\303R\327\011\006\363\030\323"
 184      9EA4C352 
ARM GAS  C:\Users\info\AppData\Local\Temp\ccPgyeGN.s 			page 14


 184      D70906F3 
 184      18D3
 185 03f9 BB13BAE9 		.ascii	"\273\023\272\351N\310\027\334\255\355:3\351i\343\302"
 185      4EC817DC 
 185      ADED3A33 
 185      E969E3C2 
 186 0409 87D25581 		.ascii	"\207\322U\201\374\266OE\207\306\335\022e\000\026$\311"
 186      FCB64F45 
 186      87C6DD12 
 186      65001624 
 186      C9
 187 041a 66789656 		.ascii	"fx\226V\257\260\347\223\274\347\213u\237\016Y\201H\301"
 187      AFB0E793 
 187      BCE78B75 
 187      9F0E5981 
 187      48C1
 188 042c F6EEC05C 		.ascii	"\366\356\300\\&3\003\366+^\210\347>\266d\016T\2764\000"
 188      263303F6 
 188      2B5E88E7 
 188      3EB6640E 
 188      54BE3400 
 189 0440 69ABB6DC 		.ascii	"i\253\266\3349BOM\\\212&\012\220\037^\371\271\206&\226"
 189      39424F4D 
 189      5C8A260A 
 189      901F5EF9 
 189      B9862696 
 190 0454 FB8A8B57 		.ascii	"\373\212\213WAa\015aCt\341\002\005\301\320/\226\224"
 190      41610D61 
 190      4374E102 
 190      05C1D02F 
 190      9694
 191 0466 BC515B7E 		.ascii	"\274Q[~\370PEe\365\261J\034}T^\361v\325[\357\327\036"
 191      F8504565 
 191      F5B14A1C 
 191      7D545EF1 
 191      76D55BEF 
 192 047c ADAC2AA9 		.ascii	"\255\254*\251d*-\230\307\252\252k\217\324T\274W}\330"
 192      642A2D98 
 192      C7AAAA6B 
 192      8FD454BC 
 192      577DD8
 193 048f F8E09DA3 		.ascii	"\370\340\235\243\025\3255o\326T\375\017\022\037\365"
 193      15D5356F 
 193      D654FD0F 
 193      121FF5
 194 049e 72       		.ascii	"r"
 195              		.text
 196              		.section	.gnu.lto_.symbol_nodes.bf14ddb8,"",%progbits
 197 0000 789C5DC8 		.ascii	"x\234]\310\261\015@p\020F\361w\367\331B\303\036\206"
 197      B10D4070 
 197      1046F177 
 197      F7D942C3 
 197      1E86
 198 0012 B1C9DD04 		.ascii	"\261\311\335\004b\005cP\032\300\014\012\265N+\376\221"
 198      62056350 
 198      1AC00C0A 
 198      B54E2BFE 
ARM GAS  C:\Users\info\AppData\Local\Temp\ccPgyeGN.s 			page 15


 198      91
 199 0023 68BCE625 		.ascii	"h\274\346%\277\012\243\247\344\0260nP6\347\224*D\330"
 199      BF0AA3A7 
 199      E416306E 
 199      5036E794 
 199      2A44D8
 200 0036 9F3CFCA3 		.ascii	"\237<\374\243%[0\205^\200\314\006d\342\270\316Zn\254"
 200      255B3085 
 200      5E80CC06 
 200      64E2B8CE 
 200      5A6EAC
 201 0049 FB6D7258 		.ascii	"\373mrX\207\216\007kt\027\300"
 201      878E076B 
 201      7417C0
 202              		.text
 203              		.section	.gnu.lto_.refs.bf14ddb8,"",%progbits
 204 0000 789C6361 		.ascii	"x\234ca`\004B \000\000\0009\000\007"
 204      60044220 
 204      00000039 
 204      0007
 205              		.text
 206              		.section	.gnu.lto_.decls.bf14ddb8,"",%progbits
 207 0000 789CBD58 		.ascii	"x\234\275XyPTG\032\177\375z\200qf\004\005\222P[\354"
 207      79505447 
 207      1A7FFD7A 
 207      80716604 
 207      0592505B 
 208 0015 AEA5AE92 		.ascii	"\256\245\256\222lB\2746Em\325Vjkk\327\324\326\036\177"
 208      6C42BC36 
 208      456DD556 
 208      6A6B6BD7 
 208      D4D61E7F 
 209 0029 EC267BB1 		.ascii	"\354&{\261;;\314<d603\305<<\362\327\343\320\240(\212"
 209      3B3BCC3C 
 209      64363033 
 209      C53C3CF2 
 209      D7E3D0A0 
 210 003f 0772192F 		.ascii	"\007r\031/\" \250(\010\" #(\236\250\034\022\225Cb<\023"
 210      2220A828 
 210      08222023 
 210      289EA81C 
 210      12954362 
 211 0055 3128A841 		.ascii	"1(\250A1\354\327\335o\346\275\301G\345\237\315\276\342"
 211      31ECD7DD 
 211      6FE6BDC1 
 211      47E59FCD 
 211      BEE2
 212 0067 E3F5D7FD 		.ascii	"\343\365\327\375\353\357\352\376\276\356y:\016q\344"
 212      EBEFEAFE 
 212      BEEE793A 
 212      0E71E4
 213 0076 79E3358E 		.ascii	"y\3435\216[\246\343\270E\300\216\303\003M\356\003 2"
 213      5BA6E3B8 
 213      45C08EC3 
 213      034DEE03 
 213      2032
 214 0088 7A80630F 		.ascii	"z\200c\017\351\253\005z\017:\177\007\364g\304\275\364"
ARM GAS  C:\Users\info\AppData\Local\Temp\ccPgyeGN.s 			page 16


 214      E9AB057A 
 214      0F3A7F07 
 214      F467C4BD 
 214      F4
 215 0099 90712CCF 		.ascii	"\220q,\317\211\004\372\243\334\217\344\261\211\017\221"
 215      8904FAA3 
 215      DC8FE4B1 
 215      890F91
 216 00a8 6590F1A1 		.ascii	"e\220\361\241@\341@\263\021\233\373\027\304\346\377"
 216      40E140B3 
 216      119BFB17 
 216      C4E6FF
 217 00b7 04DE7F05 		.ascii	"\004\336\177\005\372\023br~\012\377xy\256\226\015\304"
 217      FA136272 
 217      7E0AFF78 
 217      79AE960D 
 217      C4
 218 00c8 36E32432 		.ascii	"6\343$2\377\006\357\305\210\311$\376\375\035\3365\262"
 218      FF06EFC5 
 218      88C924FE 
 218      FD1DDE35 
 218      B2
 219 00d9 CD51D07E 		.ascii	"\315Q\320~\003\350u\304x\"\207\350 v\007\000\375\003"
 219      03E875C4 
 219      782287E8 
 219      20760700 
 219      FD03
 220 00eb DAB140FF 		.ascii	"\332\261@\377\004\372\027\220y\202\356\027<:\260\362"
 220      04FA1790 
 220      7982EE17 
 220      3C3AB0F2 
 221 00fb 66997E84 		.ascii	"f\231~\204G\221\0064\216\010\177\277nt*\343\311\360"
 221      47910634 
 221      8E087FBF 
 221      6E742AE3 
 221      C9F0
 222 010d F5D1D2DF 		.ascii	"\365\321\322\337DWH\360l\220$\236W\346U{\206\367\351"
 222      445748F0 
 222      6C90249E 
 222      57E6557B 
 222      86F7E9
 223 0120 B09180F8 		.ascii	"\260\221\200\370\366\252\253'\247\240(\303\036\202\033"
 223      F6AAAB27 
 223      A7A028C3 
 223      1E821B
 224 012f E819F965 		.ascii	"\350\031\371e\272$!T\201\014h/\302\250\014E\223pF\222"
 224      BA242154 
 224      810C682F 
 224      C2A80C45 
 224      93704692 
 225 0143 A0654A52 		.ascii	"\240eJR\2324\264K\012\214\340\320\302H4/\222C\345(\212"
 225      9A34B44B 
 225      0A8CE0D0 
 225      C248342F 
 225      9243E528 
 226 0158 28232854 		.ascii	"(#(T\212\"Q\011\212$\362\313\266\227\236\230\212\363"
 226      8A225109 
ARM GAS  C:\Users\info\AppData\Local\Temp\ccPgyeGN.s 			page 17


 226      8A24F2CB 
 226      B6979E98 
 226      8AF3
 227 016a 105530B8 		.ascii	"\020U0\270\371\253L\354S\220\223\025Y.I\323\320\001"
 227      F9AB4CEC 
 227      53909315 
 227      592E49D3 
 227      D001
 228 017c 50B04F51 		.ascii	"P\260OQ\000\372\2645\354\327\320@&\203\226#k\362\236"
 228      00FAB435 
 228      ECD7D040 
 228      26839623 
 228      6BF29E
 229 018f 84F4A0AB 		.ascii	"\204\364\240\253\210G\362\266\342\020b\377\021%\216"
 229      8847F2B6 
 229      E21062FF 
 229      11258E
 230 019e 1165A1C1 		.ascii	"\021e\241\301s\362\212\312]\276\027\347\203\310ME\030"
 230      73F28ACA 
 230      5DBE17E7 
 230      83C84D45 
 230      18
 231 01af FDF3BEC7 		.ascii	"\375\363\276\307\275\017\025\242HG\362$\344\263@n\323"
 231      BD0F15A2 
 231      4847F224 
 231      E4B3406E 
 231      D3
 232 01c0 715E5180 		.ascii	"q^Q\200\030\353\235\240\222\307\314U\331\204\374}B\336"
 232      18EB9DA0 
 232      92C7CC55 
 232      D984FC7D 
 232      42DE
 233 01d2 A56B795C 		.ascii	"\245ky\\\276\025\341\255<]\340\317\277n\314\017\322"
 233      BE15E1AD 
 233      3C5DE0CF 
 233      BF6ECC0F 
 233      D2
 234 01e3 C1C2D270 		.ascii	"\301\302\322p\306\351H_\367\263\325\033u\276\276C\210"
 234      C6E9485F 
 234      F7B3D51B 
 234      75BEBE43 
 234      88
 235 01f4 769E1C7F 		.ascii	"v\236\034\177\352\011\201\215\021j@<\260\035C\347\267"
 235      EA09818D 
 235      116A403C 
 235      B01D43E7 
 235      B7
 236 0205 19810D37 		.ascii	"\031\201\0157\240i\300\346\2447<\341#r\311\372H\351"
 236      A069C0E6 
 236      A4373CE1 
 236      2372C9FA 
 236      48E9
 237 0217 D20C9ECE 		.ascii	"\322\014\236\316<\014\301\256\206`s\250\006E\300\377"
 237      3C0CC1AE 
 237      866073A8 
 237      0645C0FF 
 238 0227 2AA49337 		.ascii	"*\244\2237\335\275\272_\314\334!]\252\224\006\352:\337"
ARM GAS  C:\Users\info\AppData\Local\Temp\ccPgyeGN.s 			page 18


 238      DDBDBA5F 
 238      CCDC215D 
 238      AA9406EA 
 238      3ADF
 239 0239 2D3D2449 		.ascii	"-=$I+a\236\216\300\320AeE\241I^\225\250\007<\251E3a"
 239      2B619E8E 
 239      C0D04165 
 239      45A1495E 
 239      95A8073C 
 240 0251 E6CDD173 		.ascii	"\346\315\321s\222\001\237e\266\267gT\026af\222\016\330"
 240      92019F65 
 240      B6B76754 
 240      16616692 
 240      0ED8
 241 0263 876D055F 		.ascii	"\207m\005_\0043\223f\000[8\334wo\012\033\215\002\366"
 241      04339366 
 241      005B38DC 
 241      776F0A1B 
 241      8D02F6
 242 0276 41C6AD01 		.ascii	"A\306\255\001\331\340\010`\245\273\031\333y\334\317"
 242      D9E00860 
 242      A5BB19DB 
 242      79DCCF
 243 0285 0435DDCD 		.ascii	"\0045\335\315i\322\343A\306\\*\031\374,\030\257\304"
 243      69D2E341 
 243      C65C2A19 
 243      FC2C18AF 
 243      C4
 244 0296 94B9BBA3 		.ascii	"\224\271\273\243\351\220\036\357`L\351\355\242l\023"
 244      E9901EEF 
 244      604CE9ED 
 244      A26C13
 245 02a5 1311A3D2 		.ascii	"\023\021\243\322\027\312\364m\361l\0343\340\012\006"
 245      17CAF46D 
 245      F16C1C33 
 245      E00A06
 246 02b4 ADAF6D68 		.ascii	"\255\257mh\015`\320y\300\236\251\2731\017\327\262!\257"
 246      0D60D079 
 246      C09EA9BB 
 246      310FD7B2 
 246      21AF
 247 02c6 5DE1CCAE 		.ascii	"]\341\314\256'\347\272\3720nec\353\233\033[\364\270"
 247      27E7BAFA 
 247      306E6563 
 247      EB9B1B5B 
 247      F4B8
 248 02d8 8331ADBD 		.ascii	"\2031\255\275\327.\353p?cR\033[\252\246\342a\306\274"
 248      D72EEB70 
 248      3F63521B 
 248      5BAAA6E2 
 248      61C6BC
 249 02eb A8AA6A41 		.ascii	"\250\252jAx\2141\237>{>D\2420\0072x\034\253Rx\016K\341"
 249      788C319F 
 249      3E7B3E44 
 249      A2300732 
 249      781CAB52 
 250 0303 A67367F6 		.ascii	"\246sg\366\230\360J\035\315\244bO\332J\204\014Q4M`\245"
ARM GAS  C:\Users\info\AppData\Local\Temp\ccPgyeGN.s 			page 19


 250      98F04A1D 
 250      CDA4624F 
 250      DA4A840C 
 250      51344D60 
 251 0318 0CA5C19C 		.ascii	"\014\245\301\234o\235\320%\310\2249r\246\264A\347y\350"
 251      6F9DD025 
 251      C8943972 
 251      A6B441E7 
 251      79E8
 252 032a 9493FAFE 		.ascii	"\224\223\372\376oiR_\204e\275\240\254\320\034\003[\320"
 252      6F69525F 
 252      8465BDA0 
 252      ACD01C03 
 252      5BD0
 253 033c 63393DB7 		.ascii	"c9=\267\015x\003\323Q6t\276\"dR\035\235\223\352\310"
 253      0D7803D3 
 253      513674BE 
 253      2264521D 
 253      9D93EAC8 
 254 0350 C99A5341 		.ascii	"\311\232SA\362\272\003t\264+:.\"Y\211w\005C\331\012"
 254      F2BA0374 
 254      B42B3A2E 
 254      22598977 
 254      0543D90A 
 255 0364 DE5E53F6 		.ascii	"\336^S\366\320\204\363\251N\264\355\362\215\015S\014"
 255      D084F3A9 
 255      4EB4EDF2 
 255      8D0D530C 
 256 0374 72F26FF8 		.ascii	"r\362o\370\216\344\007\374\275\336\3321\223i\015\301"
 256      8EE407FC 
 256      BDDEDA31 
 256      93690DC1 
 257 0384 6F489742 		.ascii	"oH\227BO\007\243n\320z\024\000ut\303~\206Lr\266d|\271"
 257      4F07A36E 
 257      D07A1400 
 257      7574C37E 
 257      864C72B6 
 258 039b 7B10E14F 		.ascii	"{\020\341O\230\232\276\323e\345$\326sI\254\307\307C"
 258      989ABED3 
 258      65E524D6 
 258      7349ACC7 
 258      C743
 259 03ad 54D19ECB 		.ascii	"T\321\236\313\242\335\261\376Qq\020.e\221h]Wu\310\250"
 259      A2DDB1FE 
 259      5171102E 
 259      6591685D 
 259      5775C8A8 
 260 03c1 14C66253 		.ascii	"\024\306bS\035\361\257\0174\365(\376\315\365\225-f\011"
 260      1DF1AF0F 
 260      34F528FE 
 260      CDF5952D 
 260      6609
 261 03d3 E73303F5 		.ascii	"\3473\003\365\202\361se\343\257A\347U\2716\026\347\354"
 261      82F17365 
 261      E3AF41E7 
 261      55B93616 
 261      E7EC
ARM GAS  C:\Users\info\AppData\Local\Temp\ccPgyeGN.s 			page 20


 262 03e5 0AC4554C 		.ascii	"\012\304ULG~\365\336\247\006Um\\Dc8\000:\372\025\035"
 262      477EF5DE 
 262      A706556D 
 262      5C446338 
 262      003AFA15 
 263 03fa 7D687225 		.ascii	"}hr%\327\265\225x\023<\224%\370\215\203O\357\353q\003"
 263      D7B59578 
 263      133C9425 
 263      F88D834F 
 263      EFEB7103 
 264 040e 0BC3FE8A 		.ascii	"\013\303\376\212\347\225\006Z \3367\3115\243gU\3119"
 264      E795065A 
 264      20DE37C9 
 264      35A36755 
 264      C939
 265 0420 A3AF667C 		.ascii	"\243\257f|\301j\306\345+\375\227\247\370:o\262\316\217"
 265      C16AC6E5 
 265      2BFD97A7 
 265      F83A6FB2 
 265      CE8F
 266 0432 C7FB4EE8 		.ascii	"\307\373N\350\361\005&)\243d]\341T|\2151\005\365#g\003"
 266      F1052629 
 266      A3645DE1 
 266      547C8D31 
 266      05F52367 
 267 0447 984A3DB0 		.ascii	"\230J=\260\331\371\217\352\203\360\0156\326\351\331"
 267      D9F98FEA 
 267      83F00D36 
 267      D6E9D9
 268 0456 513805DF 		.ascii	"Q8\005\337c\314\027\325O\213\247\342\021\335\244\025"
 268      63CC17D5 
 268      4F8BA7E2 
 268      11DDA415 
 269 0466 EC70C7F6 		.ascii	"\354p\307\366\353Ax\214\001\236]|~\024\341\325\001\224"
 269      EB41788C 
 269      019E5D7C 
 269      7E14E1D5 
 269      0194
 270 0478 59DB59B3 		.ascii	"Y\333Y\263\020\347\262v\305\345+/\020\336\305\230\266"
 270      10E7B276 
 270      C5E52B2F 
 270      10DEC598 
 270      B6
 271 0489 6F878E61 		.ascii	"o\207\216a\\\315\230}\003\253:\003\360I\306\354\031"
 271      5CCD987D 
 271      03AB3A03 
 271      F049C6EC 
 271      19
 272 049a DB596DC2 		.ascii	"\333Ym\302\355\214i}\332\270;\000\3672fM\326\336\235"
 272      ED8C697D 
 272      DAB83B00 
 272      F732664D 
 272      D6DE9D
 273 04ad C1F82163 		.ascii	"\301\370!cV\256-o\3008#\220\025\221\353\207\036\007"
 273      56AE2D6F 
 273      C0382390 
 273      1591EB87 
ARM GAS  C:\Users\info\AppData\Local\Temp\ccPgyeGN.s 			page 21


 273      1E07
 274 04bf E27CC65C 		.ascii	"\342|\306\\\357\317\371\017\336\305\332_uu\344\004\340"
 274      EFCFF90F 
 274      DEC5DA5F 
 274      7575E404 
 274      E0
 275 04d0 038C7971 		.ascii	"\003\214yq\350\343z\035nf\314\235\323\243#F\334\305"
 275      E8E37A1D 
 275      6E66CC9D 
 275      D3A32346 
 275      DCC5
 276 04e2 9867CD69 		.ascii	"\230g\315iu\010\337aLM\363\350\371\000<\306\230\007"
 276      7508DF61 
 276      4C4DF3E8 
 276      F9003CC6 
 276      9807
 277 04f4 69E5C508 		.ascii	"i\345\305\010o\011bj\266\014\346\362x?c\306\236oJ\015"
 277      6F09626A 
 277      B60CE6F2 
 277      783F63C6 
 277      9E6F4A0D 
 278 0508 C0C719D3 		.ascii	"\300\307\031\323\324{\267\302\210;\031S\331\2201(WF"
 278      D47BB7C2 
 278      883B1953 
 278      D9903128 
 278      5746
 279 051a 0F39E44B 		.ascii	"\0179\344K\327\015\265\030\360}:\370JjS\333\251 4\233"
 279      D70DB518 
 279      F07D3AF8 
 279      4A6A53DB 
 279      A920349B 
 280 052e 3C61B395 		.ascii	"<a\263\225'\012h\027\3310\003\303\343\256\306\232^I"
 280      270A6817 
 280      D93003C3 
 280      E3AEC69A 
 280      5E49
 281 0540 5A65A211 		.ascii	"Ze\242\021~\006\333j5\037\346M\260\267I\272\234 I\303"
 281      7E06DB6A 
 281      351FE64D 
 281      B0B749BA 
 281      9C2049C3 
 282 0554 51B8A7A1 		.ascii	"Q\270\247\241\303(U\376\233B\037\371C?\247\251\265P"
 282      C32855FE 
 282      9B421FF9 
 282      433FA7A9 
 282      B550
 283 0566 81E65DF4 		.ascii	"\201\346]\364A\277\325\220zX%\265K\201\216j@\217\253"
 283      41BFD590 
 283      7A5825B5 
 283      4B818E6A 
 283      408FAB
 284 0579 A09B15E8 		.ascii	"\240\233\025\350\270\006\224\352\317\221\2574\022\022"
 284      B80694EA 
 284      CF91AF34 
 284      1212
 285 0587 3994C647 		.ascii	"9\224\306G\242.\222\012\251<\203C.\240-|\024\312\342"
 285      A22E920A 
ARM GAS  C:\Users\info\AppData\Local\Temp\ccPgyeGN.s 			page 22


 285      A93C8343 
 285      2EA02D7C 
 285      14CAE2
 286 059a 67A34CA0 		.ascii	"g\243L\240U@k\201\326\001\345\002e\000}\014\264\001"
 286      55406B81 
 286      D601E502 
 286      65007D0C 
 286      B401
 287 05ac 6813500E 		.ascii	"h\023P\016P6\320f\240<\240\225@\353\201\326\000m\004"
 287      5036D066 
 287      A03CA095 
 287      40EB81D6 
 287      006D04
 288 05bf DACACFA6 		.ascii	"\332\312\317\246\207/\263\257C\011\320\220V\200\032"
 288      872FB3AF 
 288      4309D090 
 288      56801A
 289 05ce 54BE6C54 		.ascii	"T\276lT|\221\370\227}\231\257 \013\024\344\013\015\257"
 289      7C91F897 
 289      7D99AF20 
 289      0B14E40B 
 289      0DAF
 290 05e0 D5428B14 		.ascii	"\325B\213\024\350\230\006\364\250\012Z\251\330\372\330"
 290      E89806F4 
 290      A80A5AA9 
 290      D8FAD8
 291 05ef 1F7A174D 		.ascii	"\037z\027M\\\370K\012\366\241\226_\352\345\354Y\037"
 291      5CF84B0A 
 291      F6A1965F 
 291      EAE5EC59 
 291      1F
 292 0600 9C2F7932 		.ascii	"\234/y20-T\337\310h_Ib\262U\316m\351\230\272U\362\244"
 292      302D54DF 
 292      C8685F49 
 292      62B255CE 
 292      6DE998BA 
 293 0617 622AFC89 		.ascii	"b*\374\211\226!\255*\341\303\033\203\363$O\032\246'"
 293      9621AD2A 
 293      E1C31B83 
 293      F3244F1A 
 293      A627
 294 0629 C9D732DA 		.ascii	"\311\3272\332w\0001c\324N\216_TI\177\252%]\215\256V"
 294      77003163 
 294      D44E8E5F 
 294      54497FAA 
 294      255D8DAE 
 295 063e DC1CD1C2 		.ascii	"\334\034\321\302\262\255H\313\261\347y\266I\222\364"
 295      B2AD48CB 
 295      B1E779B6 
 295      4992F4
 296 064d 04C3C9A5 		.ascii	"\004\303\311\245X\331\006\333\325Z\237k\254\203\332"
 296      58D906DB 
 296      D55A9F6B 
 296      AC83DA
 297 065c A5C76A97 		.ascii	"\245\307j\227\322yM\227\324kQ\257\016\330\260\326j\320"
 297      D2794D97 
 297      D46B51AF 
ARM GAS  C:\Users\info\AppData\Local\Temp\ccPgyeGN.s 			page 23


 297      0ED8B0D6 
 297      6AD0
 298 066e E8422DB8 		.ascii	"\350B-\270\272\2760?\004g\353\351a\322v\263\240)\030"
 298      BABE303F 
 298      0467EBE9 
 298      61D276B3 
 298      A02918
 299 0681 854569A7 		.ascii	"\205Ei\247G!\244\304\367\231\036,f\371\027\336$1+\000"
 299      4721A4C4 
 299      F7991E2C 
 299      66F917DE 
 299      24312B00 
 300 0695 45F9BCEF 		.ascii	"E\371\274\357\004#!\244\366\356,-Y\207\302d\003=\223"
 300      042321A4 
 300      F6EE2C2D 
 300      5987C264 
 300      033D93
 301 06a8 1AC8FDCF 		.ascii	"\032\310\375\317\255\003\335\253\326\014\247\"\277["
 301      AD03DDAB 
 301      D60CA722 
 301      BF5B
 302 06b6 43916ADB 		.ascii	"C\221j\333rh\033\357\2755<\335w\2477\000\357\322\373"
 302      72681BEF 
 302      BD353CDD 
 302      77A73700 
 302      EFD2FB
 303 06c9 5D0643D9 		.ascii	"]\006C\331e\260\272\361\341\247\362\005P\"\367\265\273"
 303      65B0BAF1 
 303      E1A7F205 
 303      5022F7B5 
 303      BB
 304 06da B70A5B0D 		.ascii	"\267\012[\015x?\3036u\0368\037\202\233)3k\357\203\321"
 304      783FC336 
 304      751E381F 
 304      829B2933 
 304      6BEF83D1 
 305 06ee ED70B735 		.ascii	"\355p\2675\205\371UfxL\246\010]\224\334\210\232\035"
 305      85F95566 
 305      784CA608 
 305      5D94DC88 
 305      9A1D
 306 0700 15454EBF 		.ascii	"\025EN\277b\336\204\356\303\021\2536\357S?\363\212\231"
 306      62DE84EE 
 306      C311AB36 
 306      EF533FF3 
 306      8A99
 307 0712 797E8BBB 		.ascii	"y~\213\273\003b\267\235\207\330\235\204\330\225\310"
 307      0362B79D 
 307      87D89D84 
 307      D895C8
 308 0721 8B7B02DA 		.ascii	"\213{\002\332-\340\3721\240F\240\006\240z\240\303@\325"
 308      2DE0FA31 
 308      A046A006 
 308      A07AA0C3 
 308      40D5
 309 0733 40554087 		.ascii	"@U@\207\200\016\002U\002\035\000\332\017\264\017\250"
 309      800E0255 
ARM GAS  C:\Users\info\AppData\Local\Temp\ccPgyeGN.s 			page 24


 309      021D00DA 
 309      0FB40FA8 
 310 0743 02A81C68 		.ascii	"\002\250\034h/P\031P)\320\036\277\372\367\274[\2657"
 310      2F501950 
 310      29D01EBF 
 310      FAF7BC5B 
 310      B537
 311 0755 77C21297 		.ascii	"w\302\022\227({\263^\225n\332v~\"O\370\376\355\374\246"
 311      287BB35E 
 311      956EDA76 
 311      7E224FF8 
 311      FEEDFCA6 
 312 0769 DB97E88D 		.ascii	"\333\227\350\215H\303JuI}\242`\217ia\325\265oD\3016"
 312      48C34A75 
 312      497DA260 
 312      8F6961D5 
 312      B56F44C1 
 313 077e 69615507 		.ascii	"iaU\007\344#\005\352\321\202\252J\344\220\002m\361\207"
 313      E42305EA 
 313      D182AA4A 
 313      E490026D 
 313      F187
 314 0790 36ABCA12 		.ascii	"6\253\312\022\303\366+\330\223ZXu%\351U\260\247\264"
 314      C3F62BD8 
 314      935A5875 
 314      25E955B0 
 314      A7B4
 315 07a2 B0EA2AD5 		.ascii	"\260\352*\325\255`Oka\325e\264K\301\236\321\302\252"
 315      AD604F6B 
 315      61D565B4 
 315      4BC19ED1 
 315      C2AA
 316 07b4 A3DBA160 		.ascii	"\243\333\241`\317ja\325\321m\317UU\312s2\332W)\233'"
 316      CF6A61D5 
 316      D16DCF55 
 316      55CA7332 
 316      DA57299B 
 317 07c9 86AD29F7 		.ascii	"\206\255)\367\025v\020"
 317      157610
 318 07d0 C18D1F5D 		.ascii	"\301\215\037]\226\341\276\203\250\353%\263\033sU\007"
 318      96E1BE83 
 318      A8EB25B3 
 318      1B735507 
 319 07e0 D7156DBC 		.ascii	"\327\025m\274J|}w\010\203\327@v\336\230\010W\037E\352"
 319      4A7C7D77 
 319      0883D740 
 319      76DE9808 
 319      571F45EA 
 320 07f4 B43DC247 		.ascii	"\264=\302G(\240\243\260\311ka6+\204\223\3018\025f\322"
 320      28A0A3B0 
 320      C96B6136 
 320      2B8493C1 
 320      381566D2 
 321 0808 9FE13001 		.ascii	"\237\3410\001\376\327\361\344g\270\267d\334\202\222"
 321      FED7F1E4 
 321      67B8B764 
 321      DC8292
ARM GAS  C:\Users\info\AppData\Local\Temp\ccPgyeGN.s 			page 25


 322 0817 C10AEFF6 		.ascii	"\301\012\357\366\013\257\220\302K,\275\255\374t\250"
 322      0BAF90C2 
 322      4B2CBDAD 
 322      FC74A8
 323 0826 A5458379 		.ascii	"\245E\203yS\247\366\346\216\2667*\347k\272M\322\006"
 323      53A7F6E6 
 323      8EB6372A 
 323      E76BBA4D 
 323      D206
 324 0838 0B05DF9B 		.ascii	"\013\005\337\233\010\3268W\025\364\227\332h\225\350"
 324      08D63857 
 324      15F497DA 
 324      6895E8
 325 0847 AADC7066 		.ascii	"\252\334pfI\023\300\277\232\010\177[;\254\307\325am"
 325      4913C0BF 
 325      9A087F5B 
 325      3BACC7D5 
 325      616D
 326 0859 86B07A34 		.ascii	"\206\260z4\303z\334/\254\036\255\260v\370\205\3658\015"
 326      C37ADC2F 
 326      AC1EADB0 
 326      76F885F5 
 326      380D
 327 086b EB6E1A56 		.ascii	"\353n\032V\026\312\203\331\257\222P\022\343\006\225"
 327      16CA83D9 
 327      AF925012 
 327      E30695
 328 087a 507A54A1 		.ascii	"PzT\241<\230\373c\346\000\234\031\350\201\246\003\363"
 328      3C98FB63 
 328      E6009C19 
 328      E881A603 
 328      F3
 329 088b 957BC4B6 		.ascii	"\225{\304\266\\z\217(\361\277G\260\261\255\331?\"c\244"
 329      5C7A8F28 
 329      F1BF47B0 
 329      B1ADD93F 
 329      2263A4
 330 089e D4EF52CE 		.ascii	"\324\357R\316\313\022\357y\271\2732+\325\244\363\256"
 330      CB12EF79 
 330      B9BB322B 
 330      D5A4F3AE 
 331 08ae 36FB7994 		.ascii	"6\373y\224Yr\275&x\362\2575\247\250?\255\274\374\265"
 331      5972BD26 
 331      78F2AF35 
 331      A7A83FAD 
 331      BCFCB5
 332 08c1 266F7D6D 		.ascii	"&o}mW\300\314\035p\031\224\006\3526\275\251|\256\001"
 332      57C0CC1D 
 332      70199406 
 332      EA36BDA9 
 332      7CAE01
 333 08d4 1C3AA2B8 		.ascii	"\034:\242\270wD\375\271\3464O>\327d\256\257\333\315"
 333      7744FDB9 
 333      E6344F3E 
 333      D764AEAF 
 333      DBCD
 334 08e6 E333EC68 		.ascii	"\3433\354hk\353\035\254\010\300=\214\251,\032k\327\203"
ARM GAS  C:\Users\info\AppData\Local\Temp\ccPgyeGN.s 			page 26


 334      6BEB1DAC 
 334      08C03D8C 
 334      A92C1A6B 
 334      D783
 335 08f8 59E82C8F 		.ascii	"Y\350,\217\231\232\252c%\205&P\263\00345\2365At\322"
 335      999AAA63 
 335      25852650 
 335      B3033435 
 335      9E354174 
 336 090d 522589A7 		.ascii	"R%\211\247Z\316x\035C\347x\035\341\024E\347\251\242"
 336      5ACE781D 
 336      43E7781D 
 336      E11445E7 
 336      A9A2
 337 091f A27539E3 		.ascii	"\242u9\343S\361\000\223\235\276g\340R\000\376\2321\271"
 337      53F10093 
 337      9DBE67E0 
 337      5200FE9A 
 337      31B9
 338 0931 4D9EA210 		.ascii	"M\236\242\020\242\350\202W\321w\177\362\272\304\323"
 338      A2E88257 
 338      D1777FF2 
 338      BAC4D3
 339 0940 CEAC2769 		.ascii	"\316\254'iYA\276\320\265\263\316s\2157\033\202\324\261"
 339      5941BED0 
 339      B5B3CE73 
 339      8D371B82 
 339      D4B1
 340 0952 FBE05555 		.ascii	"\373\340UU\350:i\350:\274\241{\260z\377=\004>\015H\344"
 340      E83A69E8 
 340      3ABCA17B 
 340      B07AFF3D 
 340      043E0D48 
 341 0967 6754C2B1 		.ascii	"gT\302\261\226[R&l5\236\002Q\233\317\253\213\340U\033"
 341      965B5226 
 341      6C359E02 
 341      519BCFAB 
 341      8BE0551B 
 342 097b B50F982E 		.ascii	"\265\017\230.\342\021n\350.,\302 \227\374\031\012$\370"
 342      E2116EE8 
 342      2E2CC220 
 342      97FC190A 
 342      24F8
 343 098d ED2EB523 		.ascii	"\355.\265#\364\031o\340(3\364.m\223ni(M\012\314\013"
 343      F4196FE0 
 343      2833F42E 
 343      6D936E69 
 343      284D0ACC 
 344 09a2 F67EF2E0 		.ascii	"\366~\362\340\350\000\207.\303\211\331MNL`I\3007\256"
 344      E800872E 
 344      C389D94D 
 344      4E4C6049 
 344      C037AE
 345 09b5 2D34FADD 		.ascii	"-4\372\335]:\375\366\371\025v9 o\362\3733?s\255?\372"
 345      5D3AFDF6 
 345      F9157639 
 345      206FF2FB 
ARM GAS  C:\Users\info\AppData\Local\Temp\ccPgyeGN.s 			page 27


 345      333F73AD 
 346 09cb 941FFAAA 		.ascii	"\224\037\372\252\214\276J\321i\237\027{\202\374\320"
 346      8CBE4AD1 
 346      699F177B 
 346      82FCD0
 347 09da E44B9E82 		.ascii	"\344K\236\202\276&\243\257QtyAgv\320\254\235\364{E\335"
 347      BE26A3AF 
 347      51747941 
 347      6776D0AC 
 347      9DF47B45 
 348 09ef A6C59DD2 		.ascii	"\246\305\235\322\245i\020D\272\222,\000=\374,\200\365"
 348      A5691044 
 348      BA922C00 
 348      3DFC2C80 
 348      F5
 349 0a00 9E4DBF8F 		.ascii	"\236M\277\217\030\3143dX\303\373cz)\346Yz\331U\223\214"
 349      18CC3364 
 349      58C3FB63 
 349      7A29E659 
 349      7AD95593 
 350 0a15 F9F6254C 		.ascii	"\371\366%L\037\305\234\036\276Q\212eL\203q\"\246\237"
 350      1FC59C1E 
 350      BE518A65 
 350      4C837122 
 350      A69F
 351 0a27 62A4CD79 		.ascii	"b\244\315y\267\2152\346\321K\230\353\374,N\277\370\017"
 351      B78D32E6 
 351      D14B98EB 
 351      FC2C4EBF 
 351      F80F
 352 0a39 EFCFF8D5 		.ascii	"\357\317\370\325\374\371\334\024\2639\305\356\020c\314"
 352      FCF9DC14 
 352      B339C5EE 
 352      1063CC
 353 0a48 622AB2FE 		.ascii	"b*\262\376<\326\225\354\\\222lI\232\021oO\024\3343\242"
 353      3CD695EC 
 353      5C926C49 
 353      9A116F4F 
 353      14DC33A2 
 354 0a5c 96C7BCF3 		.ascii	"\226\307\274\363z\254u\205+Yp\273c]n\247u\2065Y\260"
 354      7AAC7585 
 354      2B5970BB 
 354      635D6EA7 
 354      75863559 
 355 0a71 88CEE4D8 		.ascii	"\210\316\344\330E\321\013\374;\354I.g\262\030\273\304"
 355      45D10BFC 
 355      3BEC492E 
 355      67B218BB 
 355      C4
 356 0a82 91126B49 		.ascii	"\221\022kIN\212\375Y\364\242\350\371\244\365\226\303"
 356      4E8AFD59 
 356      F4A2E8F9 
 356      A4F596C3 
 357 0a92 E910DE12 		.ascii	"\351\020\336\022,q\366X\273\303\232\230b\023b\223,\326"
 357      2C71F658 
 357      BBC39A98 
 357      62136293 
ARM GAS  C:\Users\info\AppData\Local\Temp\ccPgyeGN.s 			page 28


 357      2CD6
 358 0aa4 04BB4388 		.ascii	"\004\273C\2105\333\204xKJ\242h\026W\270\004wt\002\027"
 358      35DB8478 
 358      4B4AA268 
 358      1657B804 
 358      77740217 
 359 0ab8 249BB2F4 		.ascii	"$\233\262\364\377e\211{\205;\326\354\026m\240\026\324"
 359      FF65897B 
 359      853BD6EC 
 359      166DA016 
 359      D4
 360 0ac9 87A7C42C 		.ascii	"\207\247\304,\2171\307\333\0356\370\227\354\026\315"
 360      8F31C7DB 
 360      1D36F897 
 360      EC16CD
 361 0ad8 367B7CFC 		.ascii	"6{|\374\017\243\243cSb\226,0[\335\311\326X\212\260\011"
 361      0FA3A363 
 361      5362962C 
 361      305BDDC9 
 361      D6588AB0 
 362 0aed 71CE1487 		.ascii	"q\316\024\207U\210\266ra\264\003\024\333\314.\273\003"
 362      5588B672 
 362      61B40314 
 362      DBCC2EBB 
 362      03
 363 0afe 44594421 		.ascii	"DYD!\330;\316\330\327|l\242\005d\372`?\360\365{\303"
 363      D83BCED8 
 363      D77C6CA2 
 363      0564FA60 
 363      3FF0F57B 
 364 0b13 E01B322E 		.ascii	"\340\0332.q\331\235 \325\015\275\206\0241>\306'x\251"
 364      71D99D20 
 364      D50DBD86 
 364      14313EC6 
 364      2778A9
 365 0b26 1DF0169B 		.ascii	"\035\360\026\233\215\204\301h_`%\003\311\242`\243m\271"
 365      8D84C168 
 365      5F602503 
 365      C9A260A3 
 365      6DB9
 366 0b38 3FDCEE36 		.ascii	"?\334\3566\307;\035\242\331\356X*$\273\005s\222\323"
 366      C73B1DA2 
 366      D9EE582A 
 366      24BB0573 
 366      92D3
 367 0b4a 26E8979B 		.ascii	"&\350\227\233\235\361\361nA\324\013\016\253\023\034"
 367      9DF1F16E 
 367      41D40B0E 
 367      AB131C
 368 0b59 5E62602B 		.ascii	"^b`+?\377\035\263\250\3676td\336\224\270\024\267\331"
 368      3FFF1DB3 
 368      A8F73674 
 368      64DE94B8 
 368      14B7D9
 369 0b6c 9AE8B47E 		.ascii	"\232\350\264~(C\026.\220!\2441\235\332f\201\030\331"
 369      2843162E 
 369      9021A431 
ARM GAS  C:\Users\info\AppData\Local\Temp\ccPgyeGN.s 			page 29


 369      9DDA6681 
 369      18D9
 370 0b7e 8444CB0A 		.ascii	"\204D\313\012\2635\316Hc\220\344^\002\355\240\270\025"
 370      B335CE48 
 370      6390E45E 
 370      02EDA0B8 
 370      15
 371 0b8f A200EF40 		.ascii	"\242\000\357@+D\304\032g\260\331\335.\206\012r\010\313"
 371      2B44C41A 
 371      67B0D9DD 
 371      2E860A72 
 371      08CB
 372 0ba1 45789B28 		.ascii	"Ex\233(\332\232`I&\214w\334\356\210w\032]\366\345B\242"
 372      DA9A6049 
 372      268C77DC 
 372      EE88771A 
 372      5DF6E542 
 373 0bb6 7999DD26 		.ascii	"y\231\335&&L\217O\264\273\210\335f\257\335\323\274Q"
 373      264C8F4F 
 373      B4BB88DD 
 373      66AFDDD3 
 373      BC51
 374 0bc8 F2761845 		.ascii	"\362v\030E\330\031\346\004\301\276$A4\3206\235\031\276"
 374      D819E604 
 374      C1BE2441 
 374      34D0369D 
 374      19BE
 375 0bda 2CD90E26 		.ascii	",\331\016&\270R\022\335r\217\331\341\016\265YD\213\031"
 375      B85212DD 
 375      728FD9E1 
 375      0EB55944 
 375      8B19
 376 0bec 26A5B8CC 		.ascii	"&\245\270\314\242=I\200\256p\0221\237\247\346\371\363"
 376      A23D4980 
 376      AE701231 
 376      9FA7E6F9 
 376      F3
 377 0bfd E67DF8DE 		.ascii	"\346}\370\336Gz\267\313N\303erC\037\033I\370(\2240\376"
 377      477AB7CB 
 377      4EC36572 
 377      431F1B49 
 377      F8289430 
 378 0c12 02A7BB6D 		.ascii	"\002\247\273m\023\344\205\272\234\260\272\020\177A4"
 378      13E485BA 
 378      9CB0BA10 
 378      7F4134
 379 0c21 2FB3D845 		.ascii	"/\263\330E\010H8\343\3243\223\334\021\260\205\301}\273"
 379      084838E3 
 379      D43393DC 
 379      11B085C1 
 379      7DBB
 380 0c33 0B7697DB 		.ascii	"\013v\227\333\022G\314&h\007\014\020\001tDp\250\007"
 380      1247CC26 
 380      68070C10 
 380      01744470 
 380      A807
 381 0c45 42FDD089 		.ascii	"B\375\320\211\302R!q\272\032F{\"\330\316T\205\023\266"
ARM GAS  C:\Users\info\AppData\Local\Temp\ccPgyeGN.s 			page 30


 381      C2522171 
 381      BA1A467B 
 381      22D8CE54 
 381      8513B6
 382 0c58 46728A55 		.ascii	"Fr\212U4\261\250\2628\205\277\264\231a\333\207\275<"
 382      34B1A8B2 
 382      3885BFB4 
 382      9961DB87 
 382      BD3C
 383 0c6a 55646BCA 		.ascii	"Udk\312$\204\3716*\333\221d\251\003\351\2708\235\276"
 383      2484F936 
 383      2ADB9164 
 383      A903E9B8 
 383      389DBE
 384 0c7d 160BE2EF 		.ascii	"\026\013\342\357\005G\312\257\227\012\016Q\267L\260"
 384      0547CAAF 
 384      970A0E51 
 384      B74CB0
 385 0c8c 7C184CBB 		.ascii	"|\030L\273\351F\261Z\022\023\365\016\247\335\221\010"
 385      E946B15A 
 385      1213F50E 
 385      A7DD9108 
 386 0c9c 19FF5FED 		.ascii	"\031\377_\355u\034\325"
 386      751CD5
 387              		.text
 388              		.section	.gnu.lto_.symtab.bf14ddb8,"",%progbits
 389 0000 75387838 		.ascii	"u8x8_GetMenuEvent\000"
 389      5F476574 
 389      4D656E75 
 389      4576656E 
 389      7400
 390 0012 00       		.ascii	"\000"
 391 0013 01       		.ascii	"\001"
 392 0014 00       		.ascii	"\000"
 393 0015 00000000 		.ascii	"\000\000\000\000\000\000\000\000"
 393      00000000 
 394 001d 4C010000 		.ascii	"L\001\000\000"
 395 0021 75387838 		.ascii	"u8x8_gpio_call\000"
 395      5F677069 
 395      6F5F6361 
 395      6C6C00
 396 0030 00       		.ascii	"\000"
 397 0031 02       		.ascii	"\002"
 398 0032 00       		.ascii	"\000"
 399 0033 00000000 		.ascii	"\000\000\000\000\000\000\000\000"
 399      00000000 
 400 003b 54010000 		.ascii	"T\001\000\000"
 401              		.text
 402              		.section	.gnu.lto_.opts,"",%progbits
 403 0000 272D666D 		.ascii	"'-fmath-errno' '-fsigned-zeros' '-ftrapping-math' '"
 403      6174682D 
 403      6572726E 
 403      6F272027 
 403      2D667369 
 404 0033 2D666E6F 		.ascii	"-fno-trapv' '-fno-openmp' '-fno-openacc' '-mcpu=cor"
 404      2D747261 
 404      70762720 
ARM GAS  C:\Users\info\AppData\Local\Temp\ccPgyeGN.s 			page 31


 404      272D666E 
 404      6F2D6F70 
 405 0066 7465782D 		.ascii	"tex-m3' '-mthumb' '-g' '-Os' '-ffunction-sections' "
 405      6D332720 
 405      272D6D74 
 405      68756D62 
 405      2720272D 
 406 0099 272D6666 		.ascii	"'-ffat-lto-objects' '-flto'\000"
 406      61742D6C 
 406      746F2D6F 
 406      626A6563 
 406      74732720 
 407              		.text
 408              		.cfi_sections	.debug_frame
 409              		.section	.text.u8x8_GetMenuEvent,"ax",%progbits
 410              		.align	1
 411              		.weak	u8x8_GetMenuEvent
 412              		.thumb
 413              		.thumb_func
 414              		.type	u8x8_GetMenuEvent, %function
 415              	u8x8_GetMenuEvent:
 416              	.LFB2:
 417              		.file 1 "..\\u8g2_csrc\\u8x8_debounce.c"
   1:..\u8g2_csrc/u8x8_debounce.c **** /*
   2:..\u8g2_csrc/u8x8_debounce.c **** 
   3:..\u8g2_csrc/u8x8_debounce.c ****   u8x8_debounce.c
   4:..\u8g2_csrc/u8x8_debounce.c ****   
   5:..\u8g2_csrc/u8x8_debounce.c ****   Key/button simple debounce algorithm (Addon for u8x8)
   6:..\u8g2_csrc/u8x8_debounce.c ****   
   7:..\u8g2_csrc/u8x8_debounce.c ****   Universal 8bit Graphics Library (https://github.com/olikraus/u8g2/)
   8:..\u8g2_csrc/u8x8_debounce.c **** 
   9:..\u8g2_csrc/u8x8_debounce.c ****   Copyright (c) 2016, olikraus@gmail.com
  10:..\u8g2_csrc/u8x8_debounce.c ****   All rights reserved.
  11:..\u8g2_csrc/u8x8_debounce.c **** 
  12:..\u8g2_csrc/u8x8_debounce.c ****   Redistribution and use in source and binary forms, with or without modification, 
  13:..\u8g2_csrc/u8x8_debounce.c ****   are permitted provided that the following conditions are met:
  14:..\u8g2_csrc/u8x8_debounce.c **** 
  15:..\u8g2_csrc/u8x8_debounce.c ****   * Redistributions of source code must retain the above copyright notice, this list 
  16:..\u8g2_csrc/u8x8_debounce.c ****     of conditions and the following disclaimer.
  17:..\u8g2_csrc/u8x8_debounce.c ****     
  18:..\u8g2_csrc/u8x8_debounce.c ****   * Redistributions in binary form must reproduce the above copyright notice, this 
  19:..\u8g2_csrc/u8x8_debounce.c ****     list of conditions and the following disclaimer in the documentation and/or other 
  20:..\u8g2_csrc/u8x8_debounce.c ****     materials provided with the distribution.
  21:..\u8g2_csrc/u8x8_debounce.c **** 
  22:..\u8g2_csrc/u8x8_debounce.c ****   THIS SOFTWARE IS PROVIDED BY THE COPYRIGHT HOLDERS AND 
  23:..\u8g2_csrc/u8x8_debounce.c ****   CONTRIBUTORS "AS IS" AND ANY EXPRESS OR IMPLIED WARRANTIES, 
  24:..\u8g2_csrc/u8x8_debounce.c ****   INCLUDING, BUT NOT LIMITED TO, THE IMPLIED WARRANTIES OF 
  25:..\u8g2_csrc/u8x8_debounce.c ****   MERCHANTABILITY AND FITNESS FOR A PARTICULAR PURPOSE ARE 
  26:..\u8g2_csrc/u8x8_debounce.c ****   DISCLAIMED. IN NO EVENT SHALL THE COPYRIGHT HOLDER OR 
  27:..\u8g2_csrc/u8x8_debounce.c ****   CONTRIBUTORS BE LIABLE FOR ANY DIRECT, INDIRECT, INCIDENTAL, 
  28:..\u8g2_csrc/u8x8_debounce.c ****   SPECIAL, EXEMPLARY, OR CONSEQUENTIAL DAMAGES (INCLUDING, BUT 
  29:..\u8g2_csrc/u8x8_debounce.c ****   NOT LIMITED TO, PROCUREMENT OF SUBSTITUTE GOODS OR SERVICES; 
  30:..\u8g2_csrc/u8x8_debounce.c ****   LOSS OF USE, DATA, OR PROFITS; OR BUSINESS INTERRUPTION) HOWEVER 
  31:..\u8g2_csrc/u8x8_debounce.c ****   CAUSED AND ON ANY THEORY OF LIABILITY, WHETHER IN CONTRACT, 
  32:..\u8g2_csrc/u8x8_debounce.c ****   STRICT LIABILITY, OR TORT (INCLUDING NEGLIGENCE OR OTHERWISE) 
  33:..\u8g2_csrc/u8x8_debounce.c ****   ARISING IN ANY WAY OUT OF THE USE OF THIS SOFTWARE, EVEN IF 
  34:..\u8g2_csrc/u8x8_debounce.c ****   ADVISED OF THE POSSIBILITY OF SUCH DAMAGE.  
ARM GAS  C:\Users\info\AppData\Local\Temp\ccPgyeGN.s 			page 32


  35:..\u8g2_csrc/u8x8_debounce.c ****   
  36:..\u8g2_csrc/u8x8_debounce.c **** */
  37:..\u8g2_csrc/u8x8_debounce.c **** 
  38:..\u8g2_csrc/u8x8_debounce.c **** #include "u8x8.h"
  39:..\u8g2_csrc/u8x8_debounce.c **** 
  40:..\u8g2_csrc/u8x8_debounce.c **** static uint8_t u8x8_read_pin_state(u8x8_t *u8x8)
  41:..\u8g2_csrc/u8x8_debounce.c **** {
  42:..\u8g2_csrc/u8x8_debounce.c ****   uint8_t i;
  43:..\u8g2_csrc/u8x8_debounce.c ****   uint8_t pin_state;
  44:..\u8g2_csrc/u8x8_debounce.c ****   
  45:..\u8g2_csrc/u8x8_debounce.c ****   pin_state = 255;	/* be compatible with the setup of the default pin setup, which is 255 */
  46:..\u8g2_csrc/u8x8_debounce.c ****   for( i = 0; i < U8X8_PIN_INPUT_CNT; i++ )
  47:..\u8g2_csrc/u8x8_debounce.c ****   {
  48:..\u8g2_csrc/u8x8_debounce.c ****     pin_state <<= 1;
  49:..\u8g2_csrc/u8x8_debounce.c ****     
  50:..\u8g2_csrc/u8x8_debounce.c ****     /* the callback function should put the return value into this variable */
  51:..\u8g2_csrc/u8x8_debounce.c ****     u8x8->gpio_result = 1;
  52:..\u8g2_csrc/u8x8_debounce.c ****     u8x8_gpio_call(u8x8, U8X8_MSG_GPIO(i+U8X8_PIN_OUTPUT_CNT), 0);
  53:..\u8g2_csrc/u8x8_debounce.c ****     pin_state |= u8x8->gpio_result & 1;
  54:..\u8g2_csrc/u8x8_debounce.c ****   }
  55:..\u8g2_csrc/u8x8_debounce.c ****   
  56:..\u8g2_csrc/u8x8_debounce.c ****   return pin_state;
  57:..\u8g2_csrc/u8x8_debounce.c **** }
  58:..\u8g2_csrc/u8x8_debounce.c **** 
  59:..\u8g2_csrc/u8x8_debounce.c **** /*
  60:..\u8g2_csrc/u8x8_debounce.c ****   return 0 to U8X8_PIN_INPUT_CNT-1 if there is a difference
  61:..\u8g2_csrc/u8x8_debounce.c ****   return U8X8_PIN_INPUT_CNT if there is no difference
  62:..\u8g2_csrc/u8x8_debounce.c **** */
  63:..\u8g2_csrc/u8x8_debounce.c **** static uint8_t u8x8_find_first_diff(uint8_t a, uint8_t b)
  64:..\u8g2_csrc/u8x8_debounce.c **** {
  65:..\u8g2_csrc/u8x8_debounce.c ****   uint8_t mask;
  66:..\u8g2_csrc/u8x8_debounce.c ****   uint8_t i;
  67:..\u8g2_csrc/u8x8_debounce.c ****   mask = 1;
  68:..\u8g2_csrc/u8x8_debounce.c ****   i = U8X8_PIN_INPUT_CNT;
  69:..\u8g2_csrc/u8x8_debounce.c ****   do
  70:..\u8g2_csrc/u8x8_debounce.c ****   {
  71:..\u8g2_csrc/u8x8_debounce.c ****     i--;
  72:..\u8g2_csrc/u8x8_debounce.c ****     if ( (a & mask) != (b & mask) )
  73:..\u8g2_csrc/u8x8_debounce.c ****       return i;
  74:..\u8g2_csrc/u8x8_debounce.c ****     mask <<= 1;
  75:..\u8g2_csrc/u8x8_debounce.c ****   } while( i > 0 );
  76:..\u8g2_csrc/u8x8_debounce.c ****   return U8X8_PIN_INPUT_CNT;
  77:..\u8g2_csrc/u8x8_debounce.c **** }
  78:..\u8g2_csrc/u8x8_debounce.c **** 
  79:..\u8g2_csrc/u8x8_debounce.c **** /*
  80:..\u8g2_csrc/u8x8_debounce.c ****   State A:
  81:..\u8g2_csrc/u8x8_debounce.c ****     u8x8->debounce_last_pin_state == current_state 
  82:..\u8g2_csrc/u8x8_debounce.c ****       --> State A
  83:..\u8g2_csrc/u8x8_debounce.c ****     u8x8->debounce_last_pin_state != current_state 
  84:..\u8g2_csrc/u8x8_debounce.c ****       --> u8x8->debounce_last_pin_state = current_state 
  85:..\u8g2_csrc/u8x8_debounce.c ****       --> State B + cnt
  86:..\u8g2_csrc/u8x8_debounce.c **** 
  87:..\u8g2_csrc/u8x8_debounce.c ****   State B + cnt
  88:..\u8g2_csrc/u8x8_debounce.c ****     --> state--
  89:..\u8g2_csrc/u8x8_debounce.c **** 
  90:..\u8g2_csrc/u8x8_debounce.c ****   State B
  91:..\u8g2_csrc/u8x8_debounce.c ****     u8x8->debounce_last_pin_state == current_state 
ARM GAS  C:\Users\info\AppData\Local\Temp\ccPgyeGN.s 			page 33


  92:..\u8g2_csrc/u8x8_debounce.c ****       --> keypress detected
  93:..\u8g2_csrc/u8x8_debounce.c ****       --> State C
  94:..\u8g2_csrc/u8x8_debounce.c ****     u8x8->debounce_last_pin_state != current_state 
  95:..\u8g2_csrc/u8x8_debounce.c ****       --> State A
  96:..\u8g2_csrc/u8x8_debounce.c **** 
  97:..\u8g2_csrc/u8x8_debounce.c ****   State C
  98:..\u8g2_csrc/u8x8_debounce.c ****     u8x8->debounce_last_pin_state == current_state 
  99:..\u8g2_csrc/u8x8_debounce.c ****       --> State C
 100:..\u8g2_csrc/u8x8_debounce.c ****     u8x8->debounce_last_pin_state != current_state 
 101:..\u8g2_csrc/u8x8_debounce.c ****       --> State A
 102:..\u8g2_csrc/u8x8_debounce.c **** 
 103:..\u8g2_csrc/u8x8_debounce.c **** */
 104:..\u8g2_csrc/u8x8_debounce.c **** 
 105:..\u8g2_csrc/u8x8_debounce.c **** #ifdef __unix__xxxxxx_THIS_IS_DISABLED
 106:..\u8g2_csrc/u8x8_debounce.c **** 
 107:..\u8g2_csrc/u8x8_debounce.c **** #include <stdio.h>
 108:..\u8g2_csrc/u8x8_debounce.c **** #include <stdlib.h>
 109:..\u8g2_csrc/u8x8_debounce.c **** uint8_t u8x8_GetMenuEvent(u8x8_t *u8x8)
 110:..\u8g2_csrc/u8x8_debounce.c **** {
 111:..\u8g2_csrc/u8x8_debounce.c ****     int c;
 112:..\u8g2_csrc/u8x8_debounce.c ****     c = getc(stdin);
 113:..\u8g2_csrc/u8x8_debounce.c ****     switch(c)
 114:..\u8g2_csrc/u8x8_debounce.c ****     {
 115:..\u8g2_csrc/u8x8_debounce.c ****         case 'n':
 116:..\u8g2_csrc/u8x8_debounce.c ****             return  U8X8_MSG_GPIO_MENU_NEXT;
 117:..\u8g2_csrc/u8x8_debounce.c ****         case 'p':
 118:..\u8g2_csrc/u8x8_debounce.c ****             return  U8X8_MSG_GPIO_MENU_PREV;
 119:..\u8g2_csrc/u8x8_debounce.c ****         case 's':
 120:..\u8g2_csrc/u8x8_debounce.c ****             return  U8X8_MSG_GPIO_MENU_SELECT;
 121:..\u8g2_csrc/u8x8_debounce.c ****         case 'h':
 122:..\u8g2_csrc/u8x8_debounce.c ****             return  U8X8_MSG_GPIO_MENU_HOME;
 123:..\u8g2_csrc/u8x8_debounce.c ****         case 'x':
 124:..\u8g2_csrc/u8x8_debounce.c ****             exit(0);
 125:..\u8g2_csrc/u8x8_debounce.c ****         default:
 126:..\u8g2_csrc/u8x8_debounce.c ****             puts("press n, p, s, h or x");
 127:..\u8g2_csrc/u8x8_debounce.c ****             break;
 128:..\u8g2_csrc/u8x8_debounce.c ****     }
 129:..\u8g2_csrc/u8x8_debounce.c ****     return 0;
 130:..\u8g2_csrc/u8x8_debounce.c **** }
 131:..\u8g2_csrc/u8x8_debounce.c **** 
 132:..\u8g2_csrc/u8x8_debounce.c **** 
 133:..\u8g2_csrc/u8x8_debounce.c **** #else  /* __unix__ */
 134:..\u8g2_csrc/u8x8_debounce.c **** 
 135:..\u8g2_csrc/u8x8_debounce.c **** 
 136:..\u8g2_csrc/u8x8_debounce.c **** #define U8X8_DEBOUNCE_WAIT 2
 137:..\u8g2_csrc/u8x8_debounce.c **** /* do debounce and return a GPIO msg which indicates the event */
 138:..\u8g2_csrc/u8x8_debounce.c **** /* returns 0, if there is no event */
 139:..\u8g2_csrc/u8x8_debounce.c **** #if defined(__GNUC__) && !defined(__CYGWIN__)
 140:..\u8g2_csrc/u8x8_debounce.c **** # pragma weak  u8x8_GetMenuEvent
 141:..\u8g2_csrc/u8x8_debounce.c **** #endif
 142:..\u8g2_csrc/u8x8_debounce.c **** uint8_t u8x8_GetMenuEvent(u8x8_t *u8x8)
 143:..\u8g2_csrc/u8x8_debounce.c **** {
 418              		.loc 1 143 0
 419              		.cfi_startproc
 420              		@ args = 0, pretend = 0, frame = 0
 421              		@ frame_needed = 0, uses_anonymous_args = 0
 422              	.LVL0:
ARM GAS  C:\Users\info\AppData\Local\Temp\ccPgyeGN.s 			page 34


 423 0000 F8B5     		push	{r3, r4, r5, r6, r7, lr}
 424              		.cfi_def_cfa_offset 24
 425              		.cfi_offset 3, -24
 426              		.cfi_offset 4, -20
 427              		.cfi_offset 5, -16
 428              		.cfi_offset 6, -12
 429              		.cfi_offset 7, -8
 430              		.cfi_offset 14, -4
 431              		.loc 1 143 0
 432 0002 0446     		mov	r4, r0
 433              	.LVL1:
 434 0004 5026     		movs	r6, #80
 435              	.LBB6:
 436              	.LBB7:
  45:..\u8g2_csrc/u8x8_debounce.c ****   for( i = 0; i < U8X8_PIN_INPUT_CNT; i++ )
 437              		.loc 1 45 0
 438 0006 FF25     		movs	r5, #255
  51:..\u8g2_csrc/u8x8_debounce.c ****     u8x8_gpio_call(u8x8, U8X8_MSG_GPIO(i+U8X8_PIN_OUTPUT_CNT), 0);
 439              		.loc 1 51 0
 440 0008 0127     		movs	r7, #1
 441              	.LVL2:
 442              	.L2:
  52:..\u8g2_csrc/u8x8_debounce.c ****     pin_state |= u8x8->gpio_result & 1;
 443              		.loc 1 52 0
 444 000a 3146     		mov	r1, r6
  51:..\u8g2_csrc/u8x8_debounce.c ****     u8x8_gpio_call(u8x8, U8X8_MSG_GPIO(i+U8X8_PIN_OUTPUT_CNT), 0);
 445              		.loc 1 51 0
 446 000c 84F82870 		strb	r7, [r4, #40]
  52:..\u8g2_csrc/u8x8_debounce.c ****     pin_state |= u8x8->gpio_result & 1;
 447              		.loc 1 52 0
 448 0010 0022     		movs	r2, #0
 449 0012 2046     		mov	r0, r4
 450 0014 FFF7FEFF 		bl	u8x8_gpio_call
 451              	.LVL3:
  53:..\u8g2_csrc/u8x8_debounce.c ****   }
 452              		.loc 1 53 0
 453 0018 94F82830 		ldrb	r3, [r4, #40]	@ zero_extendqisi2
 454 001c 0136     		adds	r6, r6, #1
 455              	.LVL4:
 456 001e 03F00103 		and	r3, r3, #1
 457 0022 F6B2     		uxtb	r6, r6
 458 0024 43EA4505 		orr	r5, r3, r5, lsl #1
 459              	.LVL5:
  46:..\u8g2_csrc/u8x8_debounce.c ****   {
 460              		.loc 1 46 0
 461 0028 562E     		cmp	r6, #86
  53:..\u8g2_csrc/u8x8_debounce.c ****   }
 462              		.loc 1 53 0
 463 002a EDB2     		uxtb	r5, r5
 464              	.LVL6:
  46:..\u8g2_csrc/u8x8_debounce.c ****   {
 465              		.loc 1 46 0
 466 002c EDD1     		bne	.L2
 467              	.LVL7:
 468              	.LBE7:
 469              	.LBE6:
 144:..\u8g2_csrc/u8x8_debounce.c ****   uint8_t pin_state;
ARM GAS  C:\Users\info\AppData\Local\Temp\ccPgyeGN.s 			page 35


 145:..\u8g2_csrc/u8x8_debounce.c ****   uint8_t result_msg = 0;	/* invalid message, no event */
 146:..\u8g2_csrc/u8x8_debounce.c ****   
 147:..\u8g2_csrc/u8x8_debounce.c ****   pin_state = u8x8_read_pin_state(u8x8);
 148:..\u8g2_csrc/u8x8_debounce.c ****   
 149:..\u8g2_csrc/u8x8_debounce.c ****   /* States A, B, C & D are encoded in the upper 4 bit*/
 150:..\u8g2_csrc/u8x8_debounce.c ****   switch(u8x8->debounce_state)
 470              		.loc 1 150 0
 471 002e 94F82B00 		ldrb	r0, [r4, #43]	@ zero_extendqisi2
 472 0032 1028     		cmp	r0, #16
 473 0034 0FD0     		beq	.L4
 474 0036 01D8     		bhi	.L5
 475 0038 28B1     		cbz	r0, .L6
 476 003a 38E0     		b	.L3
 477              	.L5:
 478 003c 2028     		cmp	r0, #32
 479 003e 16D0     		beq	.L7
 480 0040 3028     		cmp	r0, #48
 481 0042 1CD0     		beq	.L8
 482 0044 33E0     		b	.L3
 483              	.L6:
 151:..\u8g2_csrc/u8x8_debounce.c ****   {
 152:..\u8g2_csrc/u8x8_debounce.c ****     case 0x00:	/* State A, default state */
 153:..\u8g2_csrc/u8x8_debounce.c ****       if ( u8x8->debounce_default_pin_state != pin_state )
 484              		.loc 1 153 0
 485 0046 94F82930 		ldrb	r3, [r4, #41]	@ zero_extendqisi2
 486 004a AB42     		cmp	r3, r5
 487 004c 33D0     		beq	.L9
 154:..\u8g2_csrc/u8x8_debounce.c ****       {
 155:..\u8g2_csrc/u8x8_debounce.c **** 	//u8x8->debounce_last_pin_state = pin_state;
 156:..\u8g2_csrc/u8x8_debounce.c **** 	u8x8->debounce_state = 0x010 + U8X8_DEBOUNCE_WAIT;
 488              		.loc 1 156 0
 489 004e 1223     		movs	r3, #18
 490 0050 84F82B30 		strb	r3, [r4, #43]
 491 0054 F8BD     		pop	{r3, r4, r5, r6, r7, pc}
 492              	.LVL8:
 493              	.L4:
 157:..\u8g2_csrc/u8x8_debounce.c ****       }
 158:..\u8g2_csrc/u8x8_debounce.c ****       break;
 159:..\u8g2_csrc/u8x8_debounce.c ****     case 0x10:	/* State B */
 160:..\u8g2_csrc/u8x8_debounce.c ****       //if ( u8x8->debounce_last_pin_state != pin_state )
 161:..\u8g2_csrc/u8x8_debounce.c ****       if ( u8x8->debounce_default_pin_state == pin_state )
 494              		.loc 1 161 0
 495 0056 94F82930 		ldrb	r3, [r4, #41]	@ zero_extendqisi2
 496 005a AB42     		cmp	r3, r5
 497 005c 03D1     		bne	.L10
 498              	.L11:
 162:..\u8g2_csrc/u8x8_debounce.c ****       {
 163:..\u8g2_csrc/u8x8_debounce.c **** 	u8x8->debounce_state = 0x00;	/* back to state A */
 499              		.loc 1 163 0
 500 005e 0020     		movs	r0, #0
 501 0060 84F82B00 		strb	r0, [r4, #43]
 502 0064 F8BD     		pop	{r3, r4, r5, r6, r7, pc}
 503              	.LVL9:
 504              	.L10:
 164:..\u8g2_csrc/u8x8_debounce.c ****       }
 165:..\u8g2_csrc/u8x8_debounce.c ****       else
 166:..\u8g2_csrc/u8x8_debounce.c ****       {
ARM GAS  C:\Users\info\AppData\Local\Temp\ccPgyeGN.s 			page 36


 167:..\u8g2_csrc/u8x8_debounce.c **** 	/* keypress detected */
 168:..\u8g2_csrc/u8x8_debounce.c **** 	u8x8->debounce_last_pin_state = pin_state;
 505              		.loc 1 168 0
 506 0066 84F82A50 		strb	r5, [r4, #42]
 169:..\u8g2_csrc/u8x8_debounce.c **** 	//result_msg = U8X8_MSG_GPIO_MENU_NEXT;
 170:..\u8g2_csrc/u8x8_debounce.c **** 	u8x8->debounce_state = 0x020 + U8X8_DEBOUNCE_WAIT;	/* got to state C */	
 507              		.loc 1 170 0
 508 006a 2223     		movs	r3, #34
 509 006c 04E0     		b	.L20
 510              	.L7:
 171:..\u8g2_csrc/u8x8_debounce.c ****       }
 172:..\u8g2_csrc/u8x8_debounce.c ****       break;
 173:..\u8g2_csrc/u8x8_debounce.c ****       
 174:..\u8g2_csrc/u8x8_debounce.c ****     case 0x20:	/* State C */
 175:..\u8g2_csrc/u8x8_debounce.c ****       if ( u8x8->debounce_last_pin_state != pin_state )
 511              		.loc 1 175 0
 512 006e 94F82A30 		ldrb	r3, [r4, #42]	@ zero_extendqisi2
 513 0072 AB42     		cmp	r3, r5
 514 0074 F3D1     		bne	.L11
 176:..\u8g2_csrc/u8x8_debounce.c ****       {
 177:..\u8g2_csrc/u8x8_debounce.c **** 	u8x8->debounce_state = 0x00;	/* back to state A */
 178:..\u8g2_csrc/u8x8_debounce.c ****       }
 179:..\u8g2_csrc/u8x8_debounce.c ****       else
 180:..\u8g2_csrc/u8x8_debounce.c ****       {
 181:..\u8g2_csrc/u8x8_debounce.c **** 	u8x8->debounce_state = 0x030;	/* got to state D */	
 515              		.loc 1 181 0
 516 0076 3023     		movs	r3, #48
 517              	.L20:
 518 0078 84F82B30 		strb	r3, [r4, #43]
 519 007c 1AE0     		b	.L19
 520              	.L8:
 182:..\u8g2_csrc/u8x8_debounce.c ****       }
 183:..\u8g2_csrc/u8x8_debounce.c ****       break;
 184:..\u8g2_csrc/u8x8_debounce.c ****       
 185:..\u8g2_csrc/u8x8_debounce.c ****     case 0x30:	/* State D */
 186:..\u8g2_csrc/u8x8_debounce.c ****       /* wait until key release */
 187:..\u8g2_csrc/u8x8_debounce.c ****       if ( u8x8->debounce_default_pin_state == pin_state )
 521              		.loc 1 187 0
 522 007e 94F82930 		ldrb	r3, [r4, #41]	@ zero_extendqisi2
 523 0082 0020     		movs	r0, #0
 524 0084 AB42     		cmp	r3, r5
 525 0086 16D1     		bne	.L9
 188:..\u8g2_csrc/u8x8_debounce.c ****       {
 189:..\u8g2_csrc/u8x8_debounce.c **** 	u8x8->debounce_state = 0x00;	/* back to state A */
 190:..\u8g2_csrc/u8x8_debounce.c **** 	result_msg = U8X8_MSG_GPIO(u8x8_find_first_diff(u8x8->debounce_default_pin_state, u8x8->debounce_l
 526              		.loc 1 190 0
 527 0088 94F82A20 		ldrb	r2, [r4, #42]	@ zero_extendqisi2
 528              	.LVL10:
 189:..\u8g2_csrc/u8x8_debounce.c **** 	result_msg = U8X8_MSG_GPIO(u8x8_find_first_diff(u8x8->debounce_default_pin_state, u8x8->debounce_l
 529              		.loc 1 189 0
 530 008c 84F82B00 		strb	r0, [r4, #43]
 531              	.LBB8:
 532              	.LBB9:
  67:..\u8g2_csrc/u8x8_debounce.c ****   i = U8X8_PIN_INPUT_CNT;
 533              		.loc 1 67 0
 534 0090 0123     		movs	r3, #1
  68:..\u8g2_csrc/u8x8_debounce.c ****   do
ARM GAS  C:\Users\info\AppData\Local\Temp\ccPgyeGN.s 			page 37


 535              		.loc 1 68 0
 536 0092 0620     		movs	r0, #6
  72:..\u8g2_csrc/u8x8_debounce.c ****       return i;
 537              		.loc 1 72 0
 538 0094 5540     		eors	r5, r5, r2
 539              	.LVL11:
 540              	.L13:
  71:..\u8g2_csrc/u8x8_debounce.c ****     if ( (a & mask) != (b & mask) )
 541              		.loc 1 71 0
 542 0096 0138     		subs	r0, r0, #1
 543              	.LVL12:
  72:..\u8g2_csrc/u8x8_debounce.c ****       return i;
 544              		.loc 1 72 0
 545 0098 2B42     		tst	r3, r5
  71:..\u8g2_csrc/u8x8_debounce.c ****     if ( (a & mask) != (b & mask) )
 546              		.loc 1 71 0
 547 009a C0B2     		uxtb	r0, r0
 548              	.LVL13:
  72:..\u8g2_csrc/u8x8_debounce.c ****       return i;
 549              		.loc 1 72 0
 550 009c 04D1     		bne	.L12
  74:..\u8g2_csrc/u8x8_debounce.c ****   } while( i > 0 );
 551              		.loc 1 74 0
 552 009e 5B00     		lsls	r3, r3, #1
 553              	.LVL14:
 554 00a0 DBB2     		uxtb	r3, r3
 555              	.LVL15:
  75:..\u8g2_csrc/u8x8_debounce.c ****   return U8X8_PIN_INPUT_CNT;
 556              		.loc 1 75 0
 557 00a2 0028     		cmp	r0, #0
 558 00a4 F7D1     		bne	.L13
  76:..\u8g2_csrc/u8x8_debounce.c **** }
 559              		.loc 1 76 0
 560 00a6 0620     		movs	r0, #6
 561              	.LVL16:
 562              	.L12:
 563              	.LBE9:
 564              	.LBE8:
 565              		.loc 1 190 0
 566 00a8 5030     		adds	r0, r0, #80
 567 00aa C0B2     		uxtb	r0, r0
 568              	.LVL17:
 569 00ac F8BD     		pop	{r3, r4, r5, r6, r7, pc}
 570              	.LVL18:
 571              	.L3:
 191:..\u8g2_csrc/u8x8_debounce.c ****       }
 192:..\u8g2_csrc/u8x8_debounce.c ****       else
 193:..\u8g2_csrc/u8x8_debounce.c ****       {
 194:..\u8g2_csrc/u8x8_debounce.c **** 	//result_msg = U8X8_MSG_GPIO_MENU_NEXT;
 195:..\u8g2_csrc/u8x8_debounce.c **** 	// maybe implement autorepeat here 
 196:..\u8g2_csrc/u8x8_debounce.c ****       }
 197:..\u8g2_csrc/u8x8_debounce.c ****       break;
 198:..\u8g2_csrc/u8x8_debounce.c ****     default:
 199:..\u8g2_csrc/u8x8_debounce.c ****       u8x8->debounce_state--;	/* count down, until there is a valid state */
 572              		.loc 1 199 0
 573 00ae 0138     		subs	r0, r0, #1
 574 00b0 84F82B00 		strb	r0, [r4, #43]
ARM GAS  C:\Users\info\AppData\Local\Temp\ccPgyeGN.s 			page 38


 575              	.L19:
 145:..\u8g2_csrc/u8x8_debounce.c ****   
 576              		.loc 1 145 0
 577 00b4 0020     		movs	r0, #0
 578              	.L9:
 579              	.LVL19:
 200:..\u8g2_csrc/u8x8_debounce.c ****       break;
 201:..\u8g2_csrc/u8x8_debounce.c ****   }
 202:..\u8g2_csrc/u8x8_debounce.c ****   return result_msg;
 203:..\u8g2_csrc/u8x8_debounce.c **** }
 580              		.loc 1 203 0
 581 00b6 F8BD     		pop	{r3, r4, r5, r6, r7, pc}
 582              		.cfi_endproc
 583              	.LFE2:
 584              		.size	u8x8_GetMenuEvent, .-u8x8_GetMenuEvent
 585              		.text
 586              	.Letext0:
 587              		.file 2 "c:\\program files (x86)\\cypress\\psoc creator\\4.2\\psoc creator\\import\\gnu\\arm\\5.4.
 588              		.file 3 "c:\\program files (x86)\\cypress\\psoc creator\\4.2\\psoc creator\\import\\gnu\\arm\\5.4.
 589              		.file 4 "..\\u8g2_csrc\\u8x8.h"