ARM GAS  C:\Users\info\AppData\Local\Temp\ccFPPEVm.s 			page 1


   1              		.syntax unified
   2              		.cpu cortex-m3
   3              		.fpu softvfp
   4              		.eabi_attribute 20, 1
   5              		.eabi_attribute 21, 1
   6              		.eabi_attribute 23, 3
   7              		.eabi_attribute 24, 1
   8              		.eabi_attribute 25, 1
   9              		.eabi_attribute 26, 1
  10              		.eabi_attribute 30, 2
  11              		.eabi_attribute 34, 1
  12              		.eabi_attribute 18, 4
  13              		.thumb
  14              		.syntax unified
  15              		.file	"u8x8_d_st7567.c"
  16              		.text
  17              	.Ltext0:
  18              		.cfi_sections	.debug_frame
  19              		.section	.text.u8x8_d_st7567_pi_132x64,"ax",%progbits
  20              		.align	2
  21              		.global	u8x8_d_st7567_pi_132x64
  22              		.thumb
  23              		.thumb_func
  24              		.type	u8x8_d_st7567_pi_132x64, %function
  25              	u8x8_d_st7567_pi_132x64:
  26              	.LFB0:
  27              		.file 1 "..\\u8g2-master\\csrc\\u8x8_d_st7567.c"
   1:..\u8g2-master\csrc/u8x8_d_st7567.c **** /*
   2:..\u8g2-master\csrc/u8x8_d_st7567.c **** 
   3:..\u8g2-master\csrc/u8x8_d_st7567.c ****   u8x8_d_st7567.c
   4:..\u8g2-master\csrc/u8x8_d_st7567.c ****   
   5:..\u8g2-master\csrc/u8x8_d_st7567.c ****   Universal 8bit Graphics Library (https://github.com/olikraus/u8g2/)
   6:..\u8g2-master\csrc/u8x8_d_st7567.c **** 
   7:..\u8g2-master\csrc/u8x8_d_st7567.c ****   Copyright (c) 2016, olikraus@gmail.com
   8:..\u8g2-master\csrc/u8x8_d_st7567.c ****   All rights reserved.
   9:..\u8g2-master\csrc/u8x8_d_st7567.c **** 
  10:..\u8g2-master\csrc/u8x8_d_st7567.c ****   Redistribution and use in source and binary forms, with or without modification, 
  11:..\u8g2-master\csrc/u8x8_d_st7567.c ****   are permitted provided that the following conditions are met:
  12:..\u8g2-master\csrc/u8x8_d_st7567.c **** 
  13:..\u8g2-master\csrc/u8x8_d_st7567.c ****   * Redistributions of source code must retain the above copyright notice, this list 
  14:..\u8g2-master\csrc/u8x8_d_st7567.c ****     of conditions and the following disclaimer.
  15:..\u8g2-master\csrc/u8x8_d_st7567.c ****     
  16:..\u8g2-master\csrc/u8x8_d_st7567.c ****   * Redistributions in binary form must reproduce the above copyright notice, this 
  17:..\u8g2-master\csrc/u8x8_d_st7567.c ****     list of conditions and the following disclaimer in the documentation and/or other 
  18:..\u8g2-master\csrc/u8x8_d_st7567.c ****     materials provided with the distribution.
  19:..\u8g2-master\csrc/u8x8_d_st7567.c **** 
  20:..\u8g2-master\csrc/u8x8_d_st7567.c ****   THIS SOFTWARE IS PROVIDED BY THE COPYRIGHT HOLDERS AND 
  21:..\u8g2-master\csrc/u8x8_d_st7567.c ****   CONTRIBUTORS "AS IS" AND ANY EXPRESS OR IMPLIED WARRANTIES, 
  22:..\u8g2-master\csrc/u8x8_d_st7567.c ****   INCLUDING, BUT NOT LIMITED TO, THE IMPLIED WARRANTIES OF 
  23:..\u8g2-master\csrc/u8x8_d_st7567.c ****   MERCHANTABILITY AND FITNESS FOR A PARTICULAR PURPOSE ARE 
  24:..\u8g2-master\csrc/u8x8_d_st7567.c ****   DISCLAIMED. IN NO EVENT SHALL THE COPYRIGHT HOLDER OR 
  25:..\u8g2-master\csrc/u8x8_d_st7567.c ****   CONTRIBUTORS BE LIABLE FOR ANY DIRECT, INDIRECT, INCIDENTAL, 
  26:..\u8g2-master\csrc/u8x8_d_st7567.c ****   SPECIAL, EXEMPLARY, OR CONSEQUENTIAL DAMAGES (INCLUDING, BUT 
  27:..\u8g2-master\csrc/u8x8_d_st7567.c ****   NOT LIMITED TO, PROCUREMENT OF SUBSTITUTE GOODS OR SERVICES; 
  28:..\u8g2-master\csrc/u8x8_d_st7567.c ****   LOSS OF USE, DATA, OR PROFITS; OR BUSINESS INTERRUPTION) HOWEVER 
  29:..\u8g2-master\csrc/u8x8_d_st7567.c ****   CAUSED AND ON ANY THEORY OF LIABILITY, WHETHER IN CONTRACT, 
  30:..\u8g2-master\csrc/u8x8_d_st7567.c ****   STRICT LIABILITY, OR TORT (INCLUDING NEGLIGENCE OR OTHERWISE) 
ARM GAS  C:\Users\info\AppData\Local\Temp\ccFPPEVm.s 			page 2


  31:..\u8g2-master\csrc/u8x8_d_st7567.c ****   ARISING IN ANY WAY OUT OF THE USE OF THIS SOFTWARE, EVEN IF 
  32:..\u8g2-master\csrc/u8x8_d_st7567.c ****   ADVISED OF THE POSSIBILITY OF SUCH DAMAGE.  
  33:..\u8g2-master\csrc/u8x8_d_st7567.c **** 
  34:..\u8g2-master\csrc/u8x8_d_st7567.c ****   
  35:..\u8g2-master\csrc/u8x8_d_st7567.c **** */
  36:..\u8g2-master\csrc/u8x8_d_st7567.c **** #include "u8x8.h"
  37:..\u8g2-master\csrc/u8x8_d_st7567.c **** 
  38:..\u8g2-master\csrc/u8x8_d_st7567.c **** 
  39:..\u8g2-master\csrc/u8x8_d_st7567.c **** 
  40:..\u8g2-master\csrc/u8x8_d_st7567.c **** 
  41:..\u8g2-master\csrc/u8x8_d_st7567.c **** static const uint8_t u8x8_d_st7567_132x64_powersave0_seq[] = {
  42:..\u8g2-master\csrc/u8x8_d_st7567.c ****   U8X8_START_TRANSFER(),             	/* enable chip, delay is part of the transfer start */
  43:..\u8g2-master\csrc/u8x8_d_st7567.c ****   U8X8_C(0x0a4),		                /* all pixel off, issue 142 */
  44:..\u8g2-master\csrc/u8x8_d_st7567.c ****   U8X8_C(0x0af),		                /* display on */
  45:..\u8g2-master\csrc/u8x8_d_st7567.c ****   U8X8_END_TRANSFER(),             	/* disable chip */
  46:..\u8g2-master\csrc/u8x8_d_st7567.c ****   U8X8_END()             			/* end of sequence */
  47:..\u8g2-master\csrc/u8x8_d_st7567.c **** };
  48:..\u8g2-master\csrc/u8x8_d_st7567.c **** 
  49:..\u8g2-master\csrc/u8x8_d_st7567.c **** static const uint8_t u8x8_d_st7567_132x64_powersave1_seq[] = {
  50:..\u8g2-master\csrc/u8x8_d_st7567.c ****   U8X8_START_TRANSFER(),             	/* enable chip, delay is part of the transfer start */
  51:..\u8g2-master\csrc/u8x8_d_st7567.c ****   U8X8_C(0x0ae),		                /* display off */
  52:..\u8g2-master\csrc/u8x8_d_st7567.c ****   U8X8_C(0x0a5),		                /* enter powersafe: all pixel on, issue 142 */
  53:..\u8g2-master\csrc/u8x8_d_st7567.c ****   U8X8_END_TRANSFER(),             	/* disable chip */
  54:..\u8g2-master\csrc/u8x8_d_st7567.c ****   U8X8_END()             			/* end of sequence */
  55:..\u8g2-master\csrc/u8x8_d_st7567.c **** };
  56:..\u8g2-master\csrc/u8x8_d_st7567.c **** 
  57:..\u8g2-master\csrc/u8x8_d_st7567.c **** static const uint8_t u8x8_d_st7567_132x64_flip0_seq[] = {
  58:..\u8g2-master\csrc/u8x8_d_st7567.c ****   U8X8_START_TRANSFER(),             	/* enable chip, delay is part of the transfer start */
  59:..\u8g2-master\csrc/u8x8_d_st7567.c ****   U8X8_C(0x0a1),				/* segment remap a0/a1*/
  60:..\u8g2-master\csrc/u8x8_d_st7567.c ****   U8X8_C(0x0c0),				/* c0: scan dir normal, c8: reverse */
  61:..\u8g2-master\csrc/u8x8_d_st7567.c ****   U8X8_END_TRANSFER(),             	/* disable chip */
  62:..\u8g2-master\csrc/u8x8_d_st7567.c ****   U8X8_END()             			/* end of sequence */
  63:..\u8g2-master\csrc/u8x8_d_st7567.c **** };
  64:..\u8g2-master\csrc/u8x8_d_st7567.c **** 
  65:..\u8g2-master\csrc/u8x8_d_st7567.c **** static const uint8_t u8x8_d_st7567_132x64_flip1_seq[] = {
  66:..\u8g2-master\csrc/u8x8_d_st7567.c ****   U8X8_START_TRANSFER(),             	/* enable chip, delay is part of the transfer start */
  67:..\u8g2-master\csrc/u8x8_d_st7567.c ****   U8X8_C(0x0a0),				/* segment remap a0/a1*/
  68:..\u8g2-master\csrc/u8x8_d_st7567.c ****   U8X8_C(0x0c8),				/* c0: scan dir normal, c8: reverse */
  69:..\u8g2-master\csrc/u8x8_d_st7567.c ****   U8X8_END_TRANSFER(),             	/* disable chip */
  70:..\u8g2-master\csrc/u8x8_d_st7567.c ****   U8X8_END()             			/* end of sequence */
  71:..\u8g2-master\csrc/u8x8_d_st7567.c **** };
  72:..\u8g2-master\csrc/u8x8_d_st7567.c **** 
  73:..\u8g2-master\csrc/u8x8_d_st7567.c **** static const uint8_t u8x8_d_st7567_n_flip0_seq[] = {
  74:..\u8g2-master\csrc/u8x8_d_st7567.c ****   U8X8_START_TRANSFER(),             	/* enable chip, delay is part of the transfer start */
  75:..\u8g2-master\csrc/u8x8_d_st7567.c ****   U8X8_C(0x0a0),				/* segment remap a0/a1*/
  76:..\u8g2-master\csrc/u8x8_d_st7567.c ****   U8X8_C(0x0c0),				/* c0: scan dir normal, c8: reverse */
  77:..\u8g2-master\csrc/u8x8_d_st7567.c ****   U8X8_END_TRANSFER(),             	/* disable chip */
  78:..\u8g2-master\csrc/u8x8_d_st7567.c ****   U8X8_END()             			/* end of sequence */
  79:..\u8g2-master\csrc/u8x8_d_st7567.c **** };
  80:..\u8g2-master\csrc/u8x8_d_st7567.c **** 
  81:..\u8g2-master\csrc/u8x8_d_st7567.c **** static const uint8_t u8x8_d_st7567_n_flip1_seq[] = {
  82:..\u8g2-master\csrc/u8x8_d_st7567.c ****   U8X8_START_TRANSFER(),             	/* enable chip, delay is part of the transfer start */
  83:..\u8g2-master\csrc/u8x8_d_st7567.c ****   U8X8_C(0x0a1),				/* segment remap a0/a1*/
  84:..\u8g2-master\csrc/u8x8_d_st7567.c ****   U8X8_C(0x0c8),				/* c0: scan dir normal, c8: reverse */
  85:..\u8g2-master\csrc/u8x8_d_st7567.c ****   U8X8_END_TRANSFER(),             	/* disable chip */
  86:..\u8g2-master\csrc/u8x8_d_st7567.c ****   U8X8_END()             			/* end of sequence */
  87:..\u8g2-master\csrc/u8x8_d_st7567.c **** };
ARM GAS  C:\Users\info\AppData\Local\Temp\ccFPPEVm.s 			page 3


  88:..\u8g2-master\csrc/u8x8_d_st7567.c **** 
  89:..\u8g2-master\csrc/u8x8_d_st7567.c **** 
  90:..\u8g2-master\csrc/u8x8_d_st7567.c **** 
  91:..\u8g2-master\csrc/u8x8_d_st7567.c **** /*=====================================================*/
  92:..\u8g2-master\csrc/u8x8_d_st7567.c **** 
  93:..\u8g2-master\csrc/u8x8_d_st7567.c **** 
  94:..\u8g2-master\csrc/u8x8_d_st7567.c **** static const u8x8_display_info_t u8x8_st7567_132x64_display_info =
  95:..\u8g2-master\csrc/u8x8_d_st7567.c **** {
  96:..\u8g2-master\csrc/u8x8_d_st7567.c ****   /* chip_enable_level = */ 0,
  97:..\u8g2-master\csrc/u8x8_d_st7567.c ****   /* chip_disable_level = */ 1,
  98:..\u8g2-master\csrc/u8x8_d_st7567.c ****   
  99:..\u8g2-master\csrc/u8x8_d_st7567.c ****   /* post_chip_enable_wait_ns = */ 150,	/* */
 100:..\u8g2-master\csrc/u8x8_d_st7567.c ****   /* pre_chip_disable_wait_ns = */ 50,	/* */
 101:..\u8g2-master\csrc/u8x8_d_st7567.c ****   /* reset_pulse_width_ms = */ 1, 
 102:..\u8g2-master\csrc/u8x8_d_st7567.c ****   /* post_reset_wait_ms = */ 1, 
 103:..\u8g2-master\csrc/u8x8_d_st7567.c ****   /* sda_setup_time_ns = */ 50,		/* */
 104:..\u8g2-master\csrc/u8x8_d_st7567.c ****   /* sck_pulse_width_ns = */ 120,	/* */
 105:..\u8g2-master\csrc/u8x8_d_st7567.c ****   /* sck_clock_hz = */ 4000000UL,	/* */
 106:..\u8g2-master\csrc/u8x8_d_st7567.c ****   /* spi_mode = */ 0,		/* active high, rising edge */
 107:..\u8g2-master\csrc/u8x8_d_st7567.c ****   /* i2c_bus_clock_100kHz = */ 4,
 108:..\u8g2-master\csrc/u8x8_d_st7567.c ****   /* data_setup_time_ns = */ 40,	/* */
 109:..\u8g2-master\csrc/u8x8_d_st7567.c ****   /* write_pulse_width_ns = */ 80,	/* */
 110:..\u8g2-master\csrc/u8x8_d_st7567.c ****   /* tile_width = */ 17,		/* width of 17*8=136 pixel */
 111:..\u8g2-master\csrc/u8x8_d_st7567.c ****   /* tile_hight = */ 8,
 112:..\u8g2-master\csrc/u8x8_d_st7567.c ****   /* default_x_offset = */ 0,
 113:..\u8g2-master\csrc/u8x8_d_st7567.c ****   /* flipmode_x_offset = */ 0,
 114:..\u8g2-master\csrc/u8x8_d_st7567.c ****   /* pixel_width = */ 132,
 115:..\u8g2-master\csrc/u8x8_d_st7567.c ****   /* pixel_height = */ 64
 116:..\u8g2-master\csrc/u8x8_d_st7567.c **** };
 117:..\u8g2-master\csrc/u8x8_d_st7567.c **** 
 118:..\u8g2-master\csrc/u8x8_d_st7567.c **** static const uint8_t u8x8_d_st7567_132x64_init_seq[] = {
 119:..\u8g2-master\csrc/u8x8_d_st7567.c ****     
 120:..\u8g2-master\csrc/u8x8_d_st7567.c ****   U8X8_START_TRANSFER(),             	/* enable chip, delay is part of the transfer start */
 121:..\u8g2-master\csrc/u8x8_d_st7567.c ****   
 122:..\u8g2-master\csrc/u8x8_d_st7567.c ****   U8X8_C(0x0e2),            			/* soft reset */
 123:..\u8g2-master\csrc/u8x8_d_st7567.c ****   U8X8_C(0x0ae),		                /* display off */
 124:..\u8g2-master\csrc/u8x8_d_st7567.c ****   U8X8_C(0x040),		                /* set display start line to 0 */
 125:..\u8g2-master\csrc/u8x8_d_st7567.c ****   
 126:..\u8g2-master\csrc/u8x8_d_st7567.c ****   U8X8_C(0x0a1),		                /* ADC set to reverse */
 127:..\u8g2-master\csrc/u8x8_d_st7567.c ****   U8X8_C(0x0c0),		                /* common output mode */
 128:..\u8g2-master\csrc/u8x8_d_st7567.c ****   // Flipmode
 129:..\u8g2-master\csrc/u8x8_d_st7567.c ****   //U8X8_C(0x0a0),		                /* ADC set to reverse */
 130:..\u8g2-master\csrc/u8x8_d_st7567.c ****   //U8X8_C(0x0c8),		                /* common output mode */
 131:..\u8g2-master\csrc/u8x8_d_st7567.c ****   
 132:..\u8g2-master\csrc/u8x8_d_st7567.c ****   U8X8_C(0x0a6),		                /* display normal, bit val 0: LCD pixel off. */
 133:..\u8g2-master\csrc/u8x8_d_st7567.c ****   U8X8_C(0x0a3),		                /* LCD bias 1/7 */
 134:..\u8g2-master\csrc/u8x8_d_st7567.c ****   /* power on sequence from paxinstruments */
 135:..\u8g2-master\csrc/u8x8_d_st7567.c ****   U8X8_C(0x028|4),		                /* all power  control circuits on */
 136:..\u8g2-master\csrc/u8x8_d_st7567.c ****   U8X8_DLY(50),
 137:..\u8g2-master\csrc/u8x8_d_st7567.c ****   U8X8_C(0x028|6),		                /* all power  control circuits on */
 138:..\u8g2-master\csrc/u8x8_d_st7567.c ****   U8X8_DLY(50),
 139:..\u8g2-master\csrc/u8x8_d_st7567.c ****   U8X8_C(0x028|7),		                /* all power  control circuits on */
 140:..\u8g2-master\csrc/u8x8_d_st7567.c ****   U8X8_DLY(50),
 141:..\u8g2-master\csrc/u8x8_d_st7567.c ****   
 142:..\u8g2-master\csrc/u8x8_d_st7567.c ****   U8X8_C(0x026),		                /* v0 voltage resistor ratio */
 143:..\u8g2-master\csrc/u8x8_d_st7567.c ****   U8X8_CA(0x081, 0x027),		/* set contrast, contrast value*/
 144:..\u8g2-master\csrc/u8x8_d_st7567.c ****   
ARM GAS  C:\Users\info\AppData\Local\Temp\ccFPPEVm.s 			page 4


 145:..\u8g2-master\csrc/u8x8_d_st7567.c ****   U8X8_C(0x0ae),		                /* display off */
 146:..\u8g2-master\csrc/u8x8_d_st7567.c ****   U8X8_C(0x0a5),		                /* enter powersafe: all pixel on, issue 142 */
 147:..\u8g2-master\csrc/u8x8_d_st7567.c ****    
 148:..\u8g2-master\csrc/u8x8_d_st7567.c ****   U8X8_END_TRANSFER(),             	/* disable chip */
 149:..\u8g2-master\csrc/u8x8_d_st7567.c ****   U8X8_END()             			/* end of sequence */
 150:..\u8g2-master\csrc/u8x8_d_st7567.c **** };
 151:..\u8g2-master\csrc/u8x8_d_st7567.c **** 
 152:..\u8g2-master\csrc/u8x8_d_st7567.c **** /* pax instruments 132x64 display */
 153:..\u8g2-master\csrc/u8x8_d_st7567.c **** uint8_t u8x8_d_st7567_pi_132x64(u8x8_t *u8x8, uint8_t msg, uint8_t arg_int, void *arg_ptr)
 154:..\u8g2-master\csrc/u8x8_d_st7567.c **** {
  28              		.loc 1 154 0
  29              		.cfi_startproc
  30              		@ args = 0, pretend = 0, frame = 0
  31              		@ frame_needed = 0, uses_anonymous_args = 0
  32              	.LVL0:
 155:..\u8g2-master\csrc/u8x8_d_st7567.c ****   uint8_t x, c;
 156:..\u8g2-master\csrc/u8x8_d_st7567.c ****   uint8_t *ptr;
 157:..\u8g2-master\csrc/u8x8_d_st7567.c ****   switch(msg)
  33              		.loc 1 157 0
  34 0000 0939     		subs	r1, r1, #9
  35              	.LVL1:
 154:..\u8g2-master\csrc/u8x8_d_st7567.c ****   uint8_t x, c;
  36              		.loc 1 154 0
  37 0002 2DE9F041 		push	{r4, r5, r6, r7, r8, lr}
  38              		.cfi_def_cfa_offset 24
  39              		.cfi_offset 4, -24
  40              		.cfi_offset 5, -20
  41              		.cfi_offset 6, -16
  42              		.cfi_offset 7, -12
  43              		.cfi_offset 8, -8
  44              		.cfi_offset 14, -4
 154:..\u8g2-master\csrc/u8x8_d_st7567.c ****   uint8_t x, c;
  45              		.loc 1 154 0
  46 0006 0546     		mov	r5, r0
  47 0008 1446     		mov	r4, r2
  48 000a 1F46     		mov	r7, r3
  49              		.loc 1 157 0
  50 000c 0629     		cmp	r1, #6
  51 000e 6CD8     		bhi	.L14
  52 0010 DFE801F0 		tbb	[pc, r1]
  53              	.LVL2:
  54              	.L4:
  55 0014 3A       		.byte	(.L3-.L4)/2
  56 0015 40       		.byte	(.L5-.L4)/2
  57 0016 49       		.byte	(.L6-.L4)/2
  58 0017 6B       		.byte	(.L14-.L4)/2
  59 0018 50       		.byte	(.L7-.L4)/2
  60 0019 5B       		.byte	(.L8-.L4)/2
  61 001a 04       		.byte	(.L9-.L4)/2
  62 001b 00       		.p2align 1
  63              	.L9:
 158:..\u8g2-master\csrc/u8x8_d_st7567.c ****   {
 159:..\u8g2-master\csrc/u8x8_d_st7567.c ****     case U8X8_MSG_DISPLAY_SETUP_MEMORY:
 160:..\u8g2-master\csrc/u8x8_d_st7567.c ****       u8x8_d_helper_display_setup_memory(u8x8, &u8x8_st7567_132x64_display_info);
 161:..\u8g2-master\csrc/u8x8_d_st7567.c ****       break;
 162:..\u8g2-master\csrc/u8x8_d_st7567.c ****     case U8X8_MSG_DISPLAY_INIT:
 163:..\u8g2-master\csrc/u8x8_d_st7567.c ****       u8x8_d_helper_display_init(u8x8);
ARM GAS  C:\Users\info\AppData\Local\Temp\ccFPPEVm.s 			page 5


 164:..\u8g2-master\csrc/u8x8_d_st7567.c ****       u8x8_cad_SendSequence(u8x8, u8x8_d_st7567_132x64_init_seq);
 165:..\u8g2-master\csrc/u8x8_d_st7567.c ****       break;
 166:..\u8g2-master\csrc/u8x8_d_st7567.c ****     case U8X8_MSG_DISPLAY_SET_POWER_SAVE:
 167:..\u8g2-master\csrc/u8x8_d_st7567.c ****       if ( arg_int == 0 )
 168:..\u8g2-master\csrc/u8x8_d_st7567.c **** 	u8x8_cad_SendSequence(u8x8, u8x8_d_st7567_132x64_powersave0_seq);
 169:..\u8g2-master\csrc/u8x8_d_st7567.c ****       else
 170:..\u8g2-master\csrc/u8x8_d_st7567.c **** 	u8x8_cad_SendSequence(u8x8, u8x8_d_st7567_132x64_powersave1_seq);
 171:..\u8g2-master\csrc/u8x8_d_st7567.c ****       break;
 172:..\u8g2-master\csrc/u8x8_d_st7567.c ****     case U8X8_MSG_DISPLAY_SET_FLIP_MODE:
 173:..\u8g2-master\csrc/u8x8_d_st7567.c ****       if ( arg_int == 0 )
 174:..\u8g2-master\csrc/u8x8_d_st7567.c ****       {
 175:..\u8g2-master\csrc/u8x8_d_st7567.c **** 	u8x8_cad_SendSequence(u8x8, u8x8_d_st7567_132x64_flip0_seq);
 176:..\u8g2-master\csrc/u8x8_d_st7567.c **** 	u8x8->x_offset = u8x8->display_info->default_x_offset;
 177:..\u8g2-master\csrc/u8x8_d_st7567.c ****       }
 178:..\u8g2-master\csrc/u8x8_d_st7567.c ****       else
 179:..\u8g2-master\csrc/u8x8_d_st7567.c ****       {
 180:..\u8g2-master\csrc/u8x8_d_st7567.c **** 	u8x8_cad_SendSequence(u8x8, u8x8_d_st7567_132x64_flip1_seq);
 181:..\u8g2-master\csrc/u8x8_d_st7567.c **** 	u8x8->x_offset = u8x8->display_info->flipmode_x_offset;
 182:..\u8g2-master\csrc/u8x8_d_st7567.c ****       }	
 183:..\u8g2-master\csrc/u8x8_d_st7567.c ****       break;
 184:..\u8g2-master\csrc/u8x8_d_st7567.c **** #ifdef U8X8_WITH_SET_CONTRAST
 185:..\u8g2-master\csrc/u8x8_d_st7567.c ****     case U8X8_MSG_DISPLAY_SET_CONTRAST:
 186:..\u8g2-master\csrc/u8x8_d_st7567.c ****       u8x8_cad_StartTransfer(u8x8);
 187:..\u8g2-master\csrc/u8x8_d_st7567.c ****       u8x8_cad_SendCmd(u8x8, 0x081 );
 188:..\u8g2-master\csrc/u8x8_d_st7567.c ****       u8x8_cad_SendArg(u8x8, arg_int >> 2 );	/* st7567 has range from 0 to 63 */
 189:..\u8g2-master\csrc/u8x8_d_st7567.c ****       u8x8_cad_EndTransfer(u8x8);
 190:..\u8g2-master\csrc/u8x8_d_st7567.c ****       break;
 191:..\u8g2-master\csrc/u8x8_d_st7567.c **** #endif
 192:..\u8g2-master\csrc/u8x8_d_st7567.c ****     case U8X8_MSG_DISPLAY_DRAW_TILE:
 193:..\u8g2-master\csrc/u8x8_d_st7567.c ****       u8x8_cad_StartTransfer(u8x8);
  64              		.loc 1 193 0
  65 001c FFF7FEFF 		bl	u8x8_cad_StartTransfer
  66              	.LVL3:
 194:..\u8g2-master\csrc/u8x8_d_st7567.c ****     
 195:..\u8g2-master\csrc/u8x8_d_st7567.c ****       x = ((u8x8_tile_t *)arg_ptr)->x_pos;
 196:..\u8g2-master\csrc/u8x8_d_st7567.c ****       x *= 8;
 197:..\u8g2-master\csrc/u8x8_d_st7567.c ****       x += u8x8->x_offset;
  67              		.loc 1 197 0
  68 0020 95F82230 		ldrb	r3, [r5, #34]	@ zero_extendqisi2
 195:..\u8g2-master\csrc/u8x8_d_st7567.c ****       x *= 8;
  69              		.loc 1 195 0
  70 0024 97F80580 		ldrb	r8, [r7, #5]	@ zero_extendqisi2
  71              	.LVL4:
 198:..\u8g2-master\csrc/u8x8_d_st7567.c ****       u8x8_cad_SendCmd(u8x8, 0x010 | (x>>4) );
  72              		.loc 1 198 0
  73 0028 2846     		mov	r0, r5
 197:..\u8g2-master\csrc/u8x8_d_st7567.c ****       u8x8_cad_SendCmd(u8x8, 0x010 | (x>>4) );
  74              		.loc 1 197 0
  75 002a 03EBC808 		add	r8, r3, r8, lsl #3
  76              	.LVL5:
  77 002e 08F0FF08 		and	r8, r8, #255
  78              	.LVL6:
  79              		.loc 1 198 0
  80 0032 4FEA1811 		lsr	r1, r8, #4
  81 0036 41F01001 		orr	r1, r1, #16
  82 003a FFF7FEFF 		bl	u8x8_cad_SendCmd
  83              	.LVL7:
ARM GAS  C:\Users\info\AppData\Local\Temp\ccFPPEVm.s 			page 6


 199:..\u8g2-master\csrc/u8x8_d_st7567.c ****       u8x8_cad_SendCmd(u8x8, 0x000 | ((x&15)));
  84              		.loc 1 199 0
  85 003e 08F00F01 		and	r1, r8, #15
  86 0042 2846     		mov	r0, r5
  87 0044 FFF7FEFF 		bl	u8x8_cad_SendCmd
  88              	.LVL8:
 200:..\u8g2-master\csrc/u8x8_d_st7567.c ****       u8x8_cad_SendCmd(u8x8, 0x0b0 | (((u8x8_tile_t *)arg_ptr)->y_pos));
  89              		.loc 1 200 0
  90 0048 B979     		ldrb	r1, [r7, #6]	@ zero_extendqisi2
  91 004a 2846     		mov	r0, r5
  92 004c 41F0B001 		orr	r1, r1, #176
  93 0050 FFF7FEFF 		bl	u8x8_cad_SendCmd
  94              	.LVL9:
 201:..\u8g2-master\csrc/u8x8_d_st7567.c ****     
 202:..\u8g2-master\csrc/u8x8_d_st7567.c ****       c = ((u8x8_tile_t *)arg_ptr)->cnt;
  95              		.loc 1 202 0
  96 0054 3E79     		ldrb	r6, [r7, #4]	@ zero_extendqisi2
  97              	.LVL10:
 203:..\u8g2-master\csrc/u8x8_d_st7567.c ****       c *= 8;
 204:..\u8g2-master\csrc/u8x8_d_st7567.c ****       ptr = ((u8x8_tile_t *)arg_ptr)->tile_ptr;
  98              		.loc 1 204 0
  99 0056 3F68     		ldr	r7, [r7]
 100              	.LVL11:
 203:..\u8g2-master\csrc/u8x8_d_st7567.c ****       c *= 8;
 101              		.loc 1 203 0
 102 0058 F600     		lsls	r6, r6, #3
 103              	.LVL12:
 104 005a F6B2     		uxtb	r6, r6
 105              	.LVL13:
 205:..\u8g2-master\csrc/u8x8_d_st7567.c ****       /* 
 206:..\u8g2-master\csrc/u8x8_d_st7567.c **** 	The following if condition checks the hardware limits of the st7567 
 207:..\u8g2-master\csrc/u8x8_d_st7567.c **** 	controller: It is not allowed to write beyond the display limits.
 208:..\u8g2-master\csrc/u8x8_d_st7567.c **** 	This is in fact an issue within flip mode.
 209:..\u8g2-master\csrc/u8x8_d_st7567.c ****       */
 210:..\u8g2-master\csrc/u8x8_d_st7567.c ****       if ( c + x > 132u )
 106              		.loc 1 210 0
 107 005c 06EB0803 		add	r3, r6, r8
 108 0060 842B     		cmp	r3, #132
 109              	.LVL14:
 211:..\u8g2-master\csrc/u8x8_d_st7567.c ****       {
 212:..\u8g2-master\csrc/u8x8_d_st7567.c **** 	c = 132u;
 213:..\u8g2-master\csrc/u8x8_d_st7567.c **** 	c -= x;
 110              		.loc 1 213 0
 111 0062 C4BF     		itt	gt
 112 0064 C8F18406 		rsbgt	r6, r8, #132
 113 0068 F6B2     		uxtbgt	r6, r6
 114              	.LVL15:
 115              	.L13:
 214:..\u8g2-master\csrc/u8x8_d_st7567.c ****       }
 215:..\u8g2-master\csrc/u8x8_d_st7567.c ****       do
 216:..\u8g2-master\csrc/u8x8_d_st7567.c ****       {
 217:..\u8g2-master\csrc/u8x8_d_st7567.c **** 	u8x8_cad_SendData(u8x8, c, ptr);	/* note: SendData can not handle more than 255 bytes */
 116              		.loc 1 217 0 discriminator 1
 117 006a 3A46     		mov	r2, r7
 118 006c 3146     		mov	r1, r6
 119 006e 2846     		mov	r0, r5
 120 0070 FFF7FEFF 		bl	u8x8_cad_SendData
ARM GAS  C:\Users\info\AppData\Local\Temp\ccFPPEVm.s 			page 7


 121              	.LVL16:
 218:..\u8g2-master\csrc/u8x8_d_st7567.c **** 	arg_int--;
 122              		.loc 1 218 0 discriminator 1
 123 0074 621E     		subs	r2, r4, #1
 124              	.LVL17:
 219:..\u8g2-master\csrc/u8x8_d_st7567.c ****       } while( arg_int > 0 );
 125              		.loc 1 219 0 discriminator 1
 126 0076 12F0FF04 		ands	r4, r2, #255
 127 007a F6D1     		bne	.L13
 220:..\u8g2-master\csrc/u8x8_d_st7567.c ****       
 221:..\u8g2-master\csrc/u8x8_d_st7567.c ****       u8x8_cad_EndTransfer(u8x8);
 128              		.loc 1 221 0
 129 007c 2846     		mov	r0, r5
 130 007e FFF7FEFF 		bl	u8x8_cad_EndTransfer
 131              	.LVL18:
 222:..\u8g2-master\csrc/u8x8_d_st7567.c ****       break;
 223:..\u8g2-master\csrc/u8x8_d_st7567.c ****     default:
 224:..\u8g2-master\csrc/u8x8_d_st7567.c ****       return 0;
 225:..\u8g2-master\csrc/u8x8_d_st7567.c ****   }
 226:..\u8g2-master\csrc/u8x8_d_st7567.c ****   return 1;
 132              		.loc 1 226 0
 133 0082 0120     		movs	r0, #1
 222:..\u8g2-master\csrc/u8x8_d_st7567.c ****       break;
 134              		.loc 1 222 0
 135 0084 BDE8F081 		pop	{r4, r5, r6, r7, r8, pc}
 136              	.LVL19:
 137              	.L3:
 160:..\u8g2-master\csrc/u8x8_d_st7567.c ****       break;
 138              		.loc 1 160 0
 139 0088 2149     		ldr	r1, .L18
 140 008a FFF7FEFF 		bl	u8x8_d_helper_display_setup_memory
 141              	.LVL20:
 142              		.loc 1 226 0
 143 008e 0120     		movs	r0, #1
 161:..\u8g2-master\csrc/u8x8_d_st7567.c ****     case U8X8_MSG_DISPLAY_INIT:
 144              		.loc 1 161 0
 145 0090 BDE8F081 		pop	{r4, r5, r6, r7, r8, pc}
 146              	.LVL21:
 147              	.L5:
 163:..\u8g2-master\csrc/u8x8_d_st7567.c ****       u8x8_cad_SendSequence(u8x8, u8x8_d_st7567_132x64_init_seq);
 148              		.loc 1 163 0
 149 0094 FFF7FEFF 		bl	u8x8_d_helper_display_init
 150              	.LVL22:
 164:..\u8g2-master\csrc/u8x8_d_st7567.c ****       break;
 151              		.loc 1 164 0
 152 0098 2846     		mov	r0, r5
 153 009a 1E49     		ldr	r1, .L18+4
 154 009c FFF7FEFF 		bl	u8x8_cad_SendSequence
 155              	.LVL23:
 156              		.loc 1 226 0
 157 00a0 0120     		movs	r0, #1
 165:..\u8g2-master\csrc/u8x8_d_st7567.c ****     case U8X8_MSG_DISPLAY_SET_POWER_SAVE:
 158              		.loc 1 165 0
 159 00a2 BDE8F081 		pop	{r4, r5, r6, r7, r8, pc}
 160              	.LVL24:
 161              	.L6:
 167:..\u8g2-master\csrc/u8x8_d_st7567.c **** 	u8x8_cad_SendSequence(u8x8, u8x8_d_st7567_132x64_powersave0_seq);
ARM GAS  C:\Users\info\AppData\Local\Temp\ccFPPEVm.s 			page 8


 162              		.loc 1 167 0
 163 00a6 1ABB     		cbnz	r2, .L10
 168:..\u8g2-master\csrc/u8x8_d_st7567.c ****       else
 164              		.loc 1 168 0
 165 00a8 1B49     		ldr	r1, .L18+8
 166 00aa FFF7FEFF 		bl	u8x8_cad_SendSequence
 167              	.LVL25:
 168              		.loc 1 226 0
 169 00ae 0120     		movs	r0, #1
 170 00b0 BDE8F081 		pop	{r4, r5, r6, r7, r8, pc}
 171              	.LVL26:
 172              	.L7:
 173:..\u8g2-master\csrc/u8x8_d_st7567.c ****       {
 173              		.loc 1 173 0
 174 00b4 12BB     		cbnz	r2, .L11
 175:..\u8g2-master\csrc/u8x8_d_st7567.c **** 	u8x8->x_offset = u8x8->display_info->default_x_offset;
 175              		.loc 1 175 0
 176 00b6 1949     		ldr	r1, .L18+12
 177 00b8 FFF7FEFF 		bl	u8x8_cad_SendSequence
 178              	.LVL27:
 176:..\u8g2-master\csrc/u8x8_d_st7567.c ****       }
 179              		.loc 1 176 0
 180 00bc 2B68     		ldr	r3, [r5]
 181              		.loc 1 226 0
 182 00be 0120     		movs	r0, #1
 176:..\u8g2-master\csrc/u8x8_d_st7567.c ****       }
 183              		.loc 1 176 0
 184 00c0 9B7C     		ldrb	r3, [r3, #18]	@ zero_extendqisi2
 185 00c2 85F82230 		strb	r3, [r5, #34]
 186 00c6 BDE8F081 		pop	{r4, r5, r6, r7, r8, pc}
 187              	.LVL28:
 188              	.L8:
 186:..\u8g2-master\csrc/u8x8_d_st7567.c ****       u8x8_cad_SendCmd(u8x8, 0x081 );
 189              		.loc 1 186 0
 190 00ca FFF7FEFF 		bl	u8x8_cad_StartTransfer
 191              	.LVL29:
 187:..\u8g2-master\csrc/u8x8_d_st7567.c ****       u8x8_cad_SendArg(u8x8, arg_int >> 2 );	/* st7567 has range from 0 to 63 */
 192              		.loc 1 187 0
 193 00ce 8121     		movs	r1, #129
 194 00d0 2846     		mov	r0, r5
 195 00d2 FFF7FEFF 		bl	u8x8_cad_SendCmd
 196              	.LVL30:
 188:..\u8g2-master\csrc/u8x8_d_st7567.c ****       u8x8_cad_EndTransfer(u8x8);
 197              		.loc 1 188 0
 198 00d6 A108     		lsrs	r1, r4, #2
 199 00d8 2846     		mov	r0, r5
 200 00da FFF7FEFF 		bl	u8x8_cad_SendArg
 201              	.LVL31:
 189:..\u8g2-master\csrc/u8x8_d_st7567.c ****       break;
 202              		.loc 1 189 0
 203 00de 2846     		mov	r0, r5
 204 00e0 FFF7FEFF 		bl	u8x8_cad_EndTransfer
 205              	.LVL32:
 206              		.loc 1 226 0
 207 00e4 0120     		movs	r0, #1
 190:..\u8g2-master\csrc/u8x8_d_st7567.c **** #endif
 208              		.loc 1 190 0
ARM GAS  C:\Users\info\AppData\Local\Temp\ccFPPEVm.s 			page 9


 209 00e6 BDE8F081 		pop	{r4, r5, r6, r7, r8, pc}
 210              	.LVL33:
 211              	.L14:
 224:..\u8g2-master\csrc/u8x8_d_st7567.c ****   }
 212              		.loc 1 224 0
 213 00ea 0020     		movs	r0, #0
 214              	.LVL34:
 227:..\u8g2-master\csrc/u8x8_d_st7567.c **** }
 215              		.loc 1 227 0
 216 00ec BDE8F081 		pop	{r4, r5, r6, r7, r8, pc}
 217              	.LVL35:
 218              	.L10:
 170:..\u8g2-master\csrc/u8x8_d_st7567.c ****       break;
 219              		.loc 1 170 0
 220 00f0 0B49     		ldr	r1, .L18+16
 221 00f2 FFF7FEFF 		bl	u8x8_cad_SendSequence
 222              	.LVL36:
 226:..\u8g2-master\csrc/u8x8_d_st7567.c **** }
 223              		.loc 1 226 0
 224 00f6 0120     		movs	r0, #1
 225 00f8 BDE8F081 		pop	{r4, r5, r6, r7, r8, pc}
 226              	.LVL37:
 227              	.L11:
 180:..\u8g2-master\csrc/u8x8_d_st7567.c **** 	u8x8->x_offset = u8x8->display_info->flipmode_x_offset;
 228              		.loc 1 180 0
 229 00fc 0949     		ldr	r1, .L18+20
 230 00fe FFF7FEFF 		bl	u8x8_cad_SendSequence
 231              	.LVL38:
 181:..\u8g2-master\csrc/u8x8_d_st7567.c ****       }	
 232              		.loc 1 181 0
 233 0102 2B68     		ldr	r3, [r5]
 226:..\u8g2-master\csrc/u8x8_d_st7567.c **** }
 234              		.loc 1 226 0
 235 0104 0120     		movs	r0, #1
 181:..\u8g2-master\csrc/u8x8_d_st7567.c ****       }	
 236              		.loc 1 181 0
 237 0106 DB7C     		ldrb	r3, [r3, #19]	@ zero_extendqisi2
 238 0108 85F82230 		strb	r3, [r5, #34]
 239 010c BDE8F081 		pop	{r4, r5, r6, r7, r8, pc}
 240              	.LVL39:
 241              	.L19:
 242              		.align	2
 243              	.L18:
 244 0110 00000000 		.word	.LANCHOR0
 245 0114 18000000 		.word	.LANCHOR0+24
 246 0118 40000000 		.word	.LANCHOR0+64
 247 011c 50000000 		.word	.LANCHOR0+80
 248 0120 48000000 		.word	.LANCHOR0+72
 249 0124 58000000 		.word	.LANCHOR0+88
 250              		.cfi_endproc
 251              	.LFE0:
 252              		.size	u8x8_d_st7567_pi_132x64, .-u8x8_d_st7567_pi_132x64
 253              		.section	.text.u8x8_d_st7567_jlx12864,"ax",%progbits
 254              		.align	2
 255              		.global	u8x8_d_st7567_jlx12864
 256              		.thumb
 257              		.thumb_func
ARM GAS  C:\Users\info\AppData\Local\Temp\ccFPPEVm.s 			page 10


 258              		.type	u8x8_d_st7567_jlx12864, %function
 259              	u8x8_d_st7567_jlx12864:
 260              	.LFB1:
 228:..\u8g2-master\csrc/u8x8_d_st7567.c **** 
 229:..\u8g2-master\csrc/u8x8_d_st7567.c **** 
 230:..\u8g2-master\csrc/u8x8_d_st7567.c **** 
 231:..\u8g2-master\csrc/u8x8_d_st7567.c **** 
 232:..\u8g2-master\csrc/u8x8_d_st7567.c **** /*=====================================================*/
 233:..\u8g2-master\csrc/u8x8_d_st7567.c **** 
 234:..\u8g2-master\csrc/u8x8_d_st7567.c **** 
 235:..\u8g2-master\csrc/u8x8_d_st7567.c **** 
 236:..\u8g2-master\csrc/u8x8_d_st7567.c **** 
 237:..\u8g2-master\csrc/u8x8_d_st7567.c **** 
 238:..\u8g2-master\csrc/u8x8_d_st7567.c **** static const u8x8_display_info_t u8x8_st7567_jlx12864_display_info =
 239:..\u8g2-master\csrc/u8x8_d_st7567.c **** {
 240:..\u8g2-master\csrc/u8x8_d_st7567.c ****   /* chip_enable_level = */ 0,
 241:..\u8g2-master\csrc/u8x8_d_st7567.c ****   /* chip_disable_level = */ 1,
 242:..\u8g2-master\csrc/u8x8_d_st7567.c ****   
 243:..\u8g2-master\csrc/u8x8_d_st7567.c ****   /* post_chip_enable_wait_ns = */ 150,	/* */
 244:..\u8g2-master\csrc/u8x8_d_st7567.c ****   /* pre_chip_disable_wait_ns = */ 50,	/* */
 245:..\u8g2-master\csrc/u8x8_d_st7567.c ****   /* reset_pulse_width_ms = */ 1, 
 246:..\u8g2-master\csrc/u8x8_d_st7567.c ****   /* post_reset_wait_ms = */ 1, 
 247:..\u8g2-master\csrc/u8x8_d_st7567.c ****   /* sda_setup_time_ns = */ 50,		/* */
 248:..\u8g2-master\csrc/u8x8_d_st7567.c ****   /* sck_pulse_width_ns = */ 120,	/* */
 249:..\u8g2-master\csrc/u8x8_d_st7567.c ****   /* sck_clock_hz = */ 4000000UL,	/* */
 250:..\u8g2-master\csrc/u8x8_d_st7567.c ****   /* spi_mode = */ 0,		/* active high, rising edge */
 251:..\u8g2-master\csrc/u8x8_d_st7567.c ****   /* i2c_bus_clock_100kHz = */ 4,
 252:..\u8g2-master\csrc/u8x8_d_st7567.c ****   /* data_setup_time_ns = */ 40,	/* */
 253:..\u8g2-master\csrc/u8x8_d_st7567.c ****   /* write_pulse_width_ns = */ 80,	/* */
 254:..\u8g2-master\csrc/u8x8_d_st7567.c ****   /* tile_width = */ 16,		/* width of 16*8=128 pixel */
 255:..\u8g2-master\csrc/u8x8_d_st7567.c ****   /* tile_hight = */ 8,
 256:..\u8g2-master\csrc/u8x8_d_st7567.c ****   /* default_x_offset = */ 4,
 257:..\u8g2-master\csrc/u8x8_d_st7567.c ****   /* flipmode_x_offset = */ 0,
 258:..\u8g2-master\csrc/u8x8_d_st7567.c ****   /* pixel_width = */ 128,
 259:..\u8g2-master\csrc/u8x8_d_st7567.c ****   /* pixel_height = */ 64
 260:..\u8g2-master\csrc/u8x8_d_st7567.c **** };
 261:..\u8g2-master\csrc/u8x8_d_st7567.c **** 
 262:..\u8g2-master\csrc/u8x8_d_st7567.c **** static const uint8_t u8x8_st7567_jlx12864_init_seq[] = {
 263:..\u8g2-master\csrc/u8x8_d_st7567.c ****     
 264:..\u8g2-master\csrc/u8x8_d_st7567.c ****   U8X8_START_TRANSFER(),             	/* enable chip, delay is part of the transfer start */
 265:..\u8g2-master\csrc/u8x8_d_st7567.c ****   
 266:..\u8g2-master\csrc/u8x8_d_st7567.c ****   U8X8_C(0x0e2),            			/* soft reset */
 267:..\u8g2-master\csrc/u8x8_d_st7567.c ****   U8X8_C(0x0ae),		                /* display off */
 268:..\u8g2-master\csrc/u8x8_d_st7567.c ****   U8X8_C(0x040),		                /* set display start line to 0 */
 269:..\u8g2-master\csrc/u8x8_d_st7567.c ****   
 270:..\u8g2-master\csrc/u8x8_d_st7567.c ****   U8X8_C(0x0a1),		                /* ADC set to reverse */
 271:..\u8g2-master\csrc/u8x8_d_st7567.c ****   U8X8_C(0x0c0),		                /* common output mode */
 272:..\u8g2-master\csrc/u8x8_d_st7567.c ****   // Flipmode
 273:..\u8g2-master\csrc/u8x8_d_st7567.c ****   //U8X8_C(0x0a0),		                /* ADC set to reverse */
 274:..\u8g2-master\csrc/u8x8_d_st7567.c ****   //U8X8_C(0x0c8),		                /* common output mode */
 275:..\u8g2-master\csrc/u8x8_d_st7567.c ****   
 276:..\u8g2-master\csrc/u8x8_d_st7567.c ****   U8X8_C(0x0a6),		                /* display normal, bit val 0: LCD pixel off. */
 277:..\u8g2-master\csrc/u8x8_d_st7567.c ****   U8X8_C(0x0a3),		                /* LCD bias 1/7 */
 278:..\u8g2-master\csrc/u8x8_d_st7567.c ****   /* power on sequence from paxinstruments */
 279:..\u8g2-master\csrc/u8x8_d_st7567.c ****   U8X8_C(0x028|4),		                /* all power  control circuits on */
 280:..\u8g2-master\csrc/u8x8_d_st7567.c ****   U8X8_DLY(50),
 281:..\u8g2-master\csrc/u8x8_d_st7567.c ****   U8X8_C(0x028|6),		                /* all power  control circuits on */
ARM GAS  C:\Users\info\AppData\Local\Temp\ccFPPEVm.s 			page 11


 282:..\u8g2-master\csrc/u8x8_d_st7567.c ****   U8X8_DLY(50),
 283:..\u8g2-master\csrc/u8x8_d_st7567.c ****   U8X8_C(0x028|7),		                /* all power  control circuits on */
 284:..\u8g2-master\csrc/u8x8_d_st7567.c ****   U8X8_DLY(50),
 285:..\u8g2-master\csrc/u8x8_d_st7567.c ****   
 286:..\u8g2-master\csrc/u8x8_d_st7567.c ****   U8X8_C(0x023),		                /* v0 voltage resistor ratio */
 287:..\u8g2-master\csrc/u8x8_d_st7567.c ****   U8X8_CA(0x081, 42>>2),		/* set contrast, contrast value*/
 288:..\u8g2-master\csrc/u8x8_d_st7567.c ****   
 289:..\u8g2-master\csrc/u8x8_d_st7567.c ****   U8X8_C(0x0ae),		                /* display off */
 290:..\u8g2-master\csrc/u8x8_d_st7567.c ****   U8X8_C(0x0a5),		                /* enter powersafe: all pixel on, issue 142 */
 291:..\u8g2-master\csrc/u8x8_d_st7567.c ****    
 292:..\u8g2-master\csrc/u8x8_d_st7567.c ****   U8X8_END_TRANSFER(),             	/* disable chip */
 293:..\u8g2-master\csrc/u8x8_d_st7567.c ****   U8X8_END()             			/* end of sequence */
 294:..\u8g2-master\csrc/u8x8_d_st7567.c **** };
 295:..\u8g2-master\csrc/u8x8_d_st7567.c **** 
 296:..\u8g2-master\csrc/u8x8_d_st7567.c **** /* JLX12864 display */
 297:..\u8g2-master\csrc/u8x8_d_st7567.c **** uint8_t u8x8_d_st7567_jlx12864(u8x8_t *u8x8, uint8_t msg, uint8_t arg_int, void *arg_ptr)
 298:..\u8g2-master\csrc/u8x8_d_st7567.c **** {
 261              		.loc 1 298 0
 262              		.cfi_startproc
 263              		@ args = 0, pretend = 0, frame = 0
 264              		@ frame_needed = 0, uses_anonymous_args = 0
 265              	.LVL40:
 299:..\u8g2-master\csrc/u8x8_d_st7567.c ****   uint8_t x, c;
 300:..\u8g2-master\csrc/u8x8_d_st7567.c ****   uint8_t *ptr;
 301:..\u8g2-master\csrc/u8x8_d_st7567.c ****   switch(msg)
 266              		.loc 1 301 0
 267 0000 0939     		subs	r1, r1, #9
 268              	.LVL41:
 298:..\u8g2-master\csrc/u8x8_d_st7567.c ****   uint8_t x, c;
 269              		.loc 1 298 0
 270 0002 2DE9F041 		push	{r4, r5, r6, r7, r8, lr}
 271              		.cfi_def_cfa_offset 24
 272              		.cfi_offset 4, -24
 273              		.cfi_offset 5, -20
 274              		.cfi_offset 6, -16
 275              		.cfi_offset 7, -12
 276              		.cfi_offset 8, -8
 277              		.cfi_offset 14, -4
 298:..\u8g2-master\csrc/u8x8_d_st7567.c ****   uint8_t x, c;
 278              		.loc 1 298 0
 279 0006 0546     		mov	r5, r0
 280 0008 1446     		mov	r4, r2
 281 000a 1F46     		mov	r7, r3
 282              		.loc 1 301 0
 283 000c 0629     		cmp	r1, #6
 284 000e 6CD8     		bhi	.L33
 285 0010 DFE801F0 		tbb	[pc, r1]
 286              	.LVL42:
 287              	.L23:
 288 0014 3A       		.byte	(.L22-.L23)/2
 289 0015 40       		.byte	(.L24-.L23)/2
 290 0016 49       		.byte	(.L25-.L23)/2
 291 0017 6B       		.byte	(.L33-.L23)/2
 292 0018 50       		.byte	(.L26-.L23)/2
 293 0019 5B       		.byte	(.L27-.L23)/2
 294 001a 04       		.byte	(.L28-.L23)/2
 295 001b 00       		.p2align 1
ARM GAS  C:\Users\info\AppData\Local\Temp\ccFPPEVm.s 			page 12


 296              	.L28:
 302:..\u8g2-master\csrc/u8x8_d_st7567.c ****   {
 303:..\u8g2-master\csrc/u8x8_d_st7567.c ****     case U8X8_MSG_DISPLAY_SETUP_MEMORY:
 304:..\u8g2-master\csrc/u8x8_d_st7567.c ****       u8x8_d_helper_display_setup_memory(u8x8, &u8x8_st7567_jlx12864_display_info);
 305:..\u8g2-master\csrc/u8x8_d_st7567.c ****       break;
 306:..\u8g2-master\csrc/u8x8_d_st7567.c ****     case U8X8_MSG_DISPLAY_INIT:
 307:..\u8g2-master\csrc/u8x8_d_st7567.c ****       u8x8_d_helper_display_init(u8x8);
 308:..\u8g2-master\csrc/u8x8_d_st7567.c ****       u8x8_cad_SendSequence(u8x8, u8x8_st7567_jlx12864_init_seq);
 309:..\u8g2-master\csrc/u8x8_d_st7567.c ****       break;
 310:..\u8g2-master\csrc/u8x8_d_st7567.c ****     case U8X8_MSG_DISPLAY_SET_POWER_SAVE:
 311:..\u8g2-master\csrc/u8x8_d_st7567.c ****       if ( arg_int == 0 )
 312:..\u8g2-master\csrc/u8x8_d_st7567.c **** 	u8x8_cad_SendSequence(u8x8, u8x8_d_st7567_132x64_powersave0_seq);
 313:..\u8g2-master\csrc/u8x8_d_st7567.c ****       else
 314:..\u8g2-master\csrc/u8x8_d_st7567.c **** 	u8x8_cad_SendSequence(u8x8, u8x8_d_st7567_132x64_powersave1_seq);
 315:..\u8g2-master\csrc/u8x8_d_st7567.c ****       break;
 316:..\u8g2-master\csrc/u8x8_d_st7567.c ****     case U8X8_MSG_DISPLAY_SET_FLIP_MODE:
 317:..\u8g2-master\csrc/u8x8_d_st7567.c ****       if ( arg_int == 0 )
 318:..\u8g2-master\csrc/u8x8_d_st7567.c ****       {
 319:..\u8g2-master\csrc/u8x8_d_st7567.c **** 	u8x8_cad_SendSequence(u8x8, u8x8_d_st7567_132x64_flip0_seq);
 320:..\u8g2-master\csrc/u8x8_d_st7567.c **** 	u8x8->x_offset = u8x8->display_info->default_x_offset;
 321:..\u8g2-master\csrc/u8x8_d_st7567.c ****       }
 322:..\u8g2-master\csrc/u8x8_d_st7567.c ****       else
 323:..\u8g2-master\csrc/u8x8_d_st7567.c ****       {
 324:..\u8g2-master\csrc/u8x8_d_st7567.c **** 	u8x8_cad_SendSequence(u8x8, u8x8_d_st7567_132x64_flip1_seq);
 325:..\u8g2-master\csrc/u8x8_d_st7567.c **** 	u8x8->x_offset = u8x8->display_info->flipmode_x_offset;
 326:..\u8g2-master\csrc/u8x8_d_st7567.c ****       }	
 327:..\u8g2-master\csrc/u8x8_d_st7567.c ****       break;
 328:..\u8g2-master\csrc/u8x8_d_st7567.c **** #ifdef U8X8_WITH_SET_CONTRAST
 329:..\u8g2-master\csrc/u8x8_d_st7567.c ****     case U8X8_MSG_DISPLAY_SET_CONTRAST:
 330:..\u8g2-master\csrc/u8x8_d_st7567.c ****       u8x8_cad_StartTransfer(u8x8);
 331:..\u8g2-master\csrc/u8x8_d_st7567.c ****       u8x8_cad_SendCmd(u8x8, 0x081 );
 332:..\u8g2-master\csrc/u8x8_d_st7567.c ****       u8x8_cad_SendArg(u8x8, arg_int >> 2 );	/* st7567 has range from 0 to 63 */
 333:..\u8g2-master\csrc/u8x8_d_st7567.c ****       u8x8_cad_EndTransfer(u8x8);
 334:..\u8g2-master\csrc/u8x8_d_st7567.c ****       break;
 335:..\u8g2-master\csrc/u8x8_d_st7567.c **** #endif
 336:..\u8g2-master\csrc/u8x8_d_st7567.c ****     case U8X8_MSG_DISPLAY_DRAW_TILE:
 337:..\u8g2-master\csrc/u8x8_d_st7567.c ****       u8x8_cad_StartTransfer(u8x8);
 297              		.loc 1 337 0
 298 001c FFF7FEFF 		bl	u8x8_cad_StartTransfer
 299              	.LVL43:
 338:..\u8g2-master\csrc/u8x8_d_st7567.c ****     
 339:..\u8g2-master\csrc/u8x8_d_st7567.c ****       x = ((u8x8_tile_t *)arg_ptr)->x_pos;
 340:..\u8g2-master\csrc/u8x8_d_st7567.c ****       x *= 8;
 341:..\u8g2-master\csrc/u8x8_d_st7567.c ****       x += u8x8->x_offset;
 300              		.loc 1 341 0
 301 0020 95F82230 		ldrb	r3, [r5, #34]	@ zero_extendqisi2
 339:..\u8g2-master\csrc/u8x8_d_st7567.c ****       x *= 8;
 302              		.loc 1 339 0
 303 0024 97F80580 		ldrb	r8, [r7, #5]	@ zero_extendqisi2
 304              	.LVL44:
 342:..\u8g2-master\csrc/u8x8_d_st7567.c ****       u8x8_cad_SendCmd(u8x8, 0x010 | (x>>4) );
 305              		.loc 1 342 0
 306 0028 2846     		mov	r0, r5
 341:..\u8g2-master\csrc/u8x8_d_st7567.c ****       u8x8_cad_SendCmd(u8x8, 0x010 | (x>>4) );
 307              		.loc 1 341 0
 308 002a 03EBC808 		add	r8, r3, r8, lsl #3
 309              	.LVL45:
ARM GAS  C:\Users\info\AppData\Local\Temp\ccFPPEVm.s 			page 13


 310 002e 08F0FF08 		and	r8, r8, #255
 311              	.LVL46:
 312              		.loc 1 342 0
 313 0032 4FEA1811 		lsr	r1, r8, #4
 314 0036 41F01001 		orr	r1, r1, #16
 315 003a FFF7FEFF 		bl	u8x8_cad_SendCmd
 316              	.LVL47:
 343:..\u8g2-master\csrc/u8x8_d_st7567.c ****       u8x8_cad_SendCmd(u8x8, 0x000 | ((x&15)));
 317              		.loc 1 343 0
 318 003e 08F00F01 		and	r1, r8, #15
 319 0042 2846     		mov	r0, r5
 320 0044 FFF7FEFF 		bl	u8x8_cad_SendCmd
 321              	.LVL48:
 344:..\u8g2-master\csrc/u8x8_d_st7567.c ****       u8x8_cad_SendCmd(u8x8, 0x0b0 | (((u8x8_tile_t *)arg_ptr)->y_pos));
 322              		.loc 1 344 0
 323 0048 B979     		ldrb	r1, [r7, #6]	@ zero_extendqisi2
 324 004a 2846     		mov	r0, r5
 325 004c 41F0B001 		orr	r1, r1, #176
 326 0050 FFF7FEFF 		bl	u8x8_cad_SendCmd
 327              	.LVL49:
 345:..\u8g2-master\csrc/u8x8_d_st7567.c ****     
 346:..\u8g2-master\csrc/u8x8_d_st7567.c ****       c = ((u8x8_tile_t *)arg_ptr)->cnt;
 328              		.loc 1 346 0
 329 0054 3E79     		ldrb	r6, [r7, #4]	@ zero_extendqisi2
 330              	.LVL50:
 347:..\u8g2-master\csrc/u8x8_d_st7567.c ****       c *= 8;
 348:..\u8g2-master\csrc/u8x8_d_st7567.c ****       ptr = ((u8x8_tile_t *)arg_ptr)->tile_ptr;
 331              		.loc 1 348 0
 332 0056 3F68     		ldr	r7, [r7]
 333              	.LVL51:
 347:..\u8g2-master\csrc/u8x8_d_st7567.c ****       c *= 8;
 334              		.loc 1 347 0
 335 0058 F600     		lsls	r6, r6, #3
 336              	.LVL52:
 337 005a F6B2     		uxtb	r6, r6
 338              	.LVL53:
 349:..\u8g2-master\csrc/u8x8_d_st7567.c ****       /* 
 350:..\u8g2-master\csrc/u8x8_d_st7567.c **** 	The following if condition checks the hardware limits of the st7567 
 351:..\u8g2-master\csrc/u8x8_d_st7567.c **** 	controller: It is not allowed to write beyond the display limits.
 352:..\u8g2-master\csrc/u8x8_d_st7567.c **** 	This is in fact an issue within flip mode.
 353:..\u8g2-master\csrc/u8x8_d_st7567.c ****       */
 354:..\u8g2-master\csrc/u8x8_d_st7567.c ****       if ( c + x > 132u )
 339              		.loc 1 354 0
 340 005c 06EB0803 		add	r3, r6, r8
 341 0060 842B     		cmp	r3, #132
 342              	.LVL54:
 355:..\u8g2-master\csrc/u8x8_d_st7567.c ****       {
 356:..\u8g2-master\csrc/u8x8_d_st7567.c **** 	c = 132u;
 357:..\u8g2-master\csrc/u8x8_d_st7567.c **** 	c -= x;
 343              		.loc 1 357 0
 344 0062 C4BF     		itt	gt
 345 0064 C8F18406 		rsbgt	r6, r8, #132
 346 0068 F6B2     		uxtbgt	r6, r6
 347              	.LVL55:
 348              	.L32:
 358:..\u8g2-master\csrc/u8x8_d_st7567.c ****       }
 359:..\u8g2-master\csrc/u8x8_d_st7567.c ****       do
ARM GAS  C:\Users\info\AppData\Local\Temp\ccFPPEVm.s 			page 14


 360:..\u8g2-master\csrc/u8x8_d_st7567.c ****       {
 361:..\u8g2-master\csrc/u8x8_d_st7567.c **** 	u8x8_cad_SendData(u8x8, c, ptr);	/* note: SendData can not handle more than 255 bytes */
 349              		.loc 1 361 0 discriminator 1
 350 006a 3A46     		mov	r2, r7
 351 006c 3146     		mov	r1, r6
 352 006e 2846     		mov	r0, r5
 353 0070 FFF7FEFF 		bl	u8x8_cad_SendData
 354              	.LVL56:
 362:..\u8g2-master\csrc/u8x8_d_st7567.c **** 	arg_int--;
 355              		.loc 1 362 0 discriminator 1
 356 0074 621E     		subs	r2, r4, #1
 357              	.LVL57:
 363:..\u8g2-master\csrc/u8x8_d_st7567.c ****       } while( arg_int > 0 );
 358              		.loc 1 363 0 discriminator 1
 359 0076 12F0FF04 		ands	r4, r2, #255
 360 007a F6D1     		bne	.L32
 364:..\u8g2-master\csrc/u8x8_d_st7567.c ****       
 365:..\u8g2-master\csrc/u8x8_d_st7567.c ****       u8x8_cad_EndTransfer(u8x8);
 361              		.loc 1 365 0
 362 007c 2846     		mov	r0, r5
 363 007e FFF7FEFF 		bl	u8x8_cad_EndTransfer
 364              	.LVL58:
 366:..\u8g2-master\csrc/u8x8_d_st7567.c ****       break;
 367:..\u8g2-master\csrc/u8x8_d_st7567.c ****     default:
 368:..\u8g2-master\csrc/u8x8_d_st7567.c ****       return 0;
 369:..\u8g2-master\csrc/u8x8_d_st7567.c ****   }
 370:..\u8g2-master\csrc/u8x8_d_st7567.c ****   return 1;
 365              		.loc 1 370 0
 366 0082 0120     		movs	r0, #1
 366:..\u8g2-master\csrc/u8x8_d_st7567.c ****       break;
 367              		.loc 1 366 0
 368 0084 BDE8F081 		pop	{r4, r5, r6, r7, r8, pc}
 369              	.LVL59:
 370              	.L22:
 304:..\u8g2-master\csrc/u8x8_d_st7567.c ****       break;
 371              		.loc 1 304 0
 372 0088 2149     		ldr	r1, .L36
 373 008a FFF7FEFF 		bl	u8x8_d_helper_display_setup_memory
 374              	.LVL60:
 375              		.loc 1 370 0
 376 008e 0120     		movs	r0, #1
 305:..\u8g2-master\csrc/u8x8_d_st7567.c ****     case U8X8_MSG_DISPLAY_INIT:
 377              		.loc 1 305 0
 378 0090 BDE8F081 		pop	{r4, r5, r6, r7, r8, pc}
 379              	.LVL61:
 380              	.L24:
 307:..\u8g2-master\csrc/u8x8_d_st7567.c ****       u8x8_cad_SendSequence(u8x8, u8x8_st7567_jlx12864_init_seq);
 381              		.loc 1 307 0
 382 0094 FFF7FEFF 		bl	u8x8_d_helper_display_init
 383              	.LVL62:
 308:..\u8g2-master\csrc/u8x8_d_st7567.c ****       break;
 384              		.loc 1 308 0
 385 0098 2846     		mov	r0, r5
 386 009a 1E49     		ldr	r1, .L36+4
 387 009c FFF7FEFF 		bl	u8x8_cad_SendSequence
 388              	.LVL63:
 389              		.loc 1 370 0
ARM GAS  C:\Users\info\AppData\Local\Temp\ccFPPEVm.s 			page 15


 390 00a0 0120     		movs	r0, #1
 309:..\u8g2-master\csrc/u8x8_d_st7567.c ****     case U8X8_MSG_DISPLAY_SET_POWER_SAVE:
 391              		.loc 1 309 0
 392 00a2 BDE8F081 		pop	{r4, r5, r6, r7, r8, pc}
 393              	.LVL64:
 394              	.L25:
 311:..\u8g2-master\csrc/u8x8_d_st7567.c **** 	u8x8_cad_SendSequence(u8x8, u8x8_d_st7567_132x64_powersave0_seq);
 395              		.loc 1 311 0
 396 00a6 1ABB     		cbnz	r2, .L29
 312:..\u8g2-master\csrc/u8x8_d_st7567.c ****       else
 397              		.loc 1 312 0
 398 00a8 1B49     		ldr	r1, .L36+8
 399 00aa FFF7FEFF 		bl	u8x8_cad_SendSequence
 400              	.LVL65:
 401              		.loc 1 370 0
 402 00ae 0120     		movs	r0, #1
 403 00b0 BDE8F081 		pop	{r4, r5, r6, r7, r8, pc}
 404              	.LVL66:
 405              	.L26:
 317:..\u8g2-master\csrc/u8x8_d_st7567.c ****       {
 406              		.loc 1 317 0
 407 00b4 12BB     		cbnz	r2, .L30
 319:..\u8g2-master\csrc/u8x8_d_st7567.c **** 	u8x8->x_offset = u8x8->display_info->default_x_offset;
 408              		.loc 1 319 0
 409 00b6 1949     		ldr	r1, .L36+12
 410 00b8 FFF7FEFF 		bl	u8x8_cad_SendSequence
 411              	.LVL67:
 320:..\u8g2-master\csrc/u8x8_d_st7567.c ****       }
 412              		.loc 1 320 0
 413 00bc 2B68     		ldr	r3, [r5]
 414              		.loc 1 370 0
 415 00be 0120     		movs	r0, #1
 320:..\u8g2-master\csrc/u8x8_d_st7567.c ****       }
 416              		.loc 1 320 0
 417 00c0 9B7C     		ldrb	r3, [r3, #18]	@ zero_extendqisi2
 418 00c2 85F82230 		strb	r3, [r5, #34]
 419 00c6 BDE8F081 		pop	{r4, r5, r6, r7, r8, pc}
 420              	.LVL68:
 421              	.L27:
 330:..\u8g2-master\csrc/u8x8_d_st7567.c ****       u8x8_cad_SendCmd(u8x8, 0x081 );
 422              		.loc 1 330 0
 423 00ca FFF7FEFF 		bl	u8x8_cad_StartTransfer
 424              	.LVL69:
 331:..\u8g2-master\csrc/u8x8_d_st7567.c ****       u8x8_cad_SendArg(u8x8, arg_int >> 2 );	/* st7567 has range from 0 to 63 */
 425              		.loc 1 331 0
 426 00ce 8121     		movs	r1, #129
 427 00d0 2846     		mov	r0, r5
 428 00d2 FFF7FEFF 		bl	u8x8_cad_SendCmd
 429              	.LVL70:
 332:..\u8g2-master\csrc/u8x8_d_st7567.c ****       u8x8_cad_EndTransfer(u8x8);
 430              		.loc 1 332 0
 431 00d6 A108     		lsrs	r1, r4, #2
 432 00d8 2846     		mov	r0, r5
 433 00da FFF7FEFF 		bl	u8x8_cad_SendArg
 434              	.LVL71:
 333:..\u8g2-master\csrc/u8x8_d_st7567.c ****       break;
 435              		.loc 1 333 0
ARM GAS  C:\Users\info\AppData\Local\Temp\ccFPPEVm.s 			page 16


 436 00de 2846     		mov	r0, r5
 437 00e0 FFF7FEFF 		bl	u8x8_cad_EndTransfer
 438              	.LVL72:
 439              		.loc 1 370 0
 440 00e4 0120     		movs	r0, #1
 334:..\u8g2-master\csrc/u8x8_d_st7567.c **** #endif
 441              		.loc 1 334 0
 442 00e6 BDE8F081 		pop	{r4, r5, r6, r7, r8, pc}
 443              	.LVL73:
 444              	.L33:
 368:..\u8g2-master\csrc/u8x8_d_st7567.c ****   }
 445              		.loc 1 368 0
 446 00ea 0020     		movs	r0, #0
 447              	.LVL74:
 371:..\u8g2-master\csrc/u8x8_d_st7567.c **** }
 448              		.loc 1 371 0
 449 00ec BDE8F081 		pop	{r4, r5, r6, r7, r8, pc}
 450              	.LVL75:
 451              	.L29:
 314:..\u8g2-master\csrc/u8x8_d_st7567.c ****       break;
 452              		.loc 1 314 0
 453 00f0 0B49     		ldr	r1, .L36+16
 454 00f2 FFF7FEFF 		bl	u8x8_cad_SendSequence
 455              	.LVL76:
 370:..\u8g2-master\csrc/u8x8_d_st7567.c **** }
 456              		.loc 1 370 0
 457 00f6 0120     		movs	r0, #1
 458 00f8 BDE8F081 		pop	{r4, r5, r6, r7, r8, pc}
 459              	.LVL77:
 460              	.L30:
 324:..\u8g2-master\csrc/u8x8_d_st7567.c **** 	u8x8->x_offset = u8x8->display_info->flipmode_x_offset;
 461              		.loc 1 324 0
 462 00fc 0949     		ldr	r1, .L36+20
 463 00fe FFF7FEFF 		bl	u8x8_cad_SendSequence
 464              	.LVL78:
 325:..\u8g2-master\csrc/u8x8_d_st7567.c ****       }	
 465              		.loc 1 325 0
 466 0102 2B68     		ldr	r3, [r5]
 370:..\u8g2-master\csrc/u8x8_d_st7567.c **** }
 467              		.loc 1 370 0
 468 0104 0120     		movs	r0, #1
 325:..\u8g2-master\csrc/u8x8_d_st7567.c ****       }	
 469              		.loc 1 325 0
 470 0106 DB7C     		ldrb	r3, [r3, #19]	@ zero_extendqisi2
 471 0108 85F82230 		strb	r3, [r5, #34]
 472 010c BDE8F081 		pop	{r4, r5, r6, r7, r8, pc}
 473              	.LVL79:
 474              	.L37:
 475              		.align	2
 476              	.L36:
 477 0110 60000000 		.word	.LANCHOR0+96
 478 0114 78000000 		.word	.LANCHOR0+120
 479 0118 40000000 		.word	.LANCHOR0+64
 480 011c 50000000 		.word	.LANCHOR0+80
 481 0120 48000000 		.word	.LANCHOR0+72
 482 0124 58000000 		.word	.LANCHOR0+88
 483              		.cfi_endproc
ARM GAS  C:\Users\info\AppData\Local\Temp\ccFPPEVm.s 			page 17


 484              	.LFE1:
 485              		.size	u8x8_d_st7567_jlx12864, .-u8x8_d_st7567_jlx12864
 486              		.section	.text.u8x8_d_st7567_enh_dg128064,"ax",%progbits
 487              		.align	2
 488              		.global	u8x8_d_st7567_enh_dg128064
 489              		.thumb
 490              		.thumb_func
 491              		.type	u8x8_d_st7567_enh_dg128064, %function
 492              	u8x8_d_st7567_enh_dg128064:
 493              	.LFB3:
 372:..\u8g2-master\csrc/u8x8_d_st7567.c **** 
 373:..\u8g2-master\csrc/u8x8_d_st7567.c **** 
 374:..\u8g2-master\csrc/u8x8_d_st7567.c **** /*=====================================================*/
 375:..\u8g2-master\csrc/u8x8_d_st7567.c **** 
 376:..\u8g2-master\csrc/u8x8_d_st7567.c **** 
 377:..\u8g2-master\csrc/u8x8_d_st7567.c **** 
 378:..\u8g2-master\csrc/u8x8_d_st7567.c **** static const u8x8_display_info_t u8x8_st7567_enh_dg128064_display_info =
 379:..\u8g2-master\csrc/u8x8_d_st7567.c **** {
 380:..\u8g2-master\csrc/u8x8_d_st7567.c ****   /* chip_enable_level = */ 0,
 381:..\u8g2-master\csrc/u8x8_d_st7567.c ****   /* chip_disable_level = */ 1,
 382:..\u8g2-master\csrc/u8x8_d_st7567.c ****   
 383:..\u8g2-master\csrc/u8x8_d_st7567.c ****   /* post_chip_enable_wait_ns = */ 150,	/* */
 384:..\u8g2-master\csrc/u8x8_d_st7567.c ****   /* pre_chip_disable_wait_ns = */ 50,	/* */
 385:..\u8g2-master\csrc/u8x8_d_st7567.c ****   /* reset_pulse_width_ms = */ 1, 
 386:..\u8g2-master\csrc/u8x8_d_st7567.c ****   /* post_reset_wait_ms = */ 1, 
 387:..\u8g2-master\csrc/u8x8_d_st7567.c ****   /* sda_setup_time_ns = */ 50,		/* */
 388:..\u8g2-master\csrc/u8x8_d_st7567.c ****   /* sck_pulse_width_ns = */ 120,	/* */
 389:..\u8g2-master\csrc/u8x8_d_st7567.c ****   /* sck_clock_hz = */ 4000000UL,	/* */
 390:..\u8g2-master\csrc/u8x8_d_st7567.c ****   /* spi_mode = */ 0,		/* active high, rising edge */
 391:..\u8g2-master\csrc/u8x8_d_st7567.c ****   /* i2c_bus_clock_100kHz = */ 4,
 392:..\u8g2-master\csrc/u8x8_d_st7567.c ****   /* data_setup_time_ns = */ 40,	/* */
 393:..\u8g2-master\csrc/u8x8_d_st7567.c ****   /* write_pulse_width_ns = */ 80,	/* */
 394:..\u8g2-master\csrc/u8x8_d_st7567.c ****   /* tile_width = */ 16,		/* width of 16*8=128 pixel */
 395:..\u8g2-master\csrc/u8x8_d_st7567.c ****   /* tile_hight = */ 8,
 396:..\u8g2-master\csrc/u8x8_d_st7567.c ****   /* default_x_offset = */ 0,
 397:..\u8g2-master\csrc/u8x8_d_st7567.c ****   /* flipmode_x_offset = */ 4,
 398:..\u8g2-master\csrc/u8x8_d_st7567.c ****   /* pixel_width = */ 128,
 399:..\u8g2-master\csrc/u8x8_d_st7567.c ****   /* pixel_height = */ 64
 400:..\u8g2-master\csrc/u8x8_d_st7567.c **** };
 401:..\u8g2-master\csrc/u8x8_d_st7567.c **** 
 402:..\u8g2-master\csrc/u8x8_d_st7567.c **** static const u8x8_display_info_t u8x8_st7567_enh_dg128064i_display_info =
 403:..\u8g2-master\csrc/u8x8_d_st7567.c **** {
 404:..\u8g2-master\csrc/u8x8_d_st7567.c ****   /* chip_enable_level = */ 0,
 405:..\u8g2-master\csrc/u8x8_d_st7567.c ****   /* chip_disable_level = */ 1,
 406:..\u8g2-master\csrc/u8x8_d_st7567.c ****   
 407:..\u8g2-master\csrc/u8x8_d_st7567.c ****   /* post_chip_enable_wait_ns = */ 150,	/* */
 408:..\u8g2-master\csrc/u8x8_d_st7567.c ****   /* pre_chip_disable_wait_ns = */ 50,	/* */
 409:..\u8g2-master\csrc/u8x8_d_st7567.c ****   /* reset_pulse_width_ms = */ 1, 
 410:..\u8g2-master\csrc/u8x8_d_st7567.c ****   /* post_reset_wait_ms = */ 1, 
 411:..\u8g2-master\csrc/u8x8_d_st7567.c ****   /* sda_setup_time_ns = */ 50,		/* */
 412:..\u8g2-master\csrc/u8x8_d_st7567.c ****   /* sck_pulse_width_ns = */ 120,	/* */
 413:..\u8g2-master\csrc/u8x8_d_st7567.c ****   /* sck_clock_hz = */ 4000000UL,	/* */
 414:..\u8g2-master\csrc/u8x8_d_st7567.c ****   /* spi_mode = */ 0,		/* active high, rising edge */
 415:..\u8g2-master\csrc/u8x8_d_st7567.c ****   /* i2c_bus_clock_100kHz = */ 4,
 416:..\u8g2-master\csrc/u8x8_d_st7567.c ****   /* data_setup_time_ns = */ 40,	/* */
 417:..\u8g2-master\csrc/u8x8_d_st7567.c ****   /* write_pulse_width_ns = */ 80,	/* */
 418:..\u8g2-master\csrc/u8x8_d_st7567.c ****   /* tile_width = */ 16,		/* width of 16*8=128 pixel */
ARM GAS  C:\Users\info\AppData\Local\Temp\ccFPPEVm.s 			page 18


 419:..\u8g2-master\csrc/u8x8_d_st7567.c ****   /* tile_hight = */ 8,
 420:..\u8g2-master\csrc/u8x8_d_st7567.c ****   /* default_x_offset = */ 4,
 421:..\u8g2-master\csrc/u8x8_d_st7567.c ****   /* flipmode_x_offset = */ 0,
 422:..\u8g2-master\csrc/u8x8_d_st7567.c ****   /* pixel_width = */ 128,
 423:..\u8g2-master\csrc/u8x8_d_st7567.c ****   /* pixel_height = */ 64
 424:..\u8g2-master\csrc/u8x8_d_st7567.c **** };
 425:..\u8g2-master\csrc/u8x8_d_st7567.c **** 
 426:..\u8g2-master\csrc/u8x8_d_st7567.c **** static const uint8_t u8x8_st7567_enh_dg128064_init_seq[] = {
 427:..\u8g2-master\csrc/u8x8_d_st7567.c ****     
 428:..\u8g2-master\csrc/u8x8_d_st7567.c ****   U8X8_START_TRANSFER(),             	/* enable chip, delay is part of the transfer start */
 429:..\u8g2-master\csrc/u8x8_d_st7567.c ****   
 430:..\u8g2-master\csrc/u8x8_d_st7567.c ****   U8X8_C(0x0e2),            			/* soft reset */
 431:..\u8g2-master\csrc/u8x8_d_st7567.c ****   U8X8_C(0x0ae),		                /* display off */
 432:..\u8g2-master\csrc/u8x8_d_st7567.c ****   U8X8_C(0x040),		                /* set display start line to 0 */
 433:..\u8g2-master\csrc/u8x8_d_st7567.c ****   
 434:..\u8g2-master\csrc/u8x8_d_st7567.c ****   U8X8_C(0x0a1),		                /* ADC set to reverse */
 435:..\u8g2-master\csrc/u8x8_d_st7567.c ****   U8X8_C(0x0c0),		                /* common output mode */
 436:..\u8g2-master\csrc/u8x8_d_st7567.c ****   // Flipmode
 437:..\u8g2-master\csrc/u8x8_d_st7567.c ****   //U8X8_C(0x0a0),		                /* ADC set to reverse */
 438:..\u8g2-master\csrc/u8x8_d_st7567.c ****   //U8X8_C(0x0c8),		                /* common output mode */
 439:..\u8g2-master\csrc/u8x8_d_st7567.c ****   
 440:..\u8g2-master\csrc/u8x8_d_st7567.c ****   U8X8_C(0x0a6),		                /* display normal, bit val 0: LCD pixel off. */
 441:..\u8g2-master\csrc/u8x8_d_st7567.c ****   U8X8_C(0x0a2),		                /* LCD bias 1/9 */
 442:..\u8g2-master\csrc/u8x8_d_st7567.c ****   /* power on sequence from paxinstruments */
 443:..\u8g2-master\csrc/u8x8_d_st7567.c ****   U8X8_C(0x028|4),		                /* all power  control circuits on */
 444:..\u8g2-master\csrc/u8x8_d_st7567.c ****   U8X8_DLY(50),
 445:..\u8g2-master\csrc/u8x8_d_st7567.c ****   U8X8_C(0x028|6),		                /* all power  control circuits on */
 446:..\u8g2-master\csrc/u8x8_d_st7567.c ****   U8X8_DLY(50),
 447:..\u8g2-master\csrc/u8x8_d_st7567.c ****   U8X8_C(0x028|7),		                /* all power  control circuits on */
 448:..\u8g2-master\csrc/u8x8_d_st7567.c ****   U8X8_DLY(50),
 449:..\u8g2-master\csrc/u8x8_d_st7567.c ****   
 450:..\u8g2-master\csrc/u8x8_d_st7567.c ****   U8X8_C(0x023),		                /* v0 voltage resistor ratio */
 451:..\u8g2-master\csrc/u8x8_d_st7567.c ****   U8X8_CA(0x081, 200>>2),		/* set contrast, contrast value*/
 452:..\u8g2-master\csrc/u8x8_d_st7567.c ****   
 453:..\u8g2-master\csrc/u8x8_d_st7567.c ****   U8X8_C(0x0ae),		                /* display off */
 454:..\u8g2-master\csrc/u8x8_d_st7567.c ****   U8X8_C(0x0a5),		                /* enter powersafe: all pixel on, issue 142 */
 455:..\u8g2-master\csrc/u8x8_d_st7567.c ****    
 456:..\u8g2-master\csrc/u8x8_d_st7567.c ****   U8X8_END_TRANSFER(),             	/* disable chip */
 457:..\u8g2-master\csrc/u8x8_d_st7567.c ****   U8X8_END()             			/* end of sequence */
 458:..\u8g2-master\csrc/u8x8_d_st7567.c **** };
 459:..\u8g2-master\csrc/u8x8_d_st7567.c **** 
 460:..\u8g2-master\csrc/u8x8_d_st7567.c **** /* ENH-DG128064 transparent display */
 461:..\u8g2-master\csrc/u8x8_d_st7567.c **** static uint8_t u8x8_d_st7567_enh_dg128064_generic(u8x8_t *u8x8, uint8_t msg, uint8_t arg_int, void 
 462:..\u8g2-master\csrc/u8x8_d_st7567.c **** {
 463:..\u8g2-master\csrc/u8x8_d_st7567.c ****   uint8_t x, c;
 464:..\u8g2-master\csrc/u8x8_d_st7567.c ****   uint8_t *ptr;
 465:..\u8g2-master\csrc/u8x8_d_st7567.c ****   switch(msg)
 466:..\u8g2-master\csrc/u8x8_d_st7567.c ****   {
 467:..\u8g2-master\csrc/u8x8_d_st7567.c ****     case U8X8_MSG_DISPLAY_SETUP_MEMORY:
 468:..\u8g2-master\csrc/u8x8_d_st7567.c ****       u8x8_d_helper_display_setup_memory(u8x8, &u8x8_st7567_enh_dg128064_display_info);
 469:..\u8g2-master\csrc/u8x8_d_st7567.c ****       break;
 470:..\u8g2-master\csrc/u8x8_d_st7567.c ****     case U8X8_MSG_DISPLAY_INIT:
 471:..\u8g2-master\csrc/u8x8_d_st7567.c ****       u8x8_d_helper_display_init(u8x8);
 472:..\u8g2-master\csrc/u8x8_d_st7567.c ****       u8x8_cad_SendSequence(u8x8, u8x8_st7567_enh_dg128064_init_seq);
 473:..\u8g2-master\csrc/u8x8_d_st7567.c ****       break;
 474:..\u8g2-master\csrc/u8x8_d_st7567.c ****     case U8X8_MSG_DISPLAY_SET_POWER_SAVE:
 475:..\u8g2-master\csrc/u8x8_d_st7567.c ****       if ( arg_int == 0 )
ARM GAS  C:\Users\info\AppData\Local\Temp\ccFPPEVm.s 			page 19


 476:..\u8g2-master\csrc/u8x8_d_st7567.c **** 	u8x8_cad_SendSequence(u8x8, u8x8_d_st7567_132x64_powersave0_seq);
 477:..\u8g2-master\csrc/u8x8_d_st7567.c ****       else
 478:..\u8g2-master\csrc/u8x8_d_st7567.c **** 	u8x8_cad_SendSequence(u8x8, u8x8_d_st7567_132x64_powersave1_seq);
 479:..\u8g2-master\csrc/u8x8_d_st7567.c ****       break;
 480:..\u8g2-master\csrc/u8x8_d_st7567.c **** #ifdef U8X8_WITH_SET_CONTRAST
 481:..\u8g2-master\csrc/u8x8_d_st7567.c ****     case U8X8_MSG_DISPLAY_SET_CONTRAST:
 482:..\u8g2-master\csrc/u8x8_d_st7567.c ****       u8x8_cad_StartTransfer(u8x8);
 483:..\u8g2-master\csrc/u8x8_d_st7567.c ****       u8x8_cad_SendCmd(u8x8, 0x081 );
 484:..\u8g2-master\csrc/u8x8_d_st7567.c ****       u8x8_cad_SendArg(u8x8, arg_int >> 2 );	/* st7567 has range from 0 to 63 */
 485:..\u8g2-master\csrc/u8x8_d_st7567.c ****       u8x8_cad_EndTransfer(u8x8);
 486:..\u8g2-master\csrc/u8x8_d_st7567.c ****       break;
 487:..\u8g2-master\csrc/u8x8_d_st7567.c **** #endif
 488:..\u8g2-master\csrc/u8x8_d_st7567.c ****     case U8X8_MSG_DISPLAY_DRAW_TILE:
 489:..\u8g2-master\csrc/u8x8_d_st7567.c ****       u8x8_cad_StartTransfer(u8x8);
 490:..\u8g2-master\csrc/u8x8_d_st7567.c ****     
 491:..\u8g2-master\csrc/u8x8_d_st7567.c ****       x = ((u8x8_tile_t *)arg_ptr)->x_pos;
 492:..\u8g2-master\csrc/u8x8_d_st7567.c ****       x *= 8;
 493:..\u8g2-master\csrc/u8x8_d_st7567.c ****       x += u8x8->x_offset;
 494:..\u8g2-master\csrc/u8x8_d_st7567.c ****       u8x8_cad_SendCmd(u8x8, 0x010 | (x>>4) );
 495:..\u8g2-master\csrc/u8x8_d_st7567.c ****       u8x8_cad_SendCmd(u8x8, 0x000 | ((x&15)));
 496:..\u8g2-master\csrc/u8x8_d_st7567.c ****       u8x8_cad_SendCmd(u8x8, 0x0b0 | (((u8x8_tile_t *)arg_ptr)->y_pos));
 497:..\u8g2-master\csrc/u8x8_d_st7567.c ****     
 498:..\u8g2-master\csrc/u8x8_d_st7567.c ****       c = ((u8x8_tile_t *)arg_ptr)->cnt;
 499:..\u8g2-master\csrc/u8x8_d_st7567.c ****       c *= 8;
 500:..\u8g2-master\csrc/u8x8_d_st7567.c ****       ptr = ((u8x8_tile_t *)arg_ptr)->tile_ptr;
 501:..\u8g2-master\csrc/u8x8_d_st7567.c ****       /* 
 502:..\u8g2-master\csrc/u8x8_d_st7567.c **** 	The following if condition checks the hardware limits of the st7567 
 503:..\u8g2-master\csrc/u8x8_d_st7567.c **** 	controller: It is not allowed to write beyond the display limits.
 504:..\u8g2-master\csrc/u8x8_d_st7567.c **** 	This is in fact an issue within flip mode.
 505:..\u8g2-master\csrc/u8x8_d_st7567.c ****       */
 506:..\u8g2-master\csrc/u8x8_d_st7567.c ****       if ( c + x > 132u )
 507:..\u8g2-master\csrc/u8x8_d_st7567.c ****       {
 508:..\u8g2-master\csrc/u8x8_d_st7567.c **** 	c = 132u;
 509:..\u8g2-master\csrc/u8x8_d_st7567.c **** 	c -= x;
 510:..\u8g2-master\csrc/u8x8_d_st7567.c ****       }
 511:..\u8g2-master\csrc/u8x8_d_st7567.c ****       do
 512:..\u8g2-master\csrc/u8x8_d_st7567.c ****       {
 513:..\u8g2-master\csrc/u8x8_d_st7567.c **** 	u8x8_cad_SendData(u8x8, c, ptr);	/* note: SendData can not handle more than 255 bytes */
 514:..\u8g2-master\csrc/u8x8_d_st7567.c **** 	arg_int--;
 515:..\u8g2-master\csrc/u8x8_d_st7567.c ****       } while( arg_int > 0 );
 516:..\u8g2-master\csrc/u8x8_d_st7567.c ****       
 517:..\u8g2-master\csrc/u8x8_d_st7567.c ****       u8x8_cad_EndTransfer(u8x8);
 518:..\u8g2-master\csrc/u8x8_d_st7567.c ****       break;
 519:..\u8g2-master\csrc/u8x8_d_st7567.c ****     default:
 520:..\u8g2-master\csrc/u8x8_d_st7567.c ****       return 0;
 521:..\u8g2-master\csrc/u8x8_d_st7567.c ****   }
 522:..\u8g2-master\csrc/u8x8_d_st7567.c ****   return 1;
 523:..\u8g2-master\csrc/u8x8_d_st7567.c **** }
 524:..\u8g2-master\csrc/u8x8_d_st7567.c **** 
 525:..\u8g2-master\csrc/u8x8_d_st7567.c **** uint8_t u8x8_d_st7567_enh_dg128064(u8x8_t *u8x8, uint8_t msg, uint8_t arg_int, void *arg_ptr)
 526:..\u8g2-master\csrc/u8x8_d_st7567.c **** {
 494              		.loc 1 526 0
 495              		.cfi_startproc
 496              		@ args = 0, pretend = 0, frame = 8
 497              		@ frame_needed = 0, uses_anonymous_args = 0
 498              	.LVL80:
 499 0000 2DE9F041 		push	{r4, r5, r6, r7, r8, lr}
ARM GAS  C:\Users\info\AppData\Local\Temp\ccFPPEVm.s 			page 20


 500              		.cfi_def_cfa_offset 24
 501              		.cfi_offset 4, -24
 502              		.cfi_offset 5, -20
 503              		.cfi_offset 6, -16
 504              		.cfi_offset 7, -12
 505              		.cfi_offset 8, -8
 506              		.cfi_offset 14, -4
 527:..\u8g2-master\csrc/u8x8_d_st7567.c ****   switch(msg)
 507              		.loc 1 527 0
 508 0004 0929     		cmp	r1, #9
 526:..\u8g2-master\csrc/u8x8_d_st7567.c ****   switch(msg)
 509              		.loc 1 526 0
 510 0006 82B0     		sub	sp, sp, #8
 511              		.cfi_def_cfa_offset 32
 512              		.loc 1 527 0
 513 0008 18D0     		beq	.L57
 514 000a 0D29     		cmp	r1, #13
 515 000c 1446     		mov	r4, r2
 516 000e 0546     		mov	r5, r0
 517 0010 0BD1     		bne	.L58
 528:..\u8g2-master\csrc/u8x8_d_st7567.c ****   {
 529:..\u8g2-master\csrc/u8x8_d_st7567.c ****     case U8X8_MSG_DISPLAY_SETUP_MEMORY:
 530:..\u8g2-master\csrc/u8x8_d_st7567.c ****       u8x8_d_helper_display_setup_memory(u8x8, &u8x8_st7567_enh_dg128064_display_info);
 531:..\u8g2-master\csrc/u8x8_d_st7567.c ****       break;
 532:..\u8g2-master\csrc/u8x8_d_st7567.c ****     case U8X8_MSG_DISPLAY_SET_FLIP_MODE:
 533:..\u8g2-master\csrc/u8x8_d_st7567.c ****       if ( arg_int == 0 )
 518              		.loc 1 533 0
 519 0012 D2B9     		cbnz	r2, .L43
 534:..\u8g2-master\csrc/u8x8_d_st7567.c ****       {
 535:..\u8g2-master\csrc/u8x8_d_st7567.c **** 	u8x8_cad_SendSequence(u8x8, u8x8_d_st7567_n_flip0_seq);
 520              		.loc 1 535 0
 521 0014 4149     		ldr	r1, .L59
 522              	.LVL81:
 523 0016 FFF7FEFF 		bl	u8x8_cad_SendSequence
 524              	.LVL82:
 536:..\u8g2-master\csrc/u8x8_d_st7567.c **** 	u8x8->x_offset = u8x8->display_info->default_x_offset;
 525              		.loc 1 536 0
 526 001a 2B68     		ldr	r3, [r5]
 537:..\u8g2-master\csrc/u8x8_d_st7567.c ****       }
 538:..\u8g2-master\csrc/u8x8_d_st7567.c ****       else
 539:..\u8g2-master\csrc/u8x8_d_st7567.c ****       {
 540:..\u8g2-master\csrc/u8x8_d_st7567.c **** 	u8x8_cad_SendSequence(u8x8, u8x8_d_st7567_n_flip1_seq);
 541:..\u8g2-master\csrc/u8x8_d_st7567.c **** 	u8x8->x_offset = u8x8->display_info->flipmode_x_offset;
 542:..\u8g2-master\csrc/u8x8_d_st7567.c ****       }	
 543:..\u8g2-master\csrc/u8x8_d_st7567.c ****       break;
 544:..\u8g2-master\csrc/u8x8_d_st7567.c ****     default:
 545:..\u8g2-master\csrc/u8x8_d_st7567.c ****       return u8x8_d_st7567_enh_dg128064_generic(u8x8, msg, arg_int, arg_ptr);
 546:..\u8g2-master\csrc/u8x8_d_st7567.c ****   }
 547:..\u8g2-master\csrc/u8x8_d_st7567.c ****   return 1;
 527              		.loc 1 547 0
 528 001c 0120     		movs	r0, #1
 536:..\u8g2-master\csrc/u8x8_d_st7567.c **** 	u8x8->x_offset = u8x8->display_info->default_x_offset;
 529              		.loc 1 536 0
 530 001e 9B7C     		ldrb	r3, [r3, #18]	@ zero_extendqisi2
 531 0020 85F82230 		strb	r3, [r5, #34]
 548:..\u8g2-master\csrc/u8x8_d_st7567.c **** }
 532              		.loc 1 548 0
ARM GAS  C:\Users\info\AppData\Local\Temp\ccFPPEVm.s 			page 21


 533 0024 02B0     		add	sp, sp, #8
 534              		.cfi_remember_state
 535              		.cfi_def_cfa_offset 24
 536              		@ sp needed
 537 0026 BDE8F081 		pop	{r4, r5, r6, r7, r8, pc}
 538              	.LVL83:
 539              	.L58:
 540              		.cfi_restore_state
 541              	.LBB4:
 542              	.LBB5:
 465:..\u8g2-master\csrc/u8x8_d_st7567.c ****   {
 543              		.loc 1 465 0
 544 002a 0939     		subs	r1, r1, #9
 545              	.LVL84:
 546 002c 0629     		cmp	r1, #6
 547 002e 6DD8     		bhi	.L53
 548 0030 DFE801F0 		tbb	[pc, r1]
 549              	.LVL85:
 550              	.L45:
 551 0034 04       		.byte	(.L57-.L45)/2
 552 0035 5E       		.byte	(.L46-.L45)/2
 553 0036 66       		.byte	(.L47-.L45)/2
 554 0037 6C       		.byte	(.L53-.L45)/2
 555 0038 6C       		.byte	(.L53-.L45)/2
 556 0039 4F       		.byte	(.L48-.L45)/2
 557 003a 16       		.byte	(.L49-.L45)/2
 558 003b 00       		.p2align 1
 559              	.L57:
 468:..\u8g2-master\csrc/u8x8_d_st7567.c ****       break;
 560              		.loc 1 468 0
 561 003c 3849     		ldr	r1, .L59+4
 562 003e FFF7FEFF 		bl	u8x8_d_helper_display_setup_memory
 563              	.LVL86:
 522:..\u8g2-master\csrc/u8x8_d_st7567.c **** }
 564              		.loc 1 522 0
 565 0042 0120     		movs	r0, #1
 566              	.L42:
 567              	.LBE5:
 568              	.LBE4:
 569              		.loc 1 548 0
 570 0044 02B0     		add	sp, sp, #8
 571              		.cfi_remember_state
 572              		.cfi_def_cfa_offset 24
 573              		@ sp needed
 574 0046 BDE8F081 		pop	{r4, r5, r6, r7, r8, pc}
 575              	.LVL87:
 576              	.L43:
 577              		.cfi_restore_state
 540:..\u8g2-master\csrc/u8x8_d_st7567.c **** 	u8x8->x_offset = u8x8->display_info->flipmode_x_offset;
 578              		.loc 1 540 0
 579 004a 3649     		ldr	r1, .L59+8
 580              	.LVL88:
 581 004c FFF7FEFF 		bl	u8x8_cad_SendSequence
 582              	.LVL89:
 541:..\u8g2-master\csrc/u8x8_d_st7567.c ****       }	
 583              		.loc 1 541 0
 584 0050 2B68     		ldr	r3, [r5]
ARM GAS  C:\Users\info\AppData\Local\Temp\ccFPPEVm.s 			page 22


 547:..\u8g2-master\csrc/u8x8_d_st7567.c **** }
 585              		.loc 1 547 0
 586 0052 0120     		movs	r0, #1
 541:..\u8g2-master\csrc/u8x8_d_st7567.c ****       }	
 587              		.loc 1 541 0
 588 0054 DB7C     		ldrb	r3, [r3, #19]	@ zero_extendqisi2
 589 0056 85F82230 		strb	r3, [r5, #34]
 590              		.loc 1 548 0
 591 005a 02B0     		add	sp, sp, #8
 592              		.cfi_remember_state
 593              		.cfi_def_cfa_offset 24
 594              		@ sp needed
 595 005c BDE8F081 		pop	{r4, r5, r6, r7, r8, pc}
 596              	.LVL90:
 597              	.L49:
 598              		.cfi_restore_state
 599 0060 0193     		str	r3, [sp, #4]
 600              	.LBB7:
 601              	.LBB6:
 489:..\u8g2-master\csrc/u8x8_d_st7567.c ****     
 602              		.loc 1 489 0
 603 0062 FFF7FEFF 		bl	u8x8_cad_StartTransfer
 604              	.LVL91:
 491:..\u8g2-master\csrc/u8x8_d_st7567.c ****       x *= 8;
 605              		.loc 1 491 0
 606 0066 019B     		ldr	r3, [sp, #4]
 493:..\u8g2-master\csrc/u8x8_d_st7567.c ****       u8x8_cad_SendCmd(u8x8, 0x010 | (x>>4) );
 607              		.loc 1 493 0
 608 0068 95F82220 		ldrb	r2, [r5, #34]	@ zero_extendqisi2
 491:..\u8g2-master\csrc/u8x8_d_st7567.c ****       x *= 8;
 609              		.loc 1 491 0
 610 006c 93F80580 		ldrb	r8, [r3, #5]	@ zero_extendqisi2
 611              	.LVL92:
 494:..\u8g2-master\csrc/u8x8_d_st7567.c ****       u8x8_cad_SendCmd(u8x8, 0x000 | ((x&15)));
 612              		.loc 1 494 0
 613 0070 2846     		mov	r0, r5
 493:..\u8g2-master\csrc/u8x8_d_st7567.c ****       u8x8_cad_SendCmd(u8x8, 0x010 | (x>>4) );
 614              		.loc 1 493 0
 615 0072 02EBC808 		add	r8, r2, r8, lsl #3
 616              	.LVL93:
 617 0076 08F0FF08 		and	r8, r8, #255
 618              	.LVL94:
 494:..\u8g2-master\csrc/u8x8_d_st7567.c ****       u8x8_cad_SendCmd(u8x8, 0x000 | ((x&15)));
 619              		.loc 1 494 0
 620 007a 4FEA1811 		lsr	r1, r8, #4
 621 007e 41F01001 		orr	r1, r1, #16
 622 0082 FFF7FEFF 		bl	u8x8_cad_SendCmd
 623              	.LVL95:
 495:..\u8g2-master\csrc/u8x8_d_st7567.c ****       u8x8_cad_SendCmd(u8x8, 0x0b0 | (((u8x8_tile_t *)arg_ptr)->y_pos));
 624              		.loc 1 495 0
 625 0086 08F00F01 		and	r1, r8, #15
 626 008a 2846     		mov	r0, r5
 627 008c FFF7FEFF 		bl	u8x8_cad_SendCmd
 628              	.LVL96:
 496:..\u8g2-master\csrc/u8x8_d_st7567.c ****     
 629              		.loc 1 496 0
 630 0090 019B     		ldr	r3, [sp, #4]
ARM GAS  C:\Users\info\AppData\Local\Temp\ccFPPEVm.s 			page 23


 631 0092 2846     		mov	r0, r5
 632 0094 9979     		ldrb	r1, [r3, #6]	@ zero_extendqisi2
 633 0096 41F0B001 		orr	r1, r1, #176
 634 009a FFF7FEFF 		bl	u8x8_cad_SendCmd
 635              	.LVL97:
 498:..\u8g2-master\csrc/u8x8_d_st7567.c ****       c *= 8;
 636              		.loc 1 498 0
 637 009e 019B     		ldr	r3, [sp, #4]
 638 00a0 1E79     		ldrb	r6, [r3, #4]	@ zero_extendqisi2
 639              	.LVL98:
 500:..\u8g2-master\csrc/u8x8_d_st7567.c ****       /* 
 640              		.loc 1 500 0
 641 00a2 1F68     		ldr	r7, [r3]
 499:..\u8g2-master\csrc/u8x8_d_st7567.c ****       ptr = ((u8x8_tile_t *)arg_ptr)->tile_ptr;
 642              		.loc 1 499 0
 643 00a4 F600     		lsls	r6, r6, #3
 644              	.LVL99:
 645 00a6 F6B2     		uxtb	r6, r6
 646              	.LVL100:
 506:..\u8g2-master\csrc/u8x8_d_st7567.c ****       {
 647              		.loc 1 506 0
 648 00a8 06EB0803 		add	r3, r6, r8
 649 00ac 842B     		cmp	r3, #132
 650              	.LVL101:
 509:..\u8g2-master\csrc/u8x8_d_st7567.c ****       }
 651              		.loc 1 509 0
 652 00ae C4BF     		itt	gt
 653 00b0 C8F18406 		rsbgt	r6, r8, #132
 654 00b4 F6B2     		uxtbgt	r6, r6
 655              	.LVL102:
 656              	.L52:
 513:..\u8g2-master\csrc/u8x8_d_st7567.c **** 	arg_int--;
 657              		.loc 1 513 0
 658 00b6 3A46     		mov	r2, r7
 659 00b8 3146     		mov	r1, r6
 660 00ba 2846     		mov	r0, r5
 514:..\u8g2-master\csrc/u8x8_d_st7567.c ****       } while( arg_int > 0 );
 661              		.loc 1 514 0
 662 00bc 013C     		subs	r4, r4, #1
 663              	.LVL103:
 513:..\u8g2-master\csrc/u8x8_d_st7567.c **** 	arg_int--;
 664              		.loc 1 513 0
 665 00be FFF7FEFF 		bl	u8x8_cad_SendData
 666              	.LVL104:
 515:..\u8g2-master\csrc/u8x8_d_st7567.c ****       
 667              		.loc 1 515 0
 668 00c2 14F0FF04 		ands	r4, r4, #255
 669              	.LVL105:
 670 00c6 F6D1     		bne	.L52
 517:..\u8g2-master\csrc/u8x8_d_st7567.c ****       break;
 671              		.loc 1 517 0
 672 00c8 2846     		mov	r0, r5
 673 00ca FFF7FEFF 		bl	u8x8_cad_EndTransfer
 674              	.LVL106:
 522:..\u8g2-master\csrc/u8x8_d_st7567.c **** }
 675              		.loc 1 522 0
 676 00ce 0120     		movs	r0, #1
ARM GAS  C:\Users\info\AppData\Local\Temp\ccFPPEVm.s 			page 24


 677 00d0 B8E7     		b	.L42
 678              	.LVL107:
 679              	.L48:
 482:..\u8g2-master\csrc/u8x8_d_st7567.c ****       u8x8_cad_SendCmd(u8x8, 0x081 );
 680              		.loc 1 482 0
 681 00d2 FFF7FEFF 		bl	u8x8_cad_StartTransfer
 682              	.LVL108:
 483:..\u8g2-master\csrc/u8x8_d_st7567.c ****       u8x8_cad_SendArg(u8x8, arg_int >> 2 );	/* st7567 has range from 0 to 63 */
 683              		.loc 1 483 0
 684 00d6 8121     		movs	r1, #129
 685 00d8 2846     		mov	r0, r5
 686 00da FFF7FEFF 		bl	u8x8_cad_SendCmd
 687              	.LVL109:
 484:..\u8g2-master\csrc/u8x8_d_st7567.c ****       u8x8_cad_EndTransfer(u8x8);
 688              		.loc 1 484 0
 689 00de A108     		lsrs	r1, r4, #2
 690 00e0 2846     		mov	r0, r5
 691 00e2 FFF7FEFF 		bl	u8x8_cad_SendArg
 692              	.LVL110:
 485:..\u8g2-master\csrc/u8x8_d_st7567.c ****       break;
 693              		.loc 1 485 0
 694 00e6 2846     		mov	r0, r5
 695 00e8 FFF7FEFF 		bl	u8x8_cad_EndTransfer
 696              	.LVL111:
 522:..\u8g2-master\csrc/u8x8_d_st7567.c **** }
 697              		.loc 1 522 0
 698 00ec 0120     		movs	r0, #1
 699 00ee A9E7     		b	.L42
 700              	.LVL112:
 701              	.L46:
 471:..\u8g2-master\csrc/u8x8_d_st7567.c ****       u8x8_cad_SendSequence(u8x8, u8x8_st7567_enh_dg128064_init_seq);
 702              		.loc 1 471 0
 703 00f0 FFF7FEFF 		bl	u8x8_d_helper_display_init
 704              	.LVL113:
 472:..\u8g2-master\csrc/u8x8_d_st7567.c ****       break;
 705              		.loc 1 472 0
 706 00f4 2846     		mov	r0, r5
 707 00f6 0C49     		ldr	r1, .L59+12
 708 00f8 FFF7FEFF 		bl	u8x8_cad_SendSequence
 709              	.LVL114:
 522:..\u8g2-master\csrc/u8x8_d_st7567.c **** }
 710              		.loc 1 522 0
 711 00fc 0120     		movs	r0, #1
 712 00fe A1E7     		b	.L42
 713              	.LVL115:
 714              	.L47:
 475:..\u8g2-master\csrc/u8x8_d_st7567.c **** 	u8x8_cad_SendSequence(u8x8, u8x8_d_st7567_132x64_powersave0_seq);
 715              		.loc 1 475 0
 716 0100 34B9     		cbnz	r4, .L50
 476:..\u8g2-master\csrc/u8x8_d_st7567.c ****       else
 717              		.loc 1 476 0
 718 0102 0A49     		ldr	r1, .L59+16
 719 0104 FFF7FEFF 		bl	u8x8_cad_SendSequence
 720              	.LVL116:
 522:..\u8g2-master\csrc/u8x8_d_st7567.c **** }
 721              		.loc 1 522 0
 722 0108 0120     		movs	r0, #1
ARM GAS  C:\Users\info\AppData\Local\Temp\ccFPPEVm.s 			page 25


 723 010a 9BE7     		b	.L42
 724              	.LVL117:
 725              	.L53:
 520:..\u8g2-master\csrc/u8x8_d_st7567.c ****   }
 726              		.loc 1 520 0
 727 010c 0020     		movs	r0, #0
 728              	.LVL118:
 729 010e 99E7     		b	.L42
 730              	.LVL119:
 731              	.L50:
 478:..\u8g2-master\csrc/u8x8_d_st7567.c ****       break;
 732              		.loc 1 478 0
 733 0110 0749     		ldr	r1, .L59+20
 734 0112 FFF7FEFF 		bl	u8x8_cad_SendSequence
 735              	.LVL120:
 522:..\u8g2-master\csrc/u8x8_d_st7567.c **** }
 736              		.loc 1 522 0
 737 0116 0120     		movs	r0, #1
 738 0118 94E7     		b	.L42
 739              	.L60:
 740 011a 00BF     		.align	2
 741              	.L59:
 742 011c B8000000 		.word	.LANCHOR0+184
 743 0120 A0000000 		.word	.LANCHOR0+160
 744 0124 C0000000 		.word	.LANCHOR0+192
 745 0128 C8000000 		.word	.LANCHOR0+200
 746 012c 40000000 		.word	.LANCHOR0+64
 747 0130 48000000 		.word	.LANCHOR0+72
 748              	.LBE6:
 749              	.LBE7:
 750              		.cfi_endproc
 751              	.LFE3:
 752              		.size	u8x8_d_st7567_enh_dg128064, .-u8x8_d_st7567_enh_dg128064
 753              		.section	.text.u8x8_d_st7567_enh_dg128064i,"ax",%progbits
 754              		.align	2
 755              		.global	u8x8_d_st7567_enh_dg128064i
 756              		.thumb
 757              		.thumb_func
 758              		.type	u8x8_d_st7567_enh_dg128064i, %function
 759              	u8x8_d_st7567_enh_dg128064i:
 760              	.LFB4:
 549:..\u8g2-master\csrc/u8x8_d_st7567.c **** 
 550:..\u8g2-master\csrc/u8x8_d_st7567.c **** uint8_t u8x8_d_st7567_enh_dg128064i(u8x8_t *u8x8, uint8_t msg, uint8_t arg_int, void *arg_ptr)
 551:..\u8g2-master\csrc/u8x8_d_st7567.c **** {
 761              		.loc 1 551 0
 762              		.cfi_startproc
 763              		@ args = 0, pretend = 0, frame = 8
 764              		@ frame_needed = 0, uses_anonymous_args = 0
 765              	.LVL121:
 766 0000 2DE9F041 		push	{r4, r5, r6, r7, r8, lr}
 767              		.cfi_def_cfa_offset 24
 768              		.cfi_offset 4, -24
 769              		.cfi_offset 5, -20
 770              		.cfi_offset 6, -16
 771              		.cfi_offset 7, -12
 772              		.cfi_offset 8, -8
 773              		.cfi_offset 14, -4
ARM GAS  C:\Users\info\AppData\Local\Temp\ccFPPEVm.s 			page 26


 552:..\u8g2-master\csrc/u8x8_d_st7567.c ****   switch(msg)
 774              		.loc 1 552 0
 775 0004 0929     		cmp	r1, #9
 551:..\u8g2-master\csrc/u8x8_d_st7567.c ****   switch(msg)
 776              		.loc 1 551 0
 777 0006 82B0     		sub	sp, sp, #8
 778              		.cfi_def_cfa_offset 32
 779              		.loc 1 552 0
 780 0008 18D0     		beq	.L63
 781 000a 0D29     		cmp	r1, #13
 782 000c 1446     		mov	r4, r2
 783 000e 0546     		mov	r5, r0
 784 0010 0BD1     		bne	.L81
 553:..\u8g2-master\csrc/u8x8_d_st7567.c ****   {
 554:..\u8g2-master\csrc/u8x8_d_st7567.c ****     case U8X8_MSG_DISPLAY_SETUP_MEMORY:
 555:..\u8g2-master\csrc/u8x8_d_st7567.c ****       u8x8_d_helper_display_setup_memory(u8x8, &u8x8_st7567_enh_dg128064i_display_info);
 556:..\u8g2-master\csrc/u8x8_d_st7567.c ****       break;
 557:..\u8g2-master\csrc/u8x8_d_st7567.c ****     case U8X8_MSG_DISPLAY_SET_FLIP_MODE:
 558:..\u8g2-master\csrc/u8x8_d_st7567.c ****       if ( arg_int == 0 )
 785              		.loc 1 558 0
 786 0012 D2B9     		cbnz	r2, .L66
 559:..\u8g2-master\csrc/u8x8_d_st7567.c ****       {
 560:..\u8g2-master\csrc/u8x8_d_st7567.c **** 	u8x8_cad_SendSequence(u8x8, u8x8_d_st7567_132x64_flip0_seq);
 787              		.loc 1 560 0
 788 0014 4349     		ldr	r1, .L82
 789              	.LVL122:
 790 0016 FFF7FEFF 		bl	u8x8_cad_SendSequence
 791              	.LVL123:
 561:..\u8g2-master\csrc/u8x8_d_st7567.c **** 	u8x8->x_offset = u8x8->display_info->default_x_offset;
 792              		.loc 1 561 0
 793 001a 2B68     		ldr	r3, [r5]
 562:..\u8g2-master\csrc/u8x8_d_st7567.c ****       }
 563:..\u8g2-master\csrc/u8x8_d_st7567.c ****       else
 564:..\u8g2-master\csrc/u8x8_d_st7567.c ****       {
 565:..\u8g2-master\csrc/u8x8_d_st7567.c **** 	u8x8_cad_SendSequence(u8x8, u8x8_d_st7567_132x64_flip1_seq);
 566:..\u8g2-master\csrc/u8x8_d_st7567.c **** 	u8x8->x_offset = u8x8->display_info->flipmode_x_offset;
 567:..\u8g2-master\csrc/u8x8_d_st7567.c ****       }	
 568:..\u8g2-master\csrc/u8x8_d_st7567.c ****       break;
 569:..\u8g2-master\csrc/u8x8_d_st7567.c ****     default:
 570:..\u8g2-master\csrc/u8x8_d_st7567.c ****       return u8x8_d_st7567_enh_dg128064_generic(u8x8, msg, arg_int, arg_ptr);
 571:..\u8g2-master\csrc/u8x8_d_st7567.c ****   }
 572:..\u8g2-master\csrc/u8x8_d_st7567.c ****   return 1;
 794              		.loc 1 572 0
 795 001c 0120     		movs	r0, #1
 561:..\u8g2-master\csrc/u8x8_d_st7567.c **** 	u8x8->x_offset = u8x8->display_info->default_x_offset;
 796              		.loc 1 561 0
 797 001e 9B7C     		ldrb	r3, [r3, #18]	@ zero_extendqisi2
 798 0020 85F82230 		strb	r3, [r5, #34]
 573:..\u8g2-master\csrc/u8x8_d_st7567.c **** }
 799              		.loc 1 573 0
 800 0024 02B0     		add	sp, sp, #8
 801              		.cfi_remember_state
 802              		.cfi_def_cfa_offset 24
 803              		@ sp needed
 804 0026 BDE8F081 		pop	{r4, r5, r6, r7, r8, pc}
 805              	.LVL124:
 806              	.L81:
ARM GAS  C:\Users\info\AppData\Local\Temp\ccFPPEVm.s 			page 27


 807              		.cfi_restore_state
 808              	.LBB10:
 809              	.LBB11:
 465:..\u8g2-master\csrc/u8x8_d_st7567.c ****   {
 810              		.loc 1 465 0
 811 002a 0939     		subs	r1, r1, #9
 812              	.LVL125:
 813 002c 0629     		cmp	r1, #6
 814 002e 72D8     		bhi	.L76
 815 0030 DFE801F0 		tbb	[pc, r1]
 816              	.LVL126:
 817              	.L68:
 818 0034 6C       		.byte	(.L67-.L68)/2
 819 0035 64       		.byte	(.L69-.L68)/2
 820 0036 5E       		.byte	(.L70-.L68)/2
 821 0037 71       		.byte	(.L76-.L68)/2
 822 0038 71       		.byte	(.L76-.L68)/2
 823 0039 4F       		.byte	(.L71-.L68)/2
 824 003a 16       		.byte	(.L72-.L68)/2
 825 003b 00       		.p2align 1
 826              	.L63:
 827              	.LBE11:
 828              	.LBE10:
 555:..\u8g2-master\csrc/u8x8_d_st7567.c ****       break;
 829              		.loc 1 555 0
 830 003c 3A49     		ldr	r1, .L82+4
 831              	.LVL127:
 832 003e FFF7FEFF 		bl	u8x8_d_helper_display_setup_memory
 833              	.LVL128:
 572:..\u8g2-master\csrc/u8x8_d_st7567.c **** }
 834              		.loc 1 572 0
 835 0042 0120     		movs	r0, #1
 836              	.L65:
 837              		.loc 1 573 0
 838 0044 02B0     		add	sp, sp, #8
 839              		.cfi_remember_state
 840              		.cfi_def_cfa_offset 24
 841              		@ sp needed
 842 0046 BDE8F081 		pop	{r4, r5, r6, r7, r8, pc}
 843              	.LVL129:
 844              	.L66:
 845              		.cfi_restore_state
 565:..\u8g2-master\csrc/u8x8_d_st7567.c **** 	u8x8->x_offset = u8x8->display_info->flipmode_x_offset;
 846              		.loc 1 565 0
 847 004a 3849     		ldr	r1, .L82+8
 848              	.LVL130:
 849 004c FFF7FEFF 		bl	u8x8_cad_SendSequence
 850              	.LVL131:
 566:..\u8g2-master\csrc/u8x8_d_st7567.c ****       }	
 851              		.loc 1 566 0
 852 0050 2B68     		ldr	r3, [r5]
 572:..\u8g2-master\csrc/u8x8_d_st7567.c **** }
 853              		.loc 1 572 0
 854 0052 0120     		movs	r0, #1
 566:..\u8g2-master\csrc/u8x8_d_st7567.c ****       }	
 855              		.loc 1 566 0
 856 0054 DB7C     		ldrb	r3, [r3, #19]	@ zero_extendqisi2
ARM GAS  C:\Users\info\AppData\Local\Temp\ccFPPEVm.s 			page 28


 857 0056 85F82230 		strb	r3, [r5, #34]
 858              		.loc 1 573 0
 859 005a 02B0     		add	sp, sp, #8
 860              		.cfi_remember_state
 861              		.cfi_def_cfa_offset 24
 862              		@ sp needed
 863 005c BDE8F081 		pop	{r4, r5, r6, r7, r8, pc}
 864              	.LVL132:
 865              	.L72:
 866              		.cfi_restore_state
 867 0060 0193     		str	r3, [sp, #4]
 868              	.LBB13:
 869              	.LBB12:
 489:..\u8g2-master\csrc/u8x8_d_st7567.c ****     
 870              		.loc 1 489 0
 871 0062 FFF7FEFF 		bl	u8x8_cad_StartTransfer
 872              	.LVL133:
 491:..\u8g2-master\csrc/u8x8_d_st7567.c ****       x *= 8;
 873              		.loc 1 491 0
 874 0066 019B     		ldr	r3, [sp, #4]
 493:..\u8g2-master\csrc/u8x8_d_st7567.c ****       u8x8_cad_SendCmd(u8x8, 0x010 | (x>>4) );
 875              		.loc 1 493 0
 876 0068 95F82220 		ldrb	r2, [r5, #34]	@ zero_extendqisi2
 491:..\u8g2-master\csrc/u8x8_d_st7567.c ****       x *= 8;
 877              		.loc 1 491 0
 878 006c 93F80580 		ldrb	r8, [r3, #5]	@ zero_extendqisi2
 879              	.LVL134:
 494:..\u8g2-master\csrc/u8x8_d_st7567.c ****       u8x8_cad_SendCmd(u8x8, 0x000 | ((x&15)));
 880              		.loc 1 494 0
 881 0070 2846     		mov	r0, r5
 493:..\u8g2-master\csrc/u8x8_d_st7567.c ****       u8x8_cad_SendCmd(u8x8, 0x010 | (x>>4) );
 882              		.loc 1 493 0
 883 0072 02EBC808 		add	r8, r2, r8, lsl #3
 884              	.LVL135:
 885 0076 08F0FF08 		and	r8, r8, #255
 886              	.LVL136:
 494:..\u8g2-master\csrc/u8x8_d_st7567.c ****       u8x8_cad_SendCmd(u8x8, 0x000 | ((x&15)));
 887              		.loc 1 494 0
 888 007a 4FEA1811 		lsr	r1, r8, #4
 889 007e 41F01001 		orr	r1, r1, #16
 890 0082 FFF7FEFF 		bl	u8x8_cad_SendCmd
 891              	.LVL137:
 495:..\u8g2-master\csrc/u8x8_d_st7567.c ****       u8x8_cad_SendCmd(u8x8, 0x0b0 | (((u8x8_tile_t *)arg_ptr)->y_pos));
 892              		.loc 1 495 0
 893 0086 08F00F01 		and	r1, r8, #15
 894 008a 2846     		mov	r0, r5
 895 008c FFF7FEFF 		bl	u8x8_cad_SendCmd
 896              	.LVL138:
 496:..\u8g2-master\csrc/u8x8_d_st7567.c ****     
 897              		.loc 1 496 0
 898 0090 019B     		ldr	r3, [sp, #4]
 899 0092 2846     		mov	r0, r5
 900 0094 9979     		ldrb	r1, [r3, #6]	@ zero_extendqisi2
 901 0096 41F0B001 		orr	r1, r1, #176
 902 009a FFF7FEFF 		bl	u8x8_cad_SendCmd
 903              	.LVL139:
 498:..\u8g2-master\csrc/u8x8_d_st7567.c ****       c *= 8;
ARM GAS  C:\Users\info\AppData\Local\Temp\ccFPPEVm.s 			page 29


 904              		.loc 1 498 0
 905 009e 019B     		ldr	r3, [sp, #4]
 906 00a0 1E79     		ldrb	r6, [r3, #4]	@ zero_extendqisi2
 907              	.LVL140:
 500:..\u8g2-master\csrc/u8x8_d_st7567.c ****       /* 
 908              		.loc 1 500 0
 909 00a2 1F68     		ldr	r7, [r3]
 499:..\u8g2-master\csrc/u8x8_d_st7567.c ****       ptr = ((u8x8_tile_t *)arg_ptr)->tile_ptr;
 910              		.loc 1 499 0
 911 00a4 F600     		lsls	r6, r6, #3
 912              	.LVL141:
 913 00a6 F6B2     		uxtb	r6, r6
 914              	.LVL142:
 506:..\u8g2-master\csrc/u8x8_d_st7567.c ****       {
 915              		.loc 1 506 0
 916 00a8 06EB0803 		add	r3, r6, r8
 917 00ac 842B     		cmp	r3, #132
 918              	.LVL143:
 509:..\u8g2-master\csrc/u8x8_d_st7567.c ****       }
 919              		.loc 1 509 0
 920 00ae C4BF     		itt	gt
 921 00b0 C8F18406 		rsbgt	r6, r8, #132
 922 00b4 F6B2     		uxtbgt	r6, r6
 923              	.LVL144:
 924              	.L75:
 513:..\u8g2-master\csrc/u8x8_d_st7567.c **** 	arg_int--;
 925              		.loc 1 513 0
 926 00b6 3A46     		mov	r2, r7
 927 00b8 3146     		mov	r1, r6
 928 00ba 2846     		mov	r0, r5
 514:..\u8g2-master\csrc/u8x8_d_st7567.c ****       } while( arg_int > 0 );
 929              		.loc 1 514 0
 930 00bc 013C     		subs	r4, r4, #1
 931              	.LVL145:
 513:..\u8g2-master\csrc/u8x8_d_st7567.c **** 	arg_int--;
 932              		.loc 1 513 0
 933 00be FFF7FEFF 		bl	u8x8_cad_SendData
 934              	.LVL146:
 515:..\u8g2-master\csrc/u8x8_d_st7567.c ****       
 935              		.loc 1 515 0
 936 00c2 14F0FF04 		ands	r4, r4, #255
 937              	.LVL147:
 938 00c6 F6D1     		bne	.L75
 517:..\u8g2-master\csrc/u8x8_d_st7567.c ****       break;
 939              		.loc 1 517 0
 940 00c8 2846     		mov	r0, r5
 941 00ca FFF7FEFF 		bl	u8x8_cad_EndTransfer
 942              	.LVL148:
 522:..\u8g2-master\csrc/u8x8_d_st7567.c **** }
 943              		.loc 1 522 0
 944 00ce 0120     		movs	r0, #1
 945 00d0 B8E7     		b	.L65
 946              	.LVL149:
 947              	.L71:
 482:..\u8g2-master\csrc/u8x8_d_st7567.c ****       u8x8_cad_SendCmd(u8x8, 0x081 );
 948              		.loc 1 482 0
 949 00d2 FFF7FEFF 		bl	u8x8_cad_StartTransfer
ARM GAS  C:\Users\info\AppData\Local\Temp\ccFPPEVm.s 			page 30


 950              	.LVL150:
 483:..\u8g2-master\csrc/u8x8_d_st7567.c ****       u8x8_cad_SendArg(u8x8, arg_int >> 2 );	/* st7567 has range from 0 to 63 */
 951              		.loc 1 483 0
 952 00d6 8121     		movs	r1, #129
 953 00d8 2846     		mov	r0, r5
 954 00da FFF7FEFF 		bl	u8x8_cad_SendCmd
 955              	.LVL151:
 484:..\u8g2-master\csrc/u8x8_d_st7567.c ****       u8x8_cad_EndTransfer(u8x8);
 956              		.loc 1 484 0
 957 00de A108     		lsrs	r1, r4, #2
 958 00e0 2846     		mov	r0, r5
 959 00e2 FFF7FEFF 		bl	u8x8_cad_SendArg
 960              	.LVL152:
 485:..\u8g2-master\csrc/u8x8_d_st7567.c ****       break;
 961              		.loc 1 485 0
 962 00e6 2846     		mov	r0, r5
 963 00e8 FFF7FEFF 		bl	u8x8_cad_EndTransfer
 964              	.LVL153:
 522:..\u8g2-master\csrc/u8x8_d_st7567.c **** }
 965              		.loc 1 522 0
 966 00ec 0120     		movs	r0, #1
 967 00ee A9E7     		b	.L65
 968              	.LVL154:
 969              	.L70:
 475:..\u8g2-master\csrc/u8x8_d_st7567.c **** 	u8x8_cad_SendSequence(u8x8, u8x8_d_st7567_132x64_powersave0_seq);
 970              		.loc 1 475 0
 971 00f0 9CB9     		cbnz	r4, .L73
 476:..\u8g2-master\csrc/u8x8_d_st7567.c ****       else
 972              		.loc 1 476 0
 973 00f2 0F49     		ldr	r1, .L82+12
 974 00f4 FFF7FEFF 		bl	u8x8_cad_SendSequence
 975              	.LVL155:
 522:..\u8g2-master\csrc/u8x8_d_st7567.c **** }
 976              		.loc 1 522 0
 977 00f8 0120     		movs	r0, #1
 978 00fa A3E7     		b	.L65
 979              	.LVL156:
 980              	.L69:
 471:..\u8g2-master\csrc/u8x8_d_st7567.c ****       u8x8_cad_SendSequence(u8x8, u8x8_st7567_enh_dg128064_init_seq);
 981              		.loc 1 471 0
 982 00fc FFF7FEFF 		bl	u8x8_d_helper_display_init
 983              	.LVL157:
 472:..\u8g2-master\csrc/u8x8_d_st7567.c ****       break;
 984              		.loc 1 472 0
 985 0100 2846     		mov	r0, r5
 986 0102 0C49     		ldr	r1, .L82+16
 987 0104 FFF7FEFF 		bl	u8x8_cad_SendSequence
 988              	.LVL158:
 522:..\u8g2-master\csrc/u8x8_d_st7567.c **** }
 989              		.loc 1 522 0
 990 0108 0120     		movs	r0, #1
 991 010a 9BE7     		b	.L65
 992              	.LVL159:
 993              	.L67:
 468:..\u8g2-master\csrc/u8x8_d_st7567.c ****       break;
 994              		.loc 1 468 0
 995 010c 0A49     		ldr	r1, .L82+20
ARM GAS  C:\Users\info\AppData\Local\Temp\ccFPPEVm.s 			page 31


 996 010e FFF7FEFF 		bl	u8x8_d_helper_display_setup_memory
 997              	.LVL160:
 522:..\u8g2-master\csrc/u8x8_d_st7567.c **** }
 998              		.loc 1 522 0
 999 0112 0120     		movs	r0, #1
 1000 0114 96E7     		b	.L65
 1001              	.LVL161:
 1002              	.L76:
 520:..\u8g2-master\csrc/u8x8_d_st7567.c ****   }
 1003              		.loc 1 520 0
 1004 0116 0020     		movs	r0, #0
 1005              	.LVL162:
 1006 0118 94E7     		b	.L65
 1007              	.LVL163:
 1008              	.L73:
 478:..\u8g2-master\csrc/u8x8_d_st7567.c ****       break;
 1009              		.loc 1 478 0
 1010 011a 0849     		ldr	r1, .L82+24
 1011 011c FFF7FEFF 		bl	u8x8_cad_SendSequence
 1012              	.LVL164:
 522:..\u8g2-master\csrc/u8x8_d_st7567.c **** }
 1013              		.loc 1 522 0
 1014 0120 0120     		movs	r0, #1
 1015 0122 8FE7     		b	.L65
 1016              	.L83:
 1017              		.align	2
 1018              	.L82:
 1019 0124 50000000 		.word	.LANCHOR0+80
 1020 0128 F0000000 		.word	.LANCHOR0+240
 1021 012c 58000000 		.word	.LANCHOR0+88
 1022 0130 40000000 		.word	.LANCHOR0+64
 1023 0134 C8000000 		.word	.LANCHOR0+200
 1024 0138 A0000000 		.word	.LANCHOR0+160
 1025 013c 48000000 		.word	.LANCHOR0+72
 1026              	.LBE12:
 1027              	.LBE13:
 1028              		.cfi_endproc
 1029              	.LFE4:
 1030              		.size	u8x8_d_st7567_enh_dg128064i, .-u8x8_d_st7567_enh_dg128064i
 1031              		.section	.text.u8x8_d_st7567_64x32,"ax",%progbits
 1032              		.align	2
 1033              		.global	u8x8_d_st7567_64x32
 1034              		.thumb
 1035              		.thumb_func
 1036              		.type	u8x8_d_st7567_64x32, %function
 1037              	u8x8_d_st7567_64x32:
 1038              	.LFB5:
 574:..\u8g2-master\csrc/u8x8_d_st7567.c **** 
 575:..\u8g2-master\csrc/u8x8_d_st7567.c **** 
 576:..\u8g2-master\csrc/u8x8_d_st7567.c **** /*=====================================================*/
 577:..\u8g2-master\csrc/u8x8_d_st7567.c **** /* issue 657 */
 578:..\u8g2-master\csrc/u8x8_d_st7567.c **** 
 579:..\u8g2-master\csrc/u8x8_d_st7567.c **** static const u8x8_display_info_t u8x8_st7567_64x32_display_info =
 580:..\u8g2-master\csrc/u8x8_d_st7567.c **** {
 581:..\u8g2-master\csrc/u8x8_d_st7567.c ****   /* chip_enable_level = */ 0,
 582:..\u8g2-master\csrc/u8x8_d_st7567.c ****   /* chip_disable_level = */ 1,
 583:..\u8g2-master\csrc/u8x8_d_st7567.c ****   
ARM GAS  C:\Users\info\AppData\Local\Temp\ccFPPEVm.s 			page 32


 584:..\u8g2-master\csrc/u8x8_d_st7567.c ****   /* post_chip_enable_wait_ns = */ 150,	/* */
 585:..\u8g2-master\csrc/u8x8_d_st7567.c ****   /* pre_chip_disable_wait_ns = */ 50,	/* */
 586:..\u8g2-master\csrc/u8x8_d_st7567.c ****   /* reset_pulse_width_ms = */ 1, 
 587:..\u8g2-master\csrc/u8x8_d_st7567.c ****   /* post_reset_wait_ms = */ 1, 
 588:..\u8g2-master\csrc/u8x8_d_st7567.c ****   /* sda_setup_time_ns = */ 50,		/* */
 589:..\u8g2-master\csrc/u8x8_d_st7567.c ****   /* sck_pulse_width_ns = */ 120,	/* */
 590:..\u8g2-master\csrc/u8x8_d_st7567.c ****   /* sck_clock_hz = */ 4000000UL,	/* */
 591:..\u8g2-master\csrc/u8x8_d_st7567.c ****   /* spi_mode = */ 0,		/* active high, rising edge */
 592:..\u8g2-master\csrc/u8x8_d_st7567.c ****   /* i2c_bus_clock_100kHz = */ 4,
 593:..\u8g2-master\csrc/u8x8_d_st7567.c ****   /* data_setup_time_ns = */ 40,	/* */
 594:..\u8g2-master\csrc/u8x8_d_st7567.c ****   /* write_pulse_width_ns = */ 80,	/* */
 595:..\u8g2-master\csrc/u8x8_d_st7567.c ****   /* tile_width = */ 8,		
 596:..\u8g2-master\csrc/u8x8_d_st7567.c ****   /* tile_hight = */ 4,
 597:..\u8g2-master\csrc/u8x8_d_st7567.c ****   /* default_x_offset = */ 32,
 598:..\u8g2-master\csrc/u8x8_d_st7567.c ****   /* flipmode_x_offset = */ 32,
 599:..\u8g2-master\csrc/u8x8_d_st7567.c ****   /* pixel_width = */ 64,
 600:..\u8g2-master\csrc/u8x8_d_st7567.c ****   /* pixel_height = */ 32
 601:..\u8g2-master\csrc/u8x8_d_st7567.c **** };
 602:..\u8g2-master\csrc/u8x8_d_st7567.c **** 
 603:..\u8g2-master\csrc/u8x8_d_st7567.c **** static const uint8_t u8x8_st7567_64x32_init_seq[] = {
 604:..\u8g2-master\csrc/u8x8_d_st7567.c ****     
 605:..\u8g2-master\csrc/u8x8_d_st7567.c ****   U8X8_START_TRANSFER(),             	/* enable chip, delay is part of the transfer start */
 606:..\u8g2-master\csrc/u8x8_d_st7567.c ****   
 607:..\u8g2-master\csrc/u8x8_d_st7567.c ****   U8X8_C(0x0e2),            			/* soft reset */
 608:..\u8g2-master\csrc/u8x8_d_st7567.c ****   U8X8_C(0x0ae),		                /* display off */
 609:..\u8g2-master\csrc/u8x8_d_st7567.c ****   U8X8_C(0x040),		                /* set display start line to 0 */
 610:..\u8g2-master\csrc/u8x8_d_st7567.c ****   
 611:..\u8g2-master\csrc/u8x8_d_st7567.c ****   U8X8_C(0x0a1),		                /* ADC */
 612:..\u8g2-master\csrc/u8x8_d_st7567.c ****   U8X8_C(0x0c0),		                /* common output mode */
 613:..\u8g2-master\csrc/u8x8_d_st7567.c ****   // Flipmode
 614:..\u8g2-master\csrc/u8x8_d_st7567.c ****   //U8X8_C(0x0a0),		                /* ADC  */
 615:..\u8g2-master\csrc/u8x8_d_st7567.c ****   //U8X8_C(0x0c8),		                /* common output mode */
 616:..\u8g2-master\csrc/u8x8_d_st7567.c ****   
 617:..\u8g2-master\csrc/u8x8_d_st7567.c ****   U8X8_C(0x0a6),		                /* display normal, bit val 0: LCD pixel off. */
 618:..\u8g2-master\csrc/u8x8_d_st7567.c ****   U8X8_C(0x0a2),		                /* LCD bias 1/9 */
 619:..\u8g2-master\csrc/u8x8_d_st7567.c ****   U8X8_C(0x028|4),		                /* all power  control circuits on */
 620:..\u8g2-master\csrc/u8x8_d_st7567.c ****   U8X8_DLY(50),
 621:..\u8g2-master\csrc/u8x8_d_st7567.c ****   U8X8_C(0x028|6),		                /* all power  control circuits on */
 622:..\u8g2-master\csrc/u8x8_d_st7567.c ****   U8X8_DLY(50),
 623:..\u8g2-master\csrc/u8x8_d_st7567.c ****   U8X8_C(0x028|7),		                /* all power  control circuits on */
 624:..\u8g2-master\csrc/u8x8_d_st7567.c ****   U8X8_DLY(50),
 625:..\u8g2-master\csrc/u8x8_d_st7567.c ****   
 626:..\u8g2-master\csrc/u8x8_d_st7567.c ****   U8X8_C(0x024),		                /* v0 voltage resistor ratio, taken from issue 657 */
 627:..\u8g2-master\csrc/u8x8_d_st7567.c ****   U8X8_CA(0x081, 0x080),		/* set contrast, contrast value*/
 628:..\u8g2-master\csrc/u8x8_d_st7567.c ****   
 629:..\u8g2-master\csrc/u8x8_d_st7567.c ****   U8X8_C(0x0ae),		                /* display off */
 630:..\u8g2-master\csrc/u8x8_d_st7567.c ****   U8X8_C(0x0a5),		                /* enter powersafe: all pixel on, issue 142 */
 631:..\u8g2-master\csrc/u8x8_d_st7567.c ****    
 632:..\u8g2-master\csrc/u8x8_d_st7567.c ****   U8X8_END_TRANSFER(),             	/* disable chip */
 633:..\u8g2-master\csrc/u8x8_d_st7567.c ****   U8X8_END()             			/* end of sequence */
 634:..\u8g2-master\csrc/u8x8_d_st7567.c **** };
 635:..\u8g2-master\csrc/u8x8_d_st7567.c **** 
 636:..\u8g2-master\csrc/u8x8_d_st7567.c **** 
 637:..\u8g2-master\csrc/u8x8_d_st7567.c **** uint8_t u8x8_d_st7567_64x32(u8x8_t *u8x8, uint8_t msg, uint8_t arg_int, void *arg_ptr)
 638:..\u8g2-master\csrc/u8x8_d_st7567.c **** {
 1039              		.loc 1 638 0
 1040              		.cfi_startproc
ARM GAS  C:\Users\info\AppData\Local\Temp\ccFPPEVm.s 			page 33


 1041              		@ args = 0, pretend = 0, frame = 0
 1042              		@ frame_needed = 0, uses_anonymous_args = 0
 1043              	.LVL165:
 639:..\u8g2-master\csrc/u8x8_d_st7567.c ****   uint8_t x, c;
 640:..\u8g2-master\csrc/u8x8_d_st7567.c ****   uint8_t *ptr;
 641:..\u8g2-master\csrc/u8x8_d_st7567.c ****   switch(msg)
 1044              		.loc 1 641 0
 1045 0000 0939     		subs	r1, r1, #9
 1046              	.LVL166:
 638:..\u8g2-master\csrc/u8x8_d_st7567.c ****   uint8_t x, c;
 1047              		.loc 1 638 0
 1048 0002 2DE9F041 		push	{r4, r5, r6, r7, r8, lr}
 1049              		.cfi_def_cfa_offset 24
 1050              		.cfi_offset 4, -24
 1051              		.cfi_offset 5, -20
 1052              		.cfi_offset 6, -16
 1053              		.cfi_offset 7, -12
 1054              		.cfi_offset 8, -8
 1055              		.cfi_offset 14, -4
 638:..\u8g2-master\csrc/u8x8_d_st7567.c ****   uint8_t x, c;
 1056              		.loc 1 638 0
 1057 0006 0546     		mov	r5, r0
 1058 0008 1446     		mov	r4, r2
 1059 000a 1F46     		mov	r7, r3
 1060              		.loc 1 641 0
 1061 000c 0629     		cmp	r1, #6
 1062 000e 6CD8     		bhi	.L97
 1063 0010 DFE801F0 		tbb	[pc, r1]
 1064              	.LVL167:
 1065              	.L87:
 1066 0014 3A       		.byte	(.L86-.L87)/2
 1067 0015 40       		.byte	(.L88-.L87)/2
 1068 0016 49       		.byte	(.L89-.L87)/2
 1069 0017 6B       		.byte	(.L97-.L87)/2
 1070 0018 50       		.byte	(.L90-.L87)/2
 1071 0019 5B       		.byte	(.L91-.L87)/2
 1072 001a 04       		.byte	(.L92-.L87)/2
 1073 001b 00       		.p2align 1
 1074              	.L92:
 642:..\u8g2-master\csrc/u8x8_d_st7567.c ****   {
 643:..\u8g2-master\csrc/u8x8_d_st7567.c ****     case U8X8_MSG_DISPLAY_SETUP_MEMORY:
 644:..\u8g2-master\csrc/u8x8_d_st7567.c ****       u8x8_d_helper_display_setup_memory(u8x8, &u8x8_st7567_64x32_display_info);
 645:..\u8g2-master\csrc/u8x8_d_st7567.c ****       break;
 646:..\u8g2-master\csrc/u8x8_d_st7567.c ****     case U8X8_MSG_DISPLAY_INIT:
 647:..\u8g2-master\csrc/u8x8_d_st7567.c ****       u8x8_d_helper_display_init(u8x8);
 648:..\u8g2-master\csrc/u8x8_d_st7567.c ****       u8x8_cad_SendSequence(u8x8, u8x8_st7567_64x32_init_seq);
 649:..\u8g2-master\csrc/u8x8_d_st7567.c ****       break;
 650:..\u8g2-master\csrc/u8x8_d_st7567.c ****     case U8X8_MSG_DISPLAY_SET_POWER_SAVE:
 651:..\u8g2-master\csrc/u8x8_d_st7567.c ****       if ( arg_int == 0 )
 652:..\u8g2-master\csrc/u8x8_d_st7567.c **** 	u8x8_cad_SendSequence(u8x8, u8x8_d_st7567_132x64_powersave0_seq);
 653:..\u8g2-master\csrc/u8x8_d_st7567.c ****       else
 654:..\u8g2-master\csrc/u8x8_d_st7567.c **** 	u8x8_cad_SendSequence(u8x8, u8x8_d_st7567_132x64_powersave1_seq);
 655:..\u8g2-master\csrc/u8x8_d_st7567.c ****       break;
 656:..\u8g2-master\csrc/u8x8_d_st7567.c ****     case U8X8_MSG_DISPLAY_SET_FLIP_MODE:
 657:..\u8g2-master\csrc/u8x8_d_st7567.c ****       if ( arg_int == 0 )
 658:..\u8g2-master\csrc/u8x8_d_st7567.c ****       {
 659:..\u8g2-master\csrc/u8x8_d_st7567.c **** 	u8x8_cad_SendSequence(u8x8, u8x8_d_st7567_132x64_flip0_seq);
ARM GAS  C:\Users\info\AppData\Local\Temp\ccFPPEVm.s 			page 34


 660:..\u8g2-master\csrc/u8x8_d_st7567.c **** 	u8x8->x_offset = u8x8->display_info->default_x_offset;
 661:..\u8g2-master\csrc/u8x8_d_st7567.c ****       }
 662:..\u8g2-master\csrc/u8x8_d_st7567.c ****       else
 663:..\u8g2-master\csrc/u8x8_d_st7567.c ****       {
 664:..\u8g2-master\csrc/u8x8_d_st7567.c **** 	u8x8_cad_SendSequence(u8x8, u8x8_d_st7567_132x64_flip1_seq);
 665:..\u8g2-master\csrc/u8x8_d_st7567.c **** 	u8x8->x_offset = u8x8->display_info->flipmode_x_offset;
 666:..\u8g2-master\csrc/u8x8_d_st7567.c ****       }	
 667:..\u8g2-master\csrc/u8x8_d_st7567.c ****       break;
 668:..\u8g2-master\csrc/u8x8_d_st7567.c **** #ifdef U8X8_WITH_SET_CONTRAST
 669:..\u8g2-master\csrc/u8x8_d_st7567.c ****     case U8X8_MSG_DISPLAY_SET_CONTRAST:
 670:..\u8g2-master\csrc/u8x8_d_st7567.c ****       u8x8_cad_StartTransfer(u8x8);
 671:..\u8g2-master\csrc/u8x8_d_st7567.c ****       u8x8_cad_SendCmd(u8x8, 0x081 );
 672:..\u8g2-master\csrc/u8x8_d_st7567.c ****       u8x8_cad_SendArg(u8x8, arg_int >> 2 );	/* st7567 has range from 0 to 63 */
 673:..\u8g2-master\csrc/u8x8_d_st7567.c ****       u8x8_cad_EndTransfer(u8x8);
 674:..\u8g2-master\csrc/u8x8_d_st7567.c ****       break;
 675:..\u8g2-master\csrc/u8x8_d_st7567.c **** #endif
 676:..\u8g2-master\csrc/u8x8_d_st7567.c ****     case U8X8_MSG_DISPLAY_DRAW_TILE:
 677:..\u8g2-master\csrc/u8x8_d_st7567.c ****       u8x8_cad_StartTransfer(u8x8);
 1075              		.loc 1 677 0
 1076 001c FFF7FEFF 		bl	u8x8_cad_StartTransfer
 1077              	.LVL168:
 678:..\u8g2-master\csrc/u8x8_d_st7567.c ****     
 679:..\u8g2-master\csrc/u8x8_d_st7567.c ****       x = ((u8x8_tile_t *)arg_ptr)->x_pos;
 680:..\u8g2-master\csrc/u8x8_d_st7567.c ****       x *= 8;
 681:..\u8g2-master\csrc/u8x8_d_st7567.c ****       x += u8x8->x_offset;
 1078              		.loc 1 681 0
 1079 0020 95F82230 		ldrb	r3, [r5, #34]	@ zero_extendqisi2
 679:..\u8g2-master\csrc/u8x8_d_st7567.c ****       x *= 8;
 1080              		.loc 1 679 0
 1081 0024 97F80580 		ldrb	r8, [r7, #5]	@ zero_extendqisi2
 1082              	.LVL169:
 682:..\u8g2-master\csrc/u8x8_d_st7567.c ****       u8x8_cad_SendCmd(u8x8, 0x010 | (x>>4) );
 1083              		.loc 1 682 0
 1084 0028 2846     		mov	r0, r5
 681:..\u8g2-master\csrc/u8x8_d_st7567.c ****       u8x8_cad_SendCmd(u8x8, 0x010 | (x>>4) );
 1085              		.loc 1 681 0
 1086 002a 03EBC808 		add	r8, r3, r8, lsl #3
 1087              	.LVL170:
 1088 002e 08F0FF08 		and	r8, r8, #255
 1089              	.LVL171:
 1090              		.loc 1 682 0
 1091 0032 4FEA1811 		lsr	r1, r8, #4
 1092 0036 41F01001 		orr	r1, r1, #16
 1093 003a FFF7FEFF 		bl	u8x8_cad_SendCmd
 1094              	.LVL172:
 683:..\u8g2-master\csrc/u8x8_d_st7567.c ****       u8x8_cad_SendCmd(u8x8, 0x000 | ((x&15)));
 1095              		.loc 1 683 0
 1096 003e 08F00F01 		and	r1, r8, #15
 1097 0042 2846     		mov	r0, r5
 1098 0044 FFF7FEFF 		bl	u8x8_cad_SendCmd
 1099              	.LVL173:
 684:..\u8g2-master\csrc/u8x8_d_st7567.c ****       u8x8_cad_SendCmd(u8x8, 0x0b0 | (((u8x8_tile_t *)arg_ptr)->y_pos));
 1100              		.loc 1 684 0
 1101 0048 B979     		ldrb	r1, [r7, #6]	@ zero_extendqisi2
 1102 004a 2846     		mov	r0, r5
 1103 004c 41F0B001 		orr	r1, r1, #176
 1104 0050 FFF7FEFF 		bl	u8x8_cad_SendCmd
ARM GAS  C:\Users\info\AppData\Local\Temp\ccFPPEVm.s 			page 35


 1105              	.LVL174:
 685:..\u8g2-master\csrc/u8x8_d_st7567.c ****     
 686:..\u8g2-master\csrc/u8x8_d_st7567.c ****       c = ((u8x8_tile_t *)arg_ptr)->cnt;
 1106              		.loc 1 686 0
 1107 0054 3E79     		ldrb	r6, [r7, #4]	@ zero_extendqisi2
 1108              	.LVL175:
 687:..\u8g2-master\csrc/u8x8_d_st7567.c ****       c *= 8;
 688:..\u8g2-master\csrc/u8x8_d_st7567.c ****       ptr = ((u8x8_tile_t *)arg_ptr)->tile_ptr;
 1109              		.loc 1 688 0
 1110 0056 3F68     		ldr	r7, [r7]
 1111              	.LVL176:
 687:..\u8g2-master\csrc/u8x8_d_st7567.c ****       c *= 8;
 1112              		.loc 1 687 0
 1113 0058 F600     		lsls	r6, r6, #3
 1114              	.LVL177:
 1115 005a F6B2     		uxtb	r6, r6
 1116              	.LVL178:
 689:..\u8g2-master\csrc/u8x8_d_st7567.c ****       /* 
 690:..\u8g2-master\csrc/u8x8_d_st7567.c **** 	The following if condition checks the hardware limits of the st7567 
 691:..\u8g2-master\csrc/u8x8_d_st7567.c **** 	controller: It is not allowed to write beyond the display limits.
 692:..\u8g2-master\csrc/u8x8_d_st7567.c **** 	This is in fact an issue within flip mode.
 693:..\u8g2-master\csrc/u8x8_d_st7567.c ****       */
 694:..\u8g2-master\csrc/u8x8_d_st7567.c ****       if ( c + x > 132u )
 1117              		.loc 1 694 0
 1118 005c 06EB0803 		add	r3, r6, r8
 1119 0060 842B     		cmp	r3, #132
 1120              	.LVL179:
 695:..\u8g2-master\csrc/u8x8_d_st7567.c ****       {
 696:..\u8g2-master\csrc/u8x8_d_st7567.c **** 	c = 132u;
 697:..\u8g2-master\csrc/u8x8_d_st7567.c **** 	c -= x;
 1121              		.loc 1 697 0
 1122 0062 C4BF     		itt	gt
 1123 0064 C8F18406 		rsbgt	r6, r8, #132
 1124 0068 F6B2     		uxtbgt	r6, r6
 1125              	.LVL180:
 1126              	.L96:
 698:..\u8g2-master\csrc/u8x8_d_st7567.c ****       }
 699:..\u8g2-master\csrc/u8x8_d_st7567.c ****       do
 700:..\u8g2-master\csrc/u8x8_d_st7567.c ****       {
 701:..\u8g2-master\csrc/u8x8_d_st7567.c **** 	u8x8_cad_SendData(u8x8, c, ptr);	/* note: SendData can not handle more than 255 bytes */
 1127              		.loc 1 701 0 discriminator 1
 1128 006a 3A46     		mov	r2, r7
 1129 006c 3146     		mov	r1, r6
 1130 006e 2846     		mov	r0, r5
 1131 0070 FFF7FEFF 		bl	u8x8_cad_SendData
 1132              	.LVL181:
 702:..\u8g2-master\csrc/u8x8_d_st7567.c **** 	arg_int--;
 1133              		.loc 1 702 0 discriminator 1
 1134 0074 621E     		subs	r2, r4, #1
 1135              	.LVL182:
 703:..\u8g2-master\csrc/u8x8_d_st7567.c ****       } while( arg_int > 0 );
 1136              		.loc 1 703 0 discriminator 1
 1137 0076 12F0FF04 		ands	r4, r2, #255
 1138 007a F6D1     		bne	.L96
 704:..\u8g2-master\csrc/u8x8_d_st7567.c ****       
 705:..\u8g2-master\csrc/u8x8_d_st7567.c ****       u8x8_cad_EndTransfer(u8x8);
 1139              		.loc 1 705 0
ARM GAS  C:\Users\info\AppData\Local\Temp\ccFPPEVm.s 			page 36


 1140 007c 2846     		mov	r0, r5
 1141 007e FFF7FEFF 		bl	u8x8_cad_EndTransfer
 1142              	.LVL183:
 706:..\u8g2-master\csrc/u8x8_d_st7567.c ****       break;
 707:..\u8g2-master\csrc/u8x8_d_st7567.c ****     default:
 708:..\u8g2-master\csrc/u8x8_d_st7567.c ****       return 0;
 709:..\u8g2-master\csrc/u8x8_d_st7567.c ****   }
 710:..\u8g2-master\csrc/u8x8_d_st7567.c ****   return 1;
 1143              		.loc 1 710 0
 1144 0082 0120     		movs	r0, #1
 706:..\u8g2-master\csrc/u8x8_d_st7567.c ****       break;
 1145              		.loc 1 706 0
 1146 0084 BDE8F081 		pop	{r4, r5, r6, r7, r8, pc}
 1147              	.LVL184:
 1148              	.L86:
 644:..\u8g2-master\csrc/u8x8_d_st7567.c ****       break;
 1149              		.loc 1 644 0
 1150 0088 2149     		ldr	r1, .L100
 1151 008a FFF7FEFF 		bl	u8x8_d_helper_display_setup_memory
 1152              	.LVL185:
 1153              		.loc 1 710 0
 1154 008e 0120     		movs	r0, #1
 645:..\u8g2-master\csrc/u8x8_d_st7567.c ****     case U8X8_MSG_DISPLAY_INIT:
 1155              		.loc 1 645 0
 1156 0090 BDE8F081 		pop	{r4, r5, r6, r7, r8, pc}
 1157              	.LVL186:
 1158              	.L88:
 647:..\u8g2-master\csrc/u8x8_d_st7567.c ****       u8x8_cad_SendSequence(u8x8, u8x8_st7567_64x32_init_seq);
 1159              		.loc 1 647 0
 1160 0094 FFF7FEFF 		bl	u8x8_d_helper_display_init
 1161              	.LVL187:
 648:..\u8g2-master\csrc/u8x8_d_st7567.c ****       break;
 1162              		.loc 1 648 0
 1163 0098 2846     		mov	r0, r5
 1164 009a 1E49     		ldr	r1, .L100+4
 1165 009c FFF7FEFF 		bl	u8x8_cad_SendSequence
 1166              	.LVL188:
 1167              		.loc 1 710 0
 1168 00a0 0120     		movs	r0, #1
 649:..\u8g2-master\csrc/u8x8_d_st7567.c ****     case U8X8_MSG_DISPLAY_SET_POWER_SAVE:
 1169              		.loc 1 649 0
 1170 00a2 BDE8F081 		pop	{r4, r5, r6, r7, r8, pc}
 1171              	.LVL189:
 1172              	.L89:
 651:..\u8g2-master\csrc/u8x8_d_st7567.c **** 	u8x8_cad_SendSequence(u8x8, u8x8_d_st7567_132x64_powersave0_seq);
 1173              		.loc 1 651 0
 1174 00a6 1ABB     		cbnz	r2, .L93
 652:..\u8g2-master\csrc/u8x8_d_st7567.c ****       else
 1175              		.loc 1 652 0
 1176 00a8 1B49     		ldr	r1, .L100+8
 1177 00aa FFF7FEFF 		bl	u8x8_cad_SendSequence
 1178              	.LVL190:
 1179              		.loc 1 710 0
 1180 00ae 0120     		movs	r0, #1
 1181 00b0 BDE8F081 		pop	{r4, r5, r6, r7, r8, pc}
 1182              	.LVL191:
 1183              	.L90:
ARM GAS  C:\Users\info\AppData\Local\Temp\ccFPPEVm.s 			page 37


 657:..\u8g2-master\csrc/u8x8_d_st7567.c ****       {
 1184              		.loc 1 657 0
 1185 00b4 12BB     		cbnz	r2, .L94
 659:..\u8g2-master\csrc/u8x8_d_st7567.c **** 	u8x8->x_offset = u8x8->display_info->default_x_offset;
 1186              		.loc 1 659 0
 1187 00b6 1949     		ldr	r1, .L100+12
 1188 00b8 FFF7FEFF 		bl	u8x8_cad_SendSequence
 1189              	.LVL192:
 660:..\u8g2-master\csrc/u8x8_d_st7567.c ****       }
 1190              		.loc 1 660 0
 1191 00bc 2B68     		ldr	r3, [r5]
 1192              		.loc 1 710 0
 1193 00be 0120     		movs	r0, #1
 660:..\u8g2-master\csrc/u8x8_d_st7567.c ****       }
 1194              		.loc 1 660 0
 1195 00c0 9B7C     		ldrb	r3, [r3, #18]	@ zero_extendqisi2
 1196 00c2 85F82230 		strb	r3, [r5, #34]
 1197 00c6 BDE8F081 		pop	{r4, r5, r6, r7, r8, pc}
 1198              	.LVL193:
 1199              	.L91:
 670:..\u8g2-master\csrc/u8x8_d_st7567.c ****       u8x8_cad_SendCmd(u8x8, 0x081 );
 1200              		.loc 1 670 0
 1201 00ca FFF7FEFF 		bl	u8x8_cad_StartTransfer
 1202              	.LVL194:
 671:..\u8g2-master\csrc/u8x8_d_st7567.c ****       u8x8_cad_SendArg(u8x8, arg_int >> 2 );	/* st7567 has range from 0 to 63 */
 1203              		.loc 1 671 0
 1204 00ce 8121     		movs	r1, #129
 1205 00d0 2846     		mov	r0, r5
 1206 00d2 FFF7FEFF 		bl	u8x8_cad_SendCmd
 1207              	.LVL195:
 672:..\u8g2-master\csrc/u8x8_d_st7567.c ****       u8x8_cad_EndTransfer(u8x8);
 1208              		.loc 1 672 0
 1209 00d6 A108     		lsrs	r1, r4, #2
 1210 00d8 2846     		mov	r0, r5
 1211 00da FFF7FEFF 		bl	u8x8_cad_SendArg
 1212              	.LVL196:
 673:..\u8g2-master\csrc/u8x8_d_st7567.c ****       break;
 1213              		.loc 1 673 0
 1214 00de 2846     		mov	r0, r5
 1215 00e0 FFF7FEFF 		bl	u8x8_cad_EndTransfer
 1216              	.LVL197:
 1217              		.loc 1 710 0
 1218 00e4 0120     		movs	r0, #1
 674:..\u8g2-master\csrc/u8x8_d_st7567.c **** #endif
 1219              		.loc 1 674 0
 1220 00e6 BDE8F081 		pop	{r4, r5, r6, r7, r8, pc}
 1221              	.LVL198:
 1222              	.L97:
 708:..\u8g2-master\csrc/u8x8_d_st7567.c ****   }
 1223              		.loc 1 708 0
 1224 00ea 0020     		movs	r0, #0
 1225              	.LVL199:
 711:..\u8g2-master\csrc/u8x8_d_st7567.c **** }
 1226              		.loc 1 711 0
 1227 00ec BDE8F081 		pop	{r4, r5, r6, r7, r8, pc}
 1228              	.LVL200:
 1229              	.L93:
ARM GAS  C:\Users\info\AppData\Local\Temp\ccFPPEVm.s 			page 38


 654:..\u8g2-master\csrc/u8x8_d_st7567.c ****       break;
 1230              		.loc 1 654 0
 1231 00f0 0B49     		ldr	r1, .L100+16
 1232 00f2 FFF7FEFF 		bl	u8x8_cad_SendSequence
 1233              	.LVL201:
 710:..\u8g2-master\csrc/u8x8_d_st7567.c **** }
 1234              		.loc 1 710 0
 1235 00f6 0120     		movs	r0, #1
 1236 00f8 BDE8F081 		pop	{r4, r5, r6, r7, r8, pc}
 1237              	.LVL202:
 1238              	.L94:
 664:..\u8g2-master\csrc/u8x8_d_st7567.c **** 	u8x8->x_offset = u8x8->display_info->flipmode_x_offset;
 1239              		.loc 1 664 0
 1240 00fc 0949     		ldr	r1, .L100+20
 1241 00fe FFF7FEFF 		bl	u8x8_cad_SendSequence
 1242              	.LVL203:
 665:..\u8g2-master\csrc/u8x8_d_st7567.c ****       }	
 1243              		.loc 1 665 0
 1244 0102 2B68     		ldr	r3, [r5]
 710:..\u8g2-master\csrc/u8x8_d_st7567.c **** }
 1245              		.loc 1 710 0
 1246 0104 0120     		movs	r0, #1
 665:..\u8g2-master\csrc/u8x8_d_st7567.c ****       }	
 1247              		.loc 1 665 0
 1248 0106 DB7C     		ldrb	r3, [r3, #19]	@ zero_extendqisi2
 1249 0108 85F82230 		strb	r3, [r5, #34]
 1250 010c BDE8F081 		pop	{r4, r5, r6, r7, r8, pc}
 1251              	.LVL204:
 1252              	.L101:
 1253              		.align	2
 1254              	.L100:
 1255 0110 08010000 		.word	.LANCHOR0+264
 1256 0114 20010000 		.word	.LANCHOR0+288
 1257 0118 40000000 		.word	.LANCHOR0+64
 1258 011c 50000000 		.word	.LANCHOR0+80
 1259 0120 48000000 		.word	.LANCHOR0+72
 1260 0124 58000000 		.word	.LANCHOR0+88
 1261              		.cfi_endproc
 1262              	.LFE5:
 1263              		.size	u8x8_d_st7567_64x32, .-u8x8_d_st7567_64x32
 1264              		.section	.rodata
 1265              		.align	2
 1266              		.set	.LANCHOR0,. + 0
 1267              		.type	u8x8_st7567_132x64_display_info, %object
 1268              		.size	u8x8_st7567_132x64_display_info, 24
 1269              	u8x8_st7567_132x64_display_info:
 1270 0000 00       		.byte	0
 1271 0001 01       		.byte	1
 1272 0002 96       		.byte	-106
 1273 0003 32       		.byte	50
 1274 0004 01       		.byte	1
 1275 0005 01       		.byte	1
 1276 0006 32       		.byte	50
 1277 0007 78       		.byte	120
 1278 0008 00093D00 		.word	4000000
 1279 000c 00       		.byte	0
 1280 000d 04       		.byte	4
ARM GAS  C:\Users\info\AppData\Local\Temp\ccFPPEVm.s 			page 39


 1281 000e 28       		.byte	40
 1282 000f 50       		.byte	80
 1283 0010 11       		.byte	17
 1284 0011 08       		.byte	8
 1285 0012 00       		.byte	0
 1286 0013 00       		.byte	0
 1287 0014 8400     		.short	132
 1288 0016 4000     		.short	64
 1289              		.type	u8x8_d_st7567_132x64_init_seq, %object
 1290              		.size	u8x8_d_st7567_132x64_init_seq, 39
 1291              	u8x8_d_st7567_132x64_init_seq:
 1292 0018 18       		.byte	24
 1293 0019 15       		.byte	21
 1294 001a E2       		.byte	-30
 1295 001b 15       		.byte	21
 1296 001c AE       		.byte	-82
 1297 001d 15       		.byte	21
 1298 001e 40       		.byte	64
 1299 001f 15       		.byte	21
 1300 0020 A1       		.byte	-95
 1301 0021 15       		.byte	21
 1302 0022 C0       		.byte	-64
 1303 0023 15       		.byte	21
 1304 0024 A6       		.byte	-90
 1305 0025 15       		.byte	21
 1306 0026 A3       		.byte	-93
 1307 0027 15       		.byte	21
 1308 0028 2C       		.byte	44
 1309 0029 FE       		.byte	-2
 1310 002a 32       		.byte	50
 1311 002b 15       		.byte	21
 1312 002c 2E       		.byte	46
 1313 002d FE       		.byte	-2
 1314 002e 32       		.byte	50
 1315 002f 15       		.byte	21
 1316 0030 2F       		.byte	47
 1317 0031 FE       		.byte	-2
 1318 0032 32       		.byte	50
 1319 0033 15       		.byte	21
 1320 0034 26       		.byte	38
 1321 0035 15       		.byte	21
 1322 0036 81       		.byte	-127
 1323 0037 16       		.byte	22
 1324 0038 27       		.byte	39
 1325 0039 15       		.byte	21
 1326 003a AE       		.byte	-82
 1327 003b 15       		.byte	21
 1328 003c A5       		.byte	-91
 1329 003d 19       		.byte	25
 1330 003e FF       		.byte	-1
 1331 003f 00       		.space	1
 1332              		.type	u8x8_d_st7567_132x64_powersave0_seq, %object
 1333              		.size	u8x8_d_st7567_132x64_powersave0_seq, 7
 1334              	u8x8_d_st7567_132x64_powersave0_seq:
 1335 0040 18       		.byte	24
 1336 0041 15       		.byte	21
 1337 0042 A4       		.byte	-92
ARM GAS  C:\Users\info\AppData\Local\Temp\ccFPPEVm.s 			page 40


 1338 0043 15       		.byte	21
 1339 0044 AF       		.byte	-81
 1340 0045 19       		.byte	25
 1341 0046 FF       		.byte	-1
 1342 0047 00       		.space	1
 1343              		.type	u8x8_d_st7567_132x64_powersave1_seq, %object
 1344              		.size	u8x8_d_st7567_132x64_powersave1_seq, 7
 1345              	u8x8_d_st7567_132x64_powersave1_seq:
 1346 0048 18       		.byte	24
 1347 0049 15       		.byte	21
 1348 004a AE       		.byte	-82
 1349 004b 15       		.byte	21
 1350 004c A5       		.byte	-91
 1351 004d 19       		.byte	25
 1352 004e FF       		.byte	-1
 1353 004f 00       		.space	1
 1354              		.type	u8x8_d_st7567_132x64_flip0_seq, %object
 1355              		.size	u8x8_d_st7567_132x64_flip0_seq, 7
 1356              	u8x8_d_st7567_132x64_flip0_seq:
 1357 0050 18       		.byte	24
 1358 0051 15       		.byte	21
 1359 0052 A1       		.byte	-95
 1360 0053 15       		.byte	21
 1361 0054 C0       		.byte	-64
 1362 0055 19       		.byte	25
 1363 0056 FF       		.byte	-1
 1364 0057 00       		.space	1
 1365              		.type	u8x8_d_st7567_132x64_flip1_seq, %object
 1366              		.size	u8x8_d_st7567_132x64_flip1_seq, 7
 1367              	u8x8_d_st7567_132x64_flip1_seq:
 1368 0058 18       		.byte	24
 1369 0059 15       		.byte	21
 1370 005a A0       		.byte	-96
 1371 005b 15       		.byte	21
 1372 005c C8       		.byte	-56
 1373 005d 19       		.byte	25
 1374 005e FF       		.byte	-1
 1375 005f 00       		.space	1
 1376              		.type	u8x8_st7567_jlx12864_display_info, %object
 1377              		.size	u8x8_st7567_jlx12864_display_info, 24
 1378              	u8x8_st7567_jlx12864_display_info:
 1379 0060 00       		.byte	0
 1380 0061 01       		.byte	1
 1381 0062 96       		.byte	-106
 1382 0063 32       		.byte	50
 1383 0064 01       		.byte	1
 1384 0065 01       		.byte	1
 1385 0066 32       		.byte	50
 1386 0067 78       		.byte	120
 1387 0068 00093D00 		.word	4000000
 1388 006c 00       		.byte	0
 1389 006d 04       		.byte	4
 1390 006e 28       		.byte	40
 1391 006f 50       		.byte	80
 1392 0070 10       		.byte	16
 1393 0071 08       		.byte	8
 1394 0072 04       		.byte	4
ARM GAS  C:\Users\info\AppData\Local\Temp\ccFPPEVm.s 			page 41


 1395 0073 00       		.byte	0
 1396 0074 8000     		.short	128
 1397 0076 4000     		.short	64
 1398              		.type	u8x8_st7567_jlx12864_init_seq, %object
 1399              		.size	u8x8_st7567_jlx12864_init_seq, 39
 1400              	u8x8_st7567_jlx12864_init_seq:
 1401 0078 18       		.byte	24
 1402 0079 15       		.byte	21
 1403 007a E2       		.byte	-30
 1404 007b 15       		.byte	21
 1405 007c AE       		.byte	-82
 1406 007d 15       		.byte	21
 1407 007e 40       		.byte	64
 1408 007f 15       		.byte	21
 1409 0080 A1       		.byte	-95
 1410 0081 15       		.byte	21
 1411 0082 C0       		.byte	-64
 1412 0083 15       		.byte	21
 1413 0084 A6       		.byte	-90
 1414 0085 15       		.byte	21
 1415 0086 A3       		.byte	-93
 1416 0087 15       		.byte	21
 1417 0088 2C       		.byte	44
 1418 0089 FE       		.byte	-2
 1419 008a 32       		.byte	50
 1420 008b 15       		.byte	21
 1421 008c 2E       		.byte	46
 1422 008d FE       		.byte	-2
 1423 008e 32       		.byte	50
 1424 008f 15       		.byte	21
 1425 0090 2F       		.byte	47
 1426 0091 FE       		.byte	-2
 1427 0092 32       		.byte	50
 1428 0093 15       		.byte	21
 1429 0094 23       		.byte	35
 1430 0095 15       		.byte	21
 1431 0096 81       		.byte	-127
 1432 0097 16       		.byte	22
 1433 0098 0A       		.byte	10
 1434 0099 15       		.byte	21
 1435 009a AE       		.byte	-82
 1436 009b 15       		.byte	21
 1437 009c A5       		.byte	-91
 1438 009d 19       		.byte	25
 1439 009e FF       		.byte	-1
 1440 009f 00       		.space	1
 1441              		.type	u8x8_st7567_enh_dg128064_display_info, %object
 1442              		.size	u8x8_st7567_enh_dg128064_display_info, 24
 1443              	u8x8_st7567_enh_dg128064_display_info:
 1444 00a0 00       		.byte	0
 1445 00a1 01       		.byte	1
 1446 00a2 96       		.byte	-106
 1447 00a3 32       		.byte	50
 1448 00a4 01       		.byte	1
 1449 00a5 01       		.byte	1
 1450 00a6 32       		.byte	50
 1451 00a7 78       		.byte	120
ARM GAS  C:\Users\info\AppData\Local\Temp\ccFPPEVm.s 			page 42


 1452 00a8 00093D00 		.word	4000000
 1453 00ac 00       		.byte	0
 1454 00ad 04       		.byte	4
 1455 00ae 28       		.byte	40
 1456 00af 50       		.byte	80
 1457 00b0 10       		.byte	16
 1458 00b1 08       		.byte	8
 1459 00b2 00       		.byte	0
 1460 00b3 04       		.byte	4
 1461 00b4 8000     		.short	128
 1462 00b6 4000     		.short	64
 1463              		.type	u8x8_d_st7567_n_flip0_seq, %object
 1464              		.size	u8x8_d_st7567_n_flip0_seq, 7
 1465              	u8x8_d_st7567_n_flip0_seq:
 1466 00b8 18       		.byte	24
 1467 00b9 15       		.byte	21
 1468 00ba A0       		.byte	-96
 1469 00bb 15       		.byte	21
 1470 00bc C0       		.byte	-64
 1471 00bd 19       		.byte	25
 1472 00be FF       		.byte	-1
 1473 00bf 00       		.space	1
 1474              		.type	u8x8_d_st7567_n_flip1_seq, %object
 1475              		.size	u8x8_d_st7567_n_flip1_seq, 7
 1476              	u8x8_d_st7567_n_flip1_seq:
 1477 00c0 18       		.byte	24
 1478 00c1 15       		.byte	21
 1479 00c2 A1       		.byte	-95
 1480 00c3 15       		.byte	21
 1481 00c4 C8       		.byte	-56
 1482 00c5 19       		.byte	25
 1483 00c6 FF       		.byte	-1
 1484 00c7 00       		.space	1
 1485              		.type	u8x8_st7567_enh_dg128064_init_seq, %object
 1486              		.size	u8x8_st7567_enh_dg128064_init_seq, 39
 1487              	u8x8_st7567_enh_dg128064_init_seq:
 1488 00c8 18       		.byte	24
 1489 00c9 15       		.byte	21
 1490 00ca E2       		.byte	-30
 1491 00cb 15       		.byte	21
 1492 00cc AE       		.byte	-82
 1493 00cd 15       		.byte	21
 1494 00ce 40       		.byte	64
 1495 00cf 15       		.byte	21
 1496 00d0 A1       		.byte	-95
 1497 00d1 15       		.byte	21
 1498 00d2 C0       		.byte	-64
 1499 00d3 15       		.byte	21
 1500 00d4 A6       		.byte	-90
 1501 00d5 15       		.byte	21
 1502 00d6 A2       		.byte	-94
 1503 00d7 15       		.byte	21
 1504 00d8 2C       		.byte	44
 1505 00d9 FE       		.byte	-2
 1506 00da 32       		.byte	50
 1507 00db 15       		.byte	21
 1508 00dc 2E       		.byte	46
ARM GAS  C:\Users\info\AppData\Local\Temp\ccFPPEVm.s 			page 43


 1509 00dd FE       		.byte	-2
 1510 00de 32       		.byte	50
 1511 00df 15       		.byte	21
 1512 00e0 2F       		.byte	47
 1513 00e1 FE       		.byte	-2
 1514 00e2 32       		.byte	50
 1515 00e3 15       		.byte	21
 1516 00e4 23       		.byte	35
 1517 00e5 15       		.byte	21
 1518 00e6 81       		.byte	-127
 1519 00e7 16       		.byte	22
 1520 00e8 32       		.byte	50
 1521 00e9 15       		.byte	21
 1522 00ea AE       		.byte	-82
 1523 00eb 15       		.byte	21
 1524 00ec A5       		.byte	-91
 1525 00ed 19       		.byte	25
 1526 00ee FF       		.byte	-1
 1527 00ef 00       		.space	1
 1528              		.type	u8x8_st7567_enh_dg128064i_display_info, %object
 1529              		.size	u8x8_st7567_enh_dg128064i_display_info, 24
 1530              	u8x8_st7567_enh_dg128064i_display_info:
 1531 00f0 00       		.byte	0
 1532 00f1 01       		.byte	1
 1533 00f2 96       		.byte	-106
 1534 00f3 32       		.byte	50
 1535 00f4 01       		.byte	1
 1536 00f5 01       		.byte	1
 1537 00f6 32       		.byte	50
 1538 00f7 78       		.byte	120
 1539 00f8 00093D00 		.word	4000000
 1540 00fc 00       		.byte	0
 1541 00fd 04       		.byte	4
 1542 00fe 28       		.byte	40
 1543 00ff 50       		.byte	80
 1544 0100 10       		.byte	16
 1545 0101 08       		.byte	8
 1546 0102 04       		.byte	4
 1547 0103 00       		.byte	0
 1548 0104 8000     		.short	128
 1549 0106 4000     		.short	64
 1550              		.type	u8x8_st7567_64x32_display_info, %object
 1551              		.size	u8x8_st7567_64x32_display_info, 24
 1552              	u8x8_st7567_64x32_display_info:
 1553 0108 00       		.byte	0
 1554 0109 01       		.byte	1
 1555 010a 96       		.byte	-106
 1556 010b 32       		.byte	50
 1557 010c 01       		.byte	1
 1558 010d 01       		.byte	1
 1559 010e 32       		.byte	50
 1560 010f 78       		.byte	120
 1561 0110 00093D00 		.word	4000000
 1562 0114 00       		.byte	0
 1563 0115 04       		.byte	4
 1564 0116 28       		.byte	40
 1565 0117 50       		.byte	80
ARM GAS  C:\Users\info\AppData\Local\Temp\ccFPPEVm.s 			page 44


 1566 0118 08       		.byte	8
 1567 0119 04       		.byte	4
 1568 011a 20       		.byte	32
 1569 011b 20       		.byte	32
 1570 011c 4000     		.short	64
 1571 011e 2000     		.short	32
 1572              		.type	u8x8_st7567_64x32_init_seq, %object
 1573              		.size	u8x8_st7567_64x32_init_seq, 39
 1574              	u8x8_st7567_64x32_init_seq:
 1575 0120 18       		.byte	24
 1576 0121 15       		.byte	21
 1577 0122 E2       		.byte	-30
 1578 0123 15       		.byte	21
 1579 0124 AE       		.byte	-82
 1580 0125 15       		.byte	21
 1581 0126 40       		.byte	64
 1582 0127 15       		.byte	21
 1583 0128 A1       		.byte	-95
 1584 0129 15       		.byte	21
 1585 012a C0       		.byte	-64
 1586 012b 15       		.byte	21
 1587 012c A6       		.byte	-90
 1588 012d 15       		.byte	21
 1589 012e A2       		.byte	-94
 1590 012f 15       		.byte	21
 1591 0130 2C       		.byte	44
 1592 0131 FE       		.byte	-2
 1593 0132 32       		.byte	50
 1594 0133 15       		.byte	21
 1595 0134 2E       		.byte	46
 1596 0135 FE       		.byte	-2
 1597 0136 32       		.byte	50
 1598 0137 15       		.byte	21
 1599 0138 2F       		.byte	47
 1600 0139 FE       		.byte	-2
 1601 013a 32       		.byte	50
 1602 013b 15       		.byte	21
 1603 013c 24       		.byte	36
 1604 013d 15       		.byte	21
 1605 013e 81       		.byte	-127
 1606 013f 16       		.byte	22
 1607 0140 80       		.byte	-128
 1608 0141 15       		.byte	21
 1609 0142 AE       		.byte	-82
 1610 0143 15       		.byte	21
 1611 0144 A5       		.byte	-91
 1612 0145 19       		.byte	25
 1613 0146 FF       		.byte	-1
 1614              		.text
 1615              	.Letext0:
 1616              		.file 2 "c:\\program files (x86)\\cypress\\psoc creator\\4.2\\psoc creator\\import\\gnu\\arm\\5.4.
 1617              		.file 3 "c:\\program files (x86)\\cypress\\psoc creator\\4.2\\psoc creator\\import\\gnu\\arm\\5.4.
 1618              		.file 4 "..\\u8g2-master\\csrc\\u8x8.h"