ARM GAS  C:\Users\info\AppData\Local\Temp\cclM9KIe.s 			page 1


   1              		.syntax unified
   2              		.cpu cortex-m3
   3              		.fpu softvfp
   4              		.eabi_attribute 20, 1
   5              		.eabi_attribute 21, 1
   6              		.eabi_attribute 23, 3
   7              		.eabi_attribute 24, 1
   8              		.eabi_attribute 25, 1
   9              		.eabi_attribute 26, 1
  10              		.eabi_attribute 30, 2
  11              		.eabi_attribute 34, 1
  12              		.eabi_attribute 18, 4
  13              		.thumb
  14              		.syntax unified
  15              		.file	"u8x8_d_lc7981.c"
  16              		.text
  17              	.Ltext0:
  18              		.cfi_sections	.debug_frame
  19              		.section	.text.u8x8_d_lc7981_common.isra.0.part.1,"ax",%progbits
  20              		.align	2
  21              		.thumb
  22              		.thumb_func
  23              		.type	u8x8_d_lc7981_common.isra.0.part.1, %function
  24              	u8x8_d_lc7981_common.isra.0.part.1:
  25              	.LFB7:
  26              		.file 1 "..\\u8g2-master\\csrc\\u8x8_d_lc7981.c"
   1:..\u8g2-master\csrc/u8x8_d_lc7981.c **** /*
   2:..\u8g2-master\csrc/u8x8_d_lc7981.c **** 
   3:..\u8g2-master\csrc/u8x8_d_lc7981.c ****   u8x8_d_lc7981.c
   4:..\u8g2-master\csrc/u8x8_d_lc7981.c ****   
   5:..\u8g2-master\csrc/u8x8_d_lc7981.c ****   Universal 8bit Graphics Library (https://github.com/olikraus/u8g2/)
   6:..\u8g2-master\csrc/u8x8_d_lc7981.c **** 
   7:..\u8g2-master\csrc/u8x8_d_lc7981.c ****   Copyright (c) 2016, olikraus@gmail.com
   8:..\u8g2-master\csrc/u8x8_d_lc7981.c ****   All rights reserved.
   9:..\u8g2-master\csrc/u8x8_d_lc7981.c **** 
  10:..\u8g2-master\csrc/u8x8_d_lc7981.c ****   Redistribution and use in source and binary forms, with or without modification, 
  11:..\u8g2-master\csrc/u8x8_d_lc7981.c ****   are permitted provided that the following conditions are met:
  12:..\u8g2-master\csrc/u8x8_d_lc7981.c **** 
  13:..\u8g2-master\csrc/u8x8_d_lc7981.c ****   * Redistributions of source code must retain the above copyright notice, this list 
  14:..\u8g2-master\csrc/u8x8_d_lc7981.c ****     of conditions and the following disclaimer.
  15:..\u8g2-master\csrc/u8x8_d_lc7981.c ****     
  16:..\u8g2-master\csrc/u8x8_d_lc7981.c ****   * Redistributions in binary form must reproduce the above copyright notice, this 
  17:..\u8g2-master\csrc/u8x8_d_lc7981.c ****     list of conditions and the following disclaimer in the documentation and/or other 
  18:..\u8g2-master\csrc/u8x8_d_lc7981.c ****     materials provided with the distribution.
  19:..\u8g2-master\csrc/u8x8_d_lc7981.c **** 
  20:..\u8g2-master\csrc/u8x8_d_lc7981.c ****   THIS SOFTWARE IS PROVIDED BY THE COPYRIGHT HOLDERS AND 
  21:..\u8g2-master\csrc/u8x8_d_lc7981.c ****   CONTRIBUTORS "AS IS" AND ANY EXPRESS OR IMPLIED WARRANTIES, 
  22:..\u8g2-master\csrc/u8x8_d_lc7981.c ****   INCLUDING, BUT NOT LIMITED TO, THE IMPLIED WARRANTIES OF 
  23:..\u8g2-master\csrc/u8x8_d_lc7981.c ****   MERCHANTABILITY AND FITNESS FOR A PARTICULAR PURPOSE ARE 
  24:..\u8g2-master\csrc/u8x8_d_lc7981.c ****   DISCLAIMED. IN NO EVENT SHALL THE COPYRIGHT HOLDER OR 
  25:..\u8g2-master\csrc/u8x8_d_lc7981.c ****   CONTRIBUTORS BE LIABLE FOR ANY DIRECT, INDIRECT, INCIDENTAL, 
  26:..\u8g2-master\csrc/u8x8_d_lc7981.c ****   SPECIAL, EXEMPLARY, OR CONSEQUENTIAL DAMAGES (INCLUDING, BUT 
  27:..\u8g2-master\csrc/u8x8_d_lc7981.c ****   NOT LIMITED TO, PROCUREMENT OF SUBSTITUTE GOODS OR SERVICES; 
  28:..\u8g2-master\csrc/u8x8_d_lc7981.c ****   LOSS OF USE, DATA, OR PROFITS; OR BUSINESS INTERRUPTION) HOWEVER 
  29:..\u8g2-master\csrc/u8x8_d_lc7981.c ****   CAUSED AND ON ANY THEORY OF LIABILITY, WHETHER IN CONTRACT, 
  30:..\u8g2-master\csrc/u8x8_d_lc7981.c ****   STRICT LIABILITY, OR TORT (INCLUDING NEGLIGENCE OR OTHERWISE) 
  31:..\u8g2-master\csrc/u8x8_d_lc7981.c ****   ARISING IN ANY WAY OUT OF THE USE OF THIS SOFTWARE, EVEN IF 
ARM GAS  C:\Users\info\AppData\Local\Temp\cclM9KIe.s 			page 2


  32:..\u8g2-master\csrc/u8x8_d_lc7981.c ****   ADVISED OF THE POSSIBILITY OF SUCH DAMAGE.  
  33:..\u8g2-master\csrc/u8x8_d_lc7981.c **** 
  34:..\u8g2-master\csrc/u8x8_d_lc7981.c **** 
  35:..\u8g2-master\csrc/u8x8_d_lc7981.c ****   
  36:..\u8g2-master\csrc/u8x8_d_lc7981.c **** */
  37:..\u8g2-master\csrc/u8x8_d_lc7981.c **** #include "u8x8.h"
  38:..\u8g2-master\csrc/u8x8_d_lc7981.c **** 
  39:..\u8g2-master\csrc/u8x8_d_lc7981.c **** 
  40:..\u8g2-master\csrc/u8x8_d_lc7981.c **** 
  41:..\u8g2-master\csrc/u8x8_d_lc7981.c **** 
  42:..\u8g2-master\csrc/u8x8_d_lc7981.c **** /* no powersave mode for the LC7981 */
  43:..\u8g2-master\csrc/u8x8_d_lc7981.c **** // static const uint8_t u8x8_d_lc7981_powersave0_seq[] = {
  44:..\u8g2-master\csrc/u8x8_d_lc7981.c **** //   U8X8_START_TRANSFER(),             	/* enable chip, delay is part of the transfer start */
  45:..\u8g2-master\csrc/u8x8_d_lc7981.c **** //   U8X8_END_TRANSFER(),             	/* disable chip */
  46:..\u8g2-master\csrc/u8x8_d_lc7981.c **** //   U8X8_END()             			/* end of sequence */
  47:..\u8g2-master\csrc/u8x8_d_lc7981.c **** // };
  48:..\u8g2-master\csrc/u8x8_d_lc7981.c **** 
  49:..\u8g2-master\csrc/u8x8_d_lc7981.c **** // static const uint8_t u8x8_d_lc7981_powersave1_seq[] = {
  50:..\u8g2-master\csrc/u8x8_d_lc7981.c **** //   U8X8_START_TRANSFER(),             	/* enable chip, delay is part of the transfer start */
  51:..\u8g2-master\csrc/u8x8_d_lc7981.c **** //   U8X8_END_TRANSFER(),             	/* disable chip */
  52:..\u8g2-master\csrc/u8x8_d_lc7981.c **** //   U8X8_END()             			/* end of sequence */
  53:..\u8g2-master\csrc/u8x8_d_lc7981.c **** // };
  54:..\u8g2-master\csrc/u8x8_d_lc7981.c **** 
  55:..\u8g2-master\csrc/u8x8_d_lc7981.c **** /* no hardware flip for the LC7981 */
  56:..\u8g2-master\csrc/u8x8_d_lc7981.c **** // static const uint8_t u8x8_d_lc7981_flip0_seq[] = {
  57:..\u8g2-master\csrc/u8x8_d_lc7981.c **** //   U8X8_START_TRANSFER(),             	/* enable chip, delay is part of the transfer start */
  58:..\u8g2-master\csrc/u8x8_d_lc7981.c **** //   U8X8_END_TRANSFER(),             	/* disable chip */
  59:..\u8g2-master\csrc/u8x8_d_lc7981.c **** //   U8X8_END()             			/* end of sequence */
  60:..\u8g2-master\csrc/u8x8_d_lc7981.c **** // };
  61:..\u8g2-master\csrc/u8x8_d_lc7981.c **** 
  62:..\u8g2-master\csrc/u8x8_d_lc7981.c **** // static const uint8_t u8x8_d_lc7981_flip1_seq[] = {
  63:..\u8g2-master\csrc/u8x8_d_lc7981.c **** //   U8X8_START_TRANSFER(),             	/* enable chip, delay is part of the transfer start */
  64:..\u8g2-master\csrc/u8x8_d_lc7981.c **** //   U8X8_END_TRANSFER(),             	/* disable chip */
  65:..\u8g2-master\csrc/u8x8_d_lc7981.c **** //   U8X8_END()             			/* end of sequence */
  66:..\u8g2-master\csrc/u8x8_d_lc7981.c **** // };
  67:..\u8g2-master\csrc/u8x8_d_lc7981.c **** 
  68:..\u8g2-master\csrc/u8x8_d_lc7981.c **** 
  69:..\u8g2-master\csrc/u8x8_d_lc7981.c **** /* http://graphics.stanford.edu/~seander/bithacks.html */
  70:..\u8g2-master\csrc/u8x8_d_lc7981.c **** static uint8_t reverse_byte(uint8_t v)
  71:..\u8g2-master\csrc/u8x8_d_lc7981.c **** {
  72:..\u8g2-master\csrc/u8x8_d_lc7981.c ****   // if ( v != 0 && v != 255 )  does not help much
  73:..\u8g2-master\csrc/u8x8_d_lc7981.c ****   {
  74:..\u8g2-master\csrc/u8x8_d_lc7981.c ****     // swap odd and even bits
  75:..\u8g2-master\csrc/u8x8_d_lc7981.c ****     v = ((v >> 1) & 0x055) | ((v & 0x055) << 1);
  76:..\u8g2-master\csrc/u8x8_d_lc7981.c ****     // swap consecutive pairs
  77:..\u8g2-master\csrc/u8x8_d_lc7981.c ****     v = ((v >> 2) & 0x033) | ((v & 0x033) << 2);
  78:..\u8g2-master\csrc/u8x8_d_lc7981.c ****     // swap nibbles ... 
  79:..\u8g2-master\csrc/u8x8_d_lc7981.c ****     v = ((v >> 4) & 0x00F) | ((v & 0x00F) << 4);
  80:..\u8g2-master\csrc/u8x8_d_lc7981.c ****   }
  81:..\u8g2-master\csrc/u8x8_d_lc7981.c ****   return v;
  82:..\u8g2-master\csrc/u8x8_d_lc7981.c **** }
  83:..\u8g2-master\csrc/u8x8_d_lc7981.c **** 
  84:..\u8g2-master\csrc/u8x8_d_lc7981.c **** static uint8_t u8x8_d_lc7981_common(u8x8_t *u8x8, uint8_t msg, U8X8_UNUSED uint8_t arg_int, void *a
  27              		.loc 1 84 0
  28              		.cfi_startproc
  29              		@ args = 0, pretend = 0, frame = 8
  30              		@ frame_needed = 0, uses_anonymous_args = 0
ARM GAS  C:\Users\info\AppData\Local\Temp\cclM9KIe.s 			page 3


  31              	.LVL0:
  32 0000 2DE9F04F 		push	{r4, r5, r6, r7, r8, r9, r10, fp, lr}
  33              		.cfi_def_cfa_offset 36
  34              		.cfi_offset 4, -36
  35              		.cfi_offset 5, -32
  36              		.cfi_offset 6, -28
  37              		.cfi_offset 7, -24
  38              		.cfi_offset 8, -20
  39              		.cfi_offset 9, -16
  40              		.cfi_offset 10, -12
  41              		.cfi_offset 11, -8
  42              		.cfi_offset 14, -4
  43 0004 0D46     		mov	r5, r1
  44              	.LVL1:
  85:..\u8g2-master\csrc/u8x8_d_lc7981.c **** {
  86:..\u8g2-master\csrc/u8x8_d_lc7981.c ****   uint8_t c, i, j;
  87:..\u8g2-master\csrc/u8x8_d_lc7981.c ****   uint16_t y;
  88:..\u8g2-master\csrc/u8x8_d_lc7981.c ****   uint8_t *ptr;
  89:..\u8g2-master\csrc/u8x8_d_lc7981.c ****   switch(msg)
  90:..\u8g2-master\csrc/u8x8_d_lc7981.c ****   {
  91:..\u8g2-master\csrc/u8x8_d_lc7981.c ****     case U8X8_MSG_DISPLAY_DRAW_TILE:
  92:..\u8g2-master\csrc/u8x8_d_lc7981.c ****       y = (((u8x8_tile_t *)arg_ptr)->y_pos);
  93:..\u8g2-master\csrc/u8x8_d_lc7981.c ****       y*=8;
  94:..\u8g2-master\csrc/u8x8_d_lc7981.c ****       y*= u8x8->display_info->tile_width;
  45              		.loc 1 94 0
  46 0006 0368     		ldr	r3, [r0]
  47 0008 8F79     		ldrb	r7, [r1, #6]	@ zero_extendqisi2
  48 000a 1B7C     		ldrb	r3, [r3, #16]	@ zero_extendqisi2
  84:..\u8g2-master\csrc/u8x8_d_lc7981.c **** {
  49              		.loc 1 84 0
  50 000c 83B0     		sub	sp, sp, #12
  51              		.cfi_def_cfa_offset 48
  52 000e 03FB07F7 		mul	r7, r3, r7
  84:..\u8g2-master\csrc/u8x8_d_lc7981.c **** {
  53              		.loc 1 84 0
  54 0012 0446     		mov	r4, r0
  95:..\u8g2-master\csrc/u8x8_d_lc7981.c ****       /* x = ((u8x8_tile_t *)arg_ptr)->x_pos; x is ignored... no u8x8 support */
  96:..\u8g2-master\csrc/u8x8_d_lc7981.c ****       u8x8_cad_StartTransfer(u8x8);
  55              		.loc 1 96 0
  56 0014 FFF7FEFF 		bl	u8x8_cad_StartTransfer
  57              	.LVL2:
  97:..\u8g2-master\csrc/u8x8_d_lc7981.c ****       /* 
  98:..\u8g2-master\csrc/u8x8_d_lc7981.c **** 	Tile structure is reused here for the t6963, however u8x8 is not supported 
  99:..\u8g2-master\csrc/u8x8_d_lc7981.c **** 	tile_ptr points to data which has cnt*8 bytes (same as SSD1306 tiles)
 100:..\u8g2-master\csrc/u8x8_d_lc7981.c **** 	Buffer is expected to have 8 lines of code fitting to the t6963 internal memory
 101:..\u8g2-master\csrc/u8x8_d_lc7981.c **** 	"cnt" includes the number of horizontal bytes. width is equal to cnt*8
 102:..\u8g2-master\csrc/u8x8_d_lc7981.c **** 	
 103:..\u8g2-master\csrc/u8x8_d_lc7981.c **** 	x is assumed to be zero
 104:..\u8g2-master\csrc/u8x8_d_lc7981.c ****     
 105:..\u8g2-master\csrc/u8x8_d_lc7981.c **** 	TODO: Consider arg_int, however arg_int is not used by u8g2
 106:..\u8g2-master\csrc/u8x8_d_lc7981.c ****       */
 107:..\u8g2-master\csrc/u8x8_d_lc7981.c ****       c = ((u8x8_tile_t *)arg_ptr)->cnt;	/* number of tiles */
  58              		.loc 1 107 0
  59 0018 95F804A0 		ldrb	r10, [r5, #4]	@ zero_extendqisi2
  94:..\u8g2-master\csrc/u8x8_d_lc7981.c ****       /* x = ((u8x8_tile_t *)arg_ptr)->x_pos; x is ignored... no u8x8 support */
  60              		.loc 1 94 0
  61 001c FF00     		lsls	r7, r7, #3
ARM GAS  C:\Users\info\AppData\Local\Temp\cclM9KIe.s 			page 4


  62 001e 0AF1FF39 		add	r9, r10, #-1
  63 0022 5FFA89F9 		uxtb	r9, r9
  64 0026 09F10103 		add	r3, r9, #1
 108:..\u8g2-master\csrc/u8x8_d_lc7981.c ****       ptr = ((u8x8_tile_t *)arg_ptr)->tile_ptr;	/* data ptr to the tiles */
  65              		.loc 1 108 0
  66 002a D5F80080 		ldr	r8, [r5]
  67 002e 0826     		movs	r6, #8
  94:..\u8g2-master\csrc/u8x8_d_lc7981.c ****       /* x = ((u8x8_tile_t *)arg_ptr)->x_pos; x is ignored... no u8x8 support */
  68              		.loc 1 94 0
  69 0030 BFB2     		uxth	r7, r7
  70              	.LVL3:
  71 0032 0193     		str	r3, [sp, #4]
  72              	.LVL4:
  73              	.L4:
 109:..\u8g2-master\csrc/u8x8_d_lc7981.c ****       for( i = 0; i < 8; i++ )
 110:..\u8g2-master\csrc/u8x8_d_lc7981.c ****       {
 111:..\u8g2-master\csrc/u8x8_d_lc7981.c **** 	u8x8_cad_SendCmd(u8x8, 0x0a );	/* display ram (cursor) address low byte */
  74              		.loc 1 111 0
  75 0034 0A21     		movs	r1, #10
  76 0036 2046     		mov	r0, r4
  77 0038 FFF7FEFF 		bl	u8x8_cad_SendCmd
  78              	.LVL5:
 112:..\u8g2-master\csrc/u8x8_d_lc7981.c **** 	u8x8_cad_SendArg(u8x8, y&255);
  79              		.loc 1 112 0
  80 003c F9B2     		uxtb	r1, r7
  81 003e 2046     		mov	r0, r4
  82 0040 FFF7FEFF 		bl	u8x8_cad_SendArg
  83              	.LVL6:
 113:..\u8g2-master\csrc/u8x8_d_lc7981.c **** 	u8x8_cad_SendCmd(u8x8, 0x0b );	/* display ram (cursor) address high byte */
  84              		.loc 1 113 0
  85 0044 0B21     		movs	r1, #11
  86 0046 2046     		mov	r0, r4
  87 0048 FFF7FEFF 		bl	u8x8_cad_SendCmd
  88              	.LVL7:
 114:..\u8g2-master\csrc/u8x8_d_lc7981.c **** 	u8x8_cad_SendArg(u8x8, y>>8);
  89              		.loc 1 114 0
  90 004c 390A     		lsrs	r1, r7, #8
  91 004e 2046     		mov	r0, r4
  92 0050 FFF7FEFF 		bl	u8x8_cad_SendArg
  93              	.LVL8:
 115:..\u8g2-master\csrc/u8x8_d_lc7981.c **** 	
 116:..\u8g2-master\csrc/u8x8_d_lc7981.c **** 	u8x8_cad_SendCmd(u8x8, 0x0c );	/* write start */
  94              		.loc 1 116 0
  95 0054 0C21     		movs	r1, #12
  96 0056 2046     		mov	r0, r4
  97 0058 FFF7FEFF 		bl	u8x8_cad_SendCmd
  98              	.LVL9:
 117:..\u8g2-master\csrc/u8x8_d_lc7981.c **** 	/*
 118:..\u8g2-master\csrc/u8x8_d_lc7981.c **** 	  The LC7981 has the MSB at the right position, which is exactly the opposite to the T6963.
 119:..\u8g2-master\csrc/u8x8_d_lc7981.c **** 	  Instead of writing a third hvline procedure for this device, we just revert the bytes before 
 120:..\u8g2-master\csrc/u8x8_d_lc7981.c **** 	  transmit. This is slow because:
 121:..\u8g2-master\csrc/u8x8_d_lc7981.c **** 	    - the bit reverse itself
 122:..\u8g2-master\csrc/u8x8_d_lc7981.c **** 	    - the single byte transfer 
 123:..\u8g2-master\csrc/u8x8_d_lc7981.c **** 	   The one byte is transmitted via SendArg, which is ok, because CAD = 100
 124:..\u8g2-master\csrc/u8x8_d_lc7981.c **** 	*/
 125:..\u8g2-master\csrc/u8x8_d_lc7981.c **** 	for( j = 0; j < c; j++ )
  99              		.loc 1 125 0
ARM GAS  C:\Users\info\AppData\Local\Temp\cclM9KIe.s 			page 5


 100 005c BAF1000F 		cmp	r10, #0
 101 0060 1ED0     		beq	.L2
 102 0062 08F1FF3B 		add	fp, r8, #-1
 103 0066 08EB0905 		add	r5, r8, r9
 104              	.LVL10:
 105              	.L3:
 126:..\u8g2-master\csrc/u8x8_d_lc7981.c **** 	  u8x8_cad_SendArg(u8x8, reverse_byte(*ptr++));
 106              		.loc 1 126 0
 107 006a 1BF8013F 		ldrb	r3, [fp, #1]!	@ zero_extendqisi2
 108              	.LVL11:
 109 006e 2046     		mov	r0, r4
 110              	.LBB16:
 111              	.LBB17:
  75:..\u8g2-master\csrc/u8x8_d_lc7981.c ****     // swap consecutive pairs
 112              		.loc 1 75 0
 113 0070 5908     		lsrs	r1, r3, #1
 114 0072 5B00     		lsls	r3, r3, #1
 115              	.LVL12:
 116 0074 01F05501 		and	r1, r1, #85
 117 0078 03F0AA03 		and	r3, r3, #170
 118 007c 0B43     		orrs	r3, r3, r1
 119              	.LVL13:
  77:..\u8g2-master\csrc/u8x8_d_lc7981.c ****     // swap nibbles ... 
 120              		.loc 1 77 0
 121 007e 9908     		lsrs	r1, r3, #2
 122 0080 9B00     		lsls	r3, r3, #2
 123              	.LVL14:
 124 0082 01F03301 		and	r1, r1, #51
 125 0086 03F0CC03 		and	r3, r3, #204
 126 008a 0B43     		orrs	r3, r3, r1
 127              	.LVL15:
  79:..\u8g2-master\csrc/u8x8_d_lc7981.c ****   }
 128              		.loc 1 79 0
 129 008c 1901     		lsls	r1, r3, #4
 130 008e 41EA1311 		orr	r1, r1, r3, lsr #4
 131              	.LBE17:
 132              	.LBE16:
 133              		.loc 1 126 0
 134 0092 C9B2     		uxtb	r1, r1
 135 0094 FFF7FEFF 		bl	u8x8_cad_SendArg
 136              	.LVL16:
 125:..\u8g2-master\csrc/u8x8_d_lc7981.c **** 	  u8x8_cad_SendArg(u8x8, reverse_byte(*ptr++));
 137              		.loc 1 125 0
 138 0098 AB45     		cmp	fp, r5
 139 009a E6D1     		bne	.L3
 140 009c 019B     		ldr	r3, [sp, #4]
 141 009e 9844     		add	r8, r8, r3
 142              	.LVL17:
 143              	.L2:
 127:..\u8g2-master\csrc/u8x8_d_lc7981.c **** 	
 128:..\u8g2-master\csrc/u8x8_d_lc7981.c **** 	//u8x8_cad_SendData(u8x8, c, ptr);	/* note: SendData can not handle more than 255 bytes, send one 
 129:..\u8g2-master\csrc/u8x8_d_lc7981.c **** 	//ptr += u8x8->display_info->tile_width;
 130:..\u8g2-master\csrc/u8x8_d_lc7981.c **** 	
 131:..\u8g2-master\csrc/u8x8_d_lc7981.c **** 	y += u8x8->display_info->tile_width;
 144              		.loc 1 131 0
 145 00a0 2368     		ldr	r3, [r4]
 146 00a2 013E     		subs	r6, r6, #1
ARM GAS  C:\Users\info\AppData\Local\Temp\cclM9KIe.s 			page 6


 147 00a4 1B7C     		ldrb	r3, [r3, #16]	@ zero_extendqisi2
 109:..\u8g2-master\csrc/u8x8_d_lc7981.c ****       {
 148              		.loc 1 109 0
 149 00a6 16F0FF06 		ands	r6, r6, #255
 150              		.loc 1 131 0
 151 00aa 1F44     		add	r7, r7, r3
 152              	.LVL18:
 153 00ac BFB2     		uxth	r7, r7
 154              	.LVL19:
 109:..\u8g2-master\csrc/u8x8_d_lc7981.c ****       {
 155              		.loc 1 109 0
 156 00ae C1D1     		bne	.L4
 132:..\u8g2-master\csrc/u8x8_d_lc7981.c ****       }
 133:..\u8g2-master\csrc/u8x8_d_lc7981.c **** 
 134:..\u8g2-master\csrc/u8x8_d_lc7981.c ****       u8x8_cad_EndTransfer(u8x8);
 157              		.loc 1 134 0
 158 00b0 2046     		mov	r0, r4
 159 00b2 FFF7FEFF 		bl	u8x8_cad_EndTransfer
 160              	.LVL20:
 135:..\u8g2-master\csrc/u8x8_d_lc7981.c ****       break;
 136:..\u8g2-master\csrc/u8x8_d_lc7981.c ****     /*	handled in the calling procedure 
 137:..\u8g2-master\csrc/u8x8_d_lc7981.c ****     case U8X8_MSG_DISPLAY_SETUP_MEMORY:
 138:..\u8g2-master\csrc/u8x8_d_lc7981.c ****       u8x8_d_helper_display_setup_memory(u8x8, &u8x8_lc7981_128x64_display_info);
 139:..\u8g2-master\csrc/u8x8_d_lc7981.c ****       break;
 140:..\u8g2-master\csrc/u8x8_d_lc7981.c ****     case U8X8_MSG_DISPLAY_INIT:
 141:..\u8g2-master\csrc/u8x8_d_lc7981.c ****       u8x8_d_helper_display_init(u8x8);
 142:..\u8g2-master\csrc/u8x8_d_lc7981.c ****       u8x8_cad_SendSequence(u8x8, u8x8_d_uc1701_dogs102_init_seq);
 143:..\u8g2-master\csrc/u8x8_d_lc7981.c ****       break;
 144:..\u8g2-master\csrc/u8x8_d_lc7981.c ****     */
 145:..\u8g2-master\csrc/u8x8_d_lc7981.c ****     /* power save is not there... 
 146:..\u8g2-master\csrc/u8x8_d_lc7981.c ****     case U8X8_MSG_DISPLAY_SET_POWER_SAVE:
 147:..\u8g2-master\csrc/u8x8_d_lc7981.c ****       if ( arg_int == 0 )
 148:..\u8g2-master\csrc/u8x8_d_lc7981.c **** 	u8x8_cad_SendSequence(u8x8, u8x8_d_lc7981_powersave0_seq);
 149:..\u8g2-master\csrc/u8x8_d_lc7981.c ****       else
 150:..\u8g2-master\csrc/u8x8_d_lc7981.c **** 	u8x8_cad_SendSequence(u8x8, u8x8_d_lc7981_powersave1_seq);
 151:..\u8g2-master\csrc/u8x8_d_lc7981.c ****       break;
 152:..\u8g2-master\csrc/u8x8_d_lc7981.c ****     */
 153:..\u8g2-master\csrc/u8x8_d_lc7981.c ****     /* hardware flip not is not available
 154:..\u8g2-master\csrc/u8x8_d_lc7981.c ****     case U8X8_MSG_DISPLAY_SET_FLIP_MODE:
 155:..\u8g2-master\csrc/u8x8_d_lc7981.c ****       if ( arg_int == 0 )
 156:..\u8g2-master\csrc/u8x8_d_lc7981.c ****       {
 157:..\u8g2-master\csrc/u8x8_d_lc7981.c **** 	u8x8_cad_SendSequence(u8x8, u8x8_d_lc7981_flip0_seq);
 158:..\u8g2-master\csrc/u8x8_d_lc7981.c **** 	u8x8->x_offset = u8x8->display_info->default_x_offset;
 159:..\u8g2-master\csrc/u8x8_d_lc7981.c ****       }
 160:..\u8g2-master\csrc/u8x8_d_lc7981.c ****       else
 161:..\u8g2-master\csrc/u8x8_d_lc7981.c ****       {
 162:..\u8g2-master\csrc/u8x8_d_lc7981.c **** 	u8x8_cad_SendSequence(u8x8, u8x8_d_lc7981_flip1_seq);
 163:..\u8g2-master\csrc/u8x8_d_lc7981.c **** 	u8x8->x_offset = u8x8->display_info->flipmode_x_offset;
 164:..\u8g2-master\csrc/u8x8_d_lc7981.c ****       }	
 165:..\u8g2-master\csrc/u8x8_d_lc7981.c ****       break;
 166:..\u8g2-master\csrc/u8x8_d_lc7981.c ****     */
 167:..\u8g2-master\csrc/u8x8_d_lc7981.c **** #ifdef U8X8_WITH_SET_CONTRAST
 168:..\u8g2-master\csrc/u8x8_d_lc7981.c ****     /* no contrast setting :-(
 169:..\u8g2-master\csrc/u8x8_d_lc7981.c ****     case U8X8_MSG_DISPLAY_SET_CONTRAST:
 170:..\u8g2-master\csrc/u8x8_d_lc7981.c ****       u8x8_cad_StartTransfer(u8x8);
 171:..\u8g2-master\csrc/u8x8_d_lc7981.c ****       u8x8_cad_SendCmd(u8x8, 0x081 );
 172:..\u8g2-master\csrc/u8x8_d_lc7981.c ****       u8x8_cad_SendArg(u8x8, arg_int  );
ARM GAS  C:\Users\info\AppData\Local\Temp\cclM9KIe.s 			page 7


 173:..\u8g2-master\csrc/u8x8_d_lc7981.c ****       u8x8_cad_EndTransfer(u8x8);
 174:..\u8g2-master\csrc/u8x8_d_lc7981.c ****       break;
 175:..\u8g2-master\csrc/u8x8_d_lc7981.c ****   */
 176:..\u8g2-master\csrc/u8x8_d_lc7981.c **** #endif
 177:..\u8g2-master\csrc/u8x8_d_lc7981.c ****     default:
 178:..\u8g2-master\csrc/u8x8_d_lc7981.c ****       return 0;
 179:..\u8g2-master\csrc/u8x8_d_lc7981.c ****   }
 180:..\u8g2-master\csrc/u8x8_d_lc7981.c ****   return 1;
 181:..\u8g2-master\csrc/u8x8_d_lc7981.c **** }
 161              		.loc 1 181 0
 162 00b6 0120     		movs	r0, #1
 163 00b8 03B0     		add	sp, sp, #12
 164              		.cfi_def_cfa_offset 36
 165              		@ sp needed
 166 00ba BDE8F08F 		pop	{r4, r5, r6, r7, r8, r9, r10, fp, pc}
 167              		.cfi_endproc
 168              	.LFE7:
 169              		.size	u8x8_d_lc7981_common.isra.0.part.1, .-u8x8_d_lc7981_common.isra.0.part.1
 170 00be 00BF     		.section	.text.u8x8_d_lc7981_160x80,"ax",%progbits
 171              		.align	2
 172              		.global	u8x8_d_lc7981_160x80
 173              		.thumb
 174              		.thumb_func
 175              		.type	u8x8_d_lc7981_160x80, %function
 176              	u8x8_d_lc7981_160x80:
 177              	.LFB2:
 182:..\u8g2-master\csrc/u8x8_d_lc7981.c **** 
 183:..\u8g2-master\csrc/u8x8_d_lc7981.c **** /*================================================*/
 184:..\u8g2-master\csrc/u8x8_d_lc7981.c **** /* LC7981 160x80 LCD*/
 185:..\u8g2-master\csrc/u8x8_d_lc7981.c **** 
 186:..\u8g2-master\csrc/u8x8_d_lc7981.c **** static const u8x8_display_info_t u8x8_lc7981_160x80_display_info =
 187:..\u8g2-master\csrc/u8x8_d_lc7981.c **** {
 188:..\u8g2-master\csrc/u8x8_d_lc7981.c ****   /* chip_enable_level = */ 0,	/* LC7981 has a low active CS*/
 189:..\u8g2-master\csrc/u8x8_d_lc7981.c ****   /* chip_disable_level = */ 1,
 190:..\u8g2-master\csrc/u8x8_d_lc7981.c ****   
 191:..\u8g2-master\csrc/u8x8_d_lc7981.c ****   /* from here... */
 192:..\u8g2-master\csrc/u8x8_d_lc7981.c ****   /* post_chip_enable_wait_ns = */ 20,	
 193:..\u8g2-master\csrc/u8x8_d_lc7981.c ****   /* pre_chip_disable_wait_ns = */ 20,	
 194:..\u8g2-master\csrc/u8x8_d_lc7981.c ****   /* reset_pulse_width_ms = */ 1, 	
 195:..\u8g2-master\csrc/u8x8_d_lc7981.c ****   /* post_reset_wait_ms = */ 10, 	
 196:..\u8g2-master\csrc/u8x8_d_lc7981.c ****   /* sda_setup_time_ns = */ 30,		
 197:..\u8g2-master\csrc/u8x8_d_lc7981.c ****   /* sck_pulse_width_ns = */ 65,	/* half of cycle time  */
 198:..\u8g2-master\csrc/u8x8_d_lc7981.c ****   /* sck_clock_hz = */ 4000000UL,	/* since Arduino 1.6.0, the SPI bus speed in Hz. Should be  10000
 199:..\u8g2-master\csrc/u8x8_d_lc7981.c ****   /* spi_mode = */ 0,		/* active high, rising edge */
 200:..\u8g2-master\csrc/u8x8_d_lc7981.c ****   /* i2c_bus_clock_100kHz = */ 4,
 201:..\u8g2-master\csrc/u8x8_d_lc7981.c ****   /* ... to here, values are ignored, because this is a parallel interface only */
 202:..\u8g2-master\csrc/u8x8_d_lc7981.c ****   
 203:..\u8g2-master\csrc/u8x8_d_lc7981.c ****   /* data_setup_time_ns = */ 220,	
 204:..\u8g2-master\csrc/u8x8_d_lc7981.c ****   /* write_pulse_width_ns = */ 20,	
 205:..\u8g2-master\csrc/u8x8_d_lc7981.c ****   /* tile_width = */ 20,		/* width of 20*8=160 pixel */
 206:..\u8g2-master\csrc/u8x8_d_lc7981.c ****   /* tile_hight = */ 10,
 207:..\u8g2-master\csrc/u8x8_d_lc7981.c ****   /* default_x_offset = */ 0,	
 208:..\u8g2-master\csrc/u8x8_d_lc7981.c ****   /* flipmode_x_offset = */ 0,	
 209:..\u8g2-master\csrc/u8x8_d_lc7981.c ****   /* pixel_width = */ 160,
 210:..\u8g2-master\csrc/u8x8_d_lc7981.c ****   /* pixel_height = */ 80
 211:..\u8g2-master\csrc/u8x8_d_lc7981.c **** };
 212:..\u8g2-master\csrc/u8x8_d_lc7981.c **** 
ARM GAS  C:\Users\info\AppData\Local\Temp\cclM9KIe.s 			page 8


 213:..\u8g2-master\csrc/u8x8_d_lc7981.c **** static const uint8_t u8x8_d_lc7981_160x80_init_seq[] = {
 214:..\u8g2-master\csrc/u8x8_d_lc7981.c ****     
 215:..\u8g2-master\csrc/u8x8_d_lc7981.c ****   U8X8_START_TRANSFER(),             	/* enable chip, delay is part of the transfer start */
 216:..\u8g2-master\csrc/u8x8_d_lc7981.c ****   
 217:..\u8g2-master\csrc/u8x8_d_lc7981.c ****   U8X8_DLY(50),
 218:..\u8g2-master\csrc/u8x8_d_lc7981.c **** 
 219:..\u8g2-master\csrc/u8x8_d_lc7981.c ****   U8X8_CA(0x00, 0x32),			/* display on (bit 5), master mode on (bit 4), graphics mode on (bit 1) */
 220:..\u8g2-master\csrc/u8x8_d_lc7981.c ****   U8X8_CA(0x01, 0x07),			/* character/bits per pixel pitch */
 221:..\u8g2-master\csrc/u8x8_d_lc7981.c ****   U8X8_CA(0x02, 160/8-1),		/* number of chars/byte width of the screen */
 222:..\u8g2-master\csrc/u8x8_d_lc7981.c ****   U8X8_CA(0x03, 0x50),			/* time division:  50 (1/80 duty cycle) */
 223:..\u8g2-master\csrc/u8x8_d_lc7981.c ****   U8X8_CA(0x08, 0x00),			/* display start low */
 224:..\u8g2-master\csrc/u8x8_d_lc7981.c ****   U8X8_CA(0x09, 0x00),			/* display start high */
 225:..\u8g2-master\csrc/u8x8_d_lc7981.c **** 
 226:..\u8g2-master\csrc/u8x8_d_lc7981.c ****   U8X8_DLY(10),
 227:..\u8g2-master\csrc/u8x8_d_lc7981.c ****   
 228:..\u8g2-master\csrc/u8x8_d_lc7981.c ****   U8X8_END_TRANSFER(),             	/* disable chip */
 229:..\u8g2-master\csrc/u8x8_d_lc7981.c ****   U8X8_END()             			/* end of sequence */
 230:..\u8g2-master\csrc/u8x8_d_lc7981.c **** };
 231:..\u8g2-master\csrc/u8x8_d_lc7981.c **** 
 232:..\u8g2-master\csrc/u8x8_d_lc7981.c **** uint8_t u8x8_d_lc7981_160x80(u8x8_t *u8x8, uint8_t msg, uint8_t arg_int, void *arg_ptr)
 233:..\u8g2-master\csrc/u8x8_d_lc7981.c **** {
 178              		.loc 1 233 0
 179              		.cfi_startproc
 180              		@ args = 0, pretend = 0, frame = 0
 181              		@ frame_needed = 0, uses_anonymous_args = 0
 182              	.LVL21:
 183              	.LBB18:
 184              	.LBB19:
  89:..\u8g2-master\csrc/u8x8_d_lc7981.c ****   {
 185              		.loc 1 89 0
 186 0000 0F29     		cmp	r1, #15
 187              	.LBE19:
 188              	.LBE18:
 189              		.loc 1 233 0
 190 0002 10B5     		push	{r4, lr}
 191              		.cfi_def_cfa_offset 8
 192              		.cfi_offset 4, -8
 193              		.cfi_offset 14, -4
 194              	.LBB22:
 195              	.LBB20:
  89:..\u8g2-master\csrc/u8x8_d_lc7981.c ****   {
 196              		.loc 1 89 0
 197 0004 11D0     		beq	.L23
 198              	.LVL22:
 199              	.LBE20:
 200              	.LBE22:
 234:..\u8g2-master\csrc/u8x8_d_lc7981.c ****   /* call common procedure first and handle messages there */
 235:..\u8g2-master\csrc/u8x8_d_lc7981.c ****   if ( u8x8_d_lc7981_common(u8x8, msg, arg_int, arg_ptr) == 0 )
 236:..\u8g2-master\csrc/u8x8_d_lc7981.c ****   {
 237:..\u8g2-master\csrc/u8x8_d_lc7981.c ****     /* msg not handled, then try here */
 238:..\u8g2-master\csrc/u8x8_d_lc7981.c ****     switch(msg)
 201              		.loc 1 238 0
 202 0006 0929     		cmp	r1, #9
 203 0008 0AD0     		beq	.L16
 204 000a 0A29     		cmp	r1, #10
 205 000c 14D1     		bne	.L24
 206 000e 0446     		mov	r4, r0
ARM GAS  C:\Users\info\AppData\Local\Temp\cclM9KIe.s 			page 9


 239:..\u8g2-master\csrc/u8x8_d_lc7981.c ****     {
 240:..\u8g2-master\csrc/u8x8_d_lc7981.c ****       case U8X8_MSG_DISPLAY_SETUP_MEMORY:
 241:..\u8g2-master\csrc/u8x8_d_lc7981.c **** 	u8x8_d_helper_display_setup_memory(u8x8, &u8x8_lc7981_160x80_display_info);
 242:..\u8g2-master\csrc/u8x8_d_lc7981.c **** 	break;
 243:..\u8g2-master\csrc/u8x8_d_lc7981.c ****       case U8X8_MSG_DISPLAY_INIT:
 244:..\u8g2-master\csrc/u8x8_d_lc7981.c **** 	u8x8_d_helper_display_init(u8x8);
 207              		.loc 1 244 0
 208 0010 FFF7FEFF 		bl	u8x8_d_helper_display_init
 209              	.LVL23:
 245:..\u8g2-master\csrc/u8x8_d_lc7981.c **** 	u8x8_cad_SendSequence(u8x8, u8x8_d_lc7981_160x80_init_seq);
 210              		.loc 1 245 0
 211 0014 2046     		mov	r0, r4
 212 0016 0949     		ldr	r1, .L25
 213 0018 FFF7FEFF 		bl	u8x8_cad_SendSequence
 214              	.LVL24:
 246:..\u8g2-master\csrc/u8x8_d_lc7981.c **** 	break;
 247:..\u8g2-master\csrc/u8x8_d_lc7981.c ****       default:
 248:..\u8g2-master\csrc/u8x8_d_lc7981.c **** 	return 0;		/* msg unknown */
 249:..\u8g2-master\csrc/u8x8_d_lc7981.c ****     }
 250:..\u8g2-master\csrc/u8x8_d_lc7981.c ****   }
 251:..\u8g2-master\csrc/u8x8_d_lc7981.c ****   return 1;
 215              		.loc 1 251 0
 216 001c 0120     		movs	r0, #1
 246:..\u8g2-master\csrc/u8x8_d_lc7981.c **** 	break;
 217              		.loc 1 246 0
 218 001e 10BD     		pop	{r4, pc}
 219              	.LVL25:
 220              	.L16:
 241:..\u8g2-master\csrc/u8x8_d_lc7981.c **** 	break;
 221              		.loc 1 241 0
 222 0020 0749     		ldr	r1, .L25+4
 223              	.LVL26:
 224 0022 FFF7FEFF 		bl	u8x8_d_helper_display_setup_memory
 225              	.LVL27:
 226              		.loc 1 251 0
 227 0026 0120     		movs	r0, #1
 242:..\u8g2-master\csrc/u8x8_d_lc7981.c ****       case U8X8_MSG_DISPLAY_INIT:
 228              		.loc 1 242 0
 229 0028 10BD     		pop	{r4, pc}
 230              	.LVL28:
 231              	.L23:
 232              	.LBB23:
 233              	.LBB21:
 234 002a 1946     		mov	r1, r3
 235              	.LVL29:
 236 002c FFF7FEFF 		bl	u8x8_d_lc7981_common.isra.0.part.1
 237              	.LVL30:
 238              	.LBE21:
 239              	.LBE23:
 248:..\u8g2-master\csrc/u8x8_d_lc7981.c ****     }
 240              		.loc 1 248 0
 241 0030 0030     		adds	r0, r0, #0
 242 0032 18BF     		it	ne
 243 0034 0120     		movne	r0, #1
 244 0036 10BD     		pop	{r4, pc}
 245              	.LVL31:
 246              	.L24:
ARM GAS  C:\Users\info\AppData\Local\Temp\cclM9KIe.s 			page 10


 247 0038 0020     		movs	r0, #0
 248              	.LVL32:
 252:..\u8g2-master\csrc/u8x8_d_lc7981.c **** }
 249              		.loc 1 252 0
 250 003a 10BD     		pop	{r4, pc}
 251              	.L26:
 252              		.align	2
 253              	.L25:
 254 003c 18000000 		.word	.LANCHOR0+24
 255 0040 00000000 		.word	.LANCHOR0
 256              		.cfi_endproc
 257              	.LFE2:
 258              		.size	u8x8_d_lc7981_160x80, .-u8x8_d_lc7981_160x80
 259              		.section	.text.u8x8_d_lc7981_160x160,"ax",%progbits
 260              		.align	2
 261              		.global	u8x8_d_lc7981_160x160
 262              		.thumb
 263              		.thumb_func
 264              		.type	u8x8_d_lc7981_160x160, %function
 265              	u8x8_d_lc7981_160x160:
 266              	.LFB3:
 253:..\u8g2-master\csrc/u8x8_d_lc7981.c **** 
 254:..\u8g2-master\csrc/u8x8_d_lc7981.c **** 
 255:..\u8g2-master\csrc/u8x8_d_lc7981.c **** /*================================================*/
 256:..\u8g2-master\csrc/u8x8_d_lc7981.c **** /* LC7981 160x160 LCD*/
 257:..\u8g2-master\csrc/u8x8_d_lc7981.c **** 
 258:..\u8g2-master\csrc/u8x8_d_lc7981.c **** static const u8x8_display_info_t u8x8_lc7981_160x160_display_info =
 259:..\u8g2-master\csrc/u8x8_d_lc7981.c **** {
 260:..\u8g2-master\csrc/u8x8_d_lc7981.c ****   /* chip_enable_level = */ 0,	/* LC7981 has a low active CS*/
 261:..\u8g2-master\csrc/u8x8_d_lc7981.c ****   /* chip_disable_level = */ 1,
 262:..\u8g2-master\csrc/u8x8_d_lc7981.c ****   
 263:..\u8g2-master\csrc/u8x8_d_lc7981.c ****   /* from here... */
 264:..\u8g2-master\csrc/u8x8_d_lc7981.c ****   /* post_chip_enable_wait_ns = */ 20,	
 265:..\u8g2-master\csrc/u8x8_d_lc7981.c ****   /* pre_chip_disable_wait_ns = */ 20,	
 266:..\u8g2-master\csrc/u8x8_d_lc7981.c ****   /* reset_pulse_width_ms = */ 1, 	
 267:..\u8g2-master\csrc/u8x8_d_lc7981.c ****   /* post_reset_wait_ms = */ 10, 	
 268:..\u8g2-master\csrc/u8x8_d_lc7981.c ****   /* sda_setup_time_ns = */ 30,		
 269:..\u8g2-master\csrc/u8x8_d_lc7981.c ****   /* sck_pulse_width_ns = */ 65,	/* half of cycle time  */
 270:..\u8g2-master\csrc/u8x8_d_lc7981.c ****   /* sck_clock_hz = */ 4000000UL,	/* since Arduino 1.6.0, the SPI bus speed in Hz. Should be  10000
 271:..\u8g2-master\csrc/u8x8_d_lc7981.c ****   /* spi_mode = */ 0,		/* active high, rising edge */
 272:..\u8g2-master\csrc/u8x8_d_lc7981.c ****   /* i2c_bus_clock_100kHz = */ 4,
 273:..\u8g2-master\csrc/u8x8_d_lc7981.c ****   /* ... to here, values are ignored, because this is a parallel interface only */
 274:..\u8g2-master\csrc/u8x8_d_lc7981.c ****   
 275:..\u8g2-master\csrc/u8x8_d_lc7981.c ****   /* data_setup_time_ns = */ 220,	
 276:..\u8g2-master\csrc/u8x8_d_lc7981.c ****   /* write_pulse_width_ns = */ 20,	
 277:..\u8g2-master\csrc/u8x8_d_lc7981.c ****   /* tile_width = */ 20,		/* width of 20*8=160 pixel */
 278:..\u8g2-master\csrc/u8x8_d_lc7981.c ****   /* tile_hight = */ 20,
 279:..\u8g2-master\csrc/u8x8_d_lc7981.c ****   /* default_x_offset = */ 0,	
 280:..\u8g2-master\csrc/u8x8_d_lc7981.c ****   /* flipmode_x_offset = */ 0,	
 281:..\u8g2-master\csrc/u8x8_d_lc7981.c ****   /* pixel_width = */ 160,
 282:..\u8g2-master\csrc/u8x8_d_lc7981.c ****   /* pixel_height = */ 160
 283:..\u8g2-master\csrc/u8x8_d_lc7981.c **** };
 284:..\u8g2-master\csrc/u8x8_d_lc7981.c **** 
 285:..\u8g2-master\csrc/u8x8_d_lc7981.c **** static const uint8_t u8x8_d_lc7981_160x160_init_seq[] = {
 286:..\u8g2-master\csrc/u8x8_d_lc7981.c ****     
 287:..\u8g2-master\csrc/u8x8_d_lc7981.c ****   U8X8_START_TRANSFER(),             	/* enable chip, delay is part of the transfer start */
 288:..\u8g2-master\csrc/u8x8_d_lc7981.c ****   
ARM GAS  C:\Users\info\AppData\Local\Temp\cclM9KIe.s 			page 11


 289:..\u8g2-master\csrc/u8x8_d_lc7981.c ****   U8X8_DLY(50),
 290:..\u8g2-master\csrc/u8x8_d_lc7981.c **** 
 291:..\u8g2-master\csrc/u8x8_d_lc7981.c ****   U8X8_CA(0x00, 0x32),			/* display on (bit 5), master mode on (bit 4), graphics mode on (bit 1) */
 292:..\u8g2-master\csrc/u8x8_d_lc7981.c ****   U8X8_CA(0x01, 0x07),			/* character/bits per pixel pitch */
 293:..\u8g2-master\csrc/u8x8_d_lc7981.c ****   U8X8_CA(0x02, 160/8-1),		/* number of chars/byte width of the screen */
 294:..\u8g2-master\csrc/u8x8_d_lc7981.c ****   U8X8_CA(0x03, 159),			/* time division */
 295:..\u8g2-master\csrc/u8x8_d_lc7981.c ****   U8X8_CA(0x08, 0x00),			/* display start low */
 296:..\u8g2-master\csrc/u8x8_d_lc7981.c ****   U8X8_CA(0x09, 0x00),			/* display start high */
 297:..\u8g2-master\csrc/u8x8_d_lc7981.c **** 
 298:..\u8g2-master\csrc/u8x8_d_lc7981.c ****   U8X8_DLY(10),
 299:..\u8g2-master\csrc/u8x8_d_lc7981.c ****   
 300:..\u8g2-master\csrc/u8x8_d_lc7981.c ****   U8X8_END_TRANSFER(),             	/* disable chip */
 301:..\u8g2-master\csrc/u8x8_d_lc7981.c ****   U8X8_END()             			/* end of sequence */
 302:..\u8g2-master\csrc/u8x8_d_lc7981.c **** };
 303:..\u8g2-master\csrc/u8x8_d_lc7981.c **** 
 304:..\u8g2-master\csrc/u8x8_d_lc7981.c **** uint8_t u8x8_d_lc7981_160x160(u8x8_t *u8x8, uint8_t msg, uint8_t arg_int, void *arg_ptr)
 305:..\u8g2-master\csrc/u8x8_d_lc7981.c **** {
 267              		.loc 1 305 0
 268              		.cfi_startproc
 269              		@ args = 0, pretend = 0, frame = 0
 270              		@ frame_needed = 0, uses_anonymous_args = 0
 271              	.LVL33:
 272              	.LBB24:
 273              	.LBB25:
  89:..\u8g2-master\csrc/u8x8_d_lc7981.c ****   {
 274              		.loc 1 89 0
 275 0000 0F29     		cmp	r1, #15
 276              	.LBE25:
 277              	.LBE24:
 278              		.loc 1 305 0
 279 0002 10B5     		push	{r4, lr}
 280              		.cfi_def_cfa_offset 8
 281              		.cfi_offset 4, -8
 282              		.cfi_offset 14, -4
 283              	.LBB28:
 284              	.LBB26:
  89:..\u8g2-master\csrc/u8x8_d_lc7981.c ****   {
 285              		.loc 1 89 0
 286 0004 11D0     		beq	.L38
 287              	.LVL34:
 288              	.LBE26:
 289              	.LBE28:
 306:..\u8g2-master\csrc/u8x8_d_lc7981.c ****   /* call common procedure first and handle messages there */
 307:..\u8g2-master\csrc/u8x8_d_lc7981.c ****   if ( u8x8_d_lc7981_common(u8x8, msg, arg_int, arg_ptr) == 0 )
 308:..\u8g2-master\csrc/u8x8_d_lc7981.c ****   {
 309:..\u8g2-master\csrc/u8x8_d_lc7981.c ****     /* msg not handled, then try here */
 310:..\u8g2-master\csrc/u8x8_d_lc7981.c ****     switch(msg)
 290              		.loc 1 310 0
 291 0006 0929     		cmp	r1, #9
 292 0008 0AD0     		beq	.L31
 293 000a 0A29     		cmp	r1, #10
 294 000c 14D1     		bne	.L39
 295 000e 0446     		mov	r4, r0
 311:..\u8g2-master\csrc/u8x8_d_lc7981.c ****     {
 312:..\u8g2-master\csrc/u8x8_d_lc7981.c ****       case U8X8_MSG_DISPLAY_SETUP_MEMORY:
 313:..\u8g2-master\csrc/u8x8_d_lc7981.c **** 	u8x8_d_helper_display_setup_memory(u8x8, &u8x8_lc7981_160x160_display_info);
 314:..\u8g2-master\csrc/u8x8_d_lc7981.c **** 	break;
ARM GAS  C:\Users\info\AppData\Local\Temp\cclM9KIe.s 			page 12


 315:..\u8g2-master\csrc/u8x8_d_lc7981.c ****       case U8X8_MSG_DISPLAY_INIT:
 316:..\u8g2-master\csrc/u8x8_d_lc7981.c **** 	u8x8_d_helper_display_init(u8x8);
 296              		.loc 1 316 0
 297 0010 FFF7FEFF 		bl	u8x8_d_helper_display_init
 298              	.LVL35:
 317:..\u8g2-master\csrc/u8x8_d_lc7981.c **** 	u8x8_cad_SendSequence(u8x8, u8x8_d_lc7981_160x160_init_seq);
 299              		.loc 1 317 0
 300 0014 2046     		mov	r0, r4
 301 0016 0949     		ldr	r1, .L40
 302 0018 FFF7FEFF 		bl	u8x8_cad_SendSequence
 303              	.LVL36:
 318:..\u8g2-master\csrc/u8x8_d_lc7981.c **** 	break;
 319:..\u8g2-master\csrc/u8x8_d_lc7981.c ****       default:
 320:..\u8g2-master\csrc/u8x8_d_lc7981.c **** 	return 0;		/* msg unknown */
 321:..\u8g2-master\csrc/u8x8_d_lc7981.c ****     }
 322:..\u8g2-master\csrc/u8x8_d_lc7981.c ****   }
 323:..\u8g2-master\csrc/u8x8_d_lc7981.c ****   return 1;
 304              		.loc 1 323 0
 305 001c 0120     		movs	r0, #1
 318:..\u8g2-master\csrc/u8x8_d_lc7981.c **** 	break;
 306              		.loc 1 318 0
 307 001e 10BD     		pop	{r4, pc}
 308              	.LVL37:
 309              	.L31:
 313:..\u8g2-master\csrc/u8x8_d_lc7981.c **** 	break;
 310              		.loc 1 313 0
 311 0020 0749     		ldr	r1, .L40+4
 312              	.LVL38:
 313 0022 FFF7FEFF 		bl	u8x8_d_helper_display_setup_memory
 314              	.LVL39:
 315              		.loc 1 323 0
 316 0026 0120     		movs	r0, #1
 314:..\u8g2-master\csrc/u8x8_d_lc7981.c ****       case U8X8_MSG_DISPLAY_INIT:
 317              		.loc 1 314 0
 318 0028 10BD     		pop	{r4, pc}
 319              	.LVL40:
 320              	.L38:
 321              	.LBB29:
 322              	.LBB27:
 323 002a 1946     		mov	r1, r3
 324              	.LVL41:
 325 002c FFF7FEFF 		bl	u8x8_d_lc7981_common.isra.0.part.1
 326              	.LVL42:
 327              	.LBE27:
 328              	.LBE29:
 320:..\u8g2-master\csrc/u8x8_d_lc7981.c ****     }
 329              		.loc 1 320 0
 330 0030 0030     		adds	r0, r0, #0
 331 0032 18BF     		it	ne
 332 0034 0120     		movne	r0, #1
 333 0036 10BD     		pop	{r4, pc}
 334              	.LVL43:
 335              	.L39:
 336 0038 0020     		movs	r0, #0
 337              	.LVL44:
 324:..\u8g2-master\csrc/u8x8_d_lc7981.c **** }
 338              		.loc 1 324 0
ARM GAS  C:\Users\info\AppData\Local\Temp\cclM9KIe.s 			page 13


 339 003a 10BD     		pop	{r4, pc}
 340              	.L41:
 341              		.align	2
 342              	.L40:
 343 003c 50000000 		.word	.LANCHOR0+80
 344 0040 38000000 		.word	.LANCHOR0+56
 345              		.cfi_endproc
 346              	.LFE3:
 347              		.size	u8x8_d_lc7981_160x160, .-u8x8_d_lc7981_160x160
 348              		.section	.text.u8x8_d_lc7981_240x128,"ax",%progbits
 349              		.align	2
 350              		.global	u8x8_d_lc7981_240x128
 351              		.thumb
 352              		.thumb_func
 353              		.type	u8x8_d_lc7981_240x128, %function
 354              	u8x8_d_lc7981_240x128:
 355              	.LFB4:
 325:..\u8g2-master\csrc/u8x8_d_lc7981.c **** 
 326:..\u8g2-master\csrc/u8x8_d_lc7981.c **** 
 327:..\u8g2-master\csrc/u8x8_d_lc7981.c **** /*================================================*/
 328:..\u8g2-master\csrc/u8x8_d_lc7981.c **** /* LC7981 240x128 LCD*/
 329:..\u8g2-master\csrc/u8x8_d_lc7981.c **** 
 330:..\u8g2-master\csrc/u8x8_d_lc7981.c **** static const u8x8_display_info_t u8x8_lc7981_240x128_display_info =
 331:..\u8g2-master\csrc/u8x8_d_lc7981.c **** {
 332:..\u8g2-master\csrc/u8x8_d_lc7981.c ****   /* chip_enable_level = */ 0,	/* LC7981 has a low active CS*/
 333:..\u8g2-master\csrc/u8x8_d_lc7981.c ****   /* chip_disable_level = */ 1,
 334:..\u8g2-master\csrc/u8x8_d_lc7981.c ****   
 335:..\u8g2-master\csrc/u8x8_d_lc7981.c ****   /* from here... */
 336:..\u8g2-master\csrc/u8x8_d_lc7981.c ****   /* post_chip_enable_wait_ns = */ 20,	
 337:..\u8g2-master\csrc/u8x8_d_lc7981.c ****   /* pre_chip_disable_wait_ns = */ 20,	
 338:..\u8g2-master\csrc/u8x8_d_lc7981.c ****   /* reset_pulse_width_ms = */ 1, 	
 339:..\u8g2-master\csrc/u8x8_d_lc7981.c ****   /* post_reset_wait_ms = */ 10, 	
 340:..\u8g2-master\csrc/u8x8_d_lc7981.c ****   /* sda_setup_time_ns = */ 30,		
 341:..\u8g2-master\csrc/u8x8_d_lc7981.c ****   /* sck_pulse_width_ns = */ 65,	/* half of cycle time  */
 342:..\u8g2-master\csrc/u8x8_d_lc7981.c ****   /* sck_clock_hz = */ 4000000UL,	/* since Arduino 1.6.0, the SPI bus speed in Hz. Should be  10000
 343:..\u8g2-master\csrc/u8x8_d_lc7981.c ****   /* spi_mode = */ 0,		/* active high, rising edge */
 344:..\u8g2-master\csrc/u8x8_d_lc7981.c ****   /* i2c_bus_clock_100kHz = */ 4,
 345:..\u8g2-master\csrc/u8x8_d_lc7981.c ****   /* ... to here, values are ignored, because this is a parallel interface only */
 346:..\u8g2-master\csrc/u8x8_d_lc7981.c ****   
 347:..\u8g2-master\csrc/u8x8_d_lc7981.c ****   /* data_setup_time_ns = */ 220,	
 348:..\u8g2-master\csrc/u8x8_d_lc7981.c ****   /* write_pulse_width_ns = */ 20,	
 349:..\u8g2-master\csrc/u8x8_d_lc7981.c ****   /* tile_width = */ 30,		/* width of 30*8=240 pixel */
 350:..\u8g2-master\csrc/u8x8_d_lc7981.c ****   /* tile_hight = */ 16,
 351:..\u8g2-master\csrc/u8x8_d_lc7981.c ****   /* default_x_offset = */ 0,	
 352:..\u8g2-master\csrc/u8x8_d_lc7981.c ****   /* flipmode_x_offset = */ 0,	
 353:..\u8g2-master\csrc/u8x8_d_lc7981.c ****   /* pixel_width = */ 240,
 354:..\u8g2-master\csrc/u8x8_d_lc7981.c ****   /* pixel_height = */ 128
 355:..\u8g2-master\csrc/u8x8_d_lc7981.c **** };
 356:..\u8g2-master\csrc/u8x8_d_lc7981.c **** 
 357:..\u8g2-master\csrc/u8x8_d_lc7981.c **** static const uint8_t u8x8_d_lc7981_240x128_init_seq[] = {
 358:..\u8g2-master\csrc/u8x8_d_lc7981.c ****     
 359:..\u8g2-master\csrc/u8x8_d_lc7981.c ****   U8X8_START_TRANSFER(),             	/* enable chip, delay is part of the transfer start */
 360:..\u8g2-master\csrc/u8x8_d_lc7981.c ****   
 361:..\u8g2-master\csrc/u8x8_d_lc7981.c ****   U8X8_DLY(50),
 362:..\u8g2-master\csrc/u8x8_d_lc7981.c **** 
 363:..\u8g2-master\csrc/u8x8_d_lc7981.c ****   U8X8_CA(0x00, 0x32),			/* display on (bit 5), master mode on (bit 4), graphics mode on (bit 1) */
 364:..\u8g2-master\csrc/u8x8_d_lc7981.c ****   U8X8_CA(0x01, 0x07),			/* character/bits per pixel pitch */
ARM GAS  C:\Users\info\AppData\Local\Temp\cclM9KIe.s 			page 14


 365:..\u8g2-master\csrc/u8x8_d_lc7981.c ****   U8X8_CA(0x02, 240/8-1),		/* number of chars/byte width of the screen */
 366:..\u8g2-master\csrc/u8x8_d_lc7981.c ****   U8X8_CA(0x03, 0x7f),			/* time division */
 367:..\u8g2-master\csrc/u8x8_d_lc7981.c ****   U8X8_CA(0x08, 0x00),			/* display start low */
 368:..\u8g2-master\csrc/u8x8_d_lc7981.c ****   U8X8_CA(0x09, 0x00),			/* display start high */
 369:..\u8g2-master\csrc/u8x8_d_lc7981.c **** 
 370:..\u8g2-master\csrc/u8x8_d_lc7981.c ****   U8X8_DLY(10),
 371:..\u8g2-master\csrc/u8x8_d_lc7981.c ****   
 372:..\u8g2-master\csrc/u8x8_d_lc7981.c ****   U8X8_END_TRANSFER(),             	/* disable chip */
 373:..\u8g2-master\csrc/u8x8_d_lc7981.c ****   U8X8_END()             			/* end of sequence */
 374:..\u8g2-master\csrc/u8x8_d_lc7981.c **** };
 375:..\u8g2-master\csrc/u8x8_d_lc7981.c **** 
 376:..\u8g2-master\csrc/u8x8_d_lc7981.c **** uint8_t u8x8_d_lc7981_240x128(u8x8_t *u8x8, uint8_t msg, uint8_t arg_int, void *arg_ptr)
 377:..\u8g2-master\csrc/u8x8_d_lc7981.c **** {
 356              		.loc 1 377 0
 357              		.cfi_startproc
 358              		@ args = 0, pretend = 0, frame = 0
 359              		@ frame_needed = 0, uses_anonymous_args = 0
 360              	.LVL45:
 361              	.LBB30:
 362              	.LBB31:
  89:..\u8g2-master\csrc/u8x8_d_lc7981.c ****   {
 363              		.loc 1 89 0
 364 0000 0F29     		cmp	r1, #15
 365              	.LBE31:
 366              	.LBE30:
 367              		.loc 1 377 0
 368 0002 10B5     		push	{r4, lr}
 369              		.cfi_def_cfa_offset 8
 370              		.cfi_offset 4, -8
 371              		.cfi_offset 14, -4
 372              	.LBB34:
 373              	.LBB32:
  89:..\u8g2-master\csrc/u8x8_d_lc7981.c ****   {
 374              		.loc 1 89 0
 375 0004 11D0     		beq	.L53
 376              	.LVL46:
 377              	.LBE32:
 378              	.LBE34:
 378:..\u8g2-master\csrc/u8x8_d_lc7981.c ****   /* call common procedure first and handle messages there */
 379:..\u8g2-master\csrc/u8x8_d_lc7981.c ****   if ( u8x8_d_lc7981_common(u8x8, msg, arg_int, arg_ptr) == 0 )
 380:..\u8g2-master\csrc/u8x8_d_lc7981.c ****   {
 381:..\u8g2-master\csrc/u8x8_d_lc7981.c ****     /* msg not handled, then try here */
 382:..\u8g2-master\csrc/u8x8_d_lc7981.c ****     switch(msg)
 379              		.loc 1 382 0
 380 0006 0929     		cmp	r1, #9
 381 0008 0AD0     		beq	.L46
 382 000a 0A29     		cmp	r1, #10
 383 000c 14D1     		bne	.L54
 384 000e 0446     		mov	r4, r0
 383:..\u8g2-master\csrc/u8x8_d_lc7981.c ****     {
 384:..\u8g2-master\csrc/u8x8_d_lc7981.c ****       case U8X8_MSG_DISPLAY_SETUP_MEMORY:
 385:..\u8g2-master\csrc/u8x8_d_lc7981.c **** 	u8x8_d_helper_display_setup_memory(u8x8, &u8x8_lc7981_240x128_display_info);
 386:..\u8g2-master\csrc/u8x8_d_lc7981.c **** 	break;
 387:..\u8g2-master\csrc/u8x8_d_lc7981.c ****       case U8X8_MSG_DISPLAY_INIT:
 388:..\u8g2-master\csrc/u8x8_d_lc7981.c **** 	u8x8_d_helper_display_init(u8x8);
 385              		.loc 1 388 0
 386 0010 FFF7FEFF 		bl	u8x8_d_helper_display_init
ARM GAS  C:\Users\info\AppData\Local\Temp\cclM9KIe.s 			page 15


 387              	.LVL47:
 389:..\u8g2-master\csrc/u8x8_d_lc7981.c **** 	u8x8_cad_SendSequence(u8x8, u8x8_d_lc7981_240x128_init_seq);
 388              		.loc 1 389 0
 389 0014 2046     		mov	r0, r4
 390 0016 0949     		ldr	r1, .L55
 391 0018 FFF7FEFF 		bl	u8x8_cad_SendSequence
 392              	.LVL48:
 390:..\u8g2-master\csrc/u8x8_d_lc7981.c **** 	break;
 391:..\u8g2-master\csrc/u8x8_d_lc7981.c ****       default:
 392:..\u8g2-master\csrc/u8x8_d_lc7981.c **** 	return 0;		/* msg unknown */
 393:..\u8g2-master\csrc/u8x8_d_lc7981.c ****     }
 394:..\u8g2-master\csrc/u8x8_d_lc7981.c ****   }
 395:..\u8g2-master\csrc/u8x8_d_lc7981.c ****   return 1;
 393              		.loc 1 395 0
 394 001c 0120     		movs	r0, #1
 390:..\u8g2-master\csrc/u8x8_d_lc7981.c **** 	break;
 395              		.loc 1 390 0
 396 001e 10BD     		pop	{r4, pc}
 397              	.LVL49:
 398              	.L46:
 385:..\u8g2-master\csrc/u8x8_d_lc7981.c **** 	break;
 399              		.loc 1 385 0
 400 0020 0749     		ldr	r1, .L55+4
 401              	.LVL50:
 402 0022 FFF7FEFF 		bl	u8x8_d_helper_display_setup_memory
 403              	.LVL51:
 404              		.loc 1 395 0
 405 0026 0120     		movs	r0, #1
 386:..\u8g2-master\csrc/u8x8_d_lc7981.c ****       case U8X8_MSG_DISPLAY_INIT:
 406              		.loc 1 386 0
 407 0028 10BD     		pop	{r4, pc}
 408              	.LVL52:
 409              	.L53:
 410              	.LBB35:
 411              	.LBB33:
 412 002a 1946     		mov	r1, r3
 413              	.LVL53:
 414 002c FFF7FEFF 		bl	u8x8_d_lc7981_common.isra.0.part.1
 415              	.LVL54:
 416              	.LBE33:
 417              	.LBE35:
 392:..\u8g2-master\csrc/u8x8_d_lc7981.c ****     }
 418              		.loc 1 392 0
 419 0030 0030     		adds	r0, r0, #0
 420 0032 18BF     		it	ne
 421 0034 0120     		movne	r0, #1
 422 0036 10BD     		pop	{r4, pc}
 423              	.LVL55:
 424              	.L54:
 425 0038 0020     		movs	r0, #0
 426              	.LVL56:
 396:..\u8g2-master\csrc/u8x8_d_lc7981.c **** }
 427              		.loc 1 396 0
 428 003a 10BD     		pop	{r4, pc}
 429              	.L56:
 430              		.align	2
 431              	.L55:
ARM GAS  C:\Users\info\AppData\Local\Temp\cclM9KIe.s 			page 16


 432 003c 88000000 		.word	.LANCHOR0+136
 433 0040 70000000 		.word	.LANCHOR0+112
 434              		.cfi_endproc
 435              	.LFE4:
 436              		.size	u8x8_d_lc7981_240x128, .-u8x8_d_lc7981_240x128
 437              		.section	.text.u8x8_d_lc7981_240x64,"ax",%progbits
 438              		.align	2
 439              		.global	u8x8_d_lc7981_240x64
 440              		.thumb
 441              		.thumb_func
 442              		.type	u8x8_d_lc7981_240x64, %function
 443              	u8x8_d_lc7981_240x64:
 444              	.LFB5:
 397:..\u8g2-master\csrc/u8x8_d_lc7981.c **** 
 398:..\u8g2-master\csrc/u8x8_d_lc7981.c **** 
 399:..\u8g2-master\csrc/u8x8_d_lc7981.c **** /*================================================*/
 400:..\u8g2-master\csrc/u8x8_d_lc7981.c **** /* LC7981 240x64 LCD*/
 401:..\u8g2-master\csrc/u8x8_d_lc7981.c **** /* https://github.com/olikraus/u8g2/issues/642 */
 402:..\u8g2-master\csrc/u8x8_d_lc7981.c **** 
 403:..\u8g2-master\csrc/u8x8_d_lc7981.c **** static const u8x8_display_info_t u8x8_lc7981_240x64_display_info =
 404:..\u8g2-master\csrc/u8x8_d_lc7981.c **** {
 405:..\u8g2-master\csrc/u8x8_d_lc7981.c ****   /* chip_enable_level = */ 0,	/* LC7981 has a low active CS*/
 406:..\u8g2-master\csrc/u8x8_d_lc7981.c ****   /* chip_disable_level = */ 1,
 407:..\u8g2-master\csrc/u8x8_d_lc7981.c ****   
 408:..\u8g2-master\csrc/u8x8_d_lc7981.c ****   /* from here... */
 409:..\u8g2-master\csrc/u8x8_d_lc7981.c ****   /* post_chip_enable_wait_ns = */ 20,	
 410:..\u8g2-master\csrc/u8x8_d_lc7981.c ****   /* pre_chip_disable_wait_ns = */ 20,	
 411:..\u8g2-master\csrc/u8x8_d_lc7981.c ****   /* reset_pulse_width_ms = */ 1, 	
 412:..\u8g2-master\csrc/u8x8_d_lc7981.c ****   /* post_reset_wait_ms = */ 10, 	
 413:..\u8g2-master\csrc/u8x8_d_lc7981.c ****   /* sda_setup_time_ns = */ 30,		
 414:..\u8g2-master\csrc/u8x8_d_lc7981.c ****   /* sck_pulse_width_ns = */ 65,	/* half of cycle time  */
 415:..\u8g2-master\csrc/u8x8_d_lc7981.c ****   /* sck_clock_hz = */ 4000000UL,	/* since Arduino 1.6.0, the SPI bus speed in Hz. Should be  10000
 416:..\u8g2-master\csrc/u8x8_d_lc7981.c ****   /* spi_mode = */ 0,		/* active high, rising edge */
 417:..\u8g2-master\csrc/u8x8_d_lc7981.c ****   /* i2c_bus_clock_100kHz = */ 4,
 418:..\u8g2-master\csrc/u8x8_d_lc7981.c ****   /* ... to here, values are ignored, because this is a parallel interface only */
 419:..\u8g2-master\csrc/u8x8_d_lc7981.c ****   
 420:..\u8g2-master\csrc/u8x8_d_lc7981.c ****   /* data_setup_time_ns = */ 220,	
 421:..\u8g2-master\csrc/u8x8_d_lc7981.c ****   /* write_pulse_width_ns = */ 20,	
 422:..\u8g2-master\csrc/u8x8_d_lc7981.c ****   /* tile_width = */ 30,		/* width of 30*8=240 pixel */
 423:..\u8g2-master\csrc/u8x8_d_lc7981.c ****   /* tile_hight = */ 8,
 424:..\u8g2-master\csrc/u8x8_d_lc7981.c ****   /* default_x_offset = */ 0,	
 425:..\u8g2-master\csrc/u8x8_d_lc7981.c ****   /* flipmode_x_offset = */ 0,	
 426:..\u8g2-master\csrc/u8x8_d_lc7981.c ****   /* pixel_width = */ 240,
 427:..\u8g2-master\csrc/u8x8_d_lc7981.c ****   /* pixel_height = */ 64
 428:..\u8g2-master\csrc/u8x8_d_lc7981.c **** };
 429:..\u8g2-master\csrc/u8x8_d_lc7981.c **** 
 430:..\u8g2-master\csrc/u8x8_d_lc7981.c **** static const uint8_t u8x8_d_lc7981_240x64_init_seq[] = {
 431:..\u8g2-master\csrc/u8x8_d_lc7981.c ****     
 432:..\u8g2-master\csrc/u8x8_d_lc7981.c ****   U8X8_START_TRANSFER(),             	/* enable chip, delay is part of the transfer start */
 433:..\u8g2-master\csrc/u8x8_d_lc7981.c ****   
 434:..\u8g2-master\csrc/u8x8_d_lc7981.c ****   U8X8_DLY(50),
 435:..\u8g2-master\csrc/u8x8_d_lc7981.c **** 
 436:..\u8g2-master\csrc/u8x8_d_lc7981.c ****   U8X8_CA(0x00, 0x32),			/* display on (bit 5), master mode on (bit 4), graphics mode on (bit 1) */
 437:..\u8g2-master\csrc/u8x8_d_lc7981.c ****   U8X8_CA(0x01, 0x07),			/* character/bits per pixel pitch */
 438:..\u8g2-master\csrc/u8x8_d_lc7981.c ****   U8X8_CA(0x02, 240/8-1),		/* number of chars/byte width of the screen */
 439:..\u8g2-master\csrc/u8x8_d_lc7981.c ****   U8X8_CA(0x03, 0x7f),			/* time division */
 440:..\u8g2-master\csrc/u8x8_d_lc7981.c ****   U8X8_CA(0x08, 0x00),			/* display start low */
ARM GAS  C:\Users\info\AppData\Local\Temp\cclM9KIe.s 			page 17


 441:..\u8g2-master\csrc/u8x8_d_lc7981.c ****   U8X8_CA(0x09, 0x00),			/* display start high */
 442:..\u8g2-master\csrc/u8x8_d_lc7981.c **** 
 443:..\u8g2-master\csrc/u8x8_d_lc7981.c ****   U8X8_DLY(10),
 444:..\u8g2-master\csrc/u8x8_d_lc7981.c ****   
 445:..\u8g2-master\csrc/u8x8_d_lc7981.c ****   U8X8_END_TRANSFER(),             	/* disable chip */
 446:..\u8g2-master\csrc/u8x8_d_lc7981.c ****   U8X8_END()             			/* end of sequence */
 447:..\u8g2-master\csrc/u8x8_d_lc7981.c **** };
 448:..\u8g2-master\csrc/u8x8_d_lc7981.c **** 
 449:..\u8g2-master\csrc/u8x8_d_lc7981.c **** uint8_t u8x8_d_lc7981_240x64(u8x8_t *u8x8, uint8_t msg, uint8_t arg_int, void *arg_ptr)
 450:..\u8g2-master\csrc/u8x8_d_lc7981.c **** {
 445              		.loc 1 450 0
 446              		.cfi_startproc
 447              		@ args = 0, pretend = 0, frame = 0
 448              		@ frame_needed = 0, uses_anonymous_args = 0
 449              	.LVL57:
 450              	.LBB36:
 451              	.LBB37:
  89:..\u8g2-master\csrc/u8x8_d_lc7981.c ****   {
 452              		.loc 1 89 0
 453 0000 0F29     		cmp	r1, #15
 454              	.LBE37:
 455              	.LBE36:
 456              		.loc 1 450 0
 457 0002 10B5     		push	{r4, lr}
 458              		.cfi_def_cfa_offset 8
 459              		.cfi_offset 4, -8
 460              		.cfi_offset 14, -4
 461              	.LBB40:
 462              	.LBB38:
  89:..\u8g2-master\csrc/u8x8_d_lc7981.c ****   {
 463              		.loc 1 89 0
 464 0004 11D0     		beq	.L68
 465              	.LVL58:
 466              	.LBE38:
 467              	.LBE40:
 451:..\u8g2-master\csrc/u8x8_d_lc7981.c ****   /* call common procedure first and handle messages there */
 452:..\u8g2-master\csrc/u8x8_d_lc7981.c ****   if ( u8x8_d_lc7981_common(u8x8, msg, arg_int, arg_ptr) == 0 )
 453:..\u8g2-master\csrc/u8x8_d_lc7981.c ****   {
 454:..\u8g2-master\csrc/u8x8_d_lc7981.c ****     /* msg not handled, then try here */
 455:..\u8g2-master\csrc/u8x8_d_lc7981.c ****     switch(msg)
 468              		.loc 1 455 0
 469 0006 0929     		cmp	r1, #9
 470 0008 0AD0     		beq	.L61
 471 000a 0A29     		cmp	r1, #10
 472 000c 14D1     		bne	.L69
 473 000e 0446     		mov	r4, r0
 456:..\u8g2-master\csrc/u8x8_d_lc7981.c ****     {
 457:..\u8g2-master\csrc/u8x8_d_lc7981.c ****       case U8X8_MSG_DISPLAY_SETUP_MEMORY:
 458:..\u8g2-master\csrc/u8x8_d_lc7981.c **** 	u8x8_d_helper_display_setup_memory(u8x8, &u8x8_lc7981_240x64_display_info);
 459:..\u8g2-master\csrc/u8x8_d_lc7981.c **** 	break;
 460:..\u8g2-master\csrc/u8x8_d_lc7981.c ****       case U8X8_MSG_DISPLAY_INIT:
 461:..\u8g2-master\csrc/u8x8_d_lc7981.c **** 	u8x8_d_helper_display_init(u8x8);
 474              		.loc 1 461 0
 475 0010 FFF7FEFF 		bl	u8x8_d_helper_display_init
 476              	.LVL59:
 462:..\u8g2-master\csrc/u8x8_d_lc7981.c **** 	u8x8_cad_SendSequence(u8x8, u8x8_d_lc7981_240x64_init_seq);
 477              		.loc 1 462 0
ARM GAS  C:\Users\info\AppData\Local\Temp\cclM9KIe.s 			page 18


 478 0014 2046     		mov	r0, r4
 479 0016 0949     		ldr	r1, .L70
 480 0018 FFF7FEFF 		bl	u8x8_cad_SendSequence
 481              	.LVL60:
 463:..\u8g2-master\csrc/u8x8_d_lc7981.c **** 	break;
 464:..\u8g2-master\csrc/u8x8_d_lc7981.c ****       default:
 465:..\u8g2-master\csrc/u8x8_d_lc7981.c **** 	return 0;		/* msg unknown */
 466:..\u8g2-master\csrc/u8x8_d_lc7981.c ****     }
 467:..\u8g2-master\csrc/u8x8_d_lc7981.c ****   }
 468:..\u8g2-master\csrc/u8x8_d_lc7981.c ****   return 1;
 482              		.loc 1 468 0
 483 001c 0120     		movs	r0, #1
 463:..\u8g2-master\csrc/u8x8_d_lc7981.c **** 	break;
 484              		.loc 1 463 0
 485 001e 10BD     		pop	{r4, pc}
 486              	.LVL61:
 487              	.L61:
 458:..\u8g2-master\csrc/u8x8_d_lc7981.c **** 	break;
 488              		.loc 1 458 0
 489 0020 0749     		ldr	r1, .L70+4
 490              	.LVL62:
 491 0022 FFF7FEFF 		bl	u8x8_d_helper_display_setup_memory
 492              	.LVL63:
 493              		.loc 1 468 0
 494 0026 0120     		movs	r0, #1
 459:..\u8g2-master\csrc/u8x8_d_lc7981.c ****       case U8X8_MSG_DISPLAY_INIT:
 495              		.loc 1 459 0
 496 0028 10BD     		pop	{r4, pc}
 497              	.LVL64:
 498              	.L68:
 499              	.LBB41:
 500              	.LBB39:
 501 002a 1946     		mov	r1, r3
 502              	.LVL65:
 503 002c FFF7FEFF 		bl	u8x8_d_lc7981_common.isra.0.part.1
 504              	.LVL66:
 505              	.LBE39:
 506              	.LBE41:
 465:..\u8g2-master\csrc/u8x8_d_lc7981.c ****     }
 507              		.loc 1 465 0
 508 0030 0030     		adds	r0, r0, #0
 509 0032 18BF     		it	ne
 510 0034 0120     		movne	r0, #1
 511 0036 10BD     		pop	{r4, pc}
 512              	.LVL67:
 513              	.L69:
 514 0038 0020     		movs	r0, #0
 515              	.LVL68:
 469:..\u8g2-master\csrc/u8x8_d_lc7981.c **** }
 516              		.loc 1 469 0
 517 003a 10BD     		pop	{r4, pc}
 518              	.L71:
 519              		.align	2
 520              	.L70:
 521 003c C0000000 		.word	.LANCHOR0+192
 522 0040 A8000000 		.word	.LANCHOR0+168
 523              		.cfi_endproc
ARM GAS  C:\Users\info\AppData\Local\Temp\cclM9KIe.s 			page 19


 524              	.LFE5:
 525              		.size	u8x8_d_lc7981_240x64, .-u8x8_d_lc7981_240x64
 526              		.section	.rodata
 527              		.align	2
 528              		.set	.LANCHOR0,. + 0
 529              		.type	u8x8_lc7981_160x80_display_info, %object
 530              		.size	u8x8_lc7981_160x80_display_info, 24
 531              	u8x8_lc7981_160x80_display_info:
 532 0000 00       		.byte	0
 533 0001 01       		.byte	1
 534 0002 14       		.byte	20
 535 0003 14       		.byte	20
 536 0004 01       		.byte	1
 537 0005 0A       		.byte	10
 538 0006 1E       		.byte	30
 539 0007 41       		.byte	65
 540 0008 00093D00 		.word	4000000
 541 000c 00       		.byte	0
 542 000d 04       		.byte	4
 543 000e DC       		.byte	-36
 544 000f 14       		.byte	20
 545 0010 14       		.byte	20
 546 0011 0A       		.byte	10
 547 0012 00       		.byte	0
 548 0013 00       		.byte	0
 549 0014 A000     		.short	160
 550 0016 5000     		.short	80
 551              		.type	u8x8_d_lc7981_160x80_init_seq, %object
 552              		.size	u8x8_d_lc7981_160x80_init_seq, 31
 553              	u8x8_d_lc7981_160x80_init_seq:
 554 0018 18       		.byte	24
 555 0019 FE       		.byte	-2
 556 001a 32       		.byte	50
 557 001b 15       		.byte	21
 558 001c 00       		.byte	0
 559 001d 16       		.byte	22
 560 001e 32       		.byte	50
 561 001f 15       		.byte	21
 562 0020 01       		.byte	1
 563 0021 16       		.byte	22
 564 0022 07       		.byte	7
 565 0023 15       		.byte	21
 566 0024 02       		.byte	2
 567 0025 16       		.byte	22
 568 0026 13       		.byte	19
 569 0027 15       		.byte	21
 570 0028 03       		.byte	3
 571 0029 16       		.byte	22
 572 002a 50       		.byte	80
 573 002b 15       		.byte	21
 574 002c 08       		.byte	8
 575 002d 16       		.byte	22
 576 002e 00       		.byte	0
 577 002f 15       		.byte	21
 578 0030 09       		.byte	9
 579 0031 16       		.byte	22
 580 0032 00       		.byte	0
ARM GAS  C:\Users\info\AppData\Local\Temp\cclM9KIe.s 			page 20


 581 0033 FE       		.byte	-2
 582 0034 0A       		.byte	10
 583 0035 19       		.byte	25
 584 0036 FF       		.byte	-1
 585 0037 00       		.space	1
 586              		.type	u8x8_lc7981_160x160_display_info, %object
 587              		.size	u8x8_lc7981_160x160_display_info, 24
 588              	u8x8_lc7981_160x160_display_info:
 589 0038 00       		.byte	0
 590 0039 01       		.byte	1
 591 003a 14       		.byte	20
 592 003b 14       		.byte	20
 593 003c 01       		.byte	1
 594 003d 0A       		.byte	10
 595 003e 1E       		.byte	30
 596 003f 41       		.byte	65
 597 0040 00093D00 		.word	4000000
 598 0044 00       		.byte	0
 599 0045 04       		.byte	4
 600 0046 DC       		.byte	-36
 601 0047 14       		.byte	20
 602 0048 14       		.byte	20
 603 0049 14       		.byte	20
 604 004a 00       		.byte	0
 605 004b 00       		.byte	0
 606 004c A000     		.short	160
 607 004e A000     		.short	160
 608              		.type	u8x8_d_lc7981_160x160_init_seq, %object
 609              		.size	u8x8_d_lc7981_160x160_init_seq, 31
 610              	u8x8_d_lc7981_160x160_init_seq:
 611 0050 18       		.byte	24
 612 0051 FE       		.byte	-2
 613 0052 32       		.byte	50
 614 0053 15       		.byte	21
 615 0054 00       		.byte	0
 616 0055 16       		.byte	22
 617 0056 32       		.byte	50
 618 0057 15       		.byte	21
 619 0058 01       		.byte	1
 620 0059 16       		.byte	22
 621 005a 07       		.byte	7
 622 005b 15       		.byte	21
 623 005c 02       		.byte	2
 624 005d 16       		.byte	22
 625 005e 13       		.byte	19
 626 005f 15       		.byte	21
 627 0060 03       		.byte	3
 628 0061 16       		.byte	22
 629 0062 9F       		.byte	-97
 630 0063 15       		.byte	21
 631 0064 08       		.byte	8
 632 0065 16       		.byte	22
 633 0066 00       		.byte	0
 634 0067 15       		.byte	21
 635 0068 09       		.byte	9
 636 0069 16       		.byte	22
 637 006a 00       		.byte	0
ARM GAS  C:\Users\info\AppData\Local\Temp\cclM9KIe.s 			page 21


 638 006b FE       		.byte	-2
 639 006c 0A       		.byte	10
 640 006d 19       		.byte	25
 641 006e FF       		.byte	-1
 642 006f 00       		.space	1
 643              		.type	u8x8_lc7981_240x128_display_info, %object
 644              		.size	u8x8_lc7981_240x128_display_info, 24
 645              	u8x8_lc7981_240x128_display_info:
 646 0070 00       		.byte	0
 647 0071 01       		.byte	1
 648 0072 14       		.byte	20
 649 0073 14       		.byte	20
 650 0074 01       		.byte	1
 651 0075 0A       		.byte	10
 652 0076 1E       		.byte	30
 653 0077 41       		.byte	65
 654 0078 00093D00 		.word	4000000
 655 007c 00       		.byte	0
 656 007d 04       		.byte	4
 657 007e DC       		.byte	-36
 658 007f 14       		.byte	20
 659 0080 1E       		.byte	30
 660 0081 10       		.byte	16
 661 0082 00       		.byte	0
 662 0083 00       		.byte	0
 663 0084 F000     		.short	240
 664 0086 8000     		.short	128
 665              		.type	u8x8_d_lc7981_240x128_init_seq, %object
 666              		.size	u8x8_d_lc7981_240x128_init_seq, 31
 667              	u8x8_d_lc7981_240x128_init_seq:
 668 0088 18       		.byte	24
 669 0089 FE       		.byte	-2
 670 008a 32       		.byte	50
 671 008b 15       		.byte	21
 672 008c 00       		.byte	0
 673 008d 16       		.byte	22
 674 008e 32       		.byte	50
 675 008f 15       		.byte	21
 676 0090 01       		.byte	1
 677 0091 16       		.byte	22
 678 0092 07       		.byte	7
 679 0093 15       		.byte	21
 680 0094 02       		.byte	2
 681 0095 16       		.byte	22
 682 0096 1D       		.byte	29
 683 0097 15       		.byte	21
 684 0098 03       		.byte	3
 685 0099 16       		.byte	22
 686 009a 7F       		.byte	127
 687 009b 15       		.byte	21
 688 009c 08       		.byte	8
 689 009d 16       		.byte	22
 690 009e 00       		.byte	0
 691 009f 15       		.byte	21
 692 00a0 09       		.byte	9
 693 00a1 16       		.byte	22
 694 00a2 00       		.byte	0
ARM GAS  C:\Users\info\AppData\Local\Temp\cclM9KIe.s 			page 22


 695 00a3 FE       		.byte	-2
 696 00a4 0A       		.byte	10
 697 00a5 19       		.byte	25
 698 00a6 FF       		.byte	-1
 699 00a7 00       		.space	1
 700              		.type	u8x8_lc7981_240x64_display_info, %object
 701              		.size	u8x8_lc7981_240x64_display_info, 24
 702              	u8x8_lc7981_240x64_display_info:
 703 00a8 00       		.byte	0
 704 00a9 01       		.byte	1
 705 00aa 14       		.byte	20
 706 00ab 14       		.byte	20
 707 00ac 01       		.byte	1
 708 00ad 0A       		.byte	10
 709 00ae 1E       		.byte	30
 710 00af 41       		.byte	65
 711 00b0 00093D00 		.word	4000000
 712 00b4 00       		.byte	0
 713 00b5 04       		.byte	4
 714 00b6 DC       		.byte	-36
 715 00b7 14       		.byte	20
 716 00b8 1E       		.byte	30
 717 00b9 08       		.byte	8
 718 00ba 00       		.byte	0
 719 00bb 00       		.byte	0
 720 00bc F000     		.short	240
 721 00be 4000     		.short	64
 722              		.type	u8x8_d_lc7981_240x64_init_seq, %object
 723              		.size	u8x8_d_lc7981_240x64_init_seq, 31
 724              	u8x8_d_lc7981_240x64_init_seq:
 725 00c0 18       		.byte	24
 726 00c1 FE       		.byte	-2
 727 00c2 32       		.byte	50
 728 00c3 15       		.byte	21
 729 00c4 00       		.byte	0
 730 00c5 16       		.byte	22
 731 00c6 32       		.byte	50
 732 00c7 15       		.byte	21
 733 00c8 01       		.byte	1
 734 00c9 16       		.byte	22
 735 00ca 07       		.byte	7
 736 00cb 15       		.byte	21
 737 00cc 02       		.byte	2
 738 00cd 16       		.byte	22
 739 00ce 1D       		.byte	29
 740 00cf 15       		.byte	21
 741 00d0 03       		.byte	3
 742 00d1 16       		.byte	22
 743 00d2 7F       		.byte	127
 744 00d3 15       		.byte	21
 745 00d4 08       		.byte	8
 746 00d5 16       		.byte	22
 747 00d6 00       		.byte	0
 748 00d7 15       		.byte	21
 749 00d8 09       		.byte	9
 750 00d9 16       		.byte	22
 751 00da 00       		.byte	0
ARM GAS  C:\Users\info\AppData\Local\Temp\cclM9KIe.s 			page 23


 752 00db FE       		.byte	-2
 753 00dc 0A       		.byte	10
 754 00dd 19       		.byte	25
 755 00de FF       		.byte	-1
 756              		.text
 757              	.Letext0:
 758              		.file 2 "c:\\program files (x86)\\cypress\\psoc creator\\4.2\\psoc creator\\import\\gnu\\arm\\5.4.
 759              		.file 3 "c:\\program files (x86)\\cypress\\psoc creator\\4.2\\psoc creator\\import\\gnu\\arm\\5.4.
 760              		.file 4 "..\\u8g2-master\\csrc\\u8x8.h"