ARM GAS  C:\Users\info\AppData\Local\Temp\ccc1wWv7.s 			page 1


   1              		.syntax unified
   2              		.cpu cortex-m3
   3              		.fpu softvfp
   4              		.eabi_attribute 20, 1
   5              		.eabi_attribute 21, 1
   6              		.eabi_attribute 23, 3
   7              		.eabi_attribute 24, 1
   8              		.eabi_attribute 25, 1
   9              		.eabi_attribute 26, 1
  10              		.eabi_attribute 30, 2
  11              		.eabi_attribute 34, 1
  12              		.eabi_attribute 18, 4
  13              		.thumb
  14              		.syntax unified
  15              		.file	"u8x8_d_pcf8814_hx1230.c"
  16              		.text
  17              	.Ltext0:
  18              		.cfi_sections	.debug_frame
  19              		.section	.text.u8x8_d_hx1230_96x68,"ax",%progbits
  20              		.align	2
  21              		.global	u8x8_d_hx1230_96x68
  22              		.thumb
  23              		.thumb_func
  24              		.type	u8x8_d_hx1230_96x68, %function
  25              	u8x8_d_hx1230_96x68:
  26              	.LFB1:
  27              		.file 1 "..\\u8g2-master\\csrc\\u8x8_d_pcf8814_hx1230.c"
   1:..\u8g2-master\csrc/u8x8_d_pcf8814_hx1230.c **** /*
   2:..\u8g2-master\csrc/u8x8_d_pcf8814_hx1230.c **** 
   3:..\u8g2-master\csrc/u8x8_d_pcf8814_hx1230.c ****   u8x8_d_pcf8814_hc1230.c
   4:..\u8g2-master\csrc/u8x8_d_pcf8814_hx1230.c ****   
   5:..\u8g2-master\csrc/u8x8_d_pcf8814_hx1230.c ****   pcf8814: 65x96
   6:..\u8g2-master\csrc/u8x8_d_pcf8814_hx1230.c ****   hx1230: 68x96
   7:..\u8g2-master\csrc/u8x8_d_pcf8814_hx1230.c ****   
   8:..\u8g2-master\csrc/u8x8_d_pcf8814_hx1230.c ****   pcf8814 and hc1230 are almost identical.
   9:..\u8g2-master\csrc/u8x8_d_pcf8814_hx1230.c **** 
  10:..\u8g2-master\csrc/u8x8_d_pcf8814_hx1230.c ****   Universal 8bit Graphics Library (https://github.com/olikraus/u8g2/)
  11:..\u8g2-master\csrc/u8x8_d_pcf8814_hx1230.c **** 
  12:..\u8g2-master\csrc/u8x8_d_pcf8814_hx1230.c ****   Copyright (c) 2017, olikraus@gmail.com
  13:..\u8g2-master\csrc/u8x8_d_pcf8814_hx1230.c ****   All rights reserved.
  14:..\u8g2-master\csrc/u8x8_d_pcf8814_hx1230.c **** 
  15:..\u8g2-master\csrc/u8x8_d_pcf8814_hx1230.c ****   Redistribution and use in source and binary forms, with or without modification, 
  16:..\u8g2-master\csrc/u8x8_d_pcf8814_hx1230.c ****   are permitted provided that the following conditions are met:
  17:..\u8g2-master\csrc/u8x8_d_pcf8814_hx1230.c **** 
  18:..\u8g2-master\csrc/u8x8_d_pcf8814_hx1230.c ****   * Redistributions of source code must retain the above copyright notice, this list 
  19:..\u8g2-master\csrc/u8x8_d_pcf8814_hx1230.c ****     of conditions and the following disclaimer.
  20:..\u8g2-master\csrc/u8x8_d_pcf8814_hx1230.c ****     
  21:..\u8g2-master\csrc/u8x8_d_pcf8814_hx1230.c ****   * Redistributions in binary form must reproduce the above copyright notice, this 
  22:..\u8g2-master\csrc/u8x8_d_pcf8814_hx1230.c ****     list of conditions and the following disclaimer in the documentation and/or other 
  23:..\u8g2-master\csrc/u8x8_d_pcf8814_hx1230.c ****     materials provided with the distribution.
  24:..\u8g2-master\csrc/u8x8_d_pcf8814_hx1230.c **** 
  25:..\u8g2-master\csrc/u8x8_d_pcf8814_hx1230.c ****   THIS SOFTWARE IS PROVIDED BY THE COPYRIGHT HOLDERS AND 
  26:..\u8g2-master\csrc/u8x8_d_pcf8814_hx1230.c ****   CONTRIBUTORS "AS IS" AND ANY EXPRESS OR IMPLIED WARRANTIES, 
  27:..\u8g2-master\csrc/u8x8_d_pcf8814_hx1230.c ****   INCLUDING, BUT NOT LIMITED TO, THE IMPLIED WARRANTIES OF 
  28:..\u8g2-master\csrc/u8x8_d_pcf8814_hx1230.c ****   MERCHANTABILITY AND FITNESS FOR A PARTICULAR PURPOSE ARE 
  29:..\u8g2-master\csrc/u8x8_d_pcf8814_hx1230.c ****   DISCLAIMED. IN NO EVENT SHALL THE COPYRIGHT HOLDER OR 
  30:..\u8g2-master\csrc/u8x8_d_pcf8814_hx1230.c ****   CONTRIBUTORS BE LIABLE FOR ANY DIRECT, INDIRECT, INCIDENTAL, 
ARM GAS  C:\Users\info\AppData\Local\Temp\ccc1wWv7.s 			page 2


  31:..\u8g2-master\csrc/u8x8_d_pcf8814_hx1230.c ****   SPECIAL, EXEMPLARY, OR CONSEQUENTIAL DAMAGES (INCLUDING, BUT 
  32:..\u8g2-master\csrc/u8x8_d_pcf8814_hx1230.c ****   NOT LIMITED TO, PROCUREMENT OF SUBSTITUTE GOODS OR SERVICES; 
  33:..\u8g2-master\csrc/u8x8_d_pcf8814_hx1230.c ****   LOSS OF USE, DATA, OR PROFITS; OR BUSINESS INTERRUPTION) HOWEVER 
  34:..\u8g2-master\csrc/u8x8_d_pcf8814_hx1230.c ****   CAUSED AND ON ANY THEORY OF LIABILITY, WHETHER IN CONTRACT, 
  35:..\u8g2-master\csrc/u8x8_d_pcf8814_hx1230.c ****   STRICT LIABILITY, OR TORT (INCLUDING NEGLIGENCE OR OTHERWISE) 
  36:..\u8g2-master\csrc/u8x8_d_pcf8814_hx1230.c ****   ARISING IN ANY WAY OUT OF THE USE OF THIS SOFTWARE, EVEN IF 
  37:..\u8g2-master\csrc/u8x8_d_pcf8814_hx1230.c ****   ADVISED OF THE POSSIBILITY OF SUCH DAMAGE.  
  38:..\u8g2-master\csrc/u8x8_d_pcf8814_hx1230.c ****   
  39:..\u8g2-master\csrc/u8x8_d_pcf8814_hx1230.c **** */
  40:..\u8g2-master\csrc/u8x8_d_pcf8814_hx1230.c **** 
  41:..\u8g2-master\csrc/u8x8_d_pcf8814_hx1230.c **** 
  42:..\u8g2-master\csrc/u8x8_d_pcf8814_hx1230.c **** #include "u8x8.h"
  43:..\u8g2-master\csrc/u8x8_d_pcf8814_hx1230.c **** 
  44:..\u8g2-master\csrc/u8x8_d_pcf8814_hx1230.c **** 
  45:..\u8g2-master\csrc/u8x8_d_pcf8814_hx1230.c **** 
  46:..\u8g2-master\csrc/u8x8_d_pcf8814_hx1230.c **** static const uint8_t u8x8_d_hx1230_96x68_init_seq[] = {
  47:..\u8g2-master\csrc/u8x8_d_pcf8814_hx1230.c ****     
  48:..\u8g2-master\csrc/u8x8_d_pcf8814_hx1230.c ****   U8X8_START_TRANSFER(),             	/* enable chip, delay is part of the transfer start */
  49:..\u8g2-master\csrc/u8x8_d_pcf8814_hx1230.c ****   
  50:..\u8g2-master\csrc/u8x8_d_pcf8814_hx1230.c ****   U8X8_C(0x0ae),		                /* display off */
  51:..\u8g2-master\csrc/u8x8_d_pcf8814_hx1230.c ****   U8X8_C(0x020),		                /* power off */
  52:..\u8g2-master\csrc/u8x8_d_pcf8814_hx1230.c ****   U8X8_C(0x080),				/* contrast setting, 0..31, set to 0 */
  53:..\u8g2-master\csrc/u8x8_d_pcf8814_hx1230.c ****   U8X8_C(0x0a6),		                /* not inverted display */
  54:..\u8g2-master\csrc/u8x8_d_pcf8814_hx1230.c ****   U8X8_C(0x0a4),		                /* normal display mode */
  55:..\u8g2-master\csrc/u8x8_d_pcf8814_hx1230.c **** 
  56:..\u8g2-master\csrc/u8x8_d_pcf8814_hx1230.c ****   U8X8_C(0x0a0),		                /* */
  57:..\u8g2-master\csrc/u8x8_d_pcf8814_hx1230.c ****   U8X8_C(0x0c0),		                /* */
  58:..\u8g2-master\csrc/u8x8_d_pcf8814_hx1230.c ****   
  59:..\u8g2-master\csrc/u8x8_d_pcf8814_hx1230.c ****   U8X8_C(0x040),		                /* start at scanline 0 */
  60:..\u8g2-master\csrc/u8x8_d_pcf8814_hx1230.c ****     
  61:..\u8g2-master\csrc/u8x8_d_pcf8814_hx1230.c ****   U8X8_END_TRANSFER(),             	/* disable chip */
  62:..\u8g2-master\csrc/u8x8_d_pcf8814_hx1230.c ****   U8X8_END()             			/* end of sequence */
  63:..\u8g2-master\csrc/u8x8_d_pcf8814_hx1230.c **** };
  64:..\u8g2-master\csrc/u8x8_d_pcf8814_hx1230.c **** 
  65:..\u8g2-master\csrc/u8x8_d_pcf8814_hx1230.c **** static const uint8_t u8x8_d_hx1230_96x68_powersave0_seq[] = {
  66:..\u8g2-master\csrc/u8x8_d_pcf8814_hx1230.c ****   U8X8_START_TRANSFER(),             	/* enable chip, delay is part of the transfer start */
  67:..\u8g2-master\csrc/u8x8_d_pcf8814_hx1230.c ****   U8X8_C(0x02f),		                /* power on */
  68:..\u8g2-master\csrc/u8x8_d_pcf8814_hx1230.c ****   U8X8_C(0x0af),		                /* display on */
  69:..\u8g2-master\csrc/u8x8_d_pcf8814_hx1230.c ****   U8X8_END_TRANSFER(),             	/* disable chip */
  70:..\u8g2-master\csrc/u8x8_d_pcf8814_hx1230.c ****   U8X8_END()             			/* end of sequence */
  71:..\u8g2-master\csrc/u8x8_d_pcf8814_hx1230.c **** };
  72:..\u8g2-master\csrc/u8x8_d_pcf8814_hx1230.c **** 
  73:..\u8g2-master\csrc/u8x8_d_pcf8814_hx1230.c **** static const uint8_t u8x8_d_hx1230_96x68_powersave1_seq[] = {
  74:..\u8g2-master\csrc/u8x8_d_pcf8814_hx1230.c ****   U8X8_START_TRANSFER(),             	/* enable chip, delay is part of the transfer start */
  75:..\u8g2-master\csrc/u8x8_d_pcf8814_hx1230.c ****   U8X8_C(0x0ae),           		/* display off */
  76:..\u8g2-master\csrc/u8x8_d_pcf8814_hx1230.c ****   U8X8_C(0x0a5),	     		/* All pixels on = powersave */
  77:..\u8g2-master\csrc/u8x8_d_pcf8814_hx1230.c ****   U8X8_END_TRANSFER(),             	/* disable chip */
  78:..\u8g2-master\csrc/u8x8_d_pcf8814_hx1230.c ****   U8X8_END()             			/* end of sequence */
  79:..\u8g2-master\csrc/u8x8_d_pcf8814_hx1230.c **** };
  80:..\u8g2-master\csrc/u8x8_d_pcf8814_hx1230.c **** 
  81:..\u8g2-master\csrc/u8x8_d_pcf8814_hx1230.c **** static const uint8_t u8x8_d_hx1230_96x68_flip0_seq[] = {
  82:..\u8g2-master\csrc/u8x8_d_pcf8814_hx1230.c ****   U8X8_START_TRANSFER(),             	/* enable chip, delay is part of the transfer start */
  83:..\u8g2-master\csrc/u8x8_d_pcf8814_hx1230.c ****   U8X8_C(0x0a0),		                /* */
  84:..\u8g2-master\csrc/u8x8_d_pcf8814_hx1230.c ****   U8X8_C(0x0c0),		                /* */
  85:..\u8g2-master\csrc/u8x8_d_pcf8814_hx1230.c ****   U8X8_END_TRANSFER(),             	/* disable chip */
  86:..\u8g2-master\csrc/u8x8_d_pcf8814_hx1230.c ****   U8X8_END()             			/* end of sequence */
  87:..\u8g2-master\csrc/u8x8_d_pcf8814_hx1230.c **** };
ARM GAS  C:\Users\info\AppData\Local\Temp\ccc1wWv7.s 			page 3


  88:..\u8g2-master\csrc/u8x8_d_pcf8814_hx1230.c **** 
  89:..\u8g2-master\csrc/u8x8_d_pcf8814_hx1230.c **** static const uint8_t u8x8_d_hx1230_96x68_flip1_seq[] = {
  90:..\u8g2-master\csrc/u8x8_d_pcf8814_hx1230.c ****   U8X8_START_TRANSFER(),             	/* enable chip, delay is part of the transfer start */
  91:..\u8g2-master\csrc/u8x8_d_pcf8814_hx1230.c ****   U8X8_C(0x0a1),		                /* */
  92:..\u8g2-master\csrc/u8x8_d_pcf8814_hx1230.c ****   U8X8_C(0x0c8),		                /* */
  93:..\u8g2-master\csrc/u8x8_d_pcf8814_hx1230.c ****   U8X8_END_TRANSFER(),             	/* disable chip */
  94:..\u8g2-master\csrc/u8x8_d_pcf8814_hx1230.c ****   U8X8_END()             			/* end of sequence */
  95:..\u8g2-master\csrc/u8x8_d_pcf8814_hx1230.c **** };
  96:..\u8g2-master\csrc/u8x8_d_pcf8814_hx1230.c **** 
  97:..\u8g2-master\csrc/u8x8_d_pcf8814_hx1230.c **** 
  98:..\u8g2-master\csrc/u8x8_d_pcf8814_hx1230.c **** static uint8_t u8x8_d_hx1230_96x68_generic(u8x8_t *u8x8, uint8_t msg, uint8_t arg_int, void *arg_pt
  99:..\u8g2-master\csrc/u8x8_d_pcf8814_hx1230.c **** {
 100:..\u8g2-master\csrc/u8x8_d_pcf8814_hx1230.c ****   uint8_t x, c;
 101:..\u8g2-master\csrc/u8x8_d_pcf8814_hx1230.c ****   uint8_t *ptr;
 102:..\u8g2-master\csrc/u8x8_d_pcf8814_hx1230.c ****   switch(msg)
 103:..\u8g2-master\csrc/u8x8_d_pcf8814_hx1230.c ****   {
 104:..\u8g2-master\csrc/u8x8_d_pcf8814_hx1230.c ****     /* handled by the calling function
 105:..\u8g2-master\csrc/u8x8_d_pcf8814_hx1230.c ****     case U8X8_MSG_DISPLAY_SETUP_MEMORY:
 106:..\u8g2-master\csrc/u8x8_d_pcf8814_hx1230.c ****       u8x8_d_helper_display_setup_memory(u8x8, &u8x8_hx1230_96x68_display_info);
 107:..\u8g2-master\csrc/u8x8_d_pcf8814_hx1230.c ****       break;
 108:..\u8g2-master\csrc/u8x8_d_pcf8814_hx1230.c ****     */
 109:..\u8g2-master\csrc/u8x8_d_pcf8814_hx1230.c ****     case U8X8_MSG_DISPLAY_INIT:
 110:..\u8g2-master\csrc/u8x8_d_pcf8814_hx1230.c ****       u8x8_d_helper_display_init(u8x8);
 111:..\u8g2-master\csrc/u8x8_d_pcf8814_hx1230.c ****       u8x8_cad_SendSequence(u8x8, u8x8_d_hx1230_96x68_init_seq);    
 112:..\u8g2-master\csrc/u8x8_d_pcf8814_hx1230.c ****       break;
 113:..\u8g2-master\csrc/u8x8_d_pcf8814_hx1230.c ****     case U8X8_MSG_DISPLAY_SET_POWER_SAVE:
 114:..\u8g2-master\csrc/u8x8_d_pcf8814_hx1230.c ****       if ( arg_int == 0 )
 115:..\u8g2-master\csrc/u8x8_d_pcf8814_hx1230.c **** 	u8x8_cad_SendSequence(u8x8, u8x8_d_hx1230_96x68_powersave0_seq);
 116:..\u8g2-master\csrc/u8x8_d_pcf8814_hx1230.c ****       else
 117:..\u8g2-master\csrc/u8x8_d_pcf8814_hx1230.c **** 	u8x8_cad_SendSequence(u8x8, u8x8_d_hx1230_96x68_powersave1_seq);
 118:..\u8g2-master\csrc/u8x8_d_pcf8814_hx1230.c ****       break;
 119:..\u8g2-master\csrc/u8x8_d_pcf8814_hx1230.c ****     case U8X8_MSG_DISPLAY_SET_FLIP_MODE:
 120:..\u8g2-master\csrc/u8x8_d_pcf8814_hx1230.c ****       if ( arg_int == 0 )
 121:..\u8g2-master\csrc/u8x8_d_pcf8814_hx1230.c ****       {
 122:..\u8g2-master\csrc/u8x8_d_pcf8814_hx1230.c **** 	u8x8_cad_SendSequence(u8x8, u8x8_d_hx1230_96x68_flip0_seq);
 123:..\u8g2-master\csrc/u8x8_d_pcf8814_hx1230.c **** 	u8x8->x_offset = u8x8->display_info->default_x_offset;
 124:..\u8g2-master\csrc/u8x8_d_pcf8814_hx1230.c ****       }
 125:..\u8g2-master\csrc/u8x8_d_pcf8814_hx1230.c ****       else
 126:..\u8g2-master\csrc/u8x8_d_pcf8814_hx1230.c ****       {
 127:..\u8g2-master\csrc/u8x8_d_pcf8814_hx1230.c **** 	u8x8_cad_SendSequence(u8x8, u8x8_d_hx1230_96x68_flip1_seq);
 128:..\u8g2-master\csrc/u8x8_d_pcf8814_hx1230.c **** 	u8x8->x_offset = u8x8->display_info->flipmode_x_offset;
 129:..\u8g2-master\csrc/u8x8_d_pcf8814_hx1230.c ****       }
 130:..\u8g2-master\csrc/u8x8_d_pcf8814_hx1230.c ****       break;
 131:..\u8g2-master\csrc/u8x8_d_pcf8814_hx1230.c **** #ifdef U8X8_WITH_SET_CONTRAST
 132:..\u8g2-master\csrc/u8x8_d_pcf8814_hx1230.c ****     case U8X8_MSG_DISPLAY_SET_CONTRAST:
 133:..\u8g2-master\csrc/u8x8_d_pcf8814_hx1230.c ****       u8x8_cad_StartTransfer(u8x8);
 134:..\u8g2-master\csrc/u8x8_d_pcf8814_hx1230.c ****       u8x8_cad_SendCmd(u8x8, (arg_int>>3)|0x80 );	/* 0..31 for contrast */
 135:..\u8g2-master\csrc/u8x8_d_pcf8814_hx1230.c ****       u8x8_cad_EndTransfer(u8x8);
 136:..\u8g2-master\csrc/u8x8_d_pcf8814_hx1230.c ****       break;
 137:..\u8g2-master\csrc/u8x8_d_pcf8814_hx1230.c **** #endif
 138:..\u8g2-master\csrc/u8x8_d_pcf8814_hx1230.c ****     case U8X8_MSG_DISPLAY_DRAW_TILE:
 139:..\u8g2-master\csrc/u8x8_d_pcf8814_hx1230.c ****       u8x8_cad_StartTransfer(u8x8);
 140:..\u8g2-master\csrc/u8x8_d_pcf8814_hx1230.c ****       x = ((u8x8_tile_t *)arg_ptr)->x_pos;    
 141:..\u8g2-master\csrc/u8x8_d_pcf8814_hx1230.c ****       x *= 8;
 142:..\u8g2-master\csrc/u8x8_d_pcf8814_hx1230.c ****       x += u8x8->x_offset;
 143:..\u8g2-master\csrc/u8x8_d_pcf8814_hx1230.c ****     
 144:..\u8g2-master\csrc/u8x8_d_pcf8814_hx1230.c ****       u8x8_cad_SendCmd(u8x8, x&15);
ARM GAS  C:\Users\info\AppData\Local\Temp\ccc1wWv7.s 			page 4


 145:..\u8g2-master\csrc/u8x8_d_pcf8814_hx1230.c ****       u8x8_cad_SendCmd(u8x8, 0x010 | (x>>4));
 146:..\u8g2-master\csrc/u8x8_d_pcf8814_hx1230.c ****       u8x8_cad_SendCmd(u8x8, 0x0b0 | ((u8x8_tile_t *)arg_ptr)->y_pos);
 147:..\u8g2-master\csrc/u8x8_d_pcf8814_hx1230.c ****       
 148:..\u8g2-master\csrc/u8x8_d_pcf8814_hx1230.c ****       do
 149:..\u8g2-master\csrc/u8x8_d_pcf8814_hx1230.c ****       {
 150:..\u8g2-master\csrc/u8x8_d_pcf8814_hx1230.c **** 	c = ((u8x8_tile_t *)arg_ptr)->cnt;
 151:..\u8g2-master\csrc/u8x8_d_pcf8814_hx1230.c **** 	ptr = ((u8x8_tile_t *)arg_ptr)->tile_ptr;
 152:..\u8g2-master\csrc/u8x8_d_pcf8814_hx1230.c **** 	u8x8_cad_SendData(u8x8, c*8, ptr); 	/* note: SendData can not handle more than 255 bytes */
 153:..\u8g2-master\csrc/u8x8_d_pcf8814_hx1230.c **** 	arg_int--;
 154:..\u8g2-master\csrc/u8x8_d_pcf8814_hx1230.c ****       } while( arg_int > 0 );
 155:..\u8g2-master\csrc/u8x8_d_pcf8814_hx1230.c ****       
 156:..\u8g2-master\csrc/u8x8_d_pcf8814_hx1230.c ****       u8x8_cad_EndTransfer(u8x8);
 157:..\u8g2-master\csrc/u8x8_d_pcf8814_hx1230.c ****       break;
 158:..\u8g2-master\csrc/u8x8_d_pcf8814_hx1230.c ****     default:
 159:..\u8g2-master\csrc/u8x8_d_pcf8814_hx1230.c ****       return 0;
 160:..\u8g2-master\csrc/u8x8_d_pcf8814_hx1230.c ****   }
 161:..\u8g2-master\csrc/u8x8_d_pcf8814_hx1230.c ****   return 1;
 162:..\u8g2-master\csrc/u8x8_d_pcf8814_hx1230.c **** }
 163:..\u8g2-master\csrc/u8x8_d_pcf8814_hx1230.c **** 
 164:..\u8g2-master\csrc/u8x8_d_pcf8814_hx1230.c **** static const u8x8_display_info_t u8x8_hx1230_96x68_display_info =
 165:..\u8g2-master\csrc/u8x8_d_pcf8814_hx1230.c **** {
 166:..\u8g2-master\csrc/u8x8_d_pcf8814_hx1230.c ****   /* chip_enable_level = */ 0,
 167:..\u8g2-master\csrc/u8x8_d_pcf8814_hx1230.c ****   /* chip_disable_level = */ 1,
 168:..\u8g2-master\csrc/u8x8_d_pcf8814_hx1230.c ****   
 169:..\u8g2-master\csrc/u8x8_d_pcf8814_hx1230.c ****   /* post_chip_enable_wait_ns = */ 100,
 170:..\u8g2-master\csrc/u8x8_d_pcf8814_hx1230.c ****   /* pre_chip_disable_wait_ns = */ 100,
 171:..\u8g2-master\csrc/u8x8_d_pcf8814_hx1230.c ****   /* reset_pulse_width_ms = */ 100, 
 172:..\u8g2-master\csrc/u8x8_d_pcf8814_hx1230.c ****   /* post_reset_wait_ms = */ 100, 
 173:..\u8g2-master\csrc/u8x8_d_pcf8814_hx1230.c ****   /* sda_setup_time_ns = */ 100,	
 174:..\u8g2-master\csrc/u8x8_d_pcf8814_hx1230.c ****   /* sck_pulse_width_ns = */ 100,	
 175:..\u8g2-master\csrc/u8x8_d_pcf8814_hx1230.c ****   /* sck_clock_hz = */ 4000000UL,	/* since Arduino 1.6.0, the SPI bus speed in Hz. Should be  10000
 176:..\u8g2-master\csrc/u8x8_d_pcf8814_hx1230.c ****   /* spi_mode = */ 0,		/* active high, rising edge */
 177:..\u8g2-master\csrc/u8x8_d_pcf8814_hx1230.c ****   /* i2c_bus_clock_100kHz = */ 4,
 178:..\u8g2-master\csrc/u8x8_d_pcf8814_hx1230.c ****   /* data_setup_time_ns = */ 40,
 179:..\u8g2-master\csrc/u8x8_d_pcf8814_hx1230.c ****   /* write_pulse_width_ns = */ 150,	
 180:..\u8g2-master\csrc/u8x8_d_pcf8814_hx1230.c ****   /* tile_width = */ 12,
 181:..\u8g2-master\csrc/u8x8_d_pcf8814_hx1230.c ****   /* tile_hight = */ 9,
 182:..\u8g2-master\csrc/u8x8_d_pcf8814_hx1230.c ****   /* default_x_offset = */ 0,
 183:..\u8g2-master\csrc/u8x8_d_pcf8814_hx1230.c ****   /* flipmode_x_offset = */ 0,
 184:..\u8g2-master\csrc/u8x8_d_pcf8814_hx1230.c ****   /* pixel_width = */ 96,
 185:..\u8g2-master\csrc/u8x8_d_pcf8814_hx1230.c ****   /* pixel_height = */ 68
 186:..\u8g2-master\csrc/u8x8_d_pcf8814_hx1230.c **** };
 187:..\u8g2-master\csrc/u8x8_d_pcf8814_hx1230.c **** 
 188:..\u8g2-master\csrc/u8x8_d_pcf8814_hx1230.c **** uint8_t u8x8_d_hx1230_96x68(u8x8_t *u8x8, uint8_t msg, uint8_t arg_int, void *arg_ptr)
 189:..\u8g2-master\csrc/u8x8_d_pcf8814_hx1230.c **** {
  28              		.loc 1 189 0
  29              		.cfi_startproc
  30              		@ args = 0, pretend = 0, frame = 0
  31              		@ frame_needed = 0, uses_anonymous_args = 0
  32              	.LVL0:
 190:..\u8g2-master\csrc/u8x8_d_pcf8814_hx1230.c ****     if ( msg == U8X8_MSG_DISPLAY_SETUP_MEMORY )
  33              		.loc 1 190 0
  34 0000 0929     		cmp	r1, #9
 189:..\u8g2-master\csrc/u8x8_d_pcf8814_hx1230.c ****     if ( msg == U8X8_MSG_DISPLAY_SETUP_MEMORY )
  35              		.loc 1 189 0
  36 0002 F8B5     		push	{r3, r4, r5, r6, r7, lr}
  37              		.cfi_def_cfa_offset 24
ARM GAS  C:\Users\info\AppData\Local\Temp\ccc1wWv7.s 			page 5


  38              		.cfi_offset 3, -24
  39              		.cfi_offset 4, -20
  40              		.cfi_offset 5, -16
  41              		.cfi_offset 6, -12
  42              		.cfi_offset 7, -8
  43              		.cfi_offset 14, -4
  44              		.loc 1 190 0
  45 0004 5CD0     		beq	.L17
  46              	.LBB4:
  47              	.LBB5:
 102:..\u8g2-master\csrc/u8x8_d_pcf8814_hx1230.c ****   {
  48              		.loc 1 102 0
  49 0006 0A39     		subs	r1, r1, #10
  50              	.LVL1:
  51 0008 1446     		mov	r4, r2
  52 000a 1E46     		mov	r6, r3
  53 000c 0546     		mov	r5, r0
  54              	.LVL2:
  55 000e 0529     		cmp	r1, #5
  56 0010 54D8     		bhi	.L13
  57 0012 DFE801F0 		tbb	[pc, r1]
  58              	.LVL3:
  59              	.L5:
  60 0016 2E       		.byte	(.L4-.L5)/2
  61 0017 4D       		.byte	(.L6-.L5)/2
  62 0018 53       		.byte	(.L13-.L5)/2
  63 0019 36       		.byte	(.L7-.L5)/2
  64 001a 40       		.byte	(.L8-.L5)/2
  65 001b 03       		.byte	(.L9-.L5)/2
  66              		.p2align 1
  67              	.L9:
 139:..\u8g2-master\csrc/u8x8_d_pcf8814_hx1230.c ****       x = ((u8x8_tile_t *)arg_ptr)->x_pos;    
  68              		.loc 1 139 0
  69 001c FFF7FEFF 		bl	u8x8_cad_StartTransfer
  70              	.LVL4:
 142:..\u8g2-master\csrc/u8x8_d_pcf8814_hx1230.c ****     
  71              		.loc 1 142 0
  72 0020 95F82230 		ldrb	r3, [r5, #34]	@ zero_extendqisi2
 140:..\u8g2-master\csrc/u8x8_d_pcf8814_hx1230.c ****       x *= 8;
  73              		.loc 1 140 0
  74 0024 7779     		ldrb	r7, [r6, #5]	@ zero_extendqisi2
  75              	.LVL5:
 144:..\u8g2-master\csrc/u8x8_d_pcf8814_hx1230.c ****       u8x8_cad_SendCmd(u8x8, 0x010 | (x>>4));
  76              		.loc 1 144 0
  77 0026 2846     		mov	r0, r5
 142:..\u8g2-master\csrc/u8x8_d_pcf8814_hx1230.c ****     
  78              		.loc 1 142 0
  79 0028 03EBC707 		add	r7, r3, r7, lsl #3
  80              	.LVL6:
  81 002c 07F0FF07 		and	r7, r7, #255
  82              	.LVL7:
 144:..\u8g2-master\csrc/u8x8_d_pcf8814_hx1230.c ****       u8x8_cad_SendCmd(u8x8, 0x010 | (x>>4));
  83              		.loc 1 144 0
  84 0030 07F00F01 		and	r1, r7, #15
  85 0034 FFF7FEFF 		bl	u8x8_cad_SendCmd
  86              	.LVL8:
 145:..\u8g2-master\csrc/u8x8_d_pcf8814_hx1230.c ****       u8x8_cad_SendCmd(u8x8, 0x0b0 | ((u8x8_tile_t *)arg_ptr)->y_pos);
ARM GAS  C:\Users\info\AppData\Local\Temp\ccc1wWv7.s 			page 6


  87              		.loc 1 145 0
  88 0038 3909     		lsrs	r1, r7, #4
  89 003a 41F01001 		orr	r1, r1, #16
  90 003e 2846     		mov	r0, r5
  91 0040 FFF7FEFF 		bl	u8x8_cad_SendCmd
  92              	.LVL9:
 146:..\u8g2-master\csrc/u8x8_d_pcf8814_hx1230.c ****       
  93              		.loc 1 146 0
  94 0044 B179     		ldrb	r1, [r6, #6]	@ zero_extendqisi2
  95 0046 2846     		mov	r0, r5
  96 0048 41F0B001 		orr	r1, r1, #176
  97 004c FFF7FEFF 		bl	u8x8_cad_SendCmd
  98              	.LVL10:
  99              	.L12:
 152:..\u8g2-master\csrc/u8x8_d_pcf8814_hx1230.c **** 	arg_int--;
 100              		.loc 1 152 0
 101 0050 3179     		ldrb	r1, [r6, #4]	@ zero_extendqisi2
 102 0052 3268     		ldr	r2, [r6]
 103 0054 C900     		lsls	r1, r1, #3
 104 0056 01F0F801 		and	r1, r1, #248
 105 005a 2846     		mov	r0, r5
 106 005c FFF7FEFF 		bl	u8x8_cad_SendData
 107              	.LVL11:
 153:..\u8g2-master\csrc/u8x8_d_pcf8814_hx1230.c ****       } while( arg_int > 0 );
 108              		.loc 1 153 0
 109 0060 621E     		subs	r2, r4, #1
 110              	.LVL12:
 154:..\u8g2-master\csrc/u8x8_d_pcf8814_hx1230.c ****       
 111              		.loc 1 154 0
 112 0062 12F0FF04 		ands	r4, r2, #255
 113 0066 F3D1     		bne	.L12
 156:..\u8g2-master\csrc/u8x8_d_pcf8814_hx1230.c ****       break;
 114              		.loc 1 156 0
 115 0068 2846     		mov	r0, r5
 116 006a FFF7FEFF 		bl	u8x8_cad_EndTransfer
 117              	.LVL13:
 161:..\u8g2-master\csrc/u8x8_d_pcf8814_hx1230.c **** }
 118              		.loc 1 161 0
 119 006e 0120     		movs	r0, #1
 120 0070 F8BD     		pop	{r3, r4, r5, r6, r7, pc}
 121              	.LVL14:
 122              	.L4:
 110:..\u8g2-master\csrc/u8x8_d_pcf8814_hx1230.c ****       u8x8_cad_SendSequence(u8x8, u8x8_d_hx1230_96x68_init_seq);    
 123              		.loc 1 110 0
 124 0072 FFF7FEFF 		bl	u8x8_d_helper_display_init
 125              	.LVL15:
 111:..\u8g2-master\csrc/u8x8_d_pcf8814_hx1230.c ****       break;
 126              		.loc 1 111 0
 127 0076 2846     		mov	r0, r5
 128 0078 1B49     		ldr	r1, .L18
 129 007a FFF7FEFF 		bl	u8x8_cad_SendSequence
 130              	.LVL16:
 161:..\u8g2-master\csrc/u8x8_d_pcf8814_hx1230.c **** }
 131              		.loc 1 161 0
 132 007e 0120     		movs	r0, #1
 133 0080 F8BD     		pop	{r3, r4, r5, r6, r7, pc}
 134              	.LVL17:
ARM GAS  C:\Users\info\AppData\Local\Temp\ccc1wWv7.s 			page 7


 135              	.L7:
 120:..\u8g2-master\csrc/u8x8_d_pcf8814_hx1230.c ****       {
 136              		.loc 1 120 0
 137 0082 12BB     		cbnz	r2, .L11
 122:..\u8g2-master\csrc/u8x8_d_pcf8814_hx1230.c **** 	u8x8->x_offset = u8x8->display_info->default_x_offset;
 138              		.loc 1 122 0
 139 0084 1949     		ldr	r1, .L18+4
 140 0086 FFF7FEFF 		bl	u8x8_cad_SendSequence
 141              	.LVL18:
 123:..\u8g2-master\csrc/u8x8_d_pcf8814_hx1230.c ****       }
 142              		.loc 1 123 0
 143 008a 2B68     		ldr	r3, [r5]
 161:..\u8g2-master\csrc/u8x8_d_pcf8814_hx1230.c **** }
 144              		.loc 1 161 0
 145 008c 0120     		movs	r0, #1
 123:..\u8g2-master\csrc/u8x8_d_pcf8814_hx1230.c ****       }
 146              		.loc 1 123 0
 147 008e 9B7C     		ldrb	r3, [r3, #18]	@ zero_extendqisi2
 148 0090 85F82230 		strb	r3, [r5, #34]
 149 0094 F8BD     		pop	{r3, r4, r5, r6, r7, pc}
 150              	.LVL19:
 151              	.L8:
 133:..\u8g2-master\csrc/u8x8_d_pcf8814_hx1230.c ****       u8x8_cad_SendCmd(u8x8, (arg_int>>3)|0x80 );	/* 0..31 for contrast */
 152              		.loc 1 133 0
 153 0096 FFF7FEFF 		bl	u8x8_cad_StartTransfer
 154              	.LVL20:
 134:..\u8g2-master\csrc/u8x8_d_pcf8814_hx1230.c ****       u8x8_cad_EndTransfer(u8x8);
 155              		.loc 1 134 0
 156 009a E108     		lsrs	r1, r4, #3
 157 009c 41F08001 		orr	r1, r1, #128
 158 00a0 2846     		mov	r0, r5
 159 00a2 FFF7FEFF 		bl	u8x8_cad_SendCmd
 160              	.LVL21:
 135:..\u8g2-master\csrc/u8x8_d_pcf8814_hx1230.c ****       break;
 161              		.loc 1 135 0
 162 00a6 2846     		mov	r0, r5
 163 00a8 FFF7FEFF 		bl	u8x8_cad_EndTransfer
 164              	.LVL22:
 161:..\u8g2-master\csrc/u8x8_d_pcf8814_hx1230.c **** }
 165              		.loc 1 161 0
 166 00ac 0120     		movs	r0, #1
 167 00ae F8BD     		pop	{r3, r4, r5, r6, r7, pc}
 168              	.LVL23:
 169              	.L6:
 114:..\u8g2-master\csrc/u8x8_d_pcf8814_hx1230.c **** 	u8x8_cad_SendSequence(u8x8, u8x8_d_hx1230_96x68_powersave0_seq);
 170              		.loc 1 114 0
 171 00b0 A2B9     		cbnz	r2, .L10
 115:..\u8g2-master\csrc/u8x8_d_pcf8814_hx1230.c ****       else
 172              		.loc 1 115 0
 173 00b2 0F49     		ldr	r1, .L18+8
 174 00b4 FFF7FEFF 		bl	u8x8_cad_SendSequence
 175              	.LVL24:
 161:..\u8g2-master\csrc/u8x8_d_pcf8814_hx1230.c **** }
 176              		.loc 1 161 0
 177 00b8 0120     		movs	r0, #1
 178 00ba F8BD     		pop	{r3, r4, r5, r6, r7, pc}
 179              	.LVL25:
ARM GAS  C:\Users\info\AppData\Local\Temp\ccc1wWv7.s 			page 8


 180              	.L13:
 159:..\u8g2-master\csrc/u8x8_d_pcf8814_hx1230.c ****   }
 181              		.loc 1 159 0
 182 00bc 0020     		movs	r0, #0
 183              	.LVL26:
 184              	.LBE5:
 185              	.LBE4:
 191:..\u8g2-master\csrc/u8x8_d_pcf8814_hx1230.c ****     {
 192:..\u8g2-master\csrc/u8x8_d_pcf8814_hx1230.c ****       u8x8_d_helper_display_setup_memory(u8x8, &u8x8_hx1230_96x68_display_info);
 193:..\u8g2-master\csrc/u8x8_d_pcf8814_hx1230.c ****       return 1;
 194:..\u8g2-master\csrc/u8x8_d_pcf8814_hx1230.c ****     }
 195:..\u8g2-master\csrc/u8x8_d_pcf8814_hx1230.c ****     return u8x8_d_hx1230_96x68_generic(u8x8, msg, arg_int, arg_ptr);
 196:..\u8g2-master\csrc/u8x8_d_pcf8814_hx1230.c **** }
 186              		.loc 1 196 0
 187 00be F8BD     		pop	{r3, r4, r5, r6, r7, pc}
 188              	.LVL27:
 189              	.L17:
 192:..\u8g2-master\csrc/u8x8_d_pcf8814_hx1230.c ****       return 1;
 190              		.loc 1 192 0
 191 00c0 0C49     		ldr	r1, .L18+12
 192              	.LVL28:
 193 00c2 FFF7FEFF 		bl	u8x8_d_helper_display_setup_memory
 194              	.LVL29:
 193:..\u8g2-master\csrc/u8x8_d_pcf8814_hx1230.c ****     }
 195              		.loc 1 193 0
 196 00c6 0120     		movs	r0, #1
 197 00c8 F8BD     		pop	{r3, r4, r5, r6, r7, pc}
 198              	.LVL30:
 199              	.L11:
 200              	.LBB7:
 201              	.LBB6:
 127:..\u8g2-master\csrc/u8x8_d_pcf8814_hx1230.c **** 	u8x8->x_offset = u8x8->display_info->flipmode_x_offset;
 202              		.loc 1 127 0
 203 00ca 0B49     		ldr	r1, .L18+16
 204 00cc FFF7FEFF 		bl	u8x8_cad_SendSequence
 205              	.LVL31:
 128:..\u8g2-master\csrc/u8x8_d_pcf8814_hx1230.c ****       }
 206              		.loc 1 128 0
 207 00d0 2B68     		ldr	r3, [r5]
 161:..\u8g2-master\csrc/u8x8_d_pcf8814_hx1230.c **** }
 208              		.loc 1 161 0
 209 00d2 0120     		movs	r0, #1
 128:..\u8g2-master\csrc/u8x8_d_pcf8814_hx1230.c ****       }
 210              		.loc 1 128 0
 211 00d4 DB7C     		ldrb	r3, [r3, #19]	@ zero_extendqisi2
 212 00d6 85F82230 		strb	r3, [r5, #34]
 213 00da F8BD     		pop	{r3, r4, r5, r6, r7, pc}
 214              	.LVL32:
 215              	.L10:
 117:..\u8g2-master\csrc/u8x8_d_pcf8814_hx1230.c ****       break;
 216              		.loc 1 117 0
 217 00dc 0749     		ldr	r1, .L18+20
 218 00de FFF7FEFF 		bl	u8x8_cad_SendSequence
 219              	.LVL33:
 161:..\u8g2-master\csrc/u8x8_d_pcf8814_hx1230.c **** }
 220              		.loc 1 161 0
 221 00e2 0120     		movs	r0, #1
ARM GAS  C:\Users\info\AppData\Local\Temp\ccc1wWv7.s 			page 9


 222 00e4 F8BD     		pop	{r3, r4, r5, r6, r7, pc}
 223              	.LVL34:
 224              	.L19:
 225 00e6 00BF     		.align	2
 226              	.L18:
 227 00e8 18000000 		.word	.LANCHOR0+24
 228 00ec 3C000000 		.word	.LANCHOR0+60
 229 00f0 2C000000 		.word	.LANCHOR0+44
 230 00f4 00000000 		.word	.LANCHOR0
 231 00f8 44000000 		.word	.LANCHOR0+68
 232 00fc 34000000 		.word	.LANCHOR0+52
 233              	.LBE6:
 234              	.LBE7:
 235              		.cfi_endproc
 236              	.LFE1:
 237              		.size	u8x8_d_hx1230_96x68, .-u8x8_d_hx1230_96x68
 238              		.section	.rodata
 239              		.align	2
 240              		.set	.LANCHOR0,. + 0
 241              		.type	u8x8_hx1230_96x68_display_info, %object
 242              		.size	u8x8_hx1230_96x68_display_info, 24
 243              	u8x8_hx1230_96x68_display_info:
 244 0000 00       		.byte	0
 245 0001 01       		.byte	1
 246 0002 64       		.byte	100
 247 0003 64       		.byte	100
 248 0004 64       		.byte	100
 249 0005 64       		.byte	100
 250 0006 64       		.byte	100
 251 0007 64       		.byte	100
 252 0008 00093D00 		.word	4000000
 253 000c 00       		.byte	0
 254 000d 04       		.byte	4
 255 000e 28       		.byte	40
 256 000f 96       		.byte	-106
 257 0010 0C       		.byte	12
 258 0011 09       		.byte	9
 259 0012 00       		.byte	0
 260 0013 00       		.byte	0
 261 0014 6000     		.short	96
 262 0016 4400     		.short	68
 263              		.type	u8x8_d_hx1230_96x68_init_seq, %object
 264              		.size	u8x8_d_hx1230_96x68_init_seq, 19
 265              	u8x8_d_hx1230_96x68_init_seq:
 266 0018 18       		.byte	24
 267 0019 15       		.byte	21
 268 001a AE       		.byte	-82
 269 001b 15       		.byte	21
 270 001c 20       		.byte	32
 271 001d 15       		.byte	21
 272 001e 80       		.byte	-128
 273 001f 15       		.byte	21
 274 0020 A6       		.byte	-90
 275 0021 15       		.byte	21
 276 0022 A4       		.byte	-92
 277 0023 15       		.byte	21
 278 0024 A0       		.byte	-96
ARM GAS  C:\Users\info\AppData\Local\Temp\ccc1wWv7.s 			page 10


 279 0025 15       		.byte	21
 280 0026 C0       		.byte	-64
 281 0027 15       		.byte	21
 282 0028 40       		.byte	64
 283 0029 19       		.byte	25
 284 002a FF       		.byte	-1
 285 002b 00       		.space	1
 286              		.type	u8x8_d_hx1230_96x68_powersave0_seq, %object
 287              		.size	u8x8_d_hx1230_96x68_powersave0_seq, 7
 288              	u8x8_d_hx1230_96x68_powersave0_seq:
 289 002c 18       		.byte	24
 290 002d 15       		.byte	21
 291 002e 2F       		.byte	47
 292 002f 15       		.byte	21
 293 0030 AF       		.byte	-81
 294 0031 19       		.byte	25
 295 0032 FF       		.byte	-1
 296 0033 00       		.space	1
 297              		.type	u8x8_d_hx1230_96x68_powersave1_seq, %object
 298              		.size	u8x8_d_hx1230_96x68_powersave1_seq, 7
 299              	u8x8_d_hx1230_96x68_powersave1_seq:
 300 0034 18       		.byte	24
 301 0035 15       		.byte	21
 302 0036 AE       		.byte	-82
 303 0037 15       		.byte	21
 304 0038 A5       		.byte	-91
 305 0039 19       		.byte	25
 306 003a FF       		.byte	-1
 307 003b 00       		.space	1
 308              		.type	u8x8_d_hx1230_96x68_flip0_seq, %object
 309              		.size	u8x8_d_hx1230_96x68_flip0_seq, 7
 310              	u8x8_d_hx1230_96x68_flip0_seq:
 311 003c 18       		.byte	24
 312 003d 15       		.byte	21
 313 003e A0       		.byte	-96
 314 003f 15       		.byte	21
 315 0040 C0       		.byte	-64
 316 0041 19       		.byte	25
 317 0042 FF       		.byte	-1
 318 0043 00       		.space	1
 319              		.type	u8x8_d_hx1230_96x68_flip1_seq, %object
 320              		.size	u8x8_d_hx1230_96x68_flip1_seq, 7
 321              	u8x8_d_hx1230_96x68_flip1_seq:
 322 0044 18       		.byte	24
 323 0045 15       		.byte	21
 324 0046 A1       		.byte	-95
 325 0047 15       		.byte	21
 326 0048 C8       		.byte	-56
 327 0049 19       		.byte	25
 328 004a FF       		.byte	-1
 329              		.text
 330              	.Letext0:
 331              		.file 2 "c:\\program files (x86)\\cypress\\psoc creator\\4.2\\psoc creator\\import\\gnu\\arm\\5.4.
 332              		.file 3 "c:\\program files (x86)\\cypress\\psoc creator\\4.2\\psoc creator\\import\\gnu\\arm\\5.4.
 333              		.file 4 "..\\u8g2-master\\csrc\\u8x8.h"