ARM GAS  C:\Users\info\AppData\Local\Temp\ccfL6CmZ.s 			page 1


   1              		.syntax unified
   2              		.cpu cortex-m3
   3              		.fpu softvfp
   4              		.eabi_attribute 20, 1
   5              		.eabi_attribute 21, 1
   6              		.eabi_attribute 23, 3
   7              		.eabi_attribute 24, 1
   8              		.eabi_attribute 25, 1
   9              		.eabi_attribute 26, 1
  10              		.eabi_attribute 30, 4
  11              		.eabi_attribute 34, 1
  12              		.eabi_attribute 18, 4
  13              		.thumb
  14              		.syntax unified
  15              		.file	"u8x8_u16toa.c"
  16              		.text
  17              	.Ltext0:
  18              		.section	.gnu.lto_.profile.bf14e4ee,"",%progbits
  19 0000 789C6361 		.ascii	"x\234ca`d`a`\000\222r\302\000\000\271\000<"
  19      60646061 
  19      60009272 
  19      C20000B9 
  19      003C
  20              		.text
  21              		.section	.gnu.lto_.icf.bf14e4ee,"",%progbits
  22 0000 789C6361 		.ascii	"x\234ca`d\000\001\021\006\004`fX\376w\303-v\306\255"
  22      60640001 
  22      11060460 
  22      6658FE77 
  22      C32D76C6 
  23 0015 2BE61CE3 		.ascii	"+\346\034\343gj\1775\3475\037\003\000b\273\011)"
  23      676A7F35 
  23      E7351F03 
  23      0062BB09 
  23      29
  24              		.text
  25              		.section	.gnu.lto_.jmpfuncs.bf14e4ee,"",%progbits
  26 0000 789C6361 		.ascii	"x\234ca`d\000\001S\006\004`b`bdd\256\257g\004Q\214\365"
  26      60640001 
  26      53060460 
  26      62606264 
  26      64AEAF67 
  27 0018 2C8C7F99 		.ascii	",\214\177\231\030w\356|s\233\275\376oCGC\203@+3C'3P"
  27      1877EE7C 
  27      739BBDFE 
  27      6F434743 
  27      83402B33 
  28 0030 1DE372C6 		.ascii	"\035\343r\306z\240\352J\260&\000_*\014Z"
  28      7AA0EA4A 
  28      B026005F 
  28      2A0C5A
  29              		.text
  30              		.section	.gnu.lto_.inline.bf14e4ee,"",%progbits
  31 0000 789C6361 		.ascii	"x\234ca`d\000\001\033\006\004`b`\340\373\316\310\310"
  31      60640001 
  31      1B060460 
  31      6260E0FB 
ARM GAS  C:\Users\info\AppData\Local\Temp\ccfL6CmZ.s 			page 2


  31      CEC8C8
  32 0013 C024FAE0 		.ascii	"\300$\372\340\275,\003{\207:\023H\224\221\201S\220\221"
  32      BD2C037B 
  32      873A1348 
  32      94918153 
  32      9091
  33 0025 919103A8 		.ascii	"\221\221\003\250\236\231\351\002?\003\333\002y&\006"
  33      9E99E902 
  33      3F03DB02 
  33      792606
  34 0034 20830524 		.ascii	" \203\005$\311\302\013\3226\301\217\001\000\015X\007"
  34      C9C20BD2 
  34      36C18F01 
  34      000D5807 
  35 0044 AE       		.ascii	"\256"
  36              		.text
  37              		.section	.gnu.lto_.pureconst.bf14e4ee,"",%progbits
  38 0000 789C6361 		.ascii	"x\234ca`d`e```b\220b\224\000\000\000\353\000@"
  38      60646065 
  38      60606062 
  38      90629400 
  38      0000EB00 
  39              		.text
  40              		.section	.gnu.lto_u8x8_u16toap.bf14e4ee,"",%progbits
  41 0000 789C6D54 		.ascii	"x\234mT]kTW\024=\373\354\3735\237N\202>\031J\240\204"
  41      5D6B5457 
  41      143DFBEC 
  41      FB359F4E 
  41      823E194A 
  42 0016 1028C15A 		.ascii	"\020(\301Z\260>\372\324\037\340s\213H\224\322\007\261"
  42      B03EFAD4 
  42      1FE0738B 
  42      4894D207 
  42      B1
  43 0027 365A4A5F 		.ascii	"6ZJ_\274\231;3V\250PQ\323\330j\207\022%\261V\223h>L"
  43      BC993B33 
  43      56A85051 
  43      D3D86A87 
  43      1225B156 
  44 003f 8DED9D16 		.ascii	"\215\355\235\026\233\"Q\033\351\207BZ\214\202\224Ja"
  44      9B22511B 
  44      E987425A 
  44      8C82944A 
  44      61
  45 0050 3244A5AD 		.ascii	"2D\245\255\311t\355s\246e\204\036\230{\317\331g\255"
  45      C974ED73 
  45      A665841E 
  45      987BCFD9 
  45      67AD
  46 0062 BDD75967 		.ascii	"\275\327Yg\337q\024)\031\353\\\245^\300\373]\374(\241"
  46      DF711429 
  46      19EB5CA5 
  46      5EC0FB5D 
  46      FC28A1
  47 0075 487F7043 		.ascii	"H\177pC\251\276@\223g'L\201L*A\240\371\375Y\245\302"
  47      A9BE4093 
  47      67274C81 
ARM GAS  C:\Users\info\AppData\Local\Temp\ccfL6CmZ.s 			page 3


  47      4C2A41A0 
  47      F9FD59A5 
  48 008a A45BF055 		.ascii	"\244[\360U\230v-\240\022x\3329T\221\270\037e\020w,\236"
  48      98762DA0 
  48      1278DA39 
  48      5491B81F 
  48      6510772C 
  49 009f 7C227987 		.ascii	"|\"y\207\001\251\375\232\003\327s|\332\317\236\242\330"
  49      01A9FD9A 
  49      03D7737C 
  49      DACF9EA2 
  49      D8
  50 00b0 21D73CA4 		.ascii	"!\327<\244z\240\354x\244W4\315\027FO\360\262.\262\""
  50      7AA0EC78 
  50      A45734CD 
  50      17464FF0 
  50      B22EB222 
  51 00c4 07CBA5EB 		.ascii	"\007\313\245\353\037\335\317\312\222\250\035\313\217"
  51      1FDDCFCA 
  51      92A81DCB 
  51      8F
  52 00d1 C35B07FD 		.ascii	"\303[\007\375\256\2410\314\207w\213?e\217\017\307N\221"
  52      AEA130CC 
  52      87778B3F 
  52      658F0FC7 
  52      4E91
  53 00e3 B5AA6B45 		.ascii	"\265\252kE\303\324FC\324&'8C]\300\376\365\311\325\203"
  53      C3D44643 
  53      D4262738 
  53      435DC0FE 
  53      F5C9D583 
  54 00f7 1E3F470A 		.ascii	"\036?G\012\363\362\362\261\333~\347i\341\205Gv\206\211"
  54      F3F2F2B1 
  54      DB7EE769 
  54      E1854776 
  54      8689
  55 0109 22337D46 		.ascii	"\"3}F\334\314CH\321Y\352\004\372j\375I\274\306j\020"
  55      DCCC4348 
  55      D159EA04 
  55      FA6AFD49 
  55      BCC66A10 
  56 011d 49B7AA73 		.ascii	"I\267\252s'SVC\016\313\322\3407\177f\370y\223\367\374"
  56      27535643 
  56      0ECBD2E0 
  56      377F66F8 
  56      7993F7FC 
  57 0131 D353CBC9 		.ascii	"\323S\313\311F\336\371\355\241[d\207\316\333\274\347"
  57      46DEF9ED 
  57      A15B6487 
  57      CEDBBCE7 
  58 0141 90F77393 		.ascii	"\220\367s\223\327Q4B\235\002\2771t\372h\222;\014\365"
  58      D7513442 
  58      9D02BF31 
  58      74FA6892 
  58      3B0CF5
  59 0154 483839E2 		.ascii	"H89\342w\014\0125\236\3363\020\306\371va\217>\313\226"
  59      770C0A35 
ARM GAS  C:\Users\info\AppData\Local\Temp\ccfL6CmZ.s 			page 4


  59      9EDE3310 
  59      C6F97661 
  59      8F3ECB96 
  60 0168 01F06F3F 		.ascii	"\001\360o?\237\231v\271\323\020\177Y(\317$\033\304\251"
  60      9F9976B9 
  60      D3107F59 
  60      28CF241B 
  60      C4A9
  61 017a 5D1F8671 		.ascii	"]\037\206q\037\210.]\260\304\227\332h\303\177\264\362"
  61      1F882E5D 
  61      B0C497DA 
  61      68C37FB4 
  61      F2
  62 018b 0F874FF9 		.ascii	"\017\207O\371\334eh\177\017\324g\335\006m\374\2650\332"
  62      DC65687F 
  62      0FD467DD 
  62      066DFCB5 
  62      30DA
  63 019d 22A4F1FF 		.ascii	"\"\244\361\377!\335\033[=\226\361\012!F;MP\007]\304"
  63      21DD1B5B 
  63      3D96F10A 
  63      21463B4D 
  63      50075DC4 
  64 01b1 6F8C3AC4 		.ascii	"o\214:\304e\230;I\036\232\206\233wF\266\306a\275\036"
  64      65983B49 
  64      1E9A869B 
  64      7746B6C6 
  64      61BD1E
  65 01c4 85F145F7 		.ascii	"\205\361E\367\017^K\346\270\332<\341 p0\000HW\011\026"
  65      0F5E4BE6 
  65      B8DA3CE1 
  65      20703000 
  65      48570916 
  66 01d8 2D8178C2 		.ascii	"-\201x\302\354&\3153ev\3230JeHn +w\2213\350\026\263"
  66      EC26CD33 
  66      6576D330 
  66      4A65486E 
  66      202B7791 
  67 01f0 D76AB228 		.ascii	"\327j\262(U\205\200qRKZ\343\305\367(\037_^g\364\000"
  67      55858071 
  67      524B5AE3 
  67      C5F7281F 
  67      5F5E67F4 
  68 0205 09E1D766 		.ascii	"\011\341\327f\017/\220\334\223#]GS\260O0W\366\030\314"
  68      0F2F90DC 
  68      93235D47 
  68      53B04F30 
  68      57F618CC 
  69 0219 84C1F417 		.ascii	"\204\301\364\027\277\276\351\013\306\205\314K\306\340"
  69      BFBEE90B 
  69      C685CC4B 
  69      C6E0
  70 0227 25CD0A4D 		.ascii	"%\315\012M\315\017(\032(\375\372\212\200#NDL\021\273"
  70      CD0F281A 
  70      28FDFA8A 
  70      80234E44 
  70      4C11BB
ARM GAS  C:\Users\info\AppData\Local\Temp\ccfL6CmZ.s 			page 5


  71 023a 48A00D1B 		.ascii	"H\240\015\033:\021T\300\364\227\036l\262\230T\304\322"
  71      3A1154C0 
  71      F4971E6C 
  71      B29854C4 
  71      D2
  72 024b A21307E6 		.ascii	"\242\023\007\346\306\2226%\321\264)j9P\016\220\251\020"
  72      C6923625 
  72      D1B4296A 
  72      39500E90 
  72      A910
  73 025d 28510435 		.ascii	"(Q\00459e\303\216\262\013\223\227\324\"\025\356DC\367"
  73      3965C38E 
  73      B20B9397 
  73      D42215EE 
  73      4443F7
  74 0270 C9263695 		.ascii	"\311&6\2251j\204Y\322\301#\3013\207\250FN\304-\262L"
  74      316A8459 
  74      D2C123C1 
  74      3387A846 
  74      4EC42DB2 
  75 0285 F1DC2E64 		.ascii	"\361\334.duU\301\207\354|\355\300\343I\266\324t\204"
  75      7555C187 
  75      EC7CEDC0 
  75      E349B6D4 
  75      7484
  76 0297 3686CA13 		.ascii	"6\206\312\023\236]g#\316 \212P\276\177q\255\304\232"
  76      9E5D6723 
  76      CE208A50 
  76      BE7F71AD 
  76      C49A
  77 02a9 4D60D319 		.ascii	"M`\323\031Of\257\275\227.\323\311>\271\362\227a\276"
  77      4F66AFBD 
  77      972ED3C9 
  77      3EB9F297 
  77      61BE
  78 02bb F0E80B31 		.ascii	"\360\350\0131\207.S\231D-R\216\226V\373\033Ur\020\010"
  78      872E5399 
  78      442D528E 
  78      9656FB1B 
  78      55721008 
  79 02cf E24AF5FB 		.ascii	"\342J\365\373\225\264\344\361)I3M'\037\223#\346\254"
  79      95B4E4F1 
  79      2949334D 
  79      271F9323 
  79      E6AC
  80 02e1 5B8F7FF4 		.ascii	"[\217\177\364-\251\025\322\236\361gBP\255\306\037O]"
  80      2DA915D2 
  80      9EF16742 
  80      50ADC61F 
  80      4F5D
  81 02f3 0AD83A62 		.ascii	"\012\330:b\270n\303\036\003\341f\257\264xu3\312\332"
  81      B86EC31E 
  81      03E166AF 
  81      B4787533 
  81      CADA
  82 0305 9C0C1595 		.ascii	"\234\014\025\225\273\027\226R\326\177\207\256\330o\246"
  82      BB179652 
ARM GAS  C:\Users\info\AppData\Local\Temp\ccfL6CmZ.s 			page 6


  82      D67F87AE 
  82      D86FA6
  83 0314 463A625F 		.ascii	"F:b_C:\376gj\304r\325\372;F9\367\266_C\014\315\241\027"
  83      433AFE67 
  83      6AC472D5 
  83      FA3B4639 
  83      F7B65F43 
  84 032c CE623FE7 		.ascii	"\316b?\347>=\347A\201#^\202\227D\011\017\224\026d\036"
  84      3E3DE741 
  84      81235E82 
  84      9744090F 
  84      9416641E 
  85 0340 1C1D2EB1 		.ascii	"\034\035.\261\315\274\201\276\2446\257\220\001\322\227"
  85      CDBC81BE 
  85      A436AF90 
  85      01D297
  86 034f E6839FCB 		.ascii	"\346\203\237\313\325\231\365\015CW\037.>\314XC\305\227"
  86      D599F50D 
  86      43571F2E 
  86      3ECC5843 
  86      C597
  87 0361 4FBF9D9A 		.ascii	"O\277\235\232O\374k\350\032\343g\206\2762~\306\360\263"
  87      4FFC6BE8 
  87      1AE36786 
  87      BE327EC6 
  87      F0B3
  88 0373 F906F02D 		.ascii	"\371\006\360-Q\005;\277\243Q\037\275a\017\225\221\023"
  88      51053BBF 
  88      A3511FBD 
  88      610F9591 
  88      13
  89 0384 5435A10E 		.ascii	"T5\241\016\032~}w\367\253\3736\277\276q[O\357[=\230"
  89      1A7E7D77 
  89      F7ABFB36 
  89      BFBE715B 
  89      4FEF5B3D 
  90 0399 BDB379DB 		.ascii	"\275\263y\333\276\0277\355\335\275\275\273G9;v\366\356"
  90      BE1737ED 
  90      DDBDBDBB 
  90      47393B76 
  90      F6EE
  91 03ab A5B7A987 		.ascii	"\245\267\251\207v\360\233\273{\377\001Z\235\232\371"
  91      76F09BBB 
  91      7BFF015A 
  91      9D9AF9
  92              		.text
  93              		.section	.gnu.lto_u8x8_u16toa.bf14e4ee,"",%progbits
  94 0000 789C5552 		.ascii	"x\234UR\315KTQ\024?\277{\337W\323\214\272w\210i5\270"
  94      CD4B5451 
  94      143FBF7B 
  94      DF57D38C 
  94      BA778869 
  95 0016 19B220FC 		.ascii	"\031\262 \374\007\372\007\\\033\"\023\264\014J\243\335"
  95      07FA075C 
  95      1B2213B4 
  95      0C4AA3DD 
  96 0026 BBE3F34D 		.ascii	"\273\343\363M\271k\341\204\226\242P\341X\371\325\207"
ARM GAS  C:\Users\info\AppData\Local\Temp\ccfL6CmZ.s 			page 7


  96      B96BE184 
  96      96A250E1 
  96      58F9D587 
  97 0036 30B47954 		.ascii	"0\264yT\356\314H\222\026-*\005\021m1\212!\206\372:\347"
  97      EECC4892 
  97      162D2A05 
  97      116D318A 
  97      2186FA3A 
  98 004b BD365DB8 		.ascii	"\2756]\270\357\236\363{\347\367;\037\367Z\004\222uE"
  98      EF9EF37B 
  98      E7F73B1F 
  98      F75A0492 
  98      7545
  99 005d 119DE7B3 		.ascii	"\021\235\347\263\23574A\335_%\252x\012\020\303x _\301"
  99      9D373441 
  99      DD5F25AA 
  99      780A10C3 
  99      78205FC1 
 100 0071 C76F75A2 		.ascii	"\307ou\242\360yha\\\037\250\220\303,v\367>>\334l\021"
 100      F0796861 
 100      5C1FA890 
 100      C32C76F7 
 100      3E3EDC6C 
 101 0086 1728B0FB 		.ascii	"\027(\260\373\310\254\015\273\035\323\306\014\232\037"
 101      C8AC0DBB 
 101      1DD3C60C 
 101      9A1F
 102 0094 CBDF5BC6 		.ascii	"\313\337[\306\352\221\025jE\261\"\324\221\3074\362\222"
 102      EA91156A 
 102      45B122D4 
 102      91C734F2 
 102      92
 103 00a5 62061D1C 		.ascii	"b\006\035\034\273\034\037F\255\251\222\010\2575W&\316"
 103      BB1C1F46 
 103      ADA99208 
 103      AF355726 
 103      CE
 104 00b6 A64A6DEC 		.ascii	"\246Jm\354V\037\277?\312\351s \266\347\216\237\034d"
 104      561FBF3F 
 104      CAE97320 
 104      B6E78E9F 
 104      1C64
 105 00c8 8A4F45D5 		.ascii	"\212OE\325\324\372\214\035j\215\027\320\242\372\234"
 105      D4FA8C1D 
 105      6A8D17D0 
 105      A2FA9C
 106 00d7 559FB12A 		.ascii	"U\237\261*C\204Y\0249z\373\353L\303\326\205\204Y\251"
 106      43845914 
 106      397AFBEB 
 106      4CC3D685 
 106      8459A9
 107 00ea 8FEC67FF 		.ascii	"\217\354g\3771\337^5:\324\026\346R\346\245<.\010\317"
 107      31DF5E35 
 107      3AD416E6 
 107      52E6A53C 
 107      2E08CF
 108 00fd 22CCA328 		.ascii	"\"\314\243(\301\033\213\247\265\2343dx\025\2065I\325"
ARM GAS  C:\Users\info\AppData\Local\Temp\ccfL6CmZ.s 			page 8


 108      C11B8BA7 
 108      B59C3364 
 108      78158635 
 108      49D5
 109 010f 5CEC021C 		.ascii	"\\\354\002\034\236\022\030\230\357\216L\034\007&\212"
 109      9E121898 
 109      EF8E4C1C 
 109      07268A
 110 011e EDD9EC19 		.ascii	"\355\331\354\031@x*a[\220\334\016\253)\227?\344\211"
 110      40782A61 
 110      5B90DC0E 
 110      AB29973F 
 110      E489
 111 0130 45D4E42D 		.ascii	"E\324\344-\023\334SJN\275\205`\264\272:\232\021\315"
 111      13DC534A 
 111      4EBD8560 
 111      B4BA3A9A 
 111      11CD
 112 0142 404BD3A7 		.ascii	"@K\323\247\273?ws\322\264\005\033\213\310\007\032\264"
 112      BB3F7773 
 112      D2B4051B 
 112      8BC8071A 
 112      B4
 113 0153 01952465 		.ascii	"\001\225$e]\016\242m\204Q\255\232K9\016s\032\215_\337"
 113      5D0EA26D 
 113      8451AD9A 
 113      4B390E73 
 113      1A8D5FDF 
 114 0167 5CFFC4DC 		.ascii	"\\\377\304\3343\246-\324v\254\244\274\227\360\245\205"
 114      33A62DD4 
 114      76ACA4BC 
 114      97F0A585 
 115 0177 07E1BB4F 		.ascii	"\007\341\273O\256\3509I\373\377\207:\322\224\300;+\353"
 115      AEE83949 
 115      FBFF873A 
 115      D294C03B 
 115      2BEB
 116 0189 1F329398 		.ascii	"\0372\223\230\250\230\004w\361\232o\367\225\334\015"
 116      A8980477 
 116      F19A6FF7 
 116      95DC0D
 117 0198 FF9CFA73 		.ascii	"\377\234\372s\264\236e\216'\"o0\011\311LX\202\037h\276"
 117      B49E658E 
 117      27226F30 
 117      09C94C58 
 117      821F68BE 
 118 01ac 4C8FB630 		.ascii	"L\217\2660\270\177\367X\247\005\271R\"\3675^\375\202"
 118      B87FF758 
 118      A705B952 
 118      22F7355E 
 118      FD82
 119 01be 14F1B84A 		.ascii	"\024\361\270J\306i'm\203\001ybM\256\222G\300\003i/\225"
 119      C669276D 
 119      83017962 
 119      4DAE9247 
 119      C003692F 
 120 01d3 7A06BAAE 		.ascii	"z\006\272\256_\354-\337\272Yf\353NW\357@\347\345\376"
ARM GAS  C:\Users\info\AppData\Local\Temp\ccfL6CmZ.s 			page 9


 120      5FEC2DDF 
 120      BA5966EB 
 120      4E57EF40 
 120      E7E5FE
 121 01e6 1B7DA532 		.ascii	"\033}\2452\3416\256\375\005x\225\306z"
 121      E136AEFD 
 121      057895C6 
 121      7A
 122              		.text
 123              		.section	.gnu.lto_.symbol_nodes.bf14e4ee,"",%progbits
 124 0000 789C6361 		.ascii	"x\234ca`d0a\000\002&\206z\006\206\011\347\030@\324\256"
 124      60643061 
 124      00022686 
 124      7A068609 
 124      E71840D4 
 125 0015 0645A000 		.ascii	"\006E\240\000c=#\212\000+\023C\203\020\003\00333#\003"
 125      633D238A 
 125      002B1343 
 125      83100303 
 125      33332303 
 126 0029 C3A307FF 		.ascii	"\303\243\007\377\030\031\000 \312\013\017"
 126      18190020 
 126      CA0B0F
 127              		.text
 128              		.section	.gnu.lto_.refs.bf14e4ee,"",%progbits
 129 0000 789C6361 		.ascii	"x\234ca`d`c```ddbbf\000\000\000\255\000\025"
 129      60646063 
 129      60606064 
 129      64626266 
 129      000000AD 
 130              		.text
 131              		.section	.gnu.lto_.decls.bf14e4ee,"",%progbits
 132 0000 789CBD54 		.ascii	"x\234\275T_LSW\030\277\337\275\245\224k-\206\370@\262"
 132      5F4C5357 
 132      18BFDFBD 
 132      A5946B2D 
 132      86F840B2 
 133 0014 BBA43191 		.ascii	"\273\2441\221\260D\253U$\315^\266e\311\226\354ao\333"
 133      B044AB55 
 133      24CD5EB6 
 133      65C996EC 
 133      616FDB
 134 0027 D34D9A52 		.ascii	"\323M\232R\0124\201\266\353\237E\366\262\013\210\021"
 134      0A3481B6 
 134      EB9F45F6 
 134      B20B8811 
 135 0037 7D180E5C 		.ascii	"}\030\016\\\206\231\033s\2500`P\020A,\3209\371'EA\021"
 135      86991B73 
 135      A8306050 
 135      10412CD0 
 135      39F92745 
 136 004d EDC86209 		.ascii	"\355\310b\011\314dsN\314\334\2340\302\276s\356\275\275"
 136      CC64734E 
 136      CCDC9C30 
 136      C2BE73EE 
 136      BDBD
 137 005f AD81EC6D 		.ascii	"\255\201\354m'\375\3569\337w\276\363\3759\277_\217\216"
ARM GAS  C:\Users\info\AppData\Local\Temp\ccfL6CmZ.s 			page 10


 137      27FDEE39 
 137      DF77BEF3 
 137      FD39BF5F 
 137      8F8E
 138 0071 01868C8F 		.ascii	"\001\206\214\217\364\014\363\001.'p\275\201\203\303"
 138      F40CF301 
 138      2E2770BD 
 138      8183C3
 139 0080 F97D14B2 		.ascii	"\371}\024\262\333\313\310\203E\031G\231S\354w\231\364"
 139      DBCBC883 
 139      45194799 
 139      53EC7799 
 139      F4
 140 0091 41F60C28 		.ascii	"A\366\014(9(;QFQ\256\242\214\240\314\240\204Q\362\024"
 140      39283B51 
 140      4651AEA2 
 140      8CA0CCA0 
 140      8451F214 
 141 00a5 5F50FC5F 		.ascii	"_P\374_\034$v\326\0131\324\363\367\224ZzP\306Rj\232"
 141      1C2476D6 
 141      0B31D4F3 
 141      F7945A7A 
 141      50C6526A 
 142 00ba 53626D56 		.ascii	"SbmV\323:\013\263G\272\277\340\236\262\220\303\203\016"
 142      D33A0BB3 
 142      47BABFE0 
 142      9EB290C3 
 142      830E
 143 00cc D527D3A7 		.ascii	"\325'\323\247\227L\250\356\344\301\214\352d\313\340"
 143      974CA8EE 
 143      E4C18CEA 
 143      64CBE0
 144 00db 3F467937 		.ascii	"?Fy7\003\325/?\0318\307\363\307$\034\3655R\316\204\211"
 144      03D52F3F 
 144      1938C7F3 
 144      C7241CF5 
 144      3552CE84 
 145 00f0 6CB48200 		.ascii	"l\264\202\000\027@\300\014\337\002\217\337}\002\264"
 145      1740C00C 
 145      DF028FDF 
 145      7D02B4
 146 00ff A18AEECB 		.ascii	"\241\212\356\313k\235\203&\371\264\036\325+\375\221"
 146      6B9D8326 
 146      F9B41ED5 
 146      2BFD91
 147 010e B10C39F6 		.ascii	"\261\0149\366~T\357\374=\264j\344X@O]o\365\375\257M"
 147      7E54EFFC 
 147      3DB46AE4 
 147      58404F5D 
 147      6FF5FDAF 
 148 0123 902F00C6 		.ascii	"\220/\000\306\002\376<M I,\003a\340\241\0238\265\340"
 148      02FE3C4D 
 148      20492C03 
 148      61E0A113 
 148      38B5E0
 149 0136 D312265F 		.ascii	"\323\022&_\371\230\230qm\2403Z\252\245\225\263\222>"
 149      F9989871 
ARM GAS  C:\Users\info\AppData\Local\Temp\ccfL6CmZ.s 			page 11


 149      6DA0335A 
 149      AAA595B3 
 149      923E
 150 0148 97818302 		.ascii	"\227\201\203\002\354\027\030\370\016\362\351\026\003"
 150      EC1718F8 
 150      0EF2E916 
 150      03
 151 0155 DD18B04B 		.ascii	"\335\030\260K\256\346\327\305_\032\2149\365J\354\327"
 151      AEE6D7C5 
 151      5F1A8C39 
 151      F54AECD7 
 152 0165 81C6EEC0 		.ascii	"\201\306\356\300\375vZ|\017\344\250-\020\357S\221\236"
 152      FD765A7C 
 152      0FE4A82D 
 152      10EF5391 
 152      9E
 153 0176 6EDE789C 		.ascii	"n\336x\234\304VZE\207\224^{\301H\221\302\031\275\007"
 153      C4565A45 
 153      87945E7B 
 153      C14891C2 
 153      19BD07
 154 0189 8E7FFE57 		.ascii	"\216\177\376W\366\002\304\001\333\001\005C\220\277@"
 154      F602C401 
 154      DB010543 
 154      90BF40
 155 0198 859185AA 		.ascii	"\205\221\205\252\270`\351\227I\232\222\023\223tQ\226"
 155      B860E997 
 155      499A9213 
 155      93745196 
 156 01a8 5A30FA53 		.ascii	"Z0\372S\347\015u\320 ZtP\016A\262\002eM\367Y-\001\310"
 156      E70D75D0 
 156      205A7450 
 156      0E41B202 
 156      654DF759 
 157 01bf AA7A2025 		.ascii	"\252z %\236\\nJM\220\336\023\250\324\211\325O\364gr"
 157      9E5C6E4A 
 157      4D90DE13 
 157      A8D489D5 
 157      4FF46772 
 158 01d3 990440B8 		.ascii	"\231\004@\270\377\274\365-K\207\212\333\036\215_\347"
 158      FFBCF52D 
 158      4B878ADB 
 158      1E8D5FE7 
 159 01e3 56D75608 		.ascii	"V\327V\010\277\362x\300\377\015\032\272~\273\374|\273"
 159      BFF278C0 
 159      FF0D1ABA 
 159      7EBBFC7C 
 159      BB
 160 01f4 6C20FB23 		.ascii	"l \373#S\223\347\215\334\313t=\272\361,\232-\363\205"
 160      5393E78D 
 160      DCCB743D 
 160      BAF12C9A 
 160      2DF385
 161 0207 45F5D64A 		.ascii	"E\365\326J\354\3146\231/;\326Y\266%Z]\213\344\310\247"
 161      ECCC3699 
 161      2F3BD659 
 161      B6255A5D 
ARM GAS  C:\Users\info\AppData\Local\Temp\ccfL6CmZ.s 			page 12


 161      8BE4C8A7 
 162 021b 784B3512 		.ascii	"xK5\022\337jb\340\012\0022\210\200\300\020B\216!/\201"
 162      DF6A62E0 
 162      0A023288 
 162      80C01042 
 162      8E212F81 
 163 022f 85810134 		.ascii	"\205\201\0014\366\243\221\362(\021~\364N\215$\001D\020"
 163      F6A391F2 
 163      28117EF4 
 163      4E8D2401 
 163      4410
 164 0241 EECBC051 		.ascii	"\356\313\300Q\027\354\"O\001z\370\344\302\003\236k\007"
 164      17EC224F 
 164      017AF8E4 
 164      C2039E6B 
 164      07
 165 0252 5201DBB6 		.ascii	"R\001\333\266\022\353\310\3362Gt\313\034\361\023y\330"
 165      12EBC8DE 
 165      324774CB 
 165      1CF11379 
 165      D8
 166 0263 FC0E18C1 		.ascii	"\374\016\030\301\034\303Z\216\210\312\246\307\013G\327"
 166      1CC35A8E 
 166      88CAA6C7 
 166      0B47D7
 167 0272 781DFE1D 		.ascii	"x\035\376\035\251G\221\216\330\032\302-u\031i\014#\204"
 167      A947918E 
 167      D81AC22D 
 167      7519690C 
 167      2384
 168 0284 D4187655 		.ascii	"\324\030vUf\030z\3167v$2\350i\264\301\367@\217\3778"
 168      66187ACE 
 168      37762432 
 168      E869B4C1 
 168      F7408FFF 
 169 0299 1E3BA2E7 		.ascii	"\036;\242\347\025\362\327\377\027\371\037\266?\2307"
 169      15F2D7FF 
 169      17F91FB6 
 169      3F9837
 170 02a8 A525BB96 		.ascii	"\245%\273\226\226l4\231,\261\274\030\321\347~F\332\302"
 170      966C3499 
 170      2CB1BC18 
 170      D1E77E46 
 170      DAC2
 171 02ba 0B30B364 		.ascii	"\0130\263d+y\005\014\214A.~\177\300\032\250\367R\274"
 171      2B79050C 
 171      8C412E7E 
 171      7FC01AA8 
 171      F752BC
 172 02cd B349B7AB 		.ascii	"\263I\267\253YJtK\211\376\206=gz$\251\026\017\352\210"
 172      594A744B 
 172      89FE863D 
 172      677A24A9 
 172      160FEA88 
 173 02e1 1FF46937 		.ascii	"\037\364i7\321G\377\303p\021\026\220L\343\260\013\217"
 173      D147FFC3 
 173      70111690 
ARM GAS  C:\Users\info\AppData\Local\Temp\ccfL6CmZ.s 			page 13


 173      4CE3B00B 
 173      8F
 174 02f2 7E9AA8BB 		.ascii	"~\232\250\273d\340\306\351\003\000]\265\313m\006\304"
 174      64E0C6E9 
 174      03005DB5 
 174      CB6D06C4 
 175 0302 5A409A40 		.ascii	"Z@\232@\012K\004\231%\027\243\177t\352\270\333\324\227"
 175      0A4B0499 
 175      2517A37F 
 175      74EAB8DB 
 175      D497
 176 0314 9DED8D8F 		.ascii	"\235\355\215\217fA>\257\300\373\347\033\024\336i\354"
 176      66413EAF 
 176      C0FBE71B 
 176      14DE69EC 
 177 0324 674A4B28 		.ascii	"gJK(\220\233\337\344i\210\341\355\010\012\206\327\261"
 177      909BDFE4 
 177      6988E1ED 
 177      080A86D7 
 177      B1
 178 0335 AB49F97E 		.ascii	"\253I\371~\332\276j\275\266\235\373IN\360\250\361\341"
 178      DABE6ABD 
 178      B69DFB49 
 178      4EF0A8F1 
 178      E1
 179 0346 312E9920 		.ascii	"1.\231 ~Bh'\330\316`\202\033Z\202i\330\"\303\315\315"
 179      7E426827 
 179      D8CE6082 
 179      1B5A8269 
 179      D822C3CD 
 180 035b 332C3E1E 		.ascii	"3,>\036j\312\244 \316$)\260T;r\012\222\264\230\225\201"
 180      6ACAA420 
 180      CE2429B0 
 180      543B720A 
 180      92B49895 
 181 0370 5D6D0C87 		.ascii	"]m\014\207M[\003p\233\002pK\005\340z\335\352\263\014"
 181      4D5B0370 
 181      9B02704B 
 181      05E07ADD 
 181      EAB30C
 182 0383 04A09902 		.ascii	"\004\240\231\002\360\232\006\000\372\301\204V\356D*"
 182      F09A0600 
 182      FAC18456 
 182      EE442A
 183 0392 00731480 		.ascii	"\000s\024\200\360\350\205\243,\367\263\014@\373\323"
 183      F0E885A3 
 183      2CF7B30C 
 183      40FBD3
 184 03a1 F5291DF7 		.ascii	"\365)\035\367\273\254\264\305\206\233\270\335\337H\321"
 184      BBACB4C5 
 184      869BB8DD 
 184      DF48D1
 185 03b0 66297A72 		.ascii	"f)zr,\273J\212V\231\351\3737\217\001\361p\312\263y\207"
 185      2CBB4A8A 
 185      5699E9FB 
 185      378F01F1 
 185      70CAB379 
ARM GAS  C:\Users\info\AppData\Local\Temp\ccfL6CmZ.s 			page 14


 186 03c5 C485BBB0 		.ascii	"\304\205\273\260\233T\376\244\357\254!\215d\204\005"
 186      9B54FEA4 
 186      EFAC218D 
 186      648405
 187 03d4 1AC9EE29 		.ascii	"\032\311\356)o&\231u\3162\207\337\030\262\035\266\331"
 187      6F269975 
 187      CE3287DF 
 187      18B21DB6 
 187      D9
 188 03e5 43D6C2A0 		.ascii	"C\326\302\240\327\3413\274\375\356{\3467\255V\206\267"
 188      D7E133BC 
 188      FDEE7BE6 
 188      37AD5686 
 188      B7
 189 03f6 DB436E4F 		.ascii	"\333CnO\320Zh\017V\201\363U\321\347\367\226\372\035"
 189      D05A680F 
 189      5681F355 
 189      D1E7F796 
 189      FA1D
 190 0408 15E61277 		.ascii	"\025\346\022w\271+`\316?l+|EtV\372\374\256@@\364\005"
 190      B92B60CE 
 190      3F6C2B7C 
 190      457456FA 
 190      FCAE4040 
 191 041e BC4EB3D3 		.ascii	"\274N\263\323\357r\004\275~\261\300r \335\340\256\360"
 191      EF7204BD 
 191      7EB1C072 
 191      20DDE0AE 
 191      F0
 192 042f 79FD41B1 		.ascii	"y\375A\261\324\023\022\035\376\012\361\220\245\300b"
 192      D413121D 
 192      FE0AF190 
 192      A5C062
 193 043e 25ABBD1E 		.ascii	"%\253\275\036\257\307\265\327\345(r\213n\217\263<T\354"
 193      AFC7B5D7 
 193      E528728B 
 193      6E8FB33C 
 193      54EC
 194 0450 122B1CCE 		.ascii	"\022+\034\3162\267\307%\332\213]%\216Py\320\036\254"
 194      32B7C725 
 194      DA8B5D25 
 194      8E5079D0 
 194      1EAC
 195 0462 F4B90296 		.ascii	"\364\271\002\2262\306\240\326\362\341\377UJ\2402 \332"
 195      32C6A0D6 
 195      F2E1FF55 
 195      4AA03220 
 195      DA
 196 0473 03C162CC 		.ascii	"\003\301b\314\213\371_\262X\304\220\255\364\200\335"
 196      8BF95FB2 
 196      58C490AD 
 196      F480DD
 197 0482 19F03BC5 		.ascii	"\031\360;\305\224\013\2638\231m)j\226|k6{0S\231\015"
 197      940BB338 
 197      996D296A 
 197      967C6B36 
 197      7B305399 
ARM GAS  C:\Users\info\AppData\Local\Temp\ccfL6CmZ.s 			page 15


 198 0497 45A112CB 		.ascii	"E\241\022\313\241\202\203\205\034.\376\005s\354Y\210"
 198      A1828385 
 198      1C2EFE05 
 198      73EC5988 
 199              		.text
 200              		.section	.gnu.lto_.symtab.bf14e4ee,"",%progbits
 201 0000 75387838 		.ascii	"u8x8_u16toap\000"
 201      5F753136 
 201      746F6170 
 201      00
 202 000d 00       		.ascii	"\000"
 203 000e 00       		.ascii	"\000"
 204 000f 00       		.ascii	"\000"
 205 0010 00000000 		.ascii	"\000\000\000\000\000\000\000\000"
 205      00000000 
 206 0018 C7000000 		.ascii	"\307\000\000\000"
 207 001c 75387838 		.ascii	"u8x8_u16toa\000"
 207      5F753136 
 207      746F6100 
 208 0028 00       		.ascii	"\000"
 209 0029 00       		.ascii	"\000"
 210 002a 00       		.ascii	"\000"
 211 002b 00000000 		.ascii	"\000\000\000\000\000\000\000\000"
 211      00000000 
 212 0033 D4000000 		.ascii	"\324\000\000\000"
 213              		.text
 214              		.section	.gnu.lto_.opts,"",%progbits
 215 0000 272D666D 		.ascii	"'-fmath-errno' '-fsigned-zeros' '-ftrapping-math' '"
 215      6174682D 
 215      6572726E 
 215      6F272027 
 215      2D667369 
 216 0033 2D666E6F 		.ascii	"-fno-trapv' '-fno-openmp' '-fno-openacc' '-mcpu=cor"
 216      2D747261 
 216      70762720 
 216      272D666E 
 216      6F2D6F70 
 217 0066 7465782D 		.ascii	"tex-m3' '-mthumb' '-g' '-Os' '-ffunction-sections' "
 217      6D332720 
 217      272D6D74 
 217      68756D62 
 217      2720272D 
 218 0099 272D6666 		.ascii	"'-ffat-lto-objects' '-flto'\000"
 218      61742D6C 
 218      746F2D6F 
 218      626A6563 
 218      74732720 
 219              		.text
 220              		.cfi_sections	.debug_frame
 221              		.section	.text.u8x8_u16toap,"ax",%progbits
 222              		.align	1
 223              		.global	u8x8_u16toap
 224              		.thumb
 225              		.thumb_func
 226              		.type	u8x8_u16toap, %function
 227              	u8x8_u16toap:
 228              	.LFB0:
ARM GAS  C:\Users\info\AppData\Local\Temp\ccfL6CmZ.s 			page 16


 229              		.file 1 "..\\u8g2_csrc\\u8x8_u16toa.c"
   1:..\u8g2_csrc/u8x8_u16toa.c **** /*
   2:..\u8g2_csrc/u8x8_u16toa.c **** 
   3:..\u8g2_csrc/u8x8_u16toa.c ****   u8x8_u16toa.c
   4:..\u8g2_csrc/u8x8_u16toa.c **** 
   5:..\u8g2_csrc/u8x8_u16toa.c ****   Universal 8bit Graphics Library (https://github.com/olikraus/u8g2/)
   6:..\u8g2_csrc/u8x8_u16toa.c **** 
   7:..\u8g2_csrc/u8x8_u16toa.c ****   Copyright (c) 2016, olikraus@gmail.com
   8:..\u8g2_csrc/u8x8_u16toa.c ****   All rights reserved.
   9:..\u8g2_csrc/u8x8_u16toa.c **** 
  10:..\u8g2_csrc/u8x8_u16toa.c ****   Redistribution and use in source and binary forms, with or without modification, 
  11:..\u8g2_csrc/u8x8_u16toa.c ****   are permitted provided that the following conditions are met:
  12:..\u8g2_csrc/u8x8_u16toa.c **** 
  13:..\u8g2_csrc/u8x8_u16toa.c ****   * Redistributions of source code must retain the above copyright notice, this list 
  14:..\u8g2_csrc/u8x8_u16toa.c ****     of conditions and the following disclaimer.
  15:..\u8g2_csrc/u8x8_u16toa.c ****     
  16:..\u8g2_csrc/u8x8_u16toa.c ****   * Redistributions in binary form must reproduce the above copyright notice, this 
  17:..\u8g2_csrc/u8x8_u16toa.c ****     list of conditions and the following disclaimer in the documentation and/or other 
  18:..\u8g2_csrc/u8x8_u16toa.c ****     materials provided with the distribution.
  19:..\u8g2_csrc/u8x8_u16toa.c **** 
  20:..\u8g2_csrc/u8x8_u16toa.c ****   THIS SOFTWARE IS PROVIDED BY THE COPYRIGHT HOLDERS AND 
  21:..\u8g2_csrc/u8x8_u16toa.c ****   CONTRIBUTORS "AS IS" AND ANY EXPRESS OR IMPLIED WARRANTIES, 
  22:..\u8g2_csrc/u8x8_u16toa.c ****   INCLUDING, BUT NOT LIMITED TO, THE IMPLIED WARRANTIES OF 
  23:..\u8g2_csrc/u8x8_u16toa.c ****   MERCHANTABILITY AND FITNESS FOR A PARTICULAR PURPOSE ARE 
  24:..\u8g2_csrc/u8x8_u16toa.c ****   DISCLAIMED. IN NO EVENT SHALL THE COPYRIGHT HOLDER OR 
  25:..\u8g2_csrc/u8x8_u16toa.c ****   CONTRIBUTORS BE LIABLE FOR ANY DIRECT, INDIRECT, INCIDENTAL, 
  26:..\u8g2_csrc/u8x8_u16toa.c ****   SPECIAL, EXEMPLARY, OR CONSEQUENTIAL DAMAGES (INCLUDING, BUT 
  27:..\u8g2_csrc/u8x8_u16toa.c ****   NOT LIMITED TO, PROCUREMENT OF SUBSTITUTE GOODS OR SERVICES; 
  28:..\u8g2_csrc/u8x8_u16toa.c ****   LOSS OF USE, DATA, OR PROFITS; OR BUSINESS INTERRUPTION) HOWEVER 
  29:..\u8g2_csrc/u8x8_u16toa.c ****   CAUSED AND ON ANY THEORY OF LIABILITY, WHETHER IN CONTRACT, 
  30:..\u8g2_csrc/u8x8_u16toa.c ****   STRICT LIABILITY, OR TORT (INCLUDING NEGLIGENCE OR OTHERWISE) 
  31:..\u8g2_csrc/u8x8_u16toa.c ****   ARISING IN ANY WAY OUT OF THE USE OF THIS SOFTWARE, EVEN IF 
  32:..\u8g2_csrc/u8x8_u16toa.c ****   ADVISED OF THE POSSIBILITY OF SUCH DAMAGE.  
  33:..\u8g2_csrc/u8x8_u16toa.c **** 
  34:..\u8g2_csrc/u8x8_u16toa.c ****   
  35:..\u8g2_csrc/u8x8_u16toa.c **** */
  36:..\u8g2_csrc/u8x8_u16toa.c **** 
  37:..\u8g2_csrc/u8x8_u16toa.c **** 
  38:..\u8g2_csrc/u8x8_u16toa.c **** #include "u8x8.h"
  39:..\u8g2_csrc/u8x8_u16toa.c **** 
  40:..\u8g2_csrc/u8x8_u16toa.c **** const char *u8x8_u16toap(char * dest, uint16_t v)
  41:..\u8g2_csrc/u8x8_u16toa.c **** {
 230              		.loc 1 41 0
 231              		.cfi_startproc
 232              		@ args = 0, pretend = 0, frame = 0
 233              		@ frame_needed = 0, uses_anonymous_args = 0
 234              	.LVL0:
  42:..\u8g2_csrc/u8x8_u16toa.c ****   uint8_t pos;
  43:..\u8g2_csrc/u8x8_u16toa.c ****   uint8_t d;
  44:..\u8g2_csrc/u8x8_u16toa.c ****   uint16_t c;
  45:..\u8g2_csrc/u8x8_u16toa.c ****   c = 10000;
 235              		.loc 1 45 0
 236 0000 42F21072 		movw	r2, #10000
  41:..\u8g2_csrc/u8x8_u16toa.c ****   uint8_t pos;
 237              		.loc 1 41 0
 238 0004 70B5     		push	{r4, r5, r6, lr}
 239              		.cfi_def_cfa_offset 16
ARM GAS  C:\Users\info\AppData\Local\Temp\ccfL6CmZ.s 			page 17


 240              		.cfi_offset 4, -16
 241              		.cfi_offset 5, -12
 242              		.cfi_offset 6, -8
 243              		.cfi_offset 14, -4
 244 0006 441E     		subs	r4, r0, #1
 245 0008 051D     		adds	r5, r0, #4
  46:..\u8g2_csrc/u8x8_u16toa.c ****   for( pos = 0; pos < 5; pos++ )
  47:..\u8g2_csrc/u8x8_u16toa.c ****   {
  48:..\u8g2_csrc/u8x8_u16toa.c ****       d = '0';
  49:..\u8g2_csrc/u8x8_u16toa.c ****       while( v >= c )
  50:..\u8g2_csrc/u8x8_u16toa.c ****       {
  51:..\u8g2_csrc/u8x8_u16toa.c **** 	v -= c;
  52:..\u8g2_csrc/u8x8_u16toa.c **** 	d++;
  53:..\u8g2_csrc/u8x8_u16toa.c ****       }
  54:..\u8g2_csrc/u8x8_u16toa.c ****       dest[pos] = d;
  55:..\u8g2_csrc/u8x8_u16toa.c ****       c /= 10;
 246              		.loc 1 55 0
 247 000a 0A26     		movs	r6, #10
 248              	.LVL1:
 249              	.L2:
  41:..\u8g2_csrc/u8x8_u16toa.c ****   uint8_t pos;
 250              		.loc 1 41 0
 251 000c 3023     		movs	r3, #48
 252              	.L5:
 253              	.LVL2:
  49:..\u8g2_csrc/u8x8_u16toa.c ****       {
 254              		.loc 1 49 0
 255 000e 9142     		cmp	r1, r2
 256 0010 04D3     		bcc	.L7
  51:..\u8g2_csrc/u8x8_u16toa.c **** 	d++;
 257              		.loc 1 51 0
 258 0012 891A     		subs	r1, r1, r2
 259              	.LVL3:
  52:..\u8g2_csrc/u8x8_u16toa.c ****       }
 260              		.loc 1 52 0
 261 0014 0133     		adds	r3, r3, #1
 262              	.LVL4:
  51:..\u8g2_csrc/u8x8_u16toa.c **** 	d++;
 263              		.loc 1 51 0
 264 0016 89B2     		uxth	r1, r1
 265              	.LVL5:
  52:..\u8g2_csrc/u8x8_u16toa.c ****       }
 266              		.loc 1 52 0
 267 0018 DBB2     		uxtb	r3, r3
 268              	.LVL6:
 269 001a F8E7     		b	.L5
 270              	.L7:
  54:..\u8g2_csrc/u8x8_u16toa.c ****       c /= 10;
 271              		.loc 1 54 0 discriminator 2
 272 001c 04F8013F 		strb	r3, [r4, #1]!
  46:..\u8g2_csrc/u8x8_u16toa.c ****   {
 273              		.loc 1 46 0 discriminator 2
 274 0020 AC42     		cmp	r4, r5
 275              		.loc 1 55 0 discriminator 2
 276 0022 B2FBF6F2 		udiv	r2, r2, r6
 277              	.LVL7:
  46:..\u8g2_csrc/u8x8_u16toa.c ****   {
ARM GAS  C:\Users\info\AppData\Local\Temp\ccfL6CmZ.s 			page 18


 278              		.loc 1 46 0 discriminator 2
 279 0026 F1D1     		bne	.L2
  56:..\u8g2_csrc/u8x8_u16toa.c ****   }  
  57:..\u8g2_csrc/u8x8_u16toa.c ****   dest[5] = '\0';
 280              		.loc 1 57 0
 281 0028 0023     		movs	r3, #0
 282              	.LVL8:
 283 002a 4371     		strb	r3, [r0, #5]
 284              	.LVL9:
  58:..\u8g2_csrc/u8x8_u16toa.c ****   return dest;
  59:..\u8g2_csrc/u8x8_u16toa.c **** }
 285              		.loc 1 59 0
 286 002c 70BD     		pop	{r4, r5, r6, pc}
 287              		.cfi_endproc
 288              	.LFE0:
 289              		.size	u8x8_u16toap, .-u8x8_u16toap
 290              		.section	.text.u8x8_u16toa,"ax",%progbits
 291              		.align	1
 292              		.global	u8x8_u16toa
 293              		.thumb
 294              		.thumb_func
 295              		.type	u8x8_u16toa, %function
 296              	u8x8_u16toa:
 297              	.LFB1:
  60:..\u8g2_csrc/u8x8_u16toa.c **** 
  61:..\u8g2_csrc/u8x8_u16toa.c **** /* v = value, d = number of digits */
  62:..\u8g2_csrc/u8x8_u16toa.c **** const char *u8x8_u16toa(uint16_t v, uint8_t d)
  63:..\u8g2_csrc/u8x8_u16toa.c **** {
 298              		.loc 1 63 0
 299              		.cfi_startproc
 300              		@ args = 0, pretend = 0, frame = 0
 301              		@ frame_needed = 0, uses_anonymous_args = 0
 302              	.LVL10:
 303 0000 10B5     		push	{r4, lr}
 304              		.cfi_def_cfa_offset 8
 305              		.cfi_offset 4, -8
 306              		.cfi_offset 14, -4
 307              		.loc 1 63 0
 308 0002 0C46     		mov	r4, r1
 309              	.LVL11:
  64:..\u8g2_csrc/u8x8_u16toa.c ****   static char buf[6];
  65:..\u8g2_csrc/u8x8_u16toa.c ****   d = 5-d;
  66:..\u8g2_csrc/u8x8_u16toa.c ****   return u8x8_u16toap(buf, v) + d;
 310              		.loc 1 66 0
 311 0004 0146     		mov	r1, r0
 312 0006 0448     		ldr	r0, .L9
 313              	.LVL12:
 314 0008 FFF7FEFF 		bl	u8x8_u16toap
 315              	.LVL13:
 316 000c C4F10504 		rsb	r4, r4, #5
 317              	.LVL14:
 318 0010 E4B2     		uxtb	r4, r4
  67:..\u8g2_csrc/u8x8_u16toa.c **** }
 319              		.loc 1 67 0
 320 0012 2044     		add	r0, r0, r4
 321 0014 10BD     		pop	{r4, pc}
 322              	.L10:
ARM GAS  C:\Users\info\AppData\Local\Temp\ccfL6CmZ.s 			page 19


 323 0016 00BF     		.align	2
 324              	.L9:
 325 0018 00000000 		.word	.LANCHOR0
 326              		.cfi_endproc
 327              	.LFE1:
 328              		.size	u8x8_u16toa, .-u8x8_u16toa
 329              		.bss
 330              		.set	.LANCHOR0,. + 0
 331              		.type	buf.5436, %object
 332              		.size	buf.5436, 6
 333              	buf.5436:
 334 0000 00000000 		.space	6
 334      0000
 335              		.text
 336              	.Letext0:
 337              		.file 2 "c:\\program files (x86)\\cypress\\psoc creator\\4.2\\psoc creator\\import\\gnu\\arm\\5.4.
 338              		.file 3 "c:\\program files (x86)\\cypress\\psoc creator\\4.2\\psoc creator\\import\\gnu\\arm\\5.4.