ARM GAS  C:\Users\info\AppData\Local\Temp\ccytNozH.s 			page 1


   1              		.syntax unified
   2              		.cpu cortex-m3
   3              		.fpu softvfp
   4              		.eabi_attribute 20, 1
   5              		.eabi_attribute 21, 1
   6              		.eabi_attribute 23, 3
   7              		.eabi_attribute 24, 1
   8              		.eabi_attribute 25, 1
   9              		.eabi_attribute 26, 1
  10              		.eabi_attribute 30, 2
  11              		.eabi_attribute 34, 1
  12              		.eabi_attribute 18, 4
  13              		.thumb
  14              		.syntax unified
  15              		.file	"u8x8_d_uc1604.c"
  16              		.text
  17              	.Ltext0:
  18              		.cfi_sections	.debug_frame
  19              		.section	.text.u8x8_d_uc1604_common,"ax",%progbits
  20              		.align	2
  21              		.global	u8x8_d_uc1604_common
  22              		.thumb
  23              		.thumb_func
  24              		.type	u8x8_d_uc1604_common, %function
  25              	u8x8_d_uc1604_common:
  26              	.LFB0:
  27              		.file 1 "..\\u8g2-master\\csrc\\u8x8_d_uc1604.c"
   1:..\u8g2-master\csrc/u8x8_d_uc1604.c **** /*
   2:..\u8g2-master\csrc/u8x8_d_uc1604.c **** 
   3:..\u8g2-master\csrc/u8x8_d_uc1604.c ****   u8x8_d_uc1604.c
   4:..\u8g2-master\csrc/u8x8_d_uc1604.c ****   
   5:..\u8g2-master\csrc/u8x8_d_uc1604.c ****   Universal 8bit Graphics Library (https://github.com/olikraus/u8g2/)
   6:..\u8g2-master\csrc/u8x8_d_uc1604.c **** 
   7:..\u8g2-master\csrc/u8x8_d_uc1604.c ****   Copyright (c) 2016, olikraus@gmail.com
   8:..\u8g2-master\csrc/u8x8_d_uc1604.c ****   All rights reserved.
   9:..\u8g2-master\csrc/u8x8_d_uc1604.c **** 
  10:..\u8g2-master\csrc/u8x8_d_uc1604.c ****   Redistribution and use in source and binary forms, with or without modification, 
  11:..\u8g2-master\csrc/u8x8_d_uc1604.c ****   are permitted provided that the following conditions are met:
  12:..\u8g2-master\csrc/u8x8_d_uc1604.c **** 
  13:..\u8g2-master\csrc/u8x8_d_uc1604.c ****   * Redistributions of source code must retain the above copyright notice, this list 
  14:..\u8g2-master\csrc/u8x8_d_uc1604.c ****     of conditions and the following disclaimer.
  15:..\u8g2-master\csrc/u8x8_d_uc1604.c ****     
  16:..\u8g2-master\csrc/u8x8_d_uc1604.c ****   * Redistributions in binary form must reproduce the above copyright notice, this 
  17:..\u8g2-master\csrc/u8x8_d_uc1604.c ****     list of conditions and the following disclaimer in the documentation and/or other 
  18:..\u8g2-master\csrc/u8x8_d_uc1604.c ****     materials provided with the distribution.
  19:..\u8g2-master\csrc/u8x8_d_uc1604.c **** 
  20:..\u8g2-master\csrc/u8x8_d_uc1604.c ****   THIS SOFTWARE IS PROVIDED BY THE COPYRIGHT HOLDERS AND 
  21:..\u8g2-master\csrc/u8x8_d_uc1604.c ****   CONTRIBUTORS "AS IS" AND ANY EXPRESS OR IMPLIED WARRANTIES, 
  22:..\u8g2-master\csrc/u8x8_d_uc1604.c ****   INCLUDING, BUT NOT LIMITED TO, THE IMPLIED WARRANTIES OF 
  23:..\u8g2-master\csrc/u8x8_d_uc1604.c ****   MERCHANTABILITY AND FITNESS FOR A PARTICULAR PURPOSE ARE 
  24:..\u8g2-master\csrc/u8x8_d_uc1604.c ****   DISCLAIMED. IN NO EVENT SHALL THE COPYRIGHT HOLDER OR 
  25:..\u8g2-master\csrc/u8x8_d_uc1604.c ****   CONTRIBUTORS BE LIABLE FOR ANY DIRECT, INDIRECT, INCIDENTAL, 
  26:..\u8g2-master\csrc/u8x8_d_uc1604.c ****   SPECIAL, EXEMPLARY, OR CONSEQUENTIAL DAMAGES (INCLUDING, BUT 
  27:..\u8g2-master\csrc/u8x8_d_uc1604.c ****   NOT LIMITED TO, PROCUREMENT OF SUBSTITUTE GOODS OR SERVICES; 
  28:..\u8g2-master\csrc/u8x8_d_uc1604.c ****   LOSS OF USE, DATA, OR PROFITS; OR BUSINESS INTERRUPTION) HOWEVER 
  29:..\u8g2-master\csrc/u8x8_d_uc1604.c ****   CAUSED AND ON ANY THEORY OF LIABILITY, WHETHER IN CONTRACT, 
  30:..\u8g2-master\csrc/u8x8_d_uc1604.c ****   STRICT LIABILITY, OR TORT (INCLUDING NEGLIGENCE OR OTHERWISE) 
ARM GAS  C:\Users\info\AppData\Local\Temp\ccytNozH.s 			page 2


  31:..\u8g2-master\csrc/u8x8_d_uc1604.c ****   ARISING IN ANY WAY OUT OF THE USE OF THIS SOFTWARE, EVEN IF 
  32:..\u8g2-master\csrc/u8x8_d_uc1604.c ****   ADVISED OF THE POSSIBILITY OF SUCH DAMAGE.  
  33:..\u8g2-master\csrc/u8x8_d_uc1604.c **** 
  34:..\u8g2-master\csrc/u8x8_d_uc1604.c **** 
  35:..\u8g2-master\csrc/u8x8_d_uc1604.c ****   
  36:..\u8g2-master\csrc/u8x8_d_uc1604.c **** */
  37:..\u8g2-master\csrc/u8x8_d_uc1604.c **** #include "u8x8.h"
  38:..\u8g2-master\csrc/u8x8_d_uc1604.c **** 
  39:..\u8g2-master\csrc/u8x8_d_uc1604.c **** 
  40:..\u8g2-master\csrc/u8x8_d_uc1604.c **** 
  41:..\u8g2-master\csrc/u8x8_d_uc1604.c **** 
  42:..\u8g2-master\csrc/u8x8_d_uc1604.c **** 
  43:..\u8g2-master\csrc/u8x8_d_uc1604.c **** static const uint8_t u8x8_d_uc1604_powersave0_seq[] = {
  44:..\u8g2-master\csrc/u8x8_d_uc1604.c ****   U8X8_START_TRANSFER(),             	/* enable chip, delay is part of the transfer start */
  45:..\u8g2-master\csrc/u8x8_d_uc1604.c ****   U8X8_DLY(20),			
  46:..\u8g2-master\csrc/u8x8_d_uc1604.c ****   U8X8_C(0x0af),		                /* display on */
  47:..\u8g2-master\csrc/u8x8_d_uc1604.c ****   U8X8_DLY(20),				/* during setup, it seems that the startup is more reliable when sending this cm
  48:..\u8g2-master\csrc/u8x8_d_uc1604.c ****   U8X8_C(0x0af),		                /* display on */
  49:..\u8g2-master\csrc/u8x8_d_uc1604.c ****   U8X8_DLY(50),				/* startup takes some time */
  50:..\u8g2-master\csrc/u8x8_d_uc1604.c ****   U8X8_END_TRANSFER(),             	/* disable chip */
  51:..\u8g2-master\csrc/u8x8_d_uc1604.c ****   U8X8_END()             			/* end of sequence */
  52:..\u8g2-master\csrc/u8x8_d_uc1604.c **** };
  53:..\u8g2-master\csrc/u8x8_d_uc1604.c **** 
  54:..\u8g2-master\csrc/u8x8_d_uc1604.c **** static const uint8_t u8x8_d_uc1604_powersave1_seq[] = {
  55:..\u8g2-master\csrc/u8x8_d_uc1604.c ****   U8X8_START_TRANSFER(),             	/* enable chip, delay is part of the transfer start */
  56:..\u8g2-master\csrc/u8x8_d_uc1604.c ****   U8X8_C(0x0ae),		                /* display off, enter sleep mode */
  57:..\u8g2-master\csrc/u8x8_d_uc1604.c ****   U8X8_END_TRANSFER(),             	/* disable chip */
  58:..\u8g2-master\csrc/u8x8_d_uc1604.c ****   U8X8_END()             			/* end of sequence */
  59:..\u8g2-master\csrc/u8x8_d_uc1604.c **** };
  60:..\u8g2-master\csrc/u8x8_d_uc1604.c **** 
  61:..\u8g2-master\csrc/u8x8_d_uc1604.c **** static const uint8_t u8x8_d_uc1604_flip0_seq[] = {
  62:..\u8g2-master\csrc/u8x8_d_uc1604.c ****   U8X8_START_TRANSFER(),             	/* enable chip, delay is part of the transfer start */
  63:..\u8g2-master\csrc/u8x8_d_uc1604.c ****   U8X8_C(0x0c4),            			/* LCD Mapping */
  64:..\u8g2-master\csrc/u8x8_d_uc1604.c ****   U8X8_END_TRANSFER(),             	/* disable chip */
  65:..\u8g2-master\csrc/u8x8_d_uc1604.c ****   U8X8_END()             			/* end of sequence */
  66:..\u8g2-master\csrc/u8x8_d_uc1604.c **** };
  67:..\u8g2-master\csrc/u8x8_d_uc1604.c **** 
  68:..\u8g2-master\csrc/u8x8_d_uc1604.c **** static const uint8_t u8x8_d_uc1604_flip1_seq[] = {
  69:..\u8g2-master\csrc/u8x8_d_uc1604.c ****   U8X8_START_TRANSFER(),             	/* enable chip, delay is part of the transfer start */
  70:..\u8g2-master\csrc/u8x8_d_uc1604.c ****   U8X8_C(0x0c2),            			/* LCD Mapping */
  71:..\u8g2-master\csrc/u8x8_d_uc1604.c ****   U8X8_END_TRANSFER(),             	/* disable chip */
  72:..\u8g2-master\csrc/u8x8_d_uc1604.c ****   U8X8_END()             			/* end of sequence */
  73:..\u8g2-master\csrc/u8x8_d_uc1604.c **** };
  74:..\u8g2-master\csrc/u8x8_d_uc1604.c **** 
  75:..\u8g2-master\csrc/u8x8_d_uc1604.c **** 
  76:..\u8g2-master\csrc/u8x8_d_uc1604.c **** uint8_t u8x8_d_uc1604_common(u8x8_t *u8x8, uint8_t msg, uint8_t arg_int, void *arg_ptr)
  77:..\u8g2-master\csrc/u8x8_d_uc1604.c **** {
  28              		.loc 1 77 0
  29              		.cfi_startproc
  30              		@ args = 0, pretend = 0, frame = 0
  31              		@ frame_needed = 0, uses_anonymous_args = 0
  32              	.LVL0:
  78:..\u8g2-master\csrc/u8x8_d_uc1604.c ****   uint8_t x, y, c;
  79:..\u8g2-master\csrc/u8x8_d_uc1604.c ****   uint8_t *ptr;
  80:..\u8g2-master\csrc/u8x8_d_uc1604.c ****   switch(msg)
  33              		.loc 1 80 0
  34 0000 0B39     		subs	r1, r1, #11
ARM GAS  C:\Users\info\AppData\Local\Temp\ccytNozH.s 			page 3


  35              	.LVL1:
  77:..\u8g2-master\csrc/u8x8_d_uc1604.c ****   uint8_t x, y, c;
  36              		.loc 1 77 0
  37 0002 F8B5     		push	{r3, r4, r5, r6, r7, lr}
  38              		.cfi_def_cfa_offset 24
  39              		.cfi_offset 3, -24
  40              		.cfi_offset 4, -20
  41              		.cfi_offset 5, -16
  42              		.cfi_offset 6, -12
  43              		.cfi_offset 7, -8
  44              		.cfi_offset 14, -4
  77:..\u8g2-master\csrc/u8x8_d_uc1604.c ****   uint8_t x, y, c;
  45              		.loc 1 77 0
  46 0004 0546     		mov	r5, r0
  47 0006 1446     		mov	r4, r2
  48 0008 1F46     		mov	r7, r3
  49              		.loc 1 80 0
  50 000a 0429     		cmp	r1, #4
  51 000c 50D8     		bhi	.L11
  52 000e DFE801F0 		tbb	[pc, r1]
  53              	.LVL2:
  54              	.L4:
  55 0012 3F       		.byte	(.L3-.L4)/2
  56 0013 4F       		.byte	(.L11-.L4)/2
  57 0014 45       		.byte	(.L5-.L4)/2
  58 0015 30       		.byte	(.L6-.L4)/2
  59 0016 03       		.byte	(.L7-.L4)/2
  60 0017 00       		.p2align 1
  61              	.L7:
  81:..\u8g2-master\csrc/u8x8_d_uc1604.c ****   {
  82:..\u8g2-master\csrc/u8x8_d_uc1604.c ****     case U8X8_MSG_DISPLAY_DRAW_TILE:
  83:..\u8g2-master\csrc/u8x8_d_uc1604.c ****       u8x8_cad_StartTransfer(u8x8);
  62              		.loc 1 83 0
  63 0018 FFF7FEFF 		bl	u8x8_cad_StartTransfer
  64              	.LVL3:
  84:..\u8g2-master\csrc/u8x8_d_uc1604.c ****     
  85:..\u8g2-master\csrc/u8x8_d_uc1604.c ****       x = ((u8x8_tile_t *)arg_ptr)->x_pos;
  65              		.loc 1 85 0
  66 001c 7E79     		ldrb	r6, [r7, #5]	@ zero_extendqisi2
  67              	.LVL4:
  86:..\u8g2-master\csrc/u8x8_d_uc1604.c ****       x *= 8;
  87:..\u8g2-master\csrc/u8x8_d_uc1604.c ****    
  88:..\u8g2-master\csrc/u8x8_d_uc1604.c ****       u8x8_cad_SendCmd(u8x8, 0x000 | ((x&15)));
  68              		.loc 1 88 0
  69 001e 2846     		mov	r0, r5
  86:..\u8g2-master\csrc/u8x8_d_uc1604.c ****       x *= 8;
  70              		.loc 1 86 0
  71 0020 F600     		lsls	r6, r6, #3
  72              	.LVL5:
  73 0022 F6B2     		uxtb	r6, r6
  74              	.LVL6:
  75              		.loc 1 88 0
  76 0024 06F00801 		and	r1, r6, #8
  77 0028 FFF7FEFF 		bl	u8x8_cad_SendCmd
  78              	.LVL7:
  89:..\u8g2-master\csrc/u8x8_d_uc1604.c ****       u8x8_cad_SendCmd(u8x8, 0x010 | (x>>4) );
  79              		.loc 1 89 0
ARM GAS  C:\Users\info\AppData\Local\Temp\ccytNozH.s 			page 4


  80 002c 3109     		lsrs	r1, r6, #4
  81 002e 41F01001 		orr	r1, r1, #16
  82 0032 2846     		mov	r0, r5
  83 0034 FFF7FEFF 		bl	u8x8_cad_SendCmd
  84              	.LVL8:
  90:..\u8g2-master\csrc/u8x8_d_uc1604.c ****     
  91:..\u8g2-master\csrc/u8x8_d_uc1604.c ****       y = ((u8x8_tile_t *)arg_ptr)->y_pos;
  85              		.loc 1 91 0
  86 0038 B979     		ldrb	r1, [r7, #6]	@ zero_extendqisi2
  87              	.LVL9:
  92:..\u8g2-master\csrc/u8x8_d_uc1604.c ****       y += u8x8->x_offset;
  93:..\u8g2-master\csrc/u8x8_d_uc1604.c ****       u8x8_cad_SendCmd(u8x8, 0x0b0 | (y&15));
  88              		.loc 1 93 0
  89 003a 95F82230 		ldrb	r3, [r5, #34]	@ zero_extendqisi2
  90 003e 2846     		mov	r0, r5
  91 0040 1944     		add	r1, r1, r3
  92              	.LVL10:
  93 0042 01F00F01 		and	r1, r1, #15
  94 0046 41F0B001 		orr	r1, r1, #176
  95 004a FFF7FEFF 		bl	u8x8_cad_SendCmd
  96              	.LVL11:
  94:..\u8g2-master\csrc/u8x8_d_uc1604.c ****     
  95:..\u8g2-master\csrc/u8x8_d_uc1604.c ****       c = ((u8x8_tile_t *)arg_ptr)->cnt;
  97              		.loc 1 95 0
  98 004e 3E79     		ldrb	r6, [r7, #4]	@ zero_extendqisi2
  99              	.LVL12:
  96:..\u8g2-master\csrc/u8x8_d_uc1604.c ****       c *= 8;
  97:..\u8g2-master\csrc/u8x8_d_uc1604.c ****       ptr = ((u8x8_tile_t *)arg_ptr)->tile_ptr;
 100              		.loc 1 97 0
 101 0050 3F68     		ldr	r7, [r7]
 102              	.LVL13:
  96:..\u8g2-master\csrc/u8x8_d_uc1604.c ****       c *= 8;
 103              		.loc 1 96 0
 104 0052 F600     		lsls	r6, r6, #3
 105              	.LVL14:
 106 0054 F6B2     		uxtb	r6, r6
 107              	.LVL15:
 108              	.L8:
  98:..\u8g2-master\csrc/u8x8_d_uc1604.c ****       do
  99:..\u8g2-master\csrc/u8x8_d_uc1604.c ****       {
 100:..\u8g2-master\csrc/u8x8_d_uc1604.c **** 	u8x8_cad_SendData(u8x8, c, ptr);	/* note: SendData can not handle more than 255 bytes */
 109              		.loc 1 100 0 discriminator 1
 110 0056 3A46     		mov	r2, r7
 111 0058 3146     		mov	r1, r6
 112 005a 2846     		mov	r0, r5
 113 005c FFF7FEFF 		bl	u8x8_cad_SendData
 114              	.LVL16:
 101:..\u8g2-master\csrc/u8x8_d_uc1604.c **** 	arg_int--;
 115              		.loc 1 101 0 discriminator 1
 116 0060 621E     		subs	r2, r4, #1
 117              	.LVL17:
 102:..\u8g2-master\csrc/u8x8_d_uc1604.c ****       } while( arg_int > 0 );
 118              		.loc 1 102 0 discriminator 1
 119 0062 12F0FF04 		ands	r4, r2, #255
 120 0066 F6D1     		bne	.L8
 103:..\u8g2-master\csrc/u8x8_d_uc1604.c ****       
 104:..\u8g2-master\csrc/u8x8_d_uc1604.c ****       u8x8_cad_EndTransfer(u8x8);
ARM GAS  C:\Users\info\AppData\Local\Temp\ccytNozH.s 			page 5


 105:..\u8g2-master\csrc/u8x8_d_uc1604.c ****       break;
 106:..\u8g2-master\csrc/u8x8_d_uc1604.c ****     /*	handled in the calling procedure 
 107:..\u8g2-master\csrc/u8x8_d_uc1604.c ****     case U8X8_MSG_DISPLAY_SETUP_MEMORY:
 108:..\u8g2-master\csrc/u8x8_d_uc1604.c ****       u8x8_d_helper_display_setup_memory(u8x8, &u8x8_uc1604_128x64_display_info);
 109:..\u8g2-master\csrc/u8x8_d_uc1604.c ****       break;
 110:..\u8g2-master\csrc/u8x8_d_uc1604.c ****     case U8X8_MSG_DISPLAY_INIT:
 111:..\u8g2-master\csrc/u8x8_d_uc1604.c ****       u8x8_d_helper_display_init(u8x8);
 112:..\u8g2-master\csrc/u8x8_d_uc1604.c ****       u8x8_cad_SendSequence(u8x8, u8x8_d_uc1701_dogs102_init_seq);
 113:..\u8g2-master\csrc/u8x8_d_uc1604.c ****       break;
 114:..\u8g2-master\csrc/u8x8_d_uc1604.c ****     */
 115:..\u8g2-master\csrc/u8x8_d_uc1604.c ****     case U8X8_MSG_DISPLAY_SET_POWER_SAVE:
 116:..\u8g2-master\csrc/u8x8_d_uc1604.c ****       if ( arg_int == 0 )
 117:..\u8g2-master\csrc/u8x8_d_uc1604.c **** 	u8x8_cad_SendSequence(u8x8, u8x8_d_uc1604_powersave0_seq);
 118:..\u8g2-master\csrc/u8x8_d_uc1604.c ****       else
 119:..\u8g2-master\csrc/u8x8_d_uc1604.c **** 	u8x8_cad_SendSequence(u8x8, u8x8_d_uc1604_powersave1_seq);
 120:..\u8g2-master\csrc/u8x8_d_uc1604.c ****       break;
 121:..\u8g2-master\csrc/u8x8_d_uc1604.c ****     case U8X8_MSG_DISPLAY_SET_FLIP_MODE:
 122:..\u8g2-master\csrc/u8x8_d_uc1604.c ****       if ( arg_int == 0 )
 123:..\u8g2-master\csrc/u8x8_d_uc1604.c ****       {
 124:..\u8g2-master\csrc/u8x8_d_uc1604.c **** 	u8x8_cad_SendSequence(u8x8, u8x8_d_uc1604_flip0_seq);
 125:..\u8g2-master\csrc/u8x8_d_uc1604.c **** 	u8x8->x_offset = u8x8->display_info->default_x_offset;
 126:..\u8g2-master\csrc/u8x8_d_uc1604.c ****       }
 127:..\u8g2-master\csrc/u8x8_d_uc1604.c ****       else
 128:..\u8g2-master\csrc/u8x8_d_uc1604.c ****       {
 129:..\u8g2-master\csrc/u8x8_d_uc1604.c **** 	u8x8_cad_SendSequence(u8x8, u8x8_d_uc1604_flip1_seq);
 130:..\u8g2-master\csrc/u8x8_d_uc1604.c **** 	u8x8->x_offset = u8x8->display_info->flipmode_x_offset;
 131:..\u8g2-master\csrc/u8x8_d_uc1604.c ****       }	
 132:..\u8g2-master\csrc/u8x8_d_uc1604.c ****       break;
 133:..\u8g2-master\csrc/u8x8_d_uc1604.c **** #ifdef U8X8_WITH_SET_CONTRAST
 134:..\u8g2-master\csrc/u8x8_d_uc1604.c ****     case U8X8_MSG_DISPLAY_SET_CONTRAST:
 135:..\u8g2-master\csrc/u8x8_d_uc1604.c ****       u8x8_cad_StartTransfer(u8x8);
 136:..\u8g2-master\csrc/u8x8_d_uc1604.c ****       u8x8_cad_SendCmd(u8x8, 0x081 );
 137:..\u8g2-master\csrc/u8x8_d_uc1604.c ****       u8x8_cad_SendArg(u8x8, arg_int  );	/* uc1604 has range from 0 to 255 */
 138:..\u8g2-master\csrc/u8x8_d_uc1604.c ****       u8x8_cad_EndTransfer(u8x8);
 121              		.loc 1 138 0
 122 0068 2846     		mov	r0, r5
 123 006a FFF7FEFF 		bl	u8x8_cad_EndTransfer
 124              	.LVL18:
 139:..\u8g2-master\csrc/u8x8_d_uc1604.c ****       break;
 140:..\u8g2-master\csrc/u8x8_d_uc1604.c **** #endif
 141:..\u8g2-master\csrc/u8x8_d_uc1604.c ****     default:
 142:..\u8g2-master\csrc/u8x8_d_uc1604.c ****       return 0;
 143:..\u8g2-master\csrc/u8x8_d_uc1604.c ****   }
 144:..\u8g2-master\csrc/u8x8_d_uc1604.c ****   return 1;
 125              		.loc 1 144 0
 126 006e 0120     		movs	r0, #1
 139:..\u8g2-master\csrc/u8x8_d_uc1604.c ****       break;
 127              		.loc 1 139 0
 128 0070 F8BD     		pop	{r3, r4, r5, r6, r7, pc}
 129              	.LVL19:
 130              	.L6:
 135:..\u8g2-master\csrc/u8x8_d_uc1604.c ****       u8x8_cad_SendCmd(u8x8, 0x081 );
 131              		.loc 1 135 0
 132 0072 FFF7FEFF 		bl	u8x8_cad_StartTransfer
 133              	.LVL20:
 136:..\u8g2-master\csrc/u8x8_d_uc1604.c ****       u8x8_cad_SendArg(u8x8, arg_int  );	/* uc1604 has range from 0 to 255 */
 134              		.loc 1 136 0
ARM GAS  C:\Users\info\AppData\Local\Temp\ccytNozH.s 			page 6


 135 0076 8121     		movs	r1, #129
 136 0078 2846     		mov	r0, r5
 137 007a FFF7FEFF 		bl	u8x8_cad_SendCmd
 138              	.LVL21:
 137:..\u8g2-master\csrc/u8x8_d_uc1604.c ****       u8x8_cad_EndTransfer(u8x8);
 139              		.loc 1 137 0
 140 007e 2146     		mov	r1, r4
 141 0080 2846     		mov	r0, r5
 142 0082 FFF7FEFF 		bl	u8x8_cad_SendArg
 143              	.LVL22:
 138:..\u8g2-master\csrc/u8x8_d_uc1604.c ****       break;
 144              		.loc 1 138 0
 145 0086 2846     		mov	r0, r5
 146 0088 FFF7FEFF 		bl	u8x8_cad_EndTransfer
 147              	.LVL23:
 148              		.loc 1 144 0
 149 008c 0120     		movs	r0, #1
 139:..\u8g2-master\csrc/u8x8_d_uc1604.c **** #endif
 150              		.loc 1 139 0
 151 008e F8BD     		pop	{r3, r4, r5, r6, r7, pc}
 152              	.LVL24:
 153              	.L3:
 116:..\u8g2-master\csrc/u8x8_d_uc1604.c **** 	u8x8_cad_SendSequence(u8x8, u8x8_d_uc1604_powersave0_seq);
 154              		.loc 1 116 0
 155 0090 CAB9     		cbnz	r2, .L9
 117:..\u8g2-master\csrc/u8x8_d_uc1604.c ****       else
 156              		.loc 1 117 0
 157 0092 0F49     		ldr	r1, .L16
 158 0094 FFF7FEFF 		bl	u8x8_cad_SendSequence
 159              	.LVL25:
 160              		.loc 1 144 0
 161 0098 0120     		movs	r0, #1
 162 009a F8BD     		pop	{r3, r4, r5, r6, r7, pc}
 163              	.LVL26:
 164              	.L5:
 122:..\u8g2-master\csrc/u8x8_d_uc1604.c ****       {
 165              		.loc 1 122 0
 166 009c 52B9     		cbnz	r2, .L10
 124:..\u8g2-master\csrc/u8x8_d_uc1604.c **** 	u8x8->x_offset = u8x8->display_info->default_x_offset;
 167              		.loc 1 124 0
 168 009e 0D49     		ldr	r1, .L16+4
 169 00a0 FFF7FEFF 		bl	u8x8_cad_SendSequence
 170              	.LVL27:
 125:..\u8g2-master\csrc/u8x8_d_uc1604.c ****       }
 171              		.loc 1 125 0
 172 00a4 2B68     		ldr	r3, [r5]
 173              		.loc 1 144 0
 174 00a6 0120     		movs	r0, #1
 125:..\u8g2-master\csrc/u8x8_d_uc1604.c ****       }
 175              		.loc 1 125 0
 176 00a8 9B7C     		ldrb	r3, [r3, #18]	@ zero_extendqisi2
 177 00aa 85F82230 		strb	r3, [r5, #34]
 178 00ae F8BD     		pop	{r3, r4, r5, r6, r7, pc}
 179              	.LVL28:
 180              	.L11:
 142:..\u8g2-master\csrc/u8x8_d_uc1604.c ****   }
 181              		.loc 1 142 0
ARM GAS  C:\Users\info\AppData\Local\Temp\ccytNozH.s 			page 7


 182 00b0 0020     		movs	r0, #0
 183              	.LVL29:
 145:..\u8g2-master\csrc/u8x8_d_uc1604.c **** }
 184              		.loc 1 145 0
 185 00b2 F8BD     		pop	{r3, r4, r5, r6, r7, pc}
 186              	.LVL30:
 187              	.L10:
 129:..\u8g2-master\csrc/u8x8_d_uc1604.c **** 	u8x8->x_offset = u8x8->display_info->flipmode_x_offset;
 188              		.loc 1 129 0
 189 00b4 0849     		ldr	r1, .L16+8
 190 00b6 FFF7FEFF 		bl	u8x8_cad_SendSequence
 191              	.LVL31:
 130:..\u8g2-master\csrc/u8x8_d_uc1604.c ****       }	
 192              		.loc 1 130 0
 193 00ba 2B68     		ldr	r3, [r5]
 144:..\u8g2-master\csrc/u8x8_d_uc1604.c **** }
 194              		.loc 1 144 0
 195 00bc 0120     		movs	r0, #1
 130:..\u8g2-master\csrc/u8x8_d_uc1604.c ****       }	
 196              		.loc 1 130 0
 197 00be DB7C     		ldrb	r3, [r3, #19]	@ zero_extendqisi2
 198 00c0 85F82230 		strb	r3, [r5, #34]
 199 00c4 F8BD     		pop	{r3, r4, r5, r6, r7, pc}
 200              	.LVL32:
 201              	.L9:
 119:..\u8g2-master\csrc/u8x8_d_uc1604.c ****       break;
 202              		.loc 1 119 0
 203 00c6 0549     		ldr	r1, .L16+12
 204 00c8 FFF7FEFF 		bl	u8x8_cad_SendSequence
 205              	.LVL33:
 144:..\u8g2-master\csrc/u8x8_d_uc1604.c **** }
 206              		.loc 1 144 0
 207 00cc 0120     		movs	r0, #1
 208 00ce F8BD     		pop	{r3, r4, r5, r6, r7, pc}
 209              	.LVL34:
 210              	.L17:
 211              		.align	2
 212              	.L16:
 213 00d0 00000000 		.word	.LANCHOR0
 214 00d4 18000000 		.word	.LANCHOR0+24
 215 00d8 20000000 		.word	.LANCHOR0+32
 216 00dc 10000000 		.word	.LANCHOR0+16
 217              		.cfi_endproc
 218              	.LFE0:
 219              		.size	u8x8_d_uc1604_common, .-u8x8_d_uc1604_common
 220              		.section	.text.u8x8_d_uc1604_jlx19264,"ax",%progbits
 221              		.align	2
 222              		.global	u8x8_d_uc1604_jlx19264
 223              		.thumb
 224              		.thumb_func
 225              		.type	u8x8_d_uc1604_jlx19264, %function
 226              	u8x8_d_uc1604_jlx19264:
 227              	.LFB1:
 146:..\u8g2-master\csrc/u8x8_d_uc1604.c **** 
 147:..\u8g2-master\csrc/u8x8_d_uc1604.c **** /*================================================*/
 148:..\u8g2-master\csrc/u8x8_d_uc1604.c **** /* JLX19264 */
 149:..\u8g2-master\csrc/u8x8_d_uc1604.c **** 
ARM GAS  C:\Users\info\AppData\Local\Temp\ccytNozH.s 			page 8


 150:..\u8g2-master\csrc/u8x8_d_uc1604.c **** /* 
 151:..\u8g2-master\csrc/u8x8_d_uc1604.c ****   timings from uc1608 
 152:..\u8g2-master\csrc/u8x8_d_uc1604.c **** 
 153:..\u8g2-master\csrc/u8x8_d_uc1604.c ****   UC1604 has two chip select inputs (CS0 and CS1).
 154:..\u8g2-master\csrc/u8x8_d_uc1604.c ****   CS0 is low active, CS1 is high active. It will depend on the display
 155:..\u8g2-master\csrc/u8x8_d_uc1604.c ****   module whether the display has a is low or high active chip select.
 156:..\u8g2-master\csrc/u8x8_d_uc1604.c **** 
 157:..\u8g2-master\csrc/u8x8_d_uc1604.c **** */
 158:..\u8g2-master\csrc/u8x8_d_uc1604.c **** static const u8x8_display_info_t u8x8_uc1604_192x64_display_info =
 159:..\u8g2-master\csrc/u8x8_d_uc1604.c **** {
 160:..\u8g2-master\csrc/u8x8_d_uc1604.c ****   /* chip_enable_level = */ 0,	/* JLX19264G uses CS0, which is low active CS*/
 161:..\u8g2-master\csrc/u8x8_d_uc1604.c ****   /* chip_disable_level = */ 1,
 162:..\u8g2-master\csrc/u8x8_d_uc1604.c ****   
 163:..\u8g2-master\csrc/u8x8_d_uc1604.c ****   /* post_chip_enable_wait_ns = */ 20,	
 164:..\u8g2-master\csrc/u8x8_d_uc1604.c ****   /* pre_chip_disable_wait_ns = */ 20,	
 165:..\u8g2-master\csrc/u8x8_d_uc1604.c ****   /* reset_pulse_width_ms = */ 1, 	
 166:..\u8g2-master\csrc/u8x8_d_uc1604.c ****   /* post_reset_wait_ms = */ 10, 	
 167:..\u8g2-master\csrc/u8x8_d_uc1604.c ****   /* sda_setup_time_ns = */ 30,		
 168:..\u8g2-master\csrc/u8x8_d_uc1604.c ****   /* sck_pulse_width_ns = */ 65,	/* half of cycle time  */
 169:..\u8g2-master\csrc/u8x8_d_uc1604.c ****   /* sck_clock_hz = */ 8000000UL,	/* since Arduino 1.6.0, the SPI bus speed in Hz. Should be  10000
 170:..\u8g2-master\csrc/u8x8_d_uc1604.c ****   /* spi_mode = */ 0,		/* active high, rising edge */
 171:..\u8g2-master\csrc/u8x8_d_uc1604.c ****   /* i2c_bus_clock_100kHz = */ 4,
 172:..\u8g2-master\csrc/u8x8_d_uc1604.c ****   /* data_setup_time_ns = */ 30,	
 173:..\u8g2-master\csrc/u8x8_d_uc1604.c ****   /* write_pulse_width_ns = */ 35,	
 174:..\u8g2-master\csrc/u8x8_d_uc1604.c ****   /* tile_width = */ 24,		/* width of 24*8=192 pixel */
 175:..\u8g2-master\csrc/u8x8_d_uc1604.c ****   /* tile_hight = */ 8,
 176:..\u8g2-master\csrc/u8x8_d_uc1604.c ****   /* default_x_offset = */ 0,	/* reused as y page offset */
 177:..\u8g2-master\csrc/u8x8_d_uc1604.c ****   /* flipmode_x_offset = */ 0,	/* reused as y page offset */
 178:..\u8g2-master\csrc/u8x8_d_uc1604.c ****   /* pixel_width = */ 192,
 179:..\u8g2-master\csrc/u8x8_d_uc1604.c ****   /* pixel_height = */ 64
 180:..\u8g2-master\csrc/u8x8_d_uc1604.c **** };
 181:..\u8g2-master\csrc/u8x8_d_uc1604.c **** 
 182:..\u8g2-master\csrc/u8x8_d_uc1604.c **** static const uint8_t u8x8_d_uc1604_jlx19264_init_seq[] = {
 183:..\u8g2-master\csrc/u8x8_d_uc1604.c ****     
 184:..\u8g2-master\csrc/u8x8_d_uc1604.c ****   U8X8_START_TRANSFER(),             	/* enable chip, delay is part of the transfer start */
 185:..\u8g2-master\csrc/u8x8_d_uc1604.c **** 
 186:..\u8g2-master\csrc/u8x8_d_uc1604.c ****   U8X8_C(0x0e2),            			/* soft reset */
 187:..\u8g2-master\csrc/u8x8_d_uc1604.c ****   U8X8_DLY(200),
 188:..\u8g2-master\csrc/u8x8_d_uc1604.c ****   U8X8_DLY(200),
 189:..\u8g2-master\csrc/u8x8_d_uc1604.c **** 
 190:..\u8g2-master\csrc/u8x8_d_uc1604.c ****   U8X8_C(0x02f),            			/* power on, Bit 2 PC2=1 (internal charge pump), Bits 0/1: cap of pa
 191:..\u8g2-master\csrc/u8x8_d_uc1604.c ****   U8X8_DLY(200),
 192:..\u8g2-master\csrc/u8x8_d_uc1604.c ****   U8X8_DLY(200),
 193:..\u8g2-master\csrc/u8x8_d_uc1604.c ****   
 194:..\u8g2-master\csrc/u8x8_d_uc1604.c ****   U8X8_CA(0x081, 0x052),		/* set contrast, JLX19264G suggestion: 0x045 */
 195:..\u8g2-master\csrc/u8x8_d_uc1604.c ****   U8X8_C(0x0eb),            			/* LCD bias Bits 0/1: 00=6 01=7, 10=8, 11=9 */
 196:..\u8g2-master\csrc/u8x8_d_uc1604.c **** 
 197:..\u8g2-master\csrc/u8x8_d_uc1604.c ****   
 198:..\u8g2-master\csrc/u8x8_d_uc1604.c ****   //U8X8_C(0x023),            			/* Bit 0/1: Temp compenstation, Bit 2: Multiplex Rate 0=96, 1=128 
 199:..\u8g2-master\csrc/u8x8_d_uc1604.c ****   //U8X8_C(0x027),            			/* Bit 0/1: Temp compenstation, Bit 2: Multiplex Rate 0=96, 1=128 
 200:..\u8g2-master\csrc/u8x8_d_uc1604.c **** 
 201:..\u8g2-master\csrc/u8x8_d_uc1604.c ****   U8X8_C(0x0c4),            			/* Map control, Bit 2: MY=1, Bit 1: MX=0 */
 202:..\u8g2-master\csrc/u8x8_d_uc1604.c ****   U8X8_C(0x0a0),            			/* 0xa0: 76Hz FPS, controller default: 0x0a1: 95Hz FPS */
 203:..\u8g2-master\csrc/u8x8_d_uc1604.c ****   
 204:..\u8g2-master\csrc/u8x8_d_uc1604.c ****   
 205:..\u8g2-master\csrc/u8x8_d_uc1604.c ****   U8X8_C(0x040),            			/* set scroll line to 0 */
 206:..\u8g2-master\csrc/u8x8_d_uc1604.c ****   U8X8_C(0x089),            			/* RAM access control (controller default: 0x089)*/
ARM GAS  C:\Users\info\AppData\Local\Temp\ccytNozH.s 			page 9


 207:..\u8g2-master\csrc/u8x8_d_uc1604.c ****   
 208:..\u8g2-master\csrc/u8x8_d_uc1604.c ****   
 209:..\u8g2-master\csrc/u8x8_d_uc1604.c ****   U8X8_C(0x000),		                /* column low nibble */
 210:..\u8g2-master\csrc/u8x8_d_uc1604.c ****   U8X8_C(0x010),		                /* column high nibble */  
 211:..\u8g2-master\csrc/u8x8_d_uc1604.c ****   U8X8_C(0x0b0),		                /* page adr  */
 212:..\u8g2-master\csrc/u8x8_d_uc1604.c ****   
 213:..\u8g2-master\csrc/u8x8_d_uc1604.c ****   
 214:..\u8g2-master\csrc/u8x8_d_uc1604.c ****   U8X8_END_TRANSFER(),             	/* disable chip */
 215:..\u8g2-master\csrc/u8x8_d_uc1604.c ****   U8X8_END()             			/* end of sequence */
 216:..\u8g2-master\csrc/u8x8_d_uc1604.c **** };
 217:..\u8g2-master\csrc/u8x8_d_uc1604.c **** 
 218:..\u8g2-master\csrc/u8x8_d_uc1604.c **** uint8_t u8x8_d_uc1604_jlx19264(u8x8_t *u8x8, uint8_t msg, uint8_t arg_int, void *arg_ptr)
 219:..\u8g2-master\csrc/u8x8_d_uc1604.c **** {
 228              		.loc 1 219 0
 229              		.cfi_startproc
 230              		@ args = 0, pretend = 0, frame = 0
 231              		@ frame_needed = 0, uses_anonymous_args = 0
 232              	.LVL35:
 233 0000 F8B5     		push	{r3, r4, r5, r6, r7, lr}
 234              		.cfi_def_cfa_offset 24
 235              		.cfi_offset 3, -24
 236              		.cfi_offset 4, -20
 237              		.cfi_offset 5, -16
 238              		.cfi_offset 6, -12
 239              		.cfi_offset 7, -8
 240              		.cfi_offset 14, -4
 241              	.LBB4:
 242              	.LBB5:
  80:..\u8g2-master\csrc/u8x8_d_uc1604.c ****   {
 243              		.loc 1 80 0
 244 0002 A1F10B06 		sub	r6, r1, #11
 245              	.LBE5:
 246              	.LBE4:
 247              		.loc 1 219 0
 248 0006 0546     		mov	r5, r0
 249              	.LVL36:
 250 0008 1446     		mov	r4, r2
 251              	.LVL37:
 252 000a 1F46     		mov	r7, r3
 253              	.LVL38:
 254              	.LBB14:
 255              	.LBB6:
  80:..\u8g2-master\csrc/u8x8_d_uc1604.c ****   {
 256              		.loc 1 80 0
 257 000c 042E     		cmp	r6, #4
 258 000e 04D8     		bhi	.L19
 259 0010 DFE806F0 		tbb	[pc, r6]
 260              	.LVL39:
 261              	.L21:
 262 0014 52       		.byte	(.L20-.L21)/2
 263 0015 03       		.byte	(.L19-.L21)/2
 264 0016 39       		.byte	(.L22-.L21)/2
 265 0017 43       		.byte	(.L23-.L21)/2
 266 0018 10       		.byte	(.L24-.L21)/2
 267 0019 00       		.p2align 1
 268              	.L19:
 269              	.LBE6:
ARM GAS  C:\Users\info\AppData\Local\Temp\ccytNozH.s 			page 10


 270              	.LBE14:
 220:..\u8g2-master\csrc/u8x8_d_uc1604.c ****   /* call common procedure first and handle messages there */
 221:..\u8g2-master\csrc/u8x8_d_uc1604.c ****   if ( u8x8_d_uc1604_common(u8x8, msg, arg_int, arg_ptr) == 0 )
 222:..\u8g2-master\csrc/u8x8_d_uc1604.c ****   {
 223:..\u8g2-master\csrc/u8x8_d_uc1604.c ****     /* msg not handled, then try here */
 224:..\u8g2-master\csrc/u8x8_d_uc1604.c ****     switch(msg)
 271              		.loc 1 224 0
 272 001a 0929     		cmp	r1, #9
 273 001c 52D0     		beq	.L29
 274 001e 0A29     		cmp	r1, #10
 275 0020 56D1     		bne	.L39
 225:..\u8g2-master\csrc/u8x8_d_uc1604.c ****     {
 226:..\u8g2-master\csrc/u8x8_d_uc1604.c ****       case U8X8_MSG_DISPLAY_SETUP_MEMORY:
 227:..\u8g2-master\csrc/u8x8_d_uc1604.c **** 	u8x8_d_helper_display_setup_memory(u8x8, &u8x8_uc1604_192x64_display_info);
 228:..\u8g2-master\csrc/u8x8_d_uc1604.c **** 	break;
 229:..\u8g2-master\csrc/u8x8_d_uc1604.c ****       case U8X8_MSG_DISPLAY_INIT:
 230:..\u8g2-master\csrc/u8x8_d_uc1604.c **** 	u8x8_d_helper_display_init(u8x8);
 276              		.loc 1 230 0
 277 0022 2846     		mov	r0, r5
 278              	.LVL40:
 279 0024 FFF7FEFF 		bl	u8x8_d_helper_display_init
 280              	.LVL41:
 231:..\u8g2-master\csrc/u8x8_d_uc1604.c **** 	u8x8_cad_SendSequence(u8x8, u8x8_d_uc1604_jlx19264_init_seq);
 281              		.loc 1 231 0
 282 0028 2846     		mov	r0, r5
 283 002a 3149     		ldr	r1, .L40
 284 002c FFF7FEFF 		bl	u8x8_cad_SendSequence
 285              	.LVL42:
 232:..\u8g2-master\csrc/u8x8_d_uc1604.c **** 	break;
 233:..\u8g2-master\csrc/u8x8_d_uc1604.c ****       default:
 234:..\u8g2-master\csrc/u8x8_d_uc1604.c **** 	return 0;		/* msg unknown */
 235:..\u8g2-master\csrc/u8x8_d_uc1604.c ****     }
 236:..\u8g2-master\csrc/u8x8_d_uc1604.c ****   }
 237:..\u8g2-master\csrc/u8x8_d_uc1604.c ****   return 1;
 286              		.loc 1 237 0
 287 0030 0120     		movs	r0, #1
 232:..\u8g2-master\csrc/u8x8_d_uc1604.c **** 	break;
 288              		.loc 1 232 0
 289 0032 F8BD     		pop	{r3, r4, r5, r6, r7, pc}
 290              	.LVL43:
 291              	.L24:
 292              	.LBB15:
 293              	.LBB7:
  83:..\u8g2-master\csrc/u8x8_d_uc1604.c ****     
 294              		.loc 1 83 0
 295 0034 FFF7FEFF 		bl	u8x8_cad_StartTransfer
 296              	.LVL44:
  85:..\u8g2-master\csrc/u8x8_d_uc1604.c ****       x *= 8;
 297              		.loc 1 85 0
 298 0038 7E79     		ldrb	r6, [r7, #5]	@ zero_extendqisi2
 299              	.LVL45:
  88:..\u8g2-master\csrc/u8x8_d_uc1604.c ****       u8x8_cad_SendCmd(u8x8, 0x010 | (x>>4) );
 300              		.loc 1 88 0
 301 003a 2846     		mov	r0, r5
  86:..\u8g2-master\csrc/u8x8_d_uc1604.c ****    
 302              		.loc 1 86 0
 303 003c F600     		lsls	r6, r6, #3
ARM GAS  C:\Users\info\AppData\Local\Temp\ccytNozH.s 			page 11


 304              	.LVL46:
 305 003e F6B2     		uxtb	r6, r6
 306              	.LVL47:
  88:..\u8g2-master\csrc/u8x8_d_uc1604.c ****       u8x8_cad_SendCmd(u8x8, 0x010 | (x>>4) );
 307              		.loc 1 88 0
 308 0040 06F00801 		and	r1, r6, #8
 309 0044 FFF7FEFF 		bl	u8x8_cad_SendCmd
 310              	.LVL48:
  89:..\u8g2-master\csrc/u8x8_d_uc1604.c ****     
 311              		.loc 1 89 0
 312 0048 3109     		lsrs	r1, r6, #4
 313 004a 41F01001 		orr	r1, r1, #16
 314 004e 2846     		mov	r0, r5
 315 0050 FFF7FEFF 		bl	u8x8_cad_SendCmd
 316              	.LVL49:
  91:..\u8g2-master\csrc/u8x8_d_uc1604.c ****       y += u8x8->x_offset;
 317              		.loc 1 91 0
 318 0054 B979     		ldrb	r1, [r7, #6]	@ zero_extendqisi2
 319              	.LVL50:
  93:..\u8g2-master\csrc/u8x8_d_uc1604.c ****     
 320              		.loc 1 93 0
 321 0056 95F82230 		ldrb	r3, [r5, #34]	@ zero_extendqisi2
 322 005a 2846     		mov	r0, r5
 323 005c 1944     		add	r1, r1, r3
 324              	.LVL51:
 325 005e 01F00F01 		and	r1, r1, #15
 326 0062 41F0B001 		orr	r1, r1, #176
 327 0066 FFF7FEFF 		bl	u8x8_cad_SendCmd
 328              	.LVL52:
  95:..\u8g2-master\csrc/u8x8_d_uc1604.c ****       c *= 8;
 329              		.loc 1 95 0
 330 006a 3E79     		ldrb	r6, [r7, #4]	@ zero_extendqisi2
 331              	.LVL53:
  97:..\u8g2-master\csrc/u8x8_d_uc1604.c ****       do
 332              		.loc 1 97 0
 333 006c 3F68     		ldr	r7, [r7]
 334              	.LVL54:
  96:..\u8g2-master\csrc/u8x8_d_uc1604.c ****       ptr = ((u8x8_tile_t *)arg_ptr)->tile_ptr;
 335              		.loc 1 96 0
 336 006e F600     		lsls	r6, r6, #3
 337              	.LVL55:
 338 0070 F6B2     		uxtb	r6, r6
 339              	.LVL56:
 340              	.L25:
 100:..\u8g2-master\csrc/u8x8_d_uc1604.c **** 	arg_int--;
 341              		.loc 1 100 0
 342 0072 3A46     		mov	r2, r7
 343 0074 3146     		mov	r1, r6
 344 0076 2846     		mov	r0, r5
 345 0078 FFF7FEFF 		bl	u8x8_cad_SendData
 346              	.LVL57:
 101:..\u8g2-master\csrc/u8x8_d_uc1604.c ****       } while( arg_int > 0 );
 347              		.loc 1 101 0
 348 007c 621E     		subs	r2, r4, #1
 349              	.LVL58:
 102:..\u8g2-master\csrc/u8x8_d_uc1604.c ****       
 350              		.loc 1 102 0
ARM GAS  C:\Users\info\AppData\Local\Temp\ccytNozH.s 			page 12


 351 007e 12F0FF04 		ands	r4, r2, #255
 352 0082 F6D1     		bne	.L25
 353 0084 13E0     		b	.L37
 354              	.LVL59:
 355              	.L22:
 122:..\u8g2-master\csrc/u8x8_d_uc1604.c ****       {
 356              		.loc 1 122 0
 357 0086 52BB     		cbnz	r2, .L28
 124:..\u8g2-master\csrc/u8x8_d_uc1604.c **** 	u8x8->x_offset = u8x8->display_info->default_x_offset;
 358              		.loc 1 124 0
 359 0088 1A49     		ldr	r1, .L40+4
 360              	.LVL60:
 361 008a FFF7FEFF 		bl	u8x8_cad_SendSequence
 362              	.LVL61:
 125:..\u8g2-master\csrc/u8x8_d_uc1604.c ****       }
 363              		.loc 1 125 0
 364 008e 2B68     		ldr	r3, [r5]
 365              	.LBE7:
 366              	.LBE15:
 367              		.loc 1 237 0
 368 0090 0120     		movs	r0, #1
 369              	.LBB16:
 370              	.LBB8:
 125:..\u8g2-master\csrc/u8x8_d_uc1604.c ****       }
 371              		.loc 1 125 0
 372 0092 9B7C     		ldrb	r3, [r3, #18]	@ zero_extendqisi2
 373 0094 85F82230 		strb	r3, [r5, #34]
 374              	.LVL62:
 375              	.LBE8:
 376              	.LBE16:
 238:..\u8g2-master\csrc/u8x8_d_uc1604.c **** }
 377              		.loc 1 238 0
 378 0098 F8BD     		pop	{r3, r4, r5, r6, r7, pc}
 379              	.LVL63:
 380              	.L23:
 381              	.LBB17:
 382              	.LBB9:
 135:..\u8g2-master\csrc/u8x8_d_uc1604.c ****       u8x8_cad_SendCmd(u8x8, 0x081 );
 383              		.loc 1 135 0
 384 009a FFF7FEFF 		bl	u8x8_cad_StartTransfer
 385              	.LVL64:
 136:..\u8g2-master\csrc/u8x8_d_uc1604.c ****       u8x8_cad_SendArg(u8x8, arg_int  );	/* uc1604 has range from 0 to 255 */
 386              		.loc 1 136 0
 387 009e 8121     		movs	r1, #129
 388 00a0 2846     		mov	r0, r5
 389 00a2 FFF7FEFF 		bl	u8x8_cad_SendCmd
 390              	.LVL65:
 137:..\u8g2-master\csrc/u8x8_d_uc1604.c ****       u8x8_cad_EndTransfer(u8x8);
 391              		.loc 1 137 0
 392 00a6 2146     		mov	r1, r4
 393 00a8 2846     		mov	r0, r5
 394 00aa FFF7FEFF 		bl	u8x8_cad_SendArg
 395              	.LVL66:
 396              	.L37:
 138:..\u8g2-master\csrc/u8x8_d_uc1604.c ****       break;
 397              		.loc 1 138 0
 398 00ae 2846     		mov	r0, r5
ARM GAS  C:\Users\info\AppData\Local\Temp\ccytNozH.s 			page 13


 399 00b0 FFF7FEFF 		bl	u8x8_cad_EndTransfer
 400              	.LVL67:
 401              	.LBE9:
 402              	.LBE17:
 237:..\u8g2-master\csrc/u8x8_d_uc1604.c **** }
 403              		.loc 1 237 0
 404 00b4 0120     		movs	r0, #1
 405              		.loc 1 238 0
 406 00b6 F8BD     		pop	{r3, r4, r5, r6, r7, pc}
 407              	.LVL68:
 408              	.L20:
 409              	.LBB18:
 410              	.LBB10:
 116:..\u8g2-master\csrc/u8x8_d_uc1604.c **** 	u8x8_cad_SendSequence(u8x8, u8x8_d_uc1604_powersave0_seq);
 411              		.loc 1 116 0
 412 00b8 62B9     		cbnz	r2, .L27
 117:..\u8g2-master\csrc/u8x8_d_uc1604.c ****       else
 413              		.loc 1 117 0
 414 00ba 0F49     		ldr	r1, .L40+8
 415              	.LVL69:
 416 00bc FFF7FEFF 		bl	u8x8_cad_SendSequence
 417              	.LVL70:
 418              	.LBE10:
 419              	.LBE18:
 237:..\u8g2-master\csrc/u8x8_d_uc1604.c **** }
 420              		.loc 1 237 0
 421 00c0 0120     		movs	r0, #1
 422              		.loc 1 238 0
 423 00c2 F8BD     		pop	{r3, r4, r5, r6, r7, pc}
 424              	.LVL71:
 425              	.L29:
 227:..\u8g2-master\csrc/u8x8_d_uc1604.c **** 	break;
 426              		.loc 1 227 0
 427 00c4 2846     		mov	r0, r5
 428              	.LVL72:
 429 00c6 0D49     		ldr	r1, .L40+12
 430              	.LVL73:
 431 00c8 FFF7FEFF 		bl	u8x8_d_helper_display_setup_memory
 432              	.LVL74:
 237:..\u8g2-master\csrc/u8x8_d_uc1604.c **** }
 433              		.loc 1 237 0
 434 00cc 0120     		movs	r0, #1
 228:..\u8g2-master\csrc/u8x8_d_uc1604.c ****       case U8X8_MSG_DISPLAY_INIT:
 435              		.loc 1 228 0
 436 00ce F8BD     		pop	{r3, r4, r5, r6, r7, pc}
 437              	.LVL75:
 438              	.L39:
 234:..\u8g2-master\csrc/u8x8_d_uc1604.c ****     }
 439              		.loc 1 234 0
 440 00d0 0020     		movs	r0, #0
 441              	.LVL76:
 442 00d2 F8BD     		pop	{r3, r4, r5, r6, r7, pc}
 443              	.LVL77:
 444              	.L27:
 445              	.LBB19:
 446              	.LBB11:
 119:..\u8g2-master\csrc/u8x8_d_uc1604.c ****       break;
ARM GAS  C:\Users\info\AppData\Local\Temp\ccytNozH.s 			page 14


 447              		.loc 1 119 0
 448 00d4 0A49     		ldr	r1, .L40+16
 449              	.LVL78:
 450 00d6 FFF7FEFF 		bl	u8x8_cad_SendSequence
 451              	.LVL79:
 452              	.LBE11:
 453              	.LBE19:
 237:..\u8g2-master\csrc/u8x8_d_uc1604.c **** }
 454              		.loc 1 237 0
 455 00da 0120     		movs	r0, #1
 456              		.loc 1 238 0
 457 00dc F8BD     		pop	{r3, r4, r5, r6, r7, pc}
 458              	.LVL80:
 459              	.L28:
 460              	.LBB20:
 461              	.LBB12:
 129:..\u8g2-master\csrc/u8x8_d_uc1604.c **** 	u8x8->x_offset = u8x8->display_info->flipmode_x_offset;
 462              		.loc 1 129 0
 463 00de 0949     		ldr	r1, .L40+20
 464              	.LVL81:
 465 00e0 FFF7FEFF 		bl	u8x8_cad_SendSequence
 466              	.LVL82:
 130:..\u8g2-master\csrc/u8x8_d_uc1604.c ****       }	
 467              		.loc 1 130 0
 468 00e4 2B68     		ldr	r3, [r5]
 469              	.LBE12:
 470              	.LBE20:
 237:..\u8g2-master\csrc/u8x8_d_uc1604.c **** }
 471              		.loc 1 237 0
 472 00e6 0120     		movs	r0, #1
 473              	.LBB21:
 474              	.LBB13:
 130:..\u8g2-master\csrc/u8x8_d_uc1604.c ****       }	
 475              		.loc 1 130 0
 476 00e8 DB7C     		ldrb	r3, [r3, #19]	@ zero_extendqisi2
 477 00ea 85F82230 		strb	r3, [r5, #34]
 478              	.LVL83:
 479              	.LBE13:
 480              	.LBE21:
 481              		.loc 1 238 0
 482 00ee F8BD     		pop	{r3, r4, r5, r6, r7, pc}
 483              	.LVL84:
 484              	.L41:
 485              		.align	2
 486              	.L40:
 487 00f0 40000000 		.word	.LANCHOR0+64
 488 00f4 18000000 		.word	.LANCHOR0+24
 489 00f8 00000000 		.word	.LANCHOR0
 490 00fc 28000000 		.word	.LANCHOR0+40
 491 0100 10000000 		.word	.LANCHOR0+16
 492 0104 20000000 		.word	.LANCHOR0+32
 493              		.cfi_endproc
 494              	.LFE1:
 495              		.size	u8x8_d_uc1604_jlx19264, .-u8x8_d_uc1604_jlx19264
 496              		.section	.rodata
 497              		.align	2
 498              		.set	.LANCHOR0,. + 0
ARM GAS  C:\Users\info\AppData\Local\Temp\ccytNozH.s 			page 15


 499              		.type	u8x8_d_uc1604_powersave0_seq, %object
 500              		.size	u8x8_d_uc1604_powersave0_seq, 13
 501              	u8x8_d_uc1604_powersave0_seq:
 502 0000 18       		.byte	24
 503 0001 FE       		.byte	-2
 504 0002 14       		.byte	20
 505 0003 15       		.byte	21
 506 0004 AF       		.byte	-81
 507 0005 FE       		.byte	-2
 508 0006 14       		.byte	20
 509 0007 15       		.byte	21
 510 0008 AF       		.byte	-81
 511 0009 FE       		.byte	-2
 512 000a 32       		.byte	50
 513 000b 19       		.byte	25
 514 000c FF       		.byte	-1
 515 000d 000000   		.space	3
 516              		.type	u8x8_d_uc1604_powersave1_seq, %object
 517              		.size	u8x8_d_uc1604_powersave1_seq, 5
 518              	u8x8_d_uc1604_powersave1_seq:
 519 0010 18       		.byte	24
 520 0011 15       		.byte	21
 521 0012 AE       		.byte	-82
 522 0013 19       		.byte	25
 523 0014 FF       		.byte	-1
 524 0015 000000   		.space	3
 525              		.type	u8x8_d_uc1604_flip0_seq, %object
 526              		.size	u8x8_d_uc1604_flip0_seq, 5
 527              	u8x8_d_uc1604_flip0_seq:
 528 0018 18       		.byte	24
 529 0019 15       		.byte	21
 530 001a C4       		.byte	-60
 531 001b 19       		.byte	25
 532 001c FF       		.byte	-1
 533 001d 000000   		.space	3
 534              		.type	u8x8_d_uc1604_flip1_seq, %object
 535              		.size	u8x8_d_uc1604_flip1_seq, 5
 536              	u8x8_d_uc1604_flip1_seq:
 537 0020 18       		.byte	24
 538 0021 15       		.byte	21
 539 0022 C2       		.byte	-62
 540 0023 19       		.byte	25
 541 0024 FF       		.byte	-1
 542 0025 000000   		.space	3
 543              		.type	u8x8_uc1604_192x64_display_info, %object
 544              		.size	u8x8_uc1604_192x64_display_info, 24
 545              	u8x8_uc1604_192x64_display_info:
 546 0028 00       		.byte	0
 547 0029 01       		.byte	1
 548 002a 14       		.byte	20
 549 002b 14       		.byte	20
 550 002c 01       		.byte	1
 551 002d 0A       		.byte	10
 552 002e 1E       		.byte	30
 553 002f 41       		.byte	65
 554 0030 00127A00 		.word	8000000
 555 0034 00       		.byte	0
ARM GAS  C:\Users\info\AppData\Local\Temp\ccytNozH.s 			page 16


 556 0035 04       		.byte	4
 557 0036 1E       		.byte	30
 558 0037 23       		.byte	35
 559 0038 18       		.byte	24
 560 0039 08       		.byte	8
 561 003a 00       		.byte	0
 562 003b 00       		.byte	0
 563 003c C000     		.short	192
 564 003e 4000     		.short	64
 565              		.type	u8x8_d_uc1604_jlx19264_init_seq, %object
 566              		.size	u8x8_d_uc1604_jlx19264_init_seq, 35
 567              	u8x8_d_uc1604_jlx19264_init_seq:
 568 0040 18       		.byte	24
 569 0041 15       		.byte	21
 570 0042 E2       		.byte	-30
 571 0043 FE       		.byte	-2
 572 0044 C8       		.byte	-56
 573 0045 FE       		.byte	-2
 574 0046 C8       		.byte	-56
 575 0047 15       		.byte	21
 576 0048 2F       		.byte	47
 577 0049 FE       		.byte	-2
 578 004a C8       		.byte	-56
 579 004b FE       		.byte	-2
 580 004c C8       		.byte	-56
 581 004d 15       		.byte	21
 582 004e 81       		.byte	-127
 583 004f 16       		.byte	22
 584 0050 52       		.byte	82
 585 0051 15       		.byte	21
 586 0052 EB       		.byte	-21
 587 0053 15       		.byte	21
 588 0054 C4       		.byte	-60
 589 0055 15       		.byte	21
 590 0056 A0       		.byte	-96
 591 0057 15       		.byte	21
 592 0058 40       		.byte	64
 593 0059 15       		.byte	21
 594 005a 89       		.byte	-119
 595 005b 15       		.byte	21
 596 005c 00       		.byte	0
 597 005d 15       		.byte	21
 598 005e 10       		.byte	16
 599 005f 15       		.byte	21
 600 0060 B0       		.byte	-80
 601 0061 19       		.byte	25
 602 0062 FF       		.byte	-1
 603              		.text
 604              	.Letext0:
 605              		.file 2 "c:\\program files (x86)\\cypress\\psoc creator\\4.2\\psoc creator\\import\\gnu\\arm\\5.4.
 606              		.file 3 "c:\\program files (x86)\\cypress\\psoc creator\\4.2\\psoc creator\\import\\gnu\\arm\\5.4.
 607              		.file 4 "..\\u8g2-master\\csrc\\u8x8.h"