ARM GAS  C:\Users\info\AppData\Local\Temp\ccq5o0H3.s 			page 1


   1              		.syntax unified
   2              		.cpu cortex-m3
   3              		.fpu softvfp
   4              		.eabi_attribute 20, 1
   5              		.eabi_attribute 21, 1
   6              		.eabi_attribute 23, 3
   7              		.eabi_attribute 24, 1
   8              		.eabi_attribute 25, 1
   9              		.eabi_attribute 26, 1
  10              		.eabi_attribute 30, 2
  11              		.eabi_attribute 34, 1
  12              		.eabi_attribute 18, 4
  13              		.thumb
  14              		.syntax unified
  15              		.file	"u8x8_d_ssd1306_128x64_noname.c"
  16              		.text
  17              	.Ltext0:
  18              		.cfi_sections	.debug_frame
  19              		.section	.text.u8x8_d_ssd1306_128x64_noname,"ax",%progbits
  20              		.align	2
  21              		.global	u8x8_d_ssd1306_128x64_noname
  22              		.thumb
  23              		.thumb_func
  24              		.type	u8x8_d_ssd1306_128x64_noname, %function
  25              	u8x8_d_ssd1306_128x64_noname:
  26              	.LFB1:
  27              		.file 1 "..\\u8g2-master\\csrc\\u8x8_d_ssd1306_128x64_noname.c"
   1:..\u8g2-master\csrc/u8x8_d_ssd1306_128x64_noname.c **** /*
   2:..\u8g2-master\csrc/u8x8_d_ssd1306_128x64_noname.c **** 
   3:..\u8g2-master\csrc/u8x8_d_ssd1306_128x64_noname.c ****   u8x8_d_ssd1306_128x64_noname.c
   4:..\u8g2-master\csrc/u8x8_d_ssd1306_128x64_noname.c **** 
   5:..\u8g2-master\csrc/u8x8_d_ssd1306_128x64_noname.c ****   Universal 8bit Graphics Library (https://github.com/olikraus/u8g2/)
   6:..\u8g2-master\csrc/u8x8_d_ssd1306_128x64_noname.c **** 
   7:..\u8g2-master\csrc/u8x8_d_ssd1306_128x64_noname.c ****   Copyright (c) 2016, olikraus@gmail.com
   8:..\u8g2-master\csrc/u8x8_d_ssd1306_128x64_noname.c ****   All rights reserved.
   9:..\u8g2-master\csrc/u8x8_d_ssd1306_128x64_noname.c **** 
  10:..\u8g2-master\csrc/u8x8_d_ssd1306_128x64_noname.c ****   Redistribution and use in source and binary forms, with or without modification, 
  11:..\u8g2-master\csrc/u8x8_d_ssd1306_128x64_noname.c ****   are permitted provided that the following conditions are met:
  12:..\u8g2-master\csrc/u8x8_d_ssd1306_128x64_noname.c **** 
  13:..\u8g2-master\csrc/u8x8_d_ssd1306_128x64_noname.c ****   * Redistributions of source code must retain the above copyright notice, this list 
  14:..\u8g2-master\csrc/u8x8_d_ssd1306_128x64_noname.c ****     of conditions and the following disclaimer.
  15:..\u8g2-master\csrc/u8x8_d_ssd1306_128x64_noname.c ****     
  16:..\u8g2-master\csrc/u8x8_d_ssd1306_128x64_noname.c ****   * Redistributions in binary form must reproduce the above copyright notice, this 
  17:..\u8g2-master\csrc/u8x8_d_ssd1306_128x64_noname.c ****     list of conditions and the following disclaimer in the documentation and/or other 
  18:..\u8g2-master\csrc/u8x8_d_ssd1306_128x64_noname.c ****     materials provided with the distribution.
  19:..\u8g2-master\csrc/u8x8_d_ssd1306_128x64_noname.c **** 
  20:..\u8g2-master\csrc/u8x8_d_ssd1306_128x64_noname.c ****   THIS SOFTWARE IS PROVIDED BY THE COPYRIGHT HOLDERS AND 
  21:..\u8g2-master\csrc/u8x8_d_ssd1306_128x64_noname.c ****   CONTRIBUTORS "AS IS" AND ANY EXPRESS OR IMPLIED WARRANTIES, 
  22:..\u8g2-master\csrc/u8x8_d_ssd1306_128x64_noname.c ****   INCLUDING, BUT NOT LIMITED TO, THE IMPLIED WARRANTIES OF 
  23:..\u8g2-master\csrc/u8x8_d_ssd1306_128x64_noname.c ****   MERCHANTABILITY AND FITNESS FOR A PARTICULAR PURPOSE ARE 
  24:..\u8g2-master\csrc/u8x8_d_ssd1306_128x64_noname.c ****   DISCLAIMED. IN NO EVENT SHALL THE COPYRIGHT HOLDER OR 
  25:..\u8g2-master\csrc/u8x8_d_ssd1306_128x64_noname.c ****   CONTRIBUTORS BE LIABLE FOR ANY DIRECT, INDIRECT, INCIDENTAL, 
  26:..\u8g2-master\csrc/u8x8_d_ssd1306_128x64_noname.c ****   SPECIAL, EXEMPLARY, OR CONSEQUENTIAL DAMAGES (INCLUDING, BUT 
  27:..\u8g2-master\csrc/u8x8_d_ssd1306_128x64_noname.c ****   NOT LIMITED TO, PROCUREMENT OF SUBSTITUTE GOODS OR SERVICES; 
  28:..\u8g2-master\csrc/u8x8_d_ssd1306_128x64_noname.c ****   LOSS OF USE, DATA, OR PROFITS; OR BUSINESS INTERRUPTION) HOWEVER 
  29:..\u8g2-master\csrc/u8x8_d_ssd1306_128x64_noname.c ****   CAUSED AND ON ANY THEORY OF LIABILITY, WHETHER IN CONTRACT, 
  30:..\u8g2-master\csrc/u8x8_d_ssd1306_128x64_noname.c ****   STRICT LIABILITY, OR TORT (INCLUDING NEGLIGENCE OR OTHERWISE) 
ARM GAS  C:\Users\info\AppData\Local\Temp\ccq5o0H3.s 			page 2


  31:..\u8g2-master\csrc/u8x8_d_ssd1306_128x64_noname.c ****   ARISING IN ANY WAY OUT OF THE USE OF THIS SOFTWARE, EVEN IF 
  32:..\u8g2-master\csrc/u8x8_d_ssd1306_128x64_noname.c ****   ADVISED OF THE POSSIBILITY OF SUCH DAMAGE.  
  33:..\u8g2-master\csrc/u8x8_d_ssd1306_128x64_noname.c ****   
  34:..\u8g2-master\csrc/u8x8_d_ssd1306_128x64_noname.c **** */
  35:..\u8g2-master\csrc/u8x8_d_ssd1306_128x64_noname.c **** 
  36:..\u8g2-master\csrc/u8x8_d_ssd1306_128x64_noname.c **** 
  37:..\u8g2-master\csrc/u8x8_d_ssd1306_128x64_noname.c **** #include "u8x8.h"
  38:..\u8g2-master\csrc/u8x8_d_ssd1306_128x64_noname.c **** 
  39:..\u8g2-master\csrc/u8x8_d_ssd1306_128x64_noname.c **** 
  40:..\u8g2-master\csrc/u8x8_d_ssd1306_128x64_noname.c **** 
  41:..\u8g2-master\csrc/u8x8_d_ssd1306_128x64_noname.c **** /* more or less generic setup of all these small OLEDs */
  42:..\u8g2-master\csrc/u8x8_d_ssd1306_128x64_noname.c **** static const uint8_t u8x8_d_ssd1306_128x64_noname_init_seq[] = {
  43:..\u8g2-master\csrc/u8x8_d_ssd1306_128x64_noname.c ****     
  44:..\u8g2-master\csrc/u8x8_d_ssd1306_128x64_noname.c ****   U8X8_START_TRANSFER(),             	/* enable chip, delay is part of the transfer start */
  45:..\u8g2-master\csrc/u8x8_d_ssd1306_128x64_noname.c ****   
  46:..\u8g2-master\csrc/u8x8_d_ssd1306_128x64_noname.c ****   
  47:..\u8g2-master\csrc/u8x8_d_ssd1306_128x64_noname.c ****   U8X8_C(0x0ae),		                /* display off */
  48:..\u8g2-master\csrc/u8x8_d_ssd1306_128x64_noname.c ****   U8X8_CA(0x0d5, 0x080),		/* clock divide ratio (0x00=1) and oscillator frequency (0x8) */
  49:..\u8g2-master\csrc/u8x8_d_ssd1306_128x64_noname.c ****   U8X8_CA(0x0a8, 0x03f),		/* multiplex ratio */
  50:..\u8g2-master\csrc/u8x8_d_ssd1306_128x64_noname.c ****   U8X8_CA(0x0d3, 0x000),		/* display offset */
  51:..\u8g2-master\csrc/u8x8_d_ssd1306_128x64_noname.c ****   U8X8_C(0x040),		                /* set display start line to 0 */
  52:..\u8g2-master\csrc/u8x8_d_ssd1306_128x64_noname.c ****   U8X8_CA(0x08d, 0x014),		/* [2] charge pump setting (p62): 0x014 enable, 0x010 disable, SSD1306 on
  53:..\u8g2-master\csrc/u8x8_d_ssd1306_128x64_noname.c ****   U8X8_CA(0x020, 0x000),		/* page addressing mode */
  54:..\u8g2-master\csrc/u8x8_d_ssd1306_128x64_noname.c ****   
  55:..\u8g2-master\csrc/u8x8_d_ssd1306_128x64_noname.c ****   U8X8_C(0x0a1),				/* segment remap a0/a1*/
  56:..\u8g2-master\csrc/u8x8_d_ssd1306_128x64_noname.c ****   U8X8_C(0x0c8),				/* c0: scan dir normal, c8: reverse */
  57:..\u8g2-master\csrc/u8x8_d_ssd1306_128x64_noname.c ****   // Flipmode
  58:..\u8g2-master\csrc/u8x8_d_ssd1306_128x64_noname.c ****   // U8X8_C(0x0a0),				/* segment remap a0/a1*/
  59:..\u8g2-master\csrc/u8x8_d_ssd1306_128x64_noname.c ****   // U8X8_C(0x0c0),				/* c0: scan dir normal, c8: reverse */
  60:..\u8g2-master\csrc/u8x8_d_ssd1306_128x64_noname.c ****   
  61:..\u8g2-master\csrc/u8x8_d_ssd1306_128x64_noname.c ****   U8X8_CA(0x0da, 0x012),		/* com pin HW config, sequential com pin config (bit 4), disable left/rig
  62:..\u8g2-master\csrc/u8x8_d_ssd1306_128x64_noname.c **** 
  63:..\u8g2-master\csrc/u8x8_d_ssd1306_128x64_noname.c ****   U8X8_CA(0x081, 0x0cf), 		/* [2] set contrast control */
  64:..\u8g2-master\csrc/u8x8_d_ssd1306_128x64_noname.c ****   U8X8_CA(0x0d9, 0x0f1), 		/* [2] pre-charge period 0x022/f1*/
  65:..\u8g2-master\csrc/u8x8_d_ssd1306_128x64_noname.c ****   U8X8_CA(0x0db, 0x040), 		/* vcomh deselect level */  
  66:..\u8g2-master\csrc/u8x8_d_ssd1306_128x64_noname.c ****   // if vcomh is 0, then this will give the biggest range for contrast control issue #98
  67:..\u8g2-master\csrc/u8x8_d_ssd1306_128x64_noname.c ****   // restored the old values for the noname constructor, because vcomh=0 will not work for all OLED
  68:..\u8g2-master\csrc/u8x8_d_ssd1306_128x64_noname.c ****   
  69:..\u8g2-master\csrc/u8x8_d_ssd1306_128x64_noname.c ****   U8X8_C(0x02e),				/* Deactivate scroll */ 
  70:..\u8g2-master\csrc/u8x8_d_ssd1306_128x64_noname.c ****   U8X8_C(0x0a4),				/* output ram to display */
  71:..\u8g2-master\csrc/u8x8_d_ssd1306_128x64_noname.c ****   U8X8_C(0x0a6),				/* none inverted normal display mode */
  72:..\u8g2-master\csrc/u8x8_d_ssd1306_128x64_noname.c ****     
  73:..\u8g2-master\csrc/u8x8_d_ssd1306_128x64_noname.c ****   U8X8_END_TRANSFER(),             	/* disable chip */
  74:..\u8g2-master\csrc/u8x8_d_ssd1306_128x64_noname.c ****   U8X8_END()             			/* end of sequence */
  75:..\u8g2-master\csrc/u8x8_d_ssd1306_128x64_noname.c **** };
  76:..\u8g2-master\csrc/u8x8_d_ssd1306_128x64_noname.c **** 
  77:..\u8g2-master\csrc/u8x8_d_ssd1306_128x64_noname.c **** /* this setup maximizes the brightness range, that can be set with setContrast() */
  78:..\u8g2-master\csrc/u8x8_d_ssd1306_128x64_noname.c **** /* Drawback: VCOMH deselect level is set to 0, which das not work so good with all OLEDs, issue #11
  79:..\u8g2-master\csrc/u8x8_d_ssd1306_128x64_noname.c **** static const uint8_t u8x8_d_ssd1306_128x64_vcomh0_init_seq[] = {
  80:..\u8g2-master\csrc/u8x8_d_ssd1306_128x64_noname.c ****     
  81:..\u8g2-master\csrc/u8x8_d_ssd1306_128x64_noname.c ****   U8X8_START_TRANSFER(),             	/* enable chip, delay is part of the transfer start */
  82:..\u8g2-master\csrc/u8x8_d_ssd1306_128x64_noname.c ****   
  83:..\u8g2-master\csrc/u8x8_d_ssd1306_128x64_noname.c ****   
  84:..\u8g2-master\csrc/u8x8_d_ssd1306_128x64_noname.c ****   U8X8_C(0x0ae),		                /* display off */
  85:..\u8g2-master\csrc/u8x8_d_ssd1306_128x64_noname.c ****   U8X8_CA(0x0d5, 0x080),		/* clock divide ratio (0x00=1) and oscillator frequency (0x8) */
  86:..\u8g2-master\csrc/u8x8_d_ssd1306_128x64_noname.c ****   U8X8_CA(0x0a8, 0x03f),		/* multiplex ratio */
  87:..\u8g2-master\csrc/u8x8_d_ssd1306_128x64_noname.c ****   U8X8_CA(0x0d3, 0x000),		/* display offset */
ARM GAS  C:\Users\info\AppData\Local\Temp\ccq5o0H3.s 			page 3


  88:..\u8g2-master\csrc/u8x8_d_ssd1306_128x64_noname.c ****   U8X8_C(0x040),		                /* set display start line to 0 */
  89:..\u8g2-master\csrc/u8x8_d_ssd1306_128x64_noname.c ****   U8X8_CA(0x08d, 0x014),		/* [2] charge pump setting (p62): 0x014 enable, 0x010 disable */
  90:..\u8g2-master\csrc/u8x8_d_ssd1306_128x64_noname.c ****   U8X8_CA(0x020, 0x000),		/* page addressing mode */
  91:..\u8g2-master\csrc/u8x8_d_ssd1306_128x64_noname.c ****   
  92:..\u8g2-master\csrc/u8x8_d_ssd1306_128x64_noname.c ****   U8X8_C(0x0a1),				/* segment remap a0/a1*/
  93:..\u8g2-master\csrc/u8x8_d_ssd1306_128x64_noname.c ****   U8X8_C(0x0c8),				/* c0: scan dir normal, c8: reverse */
  94:..\u8g2-master\csrc/u8x8_d_ssd1306_128x64_noname.c ****   // Flipmode
  95:..\u8g2-master\csrc/u8x8_d_ssd1306_128x64_noname.c ****   // U8X8_C(0x0a0),				/* segment remap a0/a1*/
  96:..\u8g2-master\csrc/u8x8_d_ssd1306_128x64_noname.c ****   // U8X8_C(0x0c0),				/* c0: scan dir normal, c8: reverse */
  97:..\u8g2-master\csrc/u8x8_d_ssd1306_128x64_noname.c ****   
  98:..\u8g2-master\csrc/u8x8_d_ssd1306_128x64_noname.c ****   U8X8_CA(0x0da, 0x012),		/* com pin HW config, sequential com pin config (bit 4), disable left/rig
  99:..\u8g2-master\csrc/u8x8_d_ssd1306_128x64_noname.c ****   U8X8_CA(0x081, 0x0ef),		/* [2] set contrast control,  */
 100:..\u8g2-master\csrc/u8x8_d_ssd1306_128x64_noname.c ****   U8X8_CA(0x0d9, 0x0a1),		/* [2] pre-charge period 0x022/f1*/
 101:..\u8g2-master\csrc/u8x8_d_ssd1306_128x64_noname.c ****   U8X8_CA(0x0db, 0x000),		/* vcomh deselect level 0x000 .. 0x070, low nibble always 0 */
 102:..\u8g2-master\csrc/u8x8_d_ssd1306_128x64_noname.c ****   // if vcomh is 0, then this will give the biggest range for contrast control issue #98
 103:..\u8g2-master\csrc/u8x8_d_ssd1306_128x64_noname.c ****   
 104:..\u8g2-master\csrc/u8x8_d_ssd1306_128x64_noname.c ****   U8X8_C(0x02e),				/* Deactivate scroll */ 
 105:..\u8g2-master\csrc/u8x8_d_ssd1306_128x64_noname.c ****   U8X8_C(0x0a4),				/* output ram to display */
 106:..\u8g2-master\csrc/u8x8_d_ssd1306_128x64_noname.c ****   U8X8_C(0x0a6),				/* none inverted normal display mode */
 107:..\u8g2-master\csrc/u8x8_d_ssd1306_128x64_noname.c ****     
 108:..\u8g2-master\csrc/u8x8_d_ssd1306_128x64_noname.c ****   U8X8_END_TRANSFER(),             	/* disable chip */
 109:..\u8g2-master\csrc/u8x8_d_ssd1306_128x64_noname.c ****   U8X8_END()             			/* end of sequence */
 110:..\u8g2-master\csrc/u8x8_d_ssd1306_128x64_noname.c **** };
 111:..\u8g2-master\csrc/u8x8_d_ssd1306_128x64_noname.c **** 
 112:..\u8g2-master\csrc/u8x8_d_ssd1306_128x64_noname.c **** 
 113:..\u8g2-master\csrc/u8x8_d_ssd1306_128x64_noname.c **** /* same as u8x8_d_ssd1306_128x64_noname_init_seq, but 0x0da bit 4 is set to 0 */
 114:..\u8g2-master\csrc/u8x8_d_ssd1306_128x64_noname.c **** /* this will disable the alternative COM configuration */
 115:..\u8g2-master\csrc/u8x8_d_ssd1306_128x64_noname.c **** static const uint8_t u8x8_d_ssd1306_128x64_alt0_init_seq[] = {
 116:..\u8g2-master\csrc/u8x8_d_ssd1306_128x64_noname.c ****     
 117:..\u8g2-master\csrc/u8x8_d_ssd1306_128x64_noname.c ****   U8X8_START_TRANSFER(),             	/* enable chip, delay is part of the transfer start */
 118:..\u8g2-master\csrc/u8x8_d_ssd1306_128x64_noname.c ****   
 119:..\u8g2-master\csrc/u8x8_d_ssd1306_128x64_noname.c ****   
 120:..\u8g2-master\csrc/u8x8_d_ssd1306_128x64_noname.c ****   U8X8_C(0x0ae),		                /* display off */
 121:..\u8g2-master\csrc/u8x8_d_ssd1306_128x64_noname.c ****   U8X8_CA(0x0d5, 0x080),		/* clock divide ratio (0x00=1) and oscillator frequency (0x8) */
 122:..\u8g2-master\csrc/u8x8_d_ssd1306_128x64_noname.c ****   U8X8_CA(0x0a8, 0x03f),		/* multiplex ratio */
 123:..\u8g2-master\csrc/u8x8_d_ssd1306_128x64_noname.c ****   U8X8_CA(0x0d3, 0x000),		/* display offset */
 124:..\u8g2-master\csrc/u8x8_d_ssd1306_128x64_noname.c ****   U8X8_C(0x040),		                /* set display start line to 0 */
 125:..\u8g2-master\csrc/u8x8_d_ssd1306_128x64_noname.c ****   U8X8_CA(0x08d, 0x014),		/* [2] charge pump setting (p62): 0x014 enable, 0x010 disable, SSD1306 on
 126:..\u8g2-master\csrc/u8x8_d_ssd1306_128x64_noname.c ****   U8X8_CA(0x020, 0x000),		/* page addressing mode */
 127:..\u8g2-master\csrc/u8x8_d_ssd1306_128x64_noname.c ****   
 128:..\u8g2-master\csrc/u8x8_d_ssd1306_128x64_noname.c ****   U8X8_C(0x0a1),				/* segment remap a0/a1*/
 129:..\u8g2-master\csrc/u8x8_d_ssd1306_128x64_noname.c ****   U8X8_C(0x0c8),				/* c0: scan dir normal, c8: reverse */
 130:..\u8g2-master\csrc/u8x8_d_ssd1306_128x64_noname.c ****   // Flipmode
 131:..\u8g2-master\csrc/u8x8_d_ssd1306_128x64_noname.c ****   // U8X8_C(0x0a0),				/* segment remap a0/a1*/
 132:..\u8g2-master\csrc/u8x8_d_ssd1306_128x64_noname.c ****   // U8X8_C(0x0c0),				/* c0: scan dir normal, c8: reverse */
 133:..\u8g2-master\csrc/u8x8_d_ssd1306_128x64_noname.c ****   
 134:..\u8g2-master\csrc/u8x8_d_ssd1306_128x64_noname.c ****   U8X8_CA(0x0da, 0x002),		/* com pin HW config, sequential com pin config (bit 4), disable left/rig
 135:..\u8g2-master\csrc/u8x8_d_ssd1306_128x64_noname.c **** 
 136:..\u8g2-master\csrc/u8x8_d_ssd1306_128x64_noname.c ****   U8X8_CA(0x081, 0x0cf), 		/* [2] set contrast control */
 137:..\u8g2-master\csrc/u8x8_d_ssd1306_128x64_noname.c ****   U8X8_CA(0x0d9, 0x0f1), 		/* [2] pre-charge period 0x022/f1*/
 138:..\u8g2-master\csrc/u8x8_d_ssd1306_128x64_noname.c ****   U8X8_CA(0x0db, 0x040), 		/* vcomh deselect level */  
 139:..\u8g2-master\csrc/u8x8_d_ssd1306_128x64_noname.c ****   // if vcomh is 0, then this will give the biggest range for contrast control issue #98
 140:..\u8g2-master\csrc/u8x8_d_ssd1306_128x64_noname.c ****   // restored the old values for the noname constructor, because vcomh=0 will not work for all OLED
 141:..\u8g2-master\csrc/u8x8_d_ssd1306_128x64_noname.c ****   
 142:..\u8g2-master\csrc/u8x8_d_ssd1306_128x64_noname.c ****   U8X8_C(0x02e),				/* Deactivate scroll */ 
 143:..\u8g2-master\csrc/u8x8_d_ssd1306_128x64_noname.c ****   U8X8_C(0x0a4),				/* output ram to display */
 144:..\u8g2-master\csrc/u8x8_d_ssd1306_128x64_noname.c ****   U8X8_C(0x0a6),				/* none inverted normal display mode */
ARM GAS  C:\Users\info\AppData\Local\Temp\ccq5o0H3.s 			page 4


 145:..\u8g2-master\csrc/u8x8_d_ssd1306_128x64_noname.c ****     
 146:..\u8g2-master\csrc/u8x8_d_ssd1306_128x64_noname.c ****   U8X8_END_TRANSFER(),             	/* disable chip */
 147:..\u8g2-master\csrc/u8x8_d_ssd1306_128x64_noname.c ****   U8X8_END()             			/* end of sequence */
 148:..\u8g2-master\csrc/u8x8_d_ssd1306_128x64_noname.c **** };
 149:..\u8g2-master\csrc/u8x8_d_ssd1306_128x64_noname.c **** 
 150:..\u8g2-master\csrc/u8x8_d_ssd1306_128x64_noname.c **** 
 151:..\u8g2-master\csrc/u8x8_d_ssd1306_128x64_noname.c **** 
 152:..\u8g2-master\csrc/u8x8_d_ssd1306_128x64_noname.c **** /* issue 316: a special sh1106 setup, https://www.mikrocontroller.net/topic/431371?goto=5087807#508
 153:..\u8g2-master\csrc/u8x8_d_ssd1306_128x64_noname.c **** static const uint8_t u8x8_d_sh1106_128x64_winstar_init_seq[] = {
 154:..\u8g2-master\csrc/u8x8_d_ssd1306_128x64_noname.c ****     
 155:..\u8g2-master\csrc/u8x8_d_ssd1306_128x64_noname.c ****   U8X8_START_TRANSFER(),             	/* enable chip, delay is part of the transfer start */
 156:..\u8g2-master\csrc/u8x8_d_ssd1306_128x64_noname.c ****   
 157:..\u8g2-master\csrc/u8x8_d_ssd1306_128x64_noname.c ****   U8X8_C(0xae),                 // Display OFF/ON: off (POR = 0xae)
 158:..\u8g2-master\csrc/u8x8_d_ssd1306_128x64_noname.c ****   U8X8_C(0xa4),                 // Set Entire Display OFF/ON: off (POR = 0xa4)
 159:..\u8g2-master\csrc/u8x8_d_ssd1306_128x64_noname.c ****   U8X8_CA(0xd5, 0x50),       // Divide Ratio/Oscillator FrequencyData Set: divide ratio = 1 (POR = 
 160:..\u8g2-master\csrc/u8x8_d_ssd1306_128x64_noname.c ****   U8X8_CA(0xa8, 0x3f),       // Multiplex Ratio Data Set: 64 (POR = 0x3f, 64)
 161:..\u8g2-master\csrc/u8x8_d_ssd1306_128x64_noname.c ****   U8X8_CA(0xd3, 0x00),       // Display OffsetData Set: 0 (POR = 0x00)
 162:..\u8g2-master\csrc/u8x8_d_ssd1306_128x64_noname.c ****   U8X8_C(0x40),                 // Set Display Start Line: 0  
 163:..\u8g2-master\csrc/u8x8_d_ssd1306_128x64_noname.c ****   U8X8_CA(0xad, 0x8b),       // DC-DC ON/OFF Mode Set: Built-in DC-DC is used, Normal Display (POR 
 164:..\u8g2-master\csrc/u8x8_d_ssd1306_128x64_noname.c ****   U8X8_CA(0xd9, 0x22),       // Dis-charge/Pre-charge PeriodData Set: pre-charge 2 DCLKs, dis-charg
 165:..\u8g2-master\csrc/u8x8_d_ssd1306_128x64_noname.c ****   U8X8_CA(0xdb, 0x35),       // VCOM Deselect LevelData Set: 0,770V (POR = 0x35, 0,770 V)
 166:..\u8g2-master\csrc/u8x8_d_ssd1306_128x64_noname.c ****   U8X8_C(0x32), // Set Pump voltage value: 8,0 V (POR = 0x32, 8,0 V)
 167:..\u8g2-master\csrc/u8x8_d_ssd1306_128x64_noname.c ****   U8X8_CA(0x81, 0xff),       // Contrast Data Register Set: 255 (large) (POR = 0x80)
 168:..\u8g2-master\csrc/u8x8_d_ssd1306_128x64_noname.c ****   U8X8_C(0x0a6),			// Set Normal/Reverse Display: normal (POR = 0xa6)
 169:..\u8g2-master\csrc/u8x8_d_ssd1306_128x64_noname.c ****   U8X8_CA(0x0da, 0x012),		// com pin HW config, sequential com pin config (bit 4), disable left/rig
 170:..\u8g2-master\csrc/u8x8_d_ssd1306_128x64_noname.c ****       
 171:..\u8g2-master\csrc/u8x8_d_ssd1306_128x64_noname.c ****   U8X8_END_TRANSFER(),             	/* disable chip */
 172:..\u8g2-master\csrc/u8x8_d_ssd1306_128x64_noname.c ****   U8X8_END()             			/* end of sequence */
 173:..\u8g2-master\csrc/u8x8_d_ssd1306_128x64_noname.c **** };
 174:..\u8g2-master\csrc/u8x8_d_ssd1306_128x64_noname.c **** 
 175:..\u8g2-master\csrc/u8x8_d_ssd1306_128x64_noname.c **** 
 176:..\u8g2-master\csrc/u8x8_d_ssd1306_128x64_noname.c **** static const uint8_t u8x8_d_ssd1306_128x64_noname_powersave0_seq[] = {
 177:..\u8g2-master\csrc/u8x8_d_ssd1306_128x64_noname.c ****   U8X8_START_TRANSFER(),             	/* enable chip, delay is part of the transfer start */
 178:..\u8g2-master\csrc/u8x8_d_ssd1306_128x64_noname.c ****   U8X8_C(0x0af),		                /* display on */
 179:..\u8g2-master\csrc/u8x8_d_ssd1306_128x64_noname.c ****   U8X8_END_TRANSFER(),             	/* disable chip */
 180:..\u8g2-master\csrc/u8x8_d_ssd1306_128x64_noname.c ****   U8X8_END()             			/* end of sequence */
 181:..\u8g2-master\csrc/u8x8_d_ssd1306_128x64_noname.c **** };
 182:..\u8g2-master\csrc/u8x8_d_ssd1306_128x64_noname.c **** 
 183:..\u8g2-master\csrc/u8x8_d_ssd1306_128x64_noname.c **** static const uint8_t u8x8_d_ssd1306_128x64_noname_powersave1_seq[] = {
 184:..\u8g2-master\csrc/u8x8_d_ssd1306_128x64_noname.c ****   U8X8_START_TRANSFER(),             	/* enable chip, delay is part of the transfer start */
 185:..\u8g2-master\csrc/u8x8_d_ssd1306_128x64_noname.c ****   U8X8_C(0x0ae),		                /* display off */
 186:..\u8g2-master\csrc/u8x8_d_ssd1306_128x64_noname.c ****   U8X8_END_TRANSFER(),             	/* disable chip */
 187:..\u8g2-master\csrc/u8x8_d_ssd1306_128x64_noname.c ****   U8X8_END()             			/* end of sequence */
 188:..\u8g2-master\csrc/u8x8_d_ssd1306_128x64_noname.c **** };
 189:..\u8g2-master\csrc/u8x8_d_ssd1306_128x64_noname.c **** 
 190:..\u8g2-master\csrc/u8x8_d_ssd1306_128x64_noname.c **** static const uint8_t u8x8_d_ssd1306_128x64_noname_flip0_seq[] = {
 191:..\u8g2-master\csrc/u8x8_d_ssd1306_128x64_noname.c ****   U8X8_START_TRANSFER(),             	/* enable chip, delay is part of the transfer start */
 192:..\u8g2-master\csrc/u8x8_d_ssd1306_128x64_noname.c ****   U8X8_C(0x0a1),				/* segment remap a0/a1*/
 193:..\u8g2-master\csrc/u8x8_d_ssd1306_128x64_noname.c ****   U8X8_C(0x0c8),				/* c0: scan dir normal, c8: reverse */
 194:..\u8g2-master\csrc/u8x8_d_ssd1306_128x64_noname.c ****   U8X8_END_TRANSFER(),             	/* disable chip */
 195:..\u8g2-master\csrc/u8x8_d_ssd1306_128x64_noname.c ****   U8X8_END()             			/* end of sequence */
 196:..\u8g2-master\csrc/u8x8_d_ssd1306_128x64_noname.c **** };
 197:..\u8g2-master\csrc/u8x8_d_ssd1306_128x64_noname.c **** 
 198:..\u8g2-master\csrc/u8x8_d_ssd1306_128x64_noname.c **** static const uint8_t u8x8_d_ssd1306_128x64_noname_flip1_seq[] = {
 199:..\u8g2-master\csrc/u8x8_d_ssd1306_128x64_noname.c ****   U8X8_START_TRANSFER(),             	/* enable chip, delay is part of the transfer start */
 200:..\u8g2-master\csrc/u8x8_d_ssd1306_128x64_noname.c ****   U8X8_C(0x0a0),				/* segment remap a0/a1*/
 201:..\u8g2-master\csrc/u8x8_d_ssd1306_128x64_noname.c ****   U8X8_C(0x0c0),				/* c0: scan dir normal, c8: reverse */
ARM GAS  C:\Users\info\AppData\Local\Temp\ccq5o0H3.s 			page 5


 202:..\u8g2-master\csrc/u8x8_d_ssd1306_128x64_noname.c ****   U8X8_END_TRANSFER(),             	/* disable chip */
 203:..\u8g2-master\csrc/u8x8_d_ssd1306_128x64_noname.c ****   U8X8_END()             			/* end of sequence */
 204:..\u8g2-master\csrc/u8x8_d_ssd1306_128x64_noname.c **** };
 205:..\u8g2-master\csrc/u8x8_d_ssd1306_128x64_noname.c **** 
 206:..\u8g2-master\csrc/u8x8_d_ssd1306_128x64_noname.c **** 
 207:..\u8g2-master\csrc/u8x8_d_ssd1306_128x64_noname.c **** static uint8_t u8x8_d_ssd1306_sh1106_generic(u8x8_t *u8x8, uint8_t msg, uint8_t arg_int, void *arg_
 208:..\u8g2-master\csrc/u8x8_d_ssd1306_128x64_noname.c **** {
 209:..\u8g2-master\csrc/u8x8_d_ssd1306_128x64_noname.c ****   uint8_t x, c;
 210:..\u8g2-master\csrc/u8x8_d_ssd1306_128x64_noname.c ****   uint8_t *ptr;
 211:..\u8g2-master\csrc/u8x8_d_ssd1306_128x64_noname.c ****   switch(msg)
 212:..\u8g2-master\csrc/u8x8_d_ssd1306_128x64_noname.c ****   {
 213:..\u8g2-master\csrc/u8x8_d_ssd1306_128x64_noname.c ****     /* handled by the calling function
 214:..\u8g2-master\csrc/u8x8_d_ssd1306_128x64_noname.c ****     case U8X8_MSG_DISPLAY_SETUP_MEMORY:
 215:..\u8g2-master\csrc/u8x8_d_ssd1306_128x64_noname.c ****       u8x8_d_helper_display_setup_memory(u8x8, &u8x8_ssd1306_128x64_noname_display_info);
 216:..\u8g2-master\csrc/u8x8_d_ssd1306_128x64_noname.c ****       break;
 217:..\u8g2-master\csrc/u8x8_d_ssd1306_128x64_noname.c ****     */
 218:..\u8g2-master\csrc/u8x8_d_ssd1306_128x64_noname.c ****     /* handled by the calling function
 219:..\u8g2-master\csrc/u8x8_d_ssd1306_128x64_noname.c ****     case U8X8_MSG_DISPLAY_INIT:
 220:..\u8g2-master\csrc/u8x8_d_ssd1306_128x64_noname.c ****       u8x8_d_helper_display_init(u8x8);
 221:..\u8g2-master\csrc/u8x8_d_ssd1306_128x64_noname.c ****       u8x8_cad_SendSequence(u8x8, u8x8_d_ssd1306_128x64_noname_init_seq);    
 222:..\u8g2-master\csrc/u8x8_d_ssd1306_128x64_noname.c ****       break;
 223:..\u8g2-master\csrc/u8x8_d_ssd1306_128x64_noname.c ****     */
 224:..\u8g2-master\csrc/u8x8_d_ssd1306_128x64_noname.c ****     case U8X8_MSG_DISPLAY_SET_POWER_SAVE:
 225:..\u8g2-master\csrc/u8x8_d_ssd1306_128x64_noname.c ****       if ( arg_int == 0 )
 226:..\u8g2-master\csrc/u8x8_d_ssd1306_128x64_noname.c **** 	u8x8_cad_SendSequence(u8x8, u8x8_d_ssd1306_128x64_noname_powersave0_seq);
 227:..\u8g2-master\csrc/u8x8_d_ssd1306_128x64_noname.c ****       else
 228:..\u8g2-master\csrc/u8x8_d_ssd1306_128x64_noname.c **** 	u8x8_cad_SendSequence(u8x8, u8x8_d_ssd1306_128x64_noname_powersave1_seq);
 229:..\u8g2-master\csrc/u8x8_d_ssd1306_128x64_noname.c ****       break;
 230:..\u8g2-master\csrc/u8x8_d_ssd1306_128x64_noname.c ****     case U8X8_MSG_DISPLAY_SET_FLIP_MODE:
 231:..\u8g2-master\csrc/u8x8_d_ssd1306_128x64_noname.c ****       if ( arg_int == 0 )
 232:..\u8g2-master\csrc/u8x8_d_ssd1306_128x64_noname.c ****       {
 233:..\u8g2-master\csrc/u8x8_d_ssd1306_128x64_noname.c **** 	u8x8_cad_SendSequence(u8x8, u8x8_d_ssd1306_128x64_noname_flip0_seq);
 234:..\u8g2-master\csrc/u8x8_d_ssd1306_128x64_noname.c **** 	u8x8->x_offset = u8x8->display_info->default_x_offset;
 235:..\u8g2-master\csrc/u8x8_d_ssd1306_128x64_noname.c ****       }
 236:..\u8g2-master\csrc/u8x8_d_ssd1306_128x64_noname.c ****       else
 237:..\u8g2-master\csrc/u8x8_d_ssd1306_128x64_noname.c ****       {
 238:..\u8g2-master\csrc/u8x8_d_ssd1306_128x64_noname.c **** 	u8x8_cad_SendSequence(u8x8, u8x8_d_ssd1306_128x64_noname_flip1_seq);
 239:..\u8g2-master\csrc/u8x8_d_ssd1306_128x64_noname.c **** 	u8x8->x_offset = u8x8->display_info->flipmode_x_offset;
 240:..\u8g2-master\csrc/u8x8_d_ssd1306_128x64_noname.c ****       }
 241:..\u8g2-master\csrc/u8x8_d_ssd1306_128x64_noname.c ****       break;
 242:..\u8g2-master\csrc/u8x8_d_ssd1306_128x64_noname.c **** #ifdef U8X8_WITH_SET_CONTRAST
 243:..\u8g2-master\csrc/u8x8_d_ssd1306_128x64_noname.c ****     case U8X8_MSG_DISPLAY_SET_CONTRAST:
 244:..\u8g2-master\csrc/u8x8_d_ssd1306_128x64_noname.c ****       u8x8_cad_StartTransfer(u8x8);
 245:..\u8g2-master\csrc/u8x8_d_ssd1306_128x64_noname.c ****       u8x8_cad_SendCmd(u8x8, 0x081 );
 246:..\u8g2-master\csrc/u8x8_d_ssd1306_128x64_noname.c ****       u8x8_cad_SendArg(u8x8, arg_int );	/* ssd1306 has range from 0 to 255 */
 247:..\u8g2-master\csrc/u8x8_d_ssd1306_128x64_noname.c ****       u8x8_cad_EndTransfer(u8x8);
 248:..\u8g2-master\csrc/u8x8_d_ssd1306_128x64_noname.c ****       break;
 249:..\u8g2-master\csrc/u8x8_d_ssd1306_128x64_noname.c **** #endif
 250:..\u8g2-master\csrc/u8x8_d_ssd1306_128x64_noname.c ****     case U8X8_MSG_DISPLAY_DRAW_TILE:
 251:..\u8g2-master\csrc/u8x8_d_ssd1306_128x64_noname.c ****       u8x8_cad_StartTransfer(u8x8);
 252:..\u8g2-master\csrc/u8x8_d_ssd1306_128x64_noname.c ****       x = ((u8x8_tile_t *)arg_ptr)->x_pos;    
 253:..\u8g2-master\csrc/u8x8_d_ssd1306_128x64_noname.c ****       x *= 8;
 254:..\u8g2-master\csrc/u8x8_d_ssd1306_128x64_noname.c ****       x += u8x8->x_offset;
 255:..\u8g2-master\csrc/u8x8_d_ssd1306_128x64_noname.c ****     
 256:..\u8g2-master\csrc/u8x8_d_ssd1306_128x64_noname.c ****       u8x8_cad_SendCmd(u8x8, 0x040 );	/* set line offset to 0 */
 257:..\u8g2-master\csrc/u8x8_d_ssd1306_128x64_noname.c ****     
 258:..\u8g2-master\csrc/u8x8_d_ssd1306_128x64_noname.c ****       u8x8_cad_SendCmd(u8x8, 0x010 | (x>>4) );
ARM GAS  C:\Users\info\AppData\Local\Temp\ccq5o0H3.s 			page 6


 259:..\u8g2-master\csrc/u8x8_d_ssd1306_128x64_noname.c ****       u8x8_cad_SendArg(u8x8, 0x000 | ((x&15)));					/* probably wrong, should be SendCmd */
 260:..\u8g2-master\csrc/u8x8_d_ssd1306_128x64_noname.c ****       u8x8_cad_SendArg(u8x8, 0x0b0 | (((u8x8_tile_t *)arg_ptr)->y_pos));	/* probably wrong, should 
 261:..\u8g2-master\csrc/u8x8_d_ssd1306_128x64_noname.c **** 
 262:..\u8g2-master\csrc/u8x8_d_ssd1306_128x64_noname.c ****     
 263:..\u8g2-master\csrc/u8x8_d_ssd1306_128x64_noname.c ****       do
 264:..\u8g2-master\csrc/u8x8_d_ssd1306_128x64_noname.c ****       {
 265:..\u8g2-master\csrc/u8x8_d_ssd1306_128x64_noname.c **** 	c = ((u8x8_tile_t *)arg_ptr)->cnt;
 266:..\u8g2-master\csrc/u8x8_d_ssd1306_128x64_noname.c **** 	ptr = ((u8x8_tile_t *)arg_ptr)->tile_ptr;
 267:..\u8g2-master\csrc/u8x8_d_ssd1306_128x64_noname.c **** 	u8x8_cad_SendData(u8x8, c*8, ptr); 	/* note: SendData can not handle more than 255 bytes */
 268:..\u8g2-master\csrc/u8x8_d_ssd1306_128x64_noname.c **** 	/*
 269:..\u8g2-master\csrc/u8x8_d_ssd1306_128x64_noname.c **** 	do
 270:..\u8g2-master\csrc/u8x8_d_ssd1306_128x64_noname.c **** 	{
 271:..\u8g2-master\csrc/u8x8_d_ssd1306_128x64_noname.c **** 	  u8x8_cad_SendData(u8x8, 8, ptr);
 272:..\u8g2-master\csrc/u8x8_d_ssd1306_128x64_noname.c **** 	  ptr += 8;
 273:..\u8g2-master\csrc/u8x8_d_ssd1306_128x64_noname.c **** 	  c--;
 274:..\u8g2-master\csrc/u8x8_d_ssd1306_128x64_noname.c **** 	} while( c > 0 );
 275:..\u8g2-master\csrc/u8x8_d_ssd1306_128x64_noname.c **** 	*/
 276:..\u8g2-master\csrc/u8x8_d_ssd1306_128x64_noname.c **** 	arg_int--;
 277:..\u8g2-master\csrc/u8x8_d_ssd1306_128x64_noname.c ****       } while( arg_int > 0 );
 278:..\u8g2-master\csrc/u8x8_d_ssd1306_128x64_noname.c ****       
 279:..\u8g2-master\csrc/u8x8_d_ssd1306_128x64_noname.c ****       u8x8_cad_EndTransfer(u8x8);
 280:..\u8g2-master\csrc/u8x8_d_ssd1306_128x64_noname.c ****       break;
 281:..\u8g2-master\csrc/u8x8_d_ssd1306_128x64_noname.c ****     default:
 282:..\u8g2-master\csrc/u8x8_d_ssd1306_128x64_noname.c ****       return 0;
 283:..\u8g2-master\csrc/u8x8_d_ssd1306_128x64_noname.c ****   }
 284:..\u8g2-master\csrc/u8x8_d_ssd1306_128x64_noname.c ****   return 1;
 285:..\u8g2-master\csrc/u8x8_d_ssd1306_128x64_noname.c **** }
 286:..\u8g2-master\csrc/u8x8_d_ssd1306_128x64_noname.c **** 
 287:..\u8g2-master\csrc/u8x8_d_ssd1306_128x64_noname.c **** 
 288:..\u8g2-master\csrc/u8x8_d_ssd1306_128x64_noname.c **** static const u8x8_display_info_t u8x8_ssd1306_128x64_noname_display_info =
 289:..\u8g2-master\csrc/u8x8_d_ssd1306_128x64_noname.c **** {
 290:..\u8g2-master\csrc/u8x8_d_ssd1306_128x64_noname.c ****   /* chip_enable_level = */ 0,
 291:..\u8g2-master\csrc/u8x8_d_ssd1306_128x64_noname.c ****   /* chip_disable_level = */ 1,
 292:..\u8g2-master\csrc/u8x8_d_ssd1306_128x64_noname.c ****   
 293:..\u8g2-master\csrc/u8x8_d_ssd1306_128x64_noname.c ****   /* post_chip_enable_wait_ns = */ 20,
 294:..\u8g2-master\csrc/u8x8_d_ssd1306_128x64_noname.c ****   /* pre_chip_disable_wait_ns = */ 10,
 295:..\u8g2-master\csrc/u8x8_d_ssd1306_128x64_noname.c ****   /* reset_pulse_width_ms = */ 100, 	/* SSD1306: 3 us */
 296:..\u8g2-master\csrc/u8x8_d_ssd1306_128x64_noname.c ****   /* post_reset_wait_ms = */ 100, /* far east OLEDs need much longer setup time */
 297:..\u8g2-master\csrc/u8x8_d_ssd1306_128x64_noname.c ****   /* sda_setup_time_ns = */ 50,		/* SSD1306: 15ns, but cycle time is 100ns, so use 100/2 */
 298:..\u8g2-master\csrc/u8x8_d_ssd1306_128x64_noname.c ****   /* sck_pulse_width_ns = */ 50,	/* SSD1306: 20ns, but cycle time is 100ns, so use 100/2, AVR: belo
 299:..\u8g2-master\csrc/u8x8_d_ssd1306_128x64_noname.c ****   /* sck_clock_hz = */ 8000000UL,	/* since Arduino 1.6.0, the SPI bus speed in Hz. Should be  10000
 300:..\u8g2-master\csrc/u8x8_d_ssd1306_128x64_noname.c ****   /* spi_mode = */ 0,		/* active high, rising edge */
 301:..\u8g2-master\csrc/u8x8_d_ssd1306_128x64_noname.c ****   /* i2c_bus_clock_100kHz = */ 4,
 302:..\u8g2-master\csrc/u8x8_d_ssd1306_128x64_noname.c ****   /* data_setup_time_ns = */ 40,
 303:..\u8g2-master\csrc/u8x8_d_ssd1306_128x64_noname.c ****   /* write_pulse_width_ns = */ 150,	/* SSD1306: cycle time is 300ns, so use 300/2 = 150 */
 304:..\u8g2-master\csrc/u8x8_d_ssd1306_128x64_noname.c ****   /* tile_width = */ 16,
 305:..\u8g2-master\csrc/u8x8_d_ssd1306_128x64_noname.c ****   /* tile_hight = */ 8,
 306:..\u8g2-master\csrc/u8x8_d_ssd1306_128x64_noname.c ****   /* default_x_offset = */ 0,
 307:..\u8g2-master\csrc/u8x8_d_ssd1306_128x64_noname.c ****   /* flipmode_x_offset = */ 0,
 308:..\u8g2-master\csrc/u8x8_d_ssd1306_128x64_noname.c ****   /* pixel_width = */ 128,
 309:..\u8g2-master\csrc/u8x8_d_ssd1306_128x64_noname.c ****   /* pixel_height = */ 64
 310:..\u8g2-master\csrc/u8x8_d_ssd1306_128x64_noname.c **** };
 311:..\u8g2-master\csrc/u8x8_d_ssd1306_128x64_noname.c **** 
 312:..\u8g2-master\csrc/u8x8_d_ssd1306_128x64_noname.c **** uint8_t u8x8_d_ssd1306_128x64_noname(u8x8_t *u8x8, uint8_t msg, uint8_t arg_int, void *arg_ptr)
 313:..\u8g2-master\csrc/u8x8_d_ssd1306_128x64_noname.c **** {
  28              		.loc 1 313 0
  29              		.cfi_startproc
ARM GAS  C:\Users\info\AppData\Local\Temp\ccq5o0H3.s 			page 7


  30              		@ args = 0, pretend = 0, frame = 0
  31              		@ frame_needed = 0, uses_anonymous_args = 0
  32              	.LVL0:
  33 0000 F8B5     		push	{r3, r4, r5, r6, r7, lr}
  34              		.cfi_def_cfa_offset 24
  35              		.cfi_offset 3, -24
  36              		.cfi_offset 4, -20
  37              		.cfi_offset 5, -16
  38              		.cfi_offset 6, -12
  39              		.cfi_offset 7, -8
  40              		.cfi_offset 14, -4
  41              	.LBB4:
  42              	.LBB5:
 211:..\u8g2-master\csrc/u8x8_d_ssd1306_128x64_noname.c ****   {
  43              		.loc 1 211 0
  44 0002 A1F10B07 		sub	r7, r1, #11
  45              	.LBE5:
  46              	.LBE4:
  47              		.loc 1 313 0
  48 0006 0546     		mov	r5, r0
  49              	.LVL1:
  50 0008 1446     		mov	r4, r2
  51              	.LVL2:
  52 000a 1E46     		mov	r6, r3
  53              	.LVL3:
  54              	.LBB15:
  55              	.LBB6:
 211:..\u8g2-master\csrc/u8x8_d_ssd1306_128x64_noname.c ****   {
  56              		.loc 1 211 0
  57 000c 042F     		cmp	r7, #4
  58 000e 04D8     		bhi	.L2
  59 0010 DFE807F0 		tbb	[pc, r7]
  60              	.LVL4:
  61              	.L4:
  62 0014 58       		.byte	(.L3-.L4)/2
  63 0015 03       		.byte	(.L2-.L4)/2
  64 0016 3F       		.byte	(.L5-.L4)/2
  65 0017 49       		.byte	(.L6-.L4)/2
  66 0018 10       		.byte	(.L7-.L4)/2
  67 0019 00       		.p2align 1
  68              	.L2:
  69              	.LBE6:
  70              	.LBE15:
 314:..\u8g2-master\csrc/u8x8_d_ssd1306_128x64_noname.c ****     
 315:..\u8g2-master\csrc/u8x8_d_ssd1306_128x64_noname.c ****   if ( u8x8_d_ssd1306_sh1106_generic(u8x8, msg, arg_int, arg_ptr) != 0 )
 316:..\u8g2-master\csrc/u8x8_d_ssd1306_128x64_noname.c ****     return 1;
 317:..\u8g2-master\csrc/u8x8_d_ssd1306_128x64_noname.c ****   
 318:..\u8g2-master\csrc/u8x8_d_ssd1306_128x64_noname.c ****   switch(msg)
  71              		.loc 1 318 0
  72 001a 0929     		cmp	r1, #9
  73 001c 58D0     		beq	.L14
  74 001e 0A29     		cmp	r1, #10
  75 0020 5CD1     		bne	.L22
 319:..\u8g2-master\csrc/u8x8_d_ssd1306_128x64_noname.c ****   {
 320:..\u8g2-master\csrc/u8x8_d_ssd1306_128x64_noname.c ****     case U8X8_MSG_DISPLAY_INIT:
 321:..\u8g2-master\csrc/u8x8_d_ssd1306_128x64_noname.c ****       u8x8_d_helper_display_init(u8x8);
  76              		.loc 1 321 0
ARM GAS  C:\Users\info\AppData\Local\Temp\ccq5o0H3.s 			page 8


  77 0022 2846     		mov	r0, r5
  78              	.LVL5:
  79 0024 FFF7FEFF 		bl	u8x8_d_helper_display_init
  80              	.LVL6:
 322:..\u8g2-master\csrc/u8x8_d_ssd1306_128x64_noname.c ****       u8x8_cad_SendSequence(u8x8, u8x8_d_ssd1306_128x64_noname_init_seq);    
  81              		.loc 1 322 0
  82 0028 2846     		mov	r0, r5
  83 002a 3449     		ldr	r1, .L23
  84 002c FFF7FEFF 		bl	u8x8_cad_SendSequence
  85              	.LVL7:
 323:..\u8g2-master\csrc/u8x8_d_ssd1306_128x64_noname.c ****       break;
 324:..\u8g2-master\csrc/u8x8_d_ssd1306_128x64_noname.c ****     case U8X8_MSG_DISPLAY_SETUP_MEMORY:
 325:..\u8g2-master\csrc/u8x8_d_ssd1306_128x64_noname.c ****       u8x8_d_helper_display_setup_memory(u8x8, &u8x8_ssd1306_128x64_noname_display_info);
 326:..\u8g2-master\csrc/u8x8_d_ssd1306_128x64_noname.c ****       break;
 327:..\u8g2-master\csrc/u8x8_d_ssd1306_128x64_noname.c ****     default:
 328:..\u8g2-master\csrc/u8x8_d_ssd1306_128x64_noname.c ****       return 0;
 329:..\u8g2-master\csrc/u8x8_d_ssd1306_128x64_noname.c ****   }
 330:..\u8g2-master\csrc/u8x8_d_ssd1306_128x64_noname.c ****   return 1;
  86              		.loc 1 330 0
  87 0030 0120     		movs	r0, #1
 323:..\u8g2-master\csrc/u8x8_d_ssd1306_128x64_noname.c ****       break;
  88              		.loc 1 323 0
  89 0032 F8BD     		pop	{r3, r4, r5, r6, r7, pc}
  90              	.LVL8:
  91              	.L7:
  92              	.LBB16:
  93              	.LBB7:
 251:..\u8g2-master\csrc/u8x8_d_ssd1306_128x64_noname.c ****       x = ((u8x8_tile_t *)arg_ptr)->x_pos;    
  94              		.loc 1 251 0
  95 0034 FFF7FEFF 		bl	u8x8_cad_StartTransfer
  96              	.LVL9:
 254:..\u8g2-master\csrc/u8x8_d_ssd1306_128x64_noname.c ****     
  97              		.loc 1 254 0
  98 0038 95F82230 		ldrb	r3, [r5, #34]	@ zero_extendqisi2
 252:..\u8g2-master\csrc/u8x8_d_ssd1306_128x64_noname.c ****       x *= 8;
  99              		.loc 1 252 0
 100 003c 7779     		ldrb	r7, [r6, #5]	@ zero_extendqisi2
 101              	.LVL10:
 256:..\u8g2-master\csrc/u8x8_d_ssd1306_128x64_noname.c ****     
 102              		.loc 1 256 0
 103 003e 4021     		movs	r1, #64
 254:..\u8g2-master\csrc/u8x8_d_ssd1306_128x64_noname.c ****     
 104              		.loc 1 254 0
 105 0040 03EBC707 		add	r7, r3, r7, lsl #3
 106              	.LVL11:
 107 0044 07F0FF07 		and	r7, r7, #255
 108              	.LVL12:
 256:..\u8g2-master\csrc/u8x8_d_ssd1306_128x64_noname.c ****     
 109              		.loc 1 256 0
 110 0048 2846     		mov	r0, r5
 111 004a FFF7FEFF 		bl	u8x8_cad_SendCmd
 112              	.LVL13:
 258:..\u8g2-master\csrc/u8x8_d_ssd1306_128x64_noname.c ****       u8x8_cad_SendArg(u8x8, 0x000 | ((x&15)));					/* probably wrong, should be SendCmd */
 113              		.loc 1 258 0
 114 004e 3909     		lsrs	r1, r7, #4
 115 0050 41F01001 		orr	r1, r1, #16
 116 0054 2846     		mov	r0, r5
ARM GAS  C:\Users\info\AppData\Local\Temp\ccq5o0H3.s 			page 9


 117 0056 FFF7FEFF 		bl	u8x8_cad_SendCmd
 118              	.LVL14:
 259:..\u8g2-master\csrc/u8x8_d_ssd1306_128x64_noname.c ****       u8x8_cad_SendArg(u8x8, 0x0b0 | (((u8x8_tile_t *)arg_ptr)->y_pos));	/* probably wrong, should 
 119              		.loc 1 259 0
 120 005a 07F00F01 		and	r1, r7, #15
 121 005e 2846     		mov	r0, r5
 122 0060 FFF7FEFF 		bl	u8x8_cad_SendArg
 123              	.LVL15:
 260:..\u8g2-master\csrc/u8x8_d_ssd1306_128x64_noname.c **** 
 124              		.loc 1 260 0
 125 0064 B179     		ldrb	r1, [r6, #6]	@ zero_extendqisi2
 126 0066 2846     		mov	r0, r5
 127 0068 41F0B001 		orr	r1, r1, #176
 128 006c FFF7FEFF 		bl	u8x8_cad_SendArg
 129              	.LVL16:
 130              	.L11:
 267:..\u8g2-master\csrc/u8x8_d_ssd1306_128x64_noname.c **** 	/*
 131              		.loc 1 267 0
 132 0070 3179     		ldrb	r1, [r6, #4]	@ zero_extendqisi2
 133 0072 3268     		ldr	r2, [r6]
 134 0074 C900     		lsls	r1, r1, #3
 135 0076 01F0F801 		and	r1, r1, #248
 136 007a 2846     		mov	r0, r5
 137 007c FFF7FEFF 		bl	u8x8_cad_SendData
 138              	.LVL17:
 276:..\u8g2-master\csrc/u8x8_d_ssd1306_128x64_noname.c ****       } while( arg_int > 0 );
 139              		.loc 1 276 0
 140 0080 621E     		subs	r2, r4, #1
 141              	.LVL18:
 277:..\u8g2-master\csrc/u8x8_d_ssd1306_128x64_noname.c ****       
 142              		.loc 1 277 0
 143 0082 12F0FF04 		ands	r4, r2, #255
 144 0086 F3D1     		bne	.L11
 279:..\u8g2-master\csrc/u8x8_d_ssd1306_128x64_noname.c ****       break;
 145              		.loc 1 279 0
 146 0088 2846     		mov	r0, r5
 147 008a FFF7FEFF 		bl	u8x8_cad_EndTransfer
 148              	.LVL19:
 149              	.LBE7:
 150              	.LBE16:
 316:..\u8g2-master\csrc/u8x8_d_ssd1306_128x64_noname.c ****   
 151              		.loc 1 316 0
 152 008e 0120     		movs	r0, #1
 331:..\u8g2-master\csrc/u8x8_d_ssd1306_128x64_noname.c **** }
 153              		.loc 1 331 0
 154 0090 F8BD     		pop	{r3, r4, r5, r6, r7, pc}
 155              	.LVL20:
 156              	.L5:
 157              	.LBB17:
 158              	.LBB8:
 231:..\u8g2-master\csrc/u8x8_d_ssd1306_128x64_noname.c ****       {
 159              		.loc 1 231 0
 160 0092 52BB     		cbnz	r2, .L10
 233:..\u8g2-master\csrc/u8x8_d_ssd1306_128x64_noname.c **** 	u8x8->x_offset = u8x8->display_info->default_x_offset;
 161              		.loc 1 233 0
 162 0094 1A49     		ldr	r1, .L23+4
 163              	.LVL21:
ARM GAS  C:\Users\info\AppData\Local\Temp\ccq5o0H3.s 			page 10


 164 0096 FFF7FEFF 		bl	u8x8_cad_SendSequence
 165              	.LVL22:
 234:..\u8g2-master\csrc/u8x8_d_ssd1306_128x64_noname.c ****       }
 166              		.loc 1 234 0
 167 009a 2B68     		ldr	r3, [r5]
 168              	.LBE8:
 169              	.LBE17:
 316:..\u8g2-master\csrc/u8x8_d_ssd1306_128x64_noname.c ****   
 170              		.loc 1 316 0
 171 009c 0120     		movs	r0, #1
 172              	.LBB18:
 173              	.LBB9:
 234:..\u8g2-master\csrc/u8x8_d_ssd1306_128x64_noname.c ****       }
 174              		.loc 1 234 0
 175 009e 9B7C     		ldrb	r3, [r3, #18]	@ zero_extendqisi2
 176 00a0 85F82230 		strb	r3, [r5, #34]
 177              	.LVL23:
 178              	.LBE9:
 179              	.LBE18:
 180              		.loc 1 331 0
 181 00a4 F8BD     		pop	{r3, r4, r5, r6, r7, pc}
 182              	.LVL24:
 183              	.L6:
 184              	.LBB19:
 185              	.LBB10:
 244:..\u8g2-master\csrc/u8x8_d_ssd1306_128x64_noname.c ****       u8x8_cad_SendCmd(u8x8, 0x081 );
 186              		.loc 1 244 0
 187 00a6 FFF7FEFF 		bl	u8x8_cad_StartTransfer
 188              	.LVL25:
 245:..\u8g2-master\csrc/u8x8_d_ssd1306_128x64_noname.c ****       u8x8_cad_SendArg(u8x8, arg_int );	/* ssd1306 has range from 0 to 255 */
 189              		.loc 1 245 0
 190 00aa 8121     		movs	r1, #129
 191 00ac 2846     		mov	r0, r5
 192 00ae FFF7FEFF 		bl	u8x8_cad_SendCmd
 193              	.LVL26:
 246:..\u8g2-master\csrc/u8x8_d_ssd1306_128x64_noname.c ****       u8x8_cad_EndTransfer(u8x8);
 194              		.loc 1 246 0
 195 00b2 2146     		mov	r1, r4
 196 00b4 2846     		mov	r0, r5
 197 00b6 FFF7FEFF 		bl	u8x8_cad_SendArg
 198              	.LVL27:
 247:..\u8g2-master\csrc/u8x8_d_ssd1306_128x64_noname.c ****       break;
 199              		.loc 1 247 0
 200 00ba 2846     		mov	r0, r5
 201 00bc FFF7FEFF 		bl	u8x8_cad_EndTransfer
 202              	.LVL28:
 203              	.LBE10:
 204              	.LBE19:
 316:..\u8g2-master\csrc/u8x8_d_ssd1306_128x64_noname.c ****   
 205              		.loc 1 316 0
 206 00c0 0120     		movs	r0, #1
 207              		.loc 1 331 0
 208 00c2 F8BD     		pop	{r3, r4, r5, r6, r7, pc}
 209              	.LVL29:
 210              	.L3:
 211              	.LBB20:
 212              	.LBB11:
ARM GAS  C:\Users\info\AppData\Local\Temp\ccq5o0H3.s 			page 11


 225:..\u8g2-master\csrc/u8x8_d_ssd1306_128x64_noname.c **** 	u8x8_cad_SendSequence(u8x8, u8x8_d_ssd1306_128x64_noname_powersave0_seq);
 213              		.loc 1 225 0
 214 00c4 62B9     		cbnz	r2, .L8
 226:..\u8g2-master\csrc/u8x8_d_ssd1306_128x64_noname.c ****       else
 215              		.loc 1 226 0
 216 00c6 0F49     		ldr	r1, .L23+8
 217              	.LVL30:
 218 00c8 FFF7FEFF 		bl	u8x8_cad_SendSequence
 219              	.LVL31:
 220              	.LBE11:
 221              	.LBE20:
 316:..\u8g2-master\csrc/u8x8_d_ssd1306_128x64_noname.c ****   
 222              		.loc 1 316 0
 223 00cc 0120     		movs	r0, #1
 224              		.loc 1 331 0
 225 00ce F8BD     		pop	{r3, r4, r5, r6, r7, pc}
 226              	.LVL32:
 227              	.L14:
 325:..\u8g2-master\csrc/u8x8_d_ssd1306_128x64_noname.c ****       break;
 228              		.loc 1 325 0
 229 00d0 2846     		mov	r0, r5
 230              	.LVL33:
 231 00d2 0D49     		ldr	r1, .L23+12
 232              	.LVL34:
 233 00d4 FFF7FEFF 		bl	u8x8_d_helper_display_setup_memory
 234              	.LVL35:
 330:..\u8g2-master\csrc/u8x8_d_ssd1306_128x64_noname.c **** }
 235              		.loc 1 330 0
 236 00d8 0120     		movs	r0, #1
 326:..\u8g2-master\csrc/u8x8_d_ssd1306_128x64_noname.c ****     default:
 237              		.loc 1 326 0
 238 00da F8BD     		pop	{r3, r4, r5, r6, r7, pc}
 239              	.LVL36:
 240              	.L22:
 328:..\u8g2-master\csrc/u8x8_d_ssd1306_128x64_noname.c ****   }
 241              		.loc 1 328 0
 242 00dc 0020     		movs	r0, #0
 243              	.LVL37:
 244 00de F8BD     		pop	{r3, r4, r5, r6, r7, pc}
 245              	.LVL38:
 246              	.L8:
 247              	.LBB21:
 248              	.LBB12:
 228:..\u8g2-master\csrc/u8x8_d_ssd1306_128x64_noname.c ****       break;
 249              		.loc 1 228 0
 250 00e0 0A49     		ldr	r1, .L23+16
 251              	.LVL39:
 252 00e2 FFF7FEFF 		bl	u8x8_cad_SendSequence
 253              	.LVL40:
 254              	.LBE12:
 255              	.LBE21:
 316:..\u8g2-master\csrc/u8x8_d_ssd1306_128x64_noname.c ****   
 256              		.loc 1 316 0
 257 00e6 0120     		movs	r0, #1
 258              		.loc 1 331 0
 259 00e8 F8BD     		pop	{r3, r4, r5, r6, r7, pc}
 260              	.LVL41:
ARM GAS  C:\Users\info\AppData\Local\Temp\ccq5o0H3.s 			page 12


 261              	.L10:
 262              	.LBB22:
 263              	.LBB13:
 238:..\u8g2-master\csrc/u8x8_d_ssd1306_128x64_noname.c **** 	u8x8->x_offset = u8x8->display_info->flipmode_x_offset;
 264              		.loc 1 238 0
 265 00ea 0949     		ldr	r1, .L23+20
 266              	.LVL42:
 267 00ec FFF7FEFF 		bl	u8x8_cad_SendSequence
 268              	.LVL43:
 239:..\u8g2-master\csrc/u8x8_d_ssd1306_128x64_noname.c ****       }
 269              		.loc 1 239 0
 270 00f0 2B68     		ldr	r3, [r5]
 271              	.LBE13:
 272              	.LBE22:
 316:..\u8g2-master\csrc/u8x8_d_ssd1306_128x64_noname.c ****   
 273              		.loc 1 316 0
 274 00f2 0120     		movs	r0, #1
 275              	.LBB23:
 276              	.LBB14:
 239:..\u8g2-master\csrc/u8x8_d_ssd1306_128x64_noname.c ****       }
 277              		.loc 1 239 0
 278 00f4 DB7C     		ldrb	r3, [r3, #19]	@ zero_extendqisi2
 279 00f6 85F82230 		strb	r3, [r5, #34]
 280              	.LVL44:
 281              	.LBE14:
 282              	.LBE23:
 283              		.loc 1 331 0
 284 00fa F8BD     		pop	{r3, r4, r5, r6, r7, pc}
 285              	.LVL45:
 286              	.L24:
 287              		.align	2
 288              	.L23:
 289 00fc 20000000 		.word	.LANCHOR0+32
 290 0100 10000000 		.word	.LANCHOR0+16
 291 0104 00000000 		.word	.LANCHOR0
 292 0108 58000000 		.word	.LANCHOR0+88
 293 010c 08000000 		.word	.LANCHOR0+8
 294 0110 18000000 		.word	.LANCHOR0+24
 295              		.cfi_endproc
 296              	.LFE1:
 297              		.size	u8x8_d_ssd1306_128x64_noname, .-u8x8_d_ssd1306_128x64_noname
 298              		.section	.text.u8x8_d_ssd1306_128x64_vcomh0,"ax",%progbits
 299              		.align	2
 300              		.global	u8x8_d_ssd1306_128x64_vcomh0
 301              		.thumb
 302              		.thumb_func
 303              		.type	u8x8_d_ssd1306_128x64_vcomh0, %function
 304              	u8x8_d_ssd1306_128x64_vcomh0:
 305              	.LFB2:
 332:..\u8g2-master\csrc/u8x8_d_ssd1306_128x64_noname.c **** 
 333:..\u8g2-master\csrc/u8x8_d_ssd1306_128x64_noname.c **** uint8_t u8x8_d_ssd1306_128x64_vcomh0(u8x8_t *u8x8, uint8_t msg, uint8_t arg_int, void *arg_ptr)
 334:..\u8g2-master\csrc/u8x8_d_ssd1306_128x64_noname.c **** {
 306              		.loc 1 334 0
 307              		.cfi_startproc
 308              		@ args = 0, pretend = 0, frame = 0
 309              		@ frame_needed = 0, uses_anonymous_args = 0
 310              	.LVL46:
ARM GAS  C:\Users\info\AppData\Local\Temp\ccq5o0H3.s 			page 13


 311 0000 F8B5     		push	{r3, r4, r5, r6, r7, lr}
 312              		.cfi_def_cfa_offset 24
 313              		.cfi_offset 3, -24
 314              		.cfi_offset 4, -20
 315              		.cfi_offset 5, -16
 316              		.cfi_offset 6, -12
 317              		.cfi_offset 7, -8
 318              		.cfi_offset 14, -4
 319              	.LBB26:
 320              	.LBB27:
 211:..\u8g2-master\csrc/u8x8_d_ssd1306_128x64_noname.c ****   {
 321              		.loc 1 211 0
 322 0002 A1F10B07 		sub	r7, r1, #11
 323              	.LBE27:
 324              	.LBE26:
 325              		.loc 1 334 0
 326 0006 0546     		mov	r5, r0
 327              	.LVL47:
 328 0008 1446     		mov	r4, r2
 329              	.LVL48:
 330 000a 1E46     		mov	r6, r3
 331              	.LVL49:
 332              	.LBB37:
 333              	.LBB28:
 211:..\u8g2-master\csrc/u8x8_d_ssd1306_128x64_noname.c ****   {
 334              		.loc 1 211 0
 335 000c 042F     		cmp	r7, #4
 336 000e 04D8     		bhi	.L26
 337 0010 DFE807F0 		tbb	[pc, r7]
 338              	.LVL50:
 339              	.L28:
 340 0014 58       		.byte	(.L27-.L28)/2
 341 0015 03       		.byte	(.L26-.L28)/2
 342 0016 3F       		.byte	(.L29-.L28)/2
 343 0017 49       		.byte	(.L30-.L28)/2
 344 0018 10       		.byte	(.L31-.L28)/2
 345 0019 00       		.p2align 1
 346              	.L26:
 347              	.LBE28:
 348              	.LBE37:
 335:..\u8g2-master\csrc/u8x8_d_ssd1306_128x64_noname.c ****     
 336:..\u8g2-master\csrc/u8x8_d_ssd1306_128x64_noname.c ****   if ( u8x8_d_ssd1306_sh1106_generic(u8x8, msg, arg_int, arg_ptr) != 0 )
 337:..\u8g2-master\csrc/u8x8_d_ssd1306_128x64_noname.c ****     return 1;
 338:..\u8g2-master\csrc/u8x8_d_ssd1306_128x64_noname.c ****   
 339:..\u8g2-master\csrc/u8x8_d_ssd1306_128x64_noname.c ****   switch(msg)
 349              		.loc 1 339 0
 350 001a 0929     		cmp	r1, #9
 351 001c 58D0     		beq	.L38
 352 001e 0A29     		cmp	r1, #10
 353 0020 5CD1     		bne	.L45
 340:..\u8g2-master\csrc/u8x8_d_ssd1306_128x64_noname.c ****   {
 341:..\u8g2-master\csrc/u8x8_d_ssd1306_128x64_noname.c ****     case U8X8_MSG_DISPLAY_INIT:
 342:..\u8g2-master\csrc/u8x8_d_ssd1306_128x64_noname.c ****       u8x8_d_helper_display_init(u8x8);
 354              		.loc 1 342 0
 355 0022 2846     		mov	r0, r5
 356              	.LVL51:
 357 0024 FFF7FEFF 		bl	u8x8_d_helper_display_init
ARM GAS  C:\Users\info\AppData\Local\Temp\ccq5o0H3.s 			page 14


 358              	.LVL52:
 343:..\u8g2-master\csrc/u8x8_d_ssd1306_128x64_noname.c ****       u8x8_cad_SendSequence(u8x8, u8x8_d_ssd1306_128x64_vcomh0_init_seq);    
 359              		.loc 1 343 0
 360 0028 2846     		mov	r0, r5
 361 002a 3449     		ldr	r1, .L46
 362 002c FFF7FEFF 		bl	u8x8_cad_SendSequence
 363              	.LVL53:
 344:..\u8g2-master\csrc/u8x8_d_ssd1306_128x64_noname.c ****       break;
 345:..\u8g2-master\csrc/u8x8_d_ssd1306_128x64_noname.c ****     case U8X8_MSG_DISPLAY_SETUP_MEMORY:
 346:..\u8g2-master\csrc/u8x8_d_ssd1306_128x64_noname.c ****       u8x8_d_helper_display_setup_memory(u8x8, &u8x8_ssd1306_128x64_noname_display_info);
 347:..\u8g2-master\csrc/u8x8_d_ssd1306_128x64_noname.c ****       break;
 348:..\u8g2-master\csrc/u8x8_d_ssd1306_128x64_noname.c ****     default:
 349:..\u8g2-master\csrc/u8x8_d_ssd1306_128x64_noname.c ****       return 0;
 350:..\u8g2-master\csrc/u8x8_d_ssd1306_128x64_noname.c ****   }
 351:..\u8g2-master\csrc/u8x8_d_ssd1306_128x64_noname.c ****   return 1;
 364              		.loc 1 351 0
 365 0030 0120     		movs	r0, #1
 344:..\u8g2-master\csrc/u8x8_d_ssd1306_128x64_noname.c ****       break;
 366              		.loc 1 344 0
 367 0032 F8BD     		pop	{r3, r4, r5, r6, r7, pc}
 368              	.LVL54:
 369              	.L31:
 370              	.LBB38:
 371              	.LBB29:
 251:..\u8g2-master\csrc/u8x8_d_ssd1306_128x64_noname.c ****       x = ((u8x8_tile_t *)arg_ptr)->x_pos;    
 372              		.loc 1 251 0
 373 0034 FFF7FEFF 		bl	u8x8_cad_StartTransfer
 374              	.LVL55:
 254:..\u8g2-master\csrc/u8x8_d_ssd1306_128x64_noname.c ****     
 375              		.loc 1 254 0
 376 0038 95F82230 		ldrb	r3, [r5, #34]	@ zero_extendqisi2
 252:..\u8g2-master\csrc/u8x8_d_ssd1306_128x64_noname.c ****       x *= 8;
 377              		.loc 1 252 0
 378 003c 7779     		ldrb	r7, [r6, #5]	@ zero_extendqisi2
 379              	.LVL56:
 256:..\u8g2-master\csrc/u8x8_d_ssd1306_128x64_noname.c ****     
 380              		.loc 1 256 0
 381 003e 4021     		movs	r1, #64
 254:..\u8g2-master\csrc/u8x8_d_ssd1306_128x64_noname.c ****     
 382              		.loc 1 254 0
 383 0040 03EBC707 		add	r7, r3, r7, lsl #3
 384              	.LVL57:
 385 0044 07F0FF07 		and	r7, r7, #255
 386              	.LVL58:
 256:..\u8g2-master\csrc/u8x8_d_ssd1306_128x64_noname.c ****     
 387              		.loc 1 256 0
 388 0048 2846     		mov	r0, r5
 389 004a FFF7FEFF 		bl	u8x8_cad_SendCmd
 390              	.LVL59:
 258:..\u8g2-master\csrc/u8x8_d_ssd1306_128x64_noname.c ****       u8x8_cad_SendArg(u8x8, 0x000 | ((x&15)));					/* probably wrong, should be SendCmd */
 391              		.loc 1 258 0
 392 004e 3909     		lsrs	r1, r7, #4
 393 0050 41F01001 		orr	r1, r1, #16
 394 0054 2846     		mov	r0, r5
 395 0056 FFF7FEFF 		bl	u8x8_cad_SendCmd
 396              	.LVL60:
 259:..\u8g2-master\csrc/u8x8_d_ssd1306_128x64_noname.c ****       u8x8_cad_SendArg(u8x8, 0x0b0 | (((u8x8_tile_t *)arg_ptr)->y_pos));	/* probably wrong, should 
ARM GAS  C:\Users\info\AppData\Local\Temp\ccq5o0H3.s 			page 15


 397              		.loc 1 259 0
 398 005a 07F00F01 		and	r1, r7, #15
 399 005e 2846     		mov	r0, r5
 400 0060 FFF7FEFF 		bl	u8x8_cad_SendArg
 401              	.LVL61:
 260:..\u8g2-master\csrc/u8x8_d_ssd1306_128x64_noname.c **** 
 402              		.loc 1 260 0
 403 0064 B179     		ldrb	r1, [r6, #6]	@ zero_extendqisi2
 404 0066 2846     		mov	r0, r5
 405 0068 41F0B001 		orr	r1, r1, #176
 406 006c FFF7FEFF 		bl	u8x8_cad_SendArg
 407              	.LVL62:
 408              	.L35:
 267:..\u8g2-master\csrc/u8x8_d_ssd1306_128x64_noname.c **** 	/*
 409              		.loc 1 267 0
 410 0070 3179     		ldrb	r1, [r6, #4]	@ zero_extendqisi2
 411 0072 3268     		ldr	r2, [r6]
 412 0074 C900     		lsls	r1, r1, #3
 413 0076 01F0F801 		and	r1, r1, #248
 414 007a 2846     		mov	r0, r5
 415 007c FFF7FEFF 		bl	u8x8_cad_SendData
 416              	.LVL63:
 276:..\u8g2-master\csrc/u8x8_d_ssd1306_128x64_noname.c ****       } while( arg_int > 0 );
 417              		.loc 1 276 0
 418 0080 621E     		subs	r2, r4, #1
 419              	.LVL64:
 277:..\u8g2-master\csrc/u8x8_d_ssd1306_128x64_noname.c ****       
 420              		.loc 1 277 0
 421 0082 12F0FF04 		ands	r4, r2, #255
 422 0086 F3D1     		bne	.L35
 279:..\u8g2-master\csrc/u8x8_d_ssd1306_128x64_noname.c ****       break;
 423              		.loc 1 279 0
 424 0088 2846     		mov	r0, r5
 425 008a FFF7FEFF 		bl	u8x8_cad_EndTransfer
 426              	.LVL65:
 427              	.LBE29:
 428              	.LBE38:
 337:..\u8g2-master\csrc/u8x8_d_ssd1306_128x64_noname.c ****   
 429              		.loc 1 337 0
 430 008e 0120     		movs	r0, #1
 352:..\u8g2-master\csrc/u8x8_d_ssd1306_128x64_noname.c **** }
 431              		.loc 1 352 0
 432 0090 F8BD     		pop	{r3, r4, r5, r6, r7, pc}
 433              	.LVL66:
 434              	.L29:
 435              	.LBB39:
 436              	.LBB30:
 231:..\u8g2-master\csrc/u8x8_d_ssd1306_128x64_noname.c ****       {
 437              		.loc 1 231 0
 438 0092 52BB     		cbnz	r2, .L34
 233:..\u8g2-master\csrc/u8x8_d_ssd1306_128x64_noname.c **** 	u8x8->x_offset = u8x8->display_info->default_x_offset;
 439              		.loc 1 233 0
 440 0094 1A49     		ldr	r1, .L46+4
 441              	.LVL67:
 442 0096 FFF7FEFF 		bl	u8x8_cad_SendSequence
 443              	.LVL68:
 234:..\u8g2-master\csrc/u8x8_d_ssd1306_128x64_noname.c ****       }
ARM GAS  C:\Users\info\AppData\Local\Temp\ccq5o0H3.s 			page 16


 444              		.loc 1 234 0
 445 009a 2B68     		ldr	r3, [r5]
 446              	.LBE30:
 447              	.LBE39:
 337:..\u8g2-master\csrc/u8x8_d_ssd1306_128x64_noname.c ****   
 448              		.loc 1 337 0
 449 009c 0120     		movs	r0, #1
 450              	.LBB40:
 451              	.LBB31:
 234:..\u8g2-master\csrc/u8x8_d_ssd1306_128x64_noname.c ****       }
 452              		.loc 1 234 0
 453 009e 9B7C     		ldrb	r3, [r3, #18]	@ zero_extendqisi2
 454 00a0 85F82230 		strb	r3, [r5, #34]
 455              	.LVL69:
 456              	.LBE31:
 457              	.LBE40:
 458              		.loc 1 352 0
 459 00a4 F8BD     		pop	{r3, r4, r5, r6, r7, pc}
 460              	.LVL70:
 461              	.L30:
 462              	.LBB41:
 463              	.LBB32:
 244:..\u8g2-master\csrc/u8x8_d_ssd1306_128x64_noname.c ****       u8x8_cad_SendCmd(u8x8, 0x081 );
 464              		.loc 1 244 0
 465 00a6 FFF7FEFF 		bl	u8x8_cad_StartTransfer
 466              	.LVL71:
 245:..\u8g2-master\csrc/u8x8_d_ssd1306_128x64_noname.c ****       u8x8_cad_SendArg(u8x8, arg_int );	/* ssd1306 has range from 0 to 255 */
 467              		.loc 1 245 0
 468 00aa 8121     		movs	r1, #129
 469 00ac 2846     		mov	r0, r5
 470 00ae FFF7FEFF 		bl	u8x8_cad_SendCmd
 471              	.LVL72:
 246:..\u8g2-master\csrc/u8x8_d_ssd1306_128x64_noname.c ****       u8x8_cad_EndTransfer(u8x8);
 472              		.loc 1 246 0
 473 00b2 2146     		mov	r1, r4
 474 00b4 2846     		mov	r0, r5
 475 00b6 FFF7FEFF 		bl	u8x8_cad_SendArg
 476              	.LVL73:
 247:..\u8g2-master\csrc/u8x8_d_ssd1306_128x64_noname.c ****       break;
 477              		.loc 1 247 0
 478 00ba 2846     		mov	r0, r5
 479 00bc FFF7FEFF 		bl	u8x8_cad_EndTransfer
 480              	.LVL74:
 481              	.LBE32:
 482              	.LBE41:
 337:..\u8g2-master\csrc/u8x8_d_ssd1306_128x64_noname.c ****   
 483              		.loc 1 337 0
 484 00c0 0120     		movs	r0, #1
 485              		.loc 1 352 0
 486 00c2 F8BD     		pop	{r3, r4, r5, r6, r7, pc}
 487              	.LVL75:
 488              	.L27:
 489              	.LBB42:
 490              	.LBB33:
 225:..\u8g2-master\csrc/u8x8_d_ssd1306_128x64_noname.c **** 	u8x8_cad_SendSequence(u8x8, u8x8_d_ssd1306_128x64_noname_powersave0_seq);
 491              		.loc 1 225 0
 492 00c4 62B9     		cbnz	r2, .L32
ARM GAS  C:\Users\info\AppData\Local\Temp\ccq5o0H3.s 			page 17


 226:..\u8g2-master\csrc/u8x8_d_ssd1306_128x64_noname.c ****       else
 493              		.loc 1 226 0
 494 00c6 0F49     		ldr	r1, .L46+8
 495              	.LVL76:
 496 00c8 FFF7FEFF 		bl	u8x8_cad_SendSequence
 497              	.LVL77:
 498              	.LBE33:
 499              	.LBE42:
 337:..\u8g2-master\csrc/u8x8_d_ssd1306_128x64_noname.c ****   
 500              		.loc 1 337 0
 501 00cc 0120     		movs	r0, #1
 502              		.loc 1 352 0
 503 00ce F8BD     		pop	{r3, r4, r5, r6, r7, pc}
 504              	.LVL78:
 505              	.L38:
 346:..\u8g2-master\csrc/u8x8_d_ssd1306_128x64_noname.c ****       break;
 506              		.loc 1 346 0
 507 00d0 2846     		mov	r0, r5
 508              	.LVL79:
 509 00d2 0D49     		ldr	r1, .L46+12
 510              	.LVL80:
 511 00d4 FFF7FEFF 		bl	u8x8_d_helper_display_setup_memory
 512              	.LVL81:
 351:..\u8g2-master\csrc/u8x8_d_ssd1306_128x64_noname.c **** }
 513              		.loc 1 351 0
 514 00d8 0120     		movs	r0, #1
 347:..\u8g2-master\csrc/u8x8_d_ssd1306_128x64_noname.c ****     default:
 515              		.loc 1 347 0
 516 00da F8BD     		pop	{r3, r4, r5, r6, r7, pc}
 517              	.LVL82:
 518              	.L45:
 349:..\u8g2-master\csrc/u8x8_d_ssd1306_128x64_noname.c ****   }
 519              		.loc 1 349 0
 520 00dc 0020     		movs	r0, #0
 521              	.LVL83:
 522 00de F8BD     		pop	{r3, r4, r5, r6, r7, pc}
 523              	.LVL84:
 524              	.L32:
 525              	.LBB43:
 526              	.LBB34:
 228:..\u8g2-master\csrc/u8x8_d_ssd1306_128x64_noname.c ****       break;
 527              		.loc 1 228 0
 528 00e0 0A49     		ldr	r1, .L46+16
 529              	.LVL85:
 530 00e2 FFF7FEFF 		bl	u8x8_cad_SendSequence
 531              	.LVL86:
 532              	.LBE34:
 533              	.LBE43:
 337:..\u8g2-master\csrc/u8x8_d_ssd1306_128x64_noname.c ****   
 534              		.loc 1 337 0
 535 00e6 0120     		movs	r0, #1
 536              		.loc 1 352 0
 537 00e8 F8BD     		pop	{r3, r4, r5, r6, r7, pc}
 538              	.LVL87:
 539              	.L34:
 540              	.LBB44:
 541              	.LBB35:
ARM GAS  C:\Users\info\AppData\Local\Temp\ccq5o0H3.s 			page 18


 238:..\u8g2-master\csrc/u8x8_d_ssd1306_128x64_noname.c **** 	u8x8->x_offset = u8x8->display_info->flipmode_x_offset;
 542              		.loc 1 238 0
 543 00ea 0949     		ldr	r1, .L46+20
 544              	.LVL88:
 545 00ec FFF7FEFF 		bl	u8x8_cad_SendSequence
 546              	.LVL89:
 239:..\u8g2-master\csrc/u8x8_d_ssd1306_128x64_noname.c ****       }
 547              		.loc 1 239 0
 548 00f0 2B68     		ldr	r3, [r5]
 549              	.LBE35:
 550              	.LBE44:
 337:..\u8g2-master\csrc/u8x8_d_ssd1306_128x64_noname.c ****   
 551              		.loc 1 337 0
 552 00f2 0120     		movs	r0, #1
 553              	.LBB45:
 554              	.LBB36:
 239:..\u8g2-master\csrc/u8x8_d_ssd1306_128x64_noname.c ****       }
 555              		.loc 1 239 0
 556 00f4 DB7C     		ldrb	r3, [r3, #19]	@ zero_extendqisi2
 557 00f6 85F82230 		strb	r3, [r5, #34]
 558              	.LVL90:
 559              	.LBE36:
 560              	.LBE45:
 561              		.loc 1 352 0
 562 00fa F8BD     		pop	{r3, r4, r5, r6, r7, pc}
 563              	.LVL91:
 564              	.L47:
 565              		.align	2
 566              	.L46:
 567 00fc 70000000 		.word	.LANCHOR0+112
 568 0100 10000000 		.word	.LANCHOR0+16
 569 0104 00000000 		.word	.LANCHOR0
 570 0108 58000000 		.word	.LANCHOR0+88
 571 010c 08000000 		.word	.LANCHOR0+8
 572 0110 18000000 		.word	.LANCHOR0+24
 573              		.cfi_endproc
 574              	.LFE2:
 575              		.size	u8x8_d_ssd1306_128x64_vcomh0, .-u8x8_d_ssd1306_128x64_vcomh0
 576              		.section	.text.u8x8_d_ssd1306_128x64_alt0,"ax",%progbits
 577              		.align	2
 578              		.global	u8x8_d_ssd1306_128x64_alt0
 579              		.thumb
 580              		.thumb_func
 581              		.type	u8x8_d_ssd1306_128x64_alt0, %function
 582              	u8x8_d_ssd1306_128x64_alt0:
 583              	.LFB3:
 353:..\u8g2-master\csrc/u8x8_d_ssd1306_128x64_noname.c **** 
 354:..\u8g2-master\csrc/u8x8_d_ssd1306_128x64_noname.c **** uint8_t u8x8_d_ssd1306_128x64_alt0(u8x8_t *u8x8, uint8_t msg, uint8_t arg_int, void *arg_ptr)
 355:..\u8g2-master\csrc/u8x8_d_ssd1306_128x64_noname.c **** {
 584              		.loc 1 355 0
 585              		.cfi_startproc
 586              		@ args = 0, pretend = 0, frame = 0
 587              		@ frame_needed = 0, uses_anonymous_args = 0
 588              	.LVL92:
 589 0000 F8B5     		push	{r3, r4, r5, r6, r7, lr}
 590              		.cfi_def_cfa_offset 24
 591              		.cfi_offset 3, -24
ARM GAS  C:\Users\info\AppData\Local\Temp\ccq5o0H3.s 			page 19


 592              		.cfi_offset 4, -20
 593              		.cfi_offset 5, -16
 594              		.cfi_offset 6, -12
 595              		.cfi_offset 7, -8
 596              		.cfi_offset 14, -4
 597              	.LBB48:
 598              	.LBB49:
 211:..\u8g2-master\csrc/u8x8_d_ssd1306_128x64_noname.c ****   {
 599              		.loc 1 211 0
 600 0002 A1F10B07 		sub	r7, r1, #11
 601              	.LBE49:
 602              	.LBE48:
 603              		.loc 1 355 0
 604 0006 0546     		mov	r5, r0
 605              	.LVL93:
 606 0008 1446     		mov	r4, r2
 607              	.LVL94:
 608 000a 1E46     		mov	r6, r3
 609              	.LVL95:
 610              	.LBB59:
 611              	.LBB50:
 211:..\u8g2-master\csrc/u8x8_d_ssd1306_128x64_noname.c ****   {
 612              		.loc 1 211 0
 613 000c 042F     		cmp	r7, #4
 614 000e 04D8     		bhi	.L49
 615 0010 DFE807F0 		tbb	[pc, r7]
 616              	.LVL96:
 617              	.L51:
 618 0014 58       		.byte	(.L50-.L51)/2
 619 0015 03       		.byte	(.L49-.L51)/2
 620 0016 3F       		.byte	(.L52-.L51)/2
 621 0017 49       		.byte	(.L53-.L51)/2
 622 0018 10       		.byte	(.L54-.L51)/2
 623 0019 00       		.p2align 1
 624              	.L49:
 625              	.LBE50:
 626              	.LBE59:
 356:..\u8g2-master\csrc/u8x8_d_ssd1306_128x64_noname.c ****   
 357:..\u8g2-master\csrc/u8x8_d_ssd1306_128x64_noname.c ****   if ( u8x8_d_ssd1306_sh1106_generic(u8x8, msg, arg_int, arg_ptr) != 0 )
 358:..\u8g2-master\csrc/u8x8_d_ssd1306_128x64_noname.c ****     return 1;
 359:..\u8g2-master\csrc/u8x8_d_ssd1306_128x64_noname.c ****   
 360:..\u8g2-master\csrc/u8x8_d_ssd1306_128x64_noname.c ****   switch(msg)
 627              		.loc 1 360 0
 628 001a 0929     		cmp	r1, #9
 629 001c 58D0     		beq	.L61
 630 001e 0A29     		cmp	r1, #10
 631 0020 5CD1     		bne	.L68
 361:..\u8g2-master\csrc/u8x8_d_ssd1306_128x64_noname.c ****   {
 362:..\u8g2-master\csrc/u8x8_d_ssd1306_128x64_noname.c ****     case U8X8_MSG_DISPLAY_INIT:
 363:..\u8g2-master\csrc/u8x8_d_ssd1306_128x64_noname.c ****       u8x8_d_helper_display_init(u8x8);
 632              		.loc 1 363 0
 633 0022 2846     		mov	r0, r5
 634              	.LVL97:
 635 0024 FFF7FEFF 		bl	u8x8_d_helper_display_init
 636              	.LVL98:
 364:..\u8g2-master\csrc/u8x8_d_ssd1306_128x64_noname.c ****       u8x8_cad_SendSequence(u8x8, u8x8_d_ssd1306_128x64_alt0_init_seq);    
 637              		.loc 1 364 0
ARM GAS  C:\Users\info\AppData\Local\Temp\ccq5o0H3.s 			page 20


 638 0028 2846     		mov	r0, r5
 639 002a 3449     		ldr	r1, .L69
 640 002c FFF7FEFF 		bl	u8x8_cad_SendSequence
 641              	.LVL99:
 365:..\u8g2-master\csrc/u8x8_d_ssd1306_128x64_noname.c ****       break;
 366:..\u8g2-master\csrc/u8x8_d_ssd1306_128x64_noname.c ****     case U8X8_MSG_DISPLAY_SETUP_MEMORY:
 367:..\u8g2-master\csrc/u8x8_d_ssd1306_128x64_noname.c ****       u8x8_d_helper_display_setup_memory(u8x8, &u8x8_ssd1306_128x64_noname_display_info);
 368:..\u8g2-master\csrc/u8x8_d_ssd1306_128x64_noname.c ****       break;
 369:..\u8g2-master\csrc/u8x8_d_ssd1306_128x64_noname.c ****     default:
 370:..\u8g2-master\csrc/u8x8_d_ssd1306_128x64_noname.c ****       return 0;
 371:..\u8g2-master\csrc/u8x8_d_ssd1306_128x64_noname.c ****   }
 372:..\u8g2-master\csrc/u8x8_d_ssd1306_128x64_noname.c ****   return 1;
 642              		.loc 1 372 0
 643 0030 0120     		movs	r0, #1
 365:..\u8g2-master\csrc/u8x8_d_ssd1306_128x64_noname.c ****       break;
 644              		.loc 1 365 0
 645 0032 F8BD     		pop	{r3, r4, r5, r6, r7, pc}
 646              	.LVL100:
 647              	.L54:
 648              	.LBB60:
 649              	.LBB51:
 251:..\u8g2-master\csrc/u8x8_d_ssd1306_128x64_noname.c ****       x = ((u8x8_tile_t *)arg_ptr)->x_pos;    
 650              		.loc 1 251 0
 651 0034 FFF7FEFF 		bl	u8x8_cad_StartTransfer
 652              	.LVL101:
 254:..\u8g2-master\csrc/u8x8_d_ssd1306_128x64_noname.c ****     
 653              		.loc 1 254 0
 654 0038 95F82230 		ldrb	r3, [r5, #34]	@ zero_extendqisi2
 252:..\u8g2-master\csrc/u8x8_d_ssd1306_128x64_noname.c ****       x *= 8;
 655              		.loc 1 252 0
 656 003c 7779     		ldrb	r7, [r6, #5]	@ zero_extendqisi2
 657              	.LVL102:
 256:..\u8g2-master\csrc/u8x8_d_ssd1306_128x64_noname.c ****     
 658              		.loc 1 256 0
 659 003e 4021     		movs	r1, #64
 254:..\u8g2-master\csrc/u8x8_d_ssd1306_128x64_noname.c ****     
 660              		.loc 1 254 0
 661 0040 03EBC707 		add	r7, r3, r7, lsl #3
 662              	.LVL103:
 663 0044 07F0FF07 		and	r7, r7, #255
 664              	.LVL104:
 256:..\u8g2-master\csrc/u8x8_d_ssd1306_128x64_noname.c ****     
 665              		.loc 1 256 0
 666 0048 2846     		mov	r0, r5
 667 004a FFF7FEFF 		bl	u8x8_cad_SendCmd
 668              	.LVL105:
 258:..\u8g2-master\csrc/u8x8_d_ssd1306_128x64_noname.c ****       u8x8_cad_SendArg(u8x8, 0x000 | ((x&15)));					/* probably wrong, should be SendCmd */
 669              		.loc 1 258 0
 670 004e 3909     		lsrs	r1, r7, #4
 671 0050 41F01001 		orr	r1, r1, #16
 672 0054 2846     		mov	r0, r5
 673 0056 FFF7FEFF 		bl	u8x8_cad_SendCmd
 674              	.LVL106:
 259:..\u8g2-master\csrc/u8x8_d_ssd1306_128x64_noname.c ****       u8x8_cad_SendArg(u8x8, 0x0b0 | (((u8x8_tile_t *)arg_ptr)->y_pos));	/* probably wrong, should 
 675              		.loc 1 259 0
 676 005a 07F00F01 		and	r1, r7, #15
 677 005e 2846     		mov	r0, r5
ARM GAS  C:\Users\info\AppData\Local\Temp\ccq5o0H3.s 			page 21


 678 0060 FFF7FEFF 		bl	u8x8_cad_SendArg
 679              	.LVL107:
 260:..\u8g2-master\csrc/u8x8_d_ssd1306_128x64_noname.c **** 
 680              		.loc 1 260 0
 681 0064 B179     		ldrb	r1, [r6, #6]	@ zero_extendqisi2
 682 0066 2846     		mov	r0, r5
 683 0068 41F0B001 		orr	r1, r1, #176
 684 006c FFF7FEFF 		bl	u8x8_cad_SendArg
 685              	.LVL108:
 686              	.L58:
 267:..\u8g2-master\csrc/u8x8_d_ssd1306_128x64_noname.c **** 	/*
 687              		.loc 1 267 0
 688 0070 3179     		ldrb	r1, [r6, #4]	@ zero_extendqisi2
 689 0072 3268     		ldr	r2, [r6]
 690 0074 C900     		lsls	r1, r1, #3
 691 0076 01F0F801 		and	r1, r1, #248
 692 007a 2846     		mov	r0, r5
 693 007c FFF7FEFF 		bl	u8x8_cad_SendData
 694              	.LVL109:
 276:..\u8g2-master\csrc/u8x8_d_ssd1306_128x64_noname.c ****       } while( arg_int > 0 );
 695              		.loc 1 276 0
 696 0080 621E     		subs	r2, r4, #1
 697              	.LVL110:
 277:..\u8g2-master\csrc/u8x8_d_ssd1306_128x64_noname.c ****       
 698              		.loc 1 277 0
 699 0082 12F0FF04 		ands	r4, r2, #255
 700 0086 F3D1     		bne	.L58
 279:..\u8g2-master\csrc/u8x8_d_ssd1306_128x64_noname.c ****       break;
 701              		.loc 1 279 0
 702 0088 2846     		mov	r0, r5
 703 008a FFF7FEFF 		bl	u8x8_cad_EndTransfer
 704              	.LVL111:
 705              	.LBE51:
 706              	.LBE60:
 358:..\u8g2-master\csrc/u8x8_d_ssd1306_128x64_noname.c ****   
 707              		.loc 1 358 0
 708 008e 0120     		movs	r0, #1
 373:..\u8g2-master\csrc/u8x8_d_ssd1306_128x64_noname.c **** }
 709              		.loc 1 373 0
 710 0090 F8BD     		pop	{r3, r4, r5, r6, r7, pc}
 711              	.LVL112:
 712              	.L52:
 713              	.LBB61:
 714              	.LBB52:
 231:..\u8g2-master\csrc/u8x8_d_ssd1306_128x64_noname.c ****       {
 715              		.loc 1 231 0
 716 0092 52BB     		cbnz	r2, .L57
 233:..\u8g2-master\csrc/u8x8_d_ssd1306_128x64_noname.c **** 	u8x8->x_offset = u8x8->display_info->default_x_offset;
 717              		.loc 1 233 0
 718 0094 1A49     		ldr	r1, .L69+4
 719              	.LVL113:
 720 0096 FFF7FEFF 		bl	u8x8_cad_SendSequence
 721              	.LVL114:
 234:..\u8g2-master\csrc/u8x8_d_ssd1306_128x64_noname.c ****       }
 722              		.loc 1 234 0
 723 009a 2B68     		ldr	r3, [r5]
 724              	.LBE52:
ARM GAS  C:\Users\info\AppData\Local\Temp\ccq5o0H3.s 			page 22


 725              	.LBE61:
 358:..\u8g2-master\csrc/u8x8_d_ssd1306_128x64_noname.c ****   
 726              		.loc 1 358 0
 727 009c 0120     		movs	r0, #1
 728              	.LBB62:
 729              	.LBB53:
 234:..\u8g2-master\csrc/u8x8_d_ssd1306_128x64_noname.c ****       }
 730              		.loc 1 234 0
 731 009e 9B7C     		ldrb	r3, [r3, #18]	@ zero_extendqisi2
 732 00a0 85F82230 		strb	r3, [r5, #34]
 733              	.LVL115:
 734              	.LBE53:
 735              	.LBE62:
 736              		.loc 1 373 0
 737 00a4 F8BD     		pop	{r3, r4, r5, r6, r7, pc}
 738              	.LVL116:
 739              	.L53:
 740              	.LBB63:
 741              	.LBB54:
 244:..\u8g2-master\csrc/u8x8_d_ssd1306_128x64_noname.c ****       u8x8_cad_SendCmd(u8x8, 0x081 );
 742              		.loc 1 244 0
 743 00a6 FFF7FEFF 		bl	u8x8_cad_StartTransfer
 744              	.LVL117:
 245:..\u8g2-master\csrc/u8x8_d_ssd1306_128x64_noname.c ****       u8x8_cad_SendArg(u8x8, arg_int );	/* ssd1306 has range from 0 to 255 */
 745              		.loc 1 245 0
 746 00aa 8121     		movs	r1, #129
 747 00ac 2846     		mov	r0, r5
 748 00ae FFF7FEFF 		bl	u8x8_cad_SendCmd
 749              	.LVL118:
 246:..\u8g2-master\csrc/u8x8_d_ssd1306_128x64_noname.c ****       u8x8_cad_EndTransfer(u8x8);
 750              		.loc 1 246 0
 751 00b2 2146     		mov	r1, r4
 752 00b4 2846     		mov	r0, r5
 753 00b6 FFF7FEFF 		bl	u8x8_cad_SendArg
 754              	.LVL119:
 247:..\u8g2-master\csrc/u8x8_d_ssd1306_128x64_noname.c ****       break;
 755              		.loc 1 247 0
 756 00ba 2846     		mov	r0, r5
 757 00bc FFF7FEFF 		bl	u8x8_cad_EndTransfer
 758              	.LVL120:
 759              	.LBE54:
 760              	.LBE63:
 358:..\u8g2-master\csrc/u8x8_d_ssd1306_128x64_noname.c ****   
 761              		.loc 1 358 0
 762 00c0 0120     		movs	r0, #1
 763              		.loc 1 373 0
 764 00c2 F8BD     		pop	{r3, r4, r5, r6, r7, pc}
 765              	.LVL121:
 766              	.L50:
 767              	.LBB64:
 768              	.LBB55:
 225:..\u8g2-master\csrc/u8x8_d_ssd1306_128x64_noname.c **** 	u8x8_cad_SendSequence(u8x8, u8x8_d_ssd1306_128x64_noname_powersave0_seq);
 769              		.loc 1 225 0
 770 00c4 62B9     		cbnz	r2, .L55
 226:..\u8g2-master\csrc/u8x8_d_ssd1306_128x64_noname.c ****       else
 771              		.loc 1 226 0
 772 00c6 0F49     		ldr	r1, .L69+8
ARM GAS  C:\Users\info\AppData\Local\Temp\ccq5o0H3.s 			page 23


 773              	.LVL122:
 774 00c8 FFF7FEFF 		bl	u8x8_cad_SendSequence
 775              	.LVL123:
 776              	.LBE55:
 777              	.LBE64:
 358:..\u8g2-master\csrc/u8x8_d_ssd1306_128x64_noname.c ****   
 778              		.loc 1 358 0
 779 00cc 0120     		movs	r0, #1
 780              		.loc 1 373 0
 781 00ce F8BD     		pop	{r3, r4, r5, r6, r7, pc}
 782              	.LVL124:
 783              	.L61:
 367:..\u8g2-master\csrc/u8x8_d_ssd1306_128x64_noname.c ****       break;
 784              		.loc 1 367 0
 785 00d0 2846     		mov	r0, r5
 786              	.LVL125:
 787 00d2 0D49     		ldr	r1, .L69+12
 788              	.LVL126:
 789 00d4 FFF7FEFF 		bl	u8x8_d_helper_display_setup_memory
 790              	.LVL127:
 372:..\u8g2-master\csrc/u8x8_d_ssd1306_128x64_noname.c **** }
 791              		.loc 1 372 0
 792 00d8 0120     		movs	r0, #1
 368:..\u8g2-master\csrc/u8x8_d_ssd1306_128x64_noname.c ****     default:
 793              		.loc 1 368 0
 794 00da F8BD     		pop	{r3, r4, r5, r6, r7, pc}
 795              	.LVL128:
 796              	.L68:
 370:..\u8g2-master\csrc/u8x8_d_ssd1306_128x64_noname.c ****   }
 797              		.loc 1 370 0
 798 00dc 0020     		movs	r0, #0
 799              	.LVL129:
 800 00de F8BD     		pop	{r3, r4, r5, r6, r7, pc}
 801              	.LVL130:
 802              	.L55:
 803              	.LBB65:
 804              	.LBB56:
 228:..\u8g2-master\csrc/u8x8_d_ssd1306_128x64_noname.c ****       break;
 805              		.loc 1 228 0
 806 00e0 0A49     		ldr	r1, .L69+16
 807              	.LVL131:
 808 00e2 FFF7FEFF 		bl	u8x8_cad_SendSequence
 809              	.LVL132:
 810              	.LBE56:
 811              	.LBE65:
 358:..\u8g2-master\csrc/u8x8_d_ssd1306_128x64_noname.c ****   
 812              		.loc 1 358 0
 813 00e6 0120     		movs	r0, #1
 814              		.loc 1 373 0
 815 00e8 F8BD     		pop	{r3, r4, r5, r6, r7, pc}
 816              	.LVL133:
 817              	.L57:
 818              	.LBB66:
 819              	.LBB57:
 238:..\u8g2-master\csrc/u8x8_d_ssd1306_128x64_noname.c **** 	u8x8->x_offset = u8x8->display_info->flipmode_x_offset;
 820              		.loc 1 238 0
 821 00ea 0949     		ldr	r1, .L69+20
ARM GAS  C:\Users\info\AppData\Local\Temp\ccq5o0H3.s 			page 24


 822              	.LVL134:
 823 00ec FFF7FEFF 		bl	u8x8_cad_SendSequence
 824              	.LVL135:
 239:..\u8g2-master\csrc/u8x8_d_ssd1306_128x64_noname.c ****       }
 825              		.loc 1 239 0
 826 00f0 2B68     		ldr	r3, [r5]
 827              	.LBE57:
 828              	.LBE66:
 358:..\u8g2-master\csrc/u8x8_d_ssd1306_128x64_noname.c ****   
 829              		.loc 1 358 0
 830 00f2 0120     		movs	r0, #1
 831              	.LBB67:
 832              	.LBB58:
 239:..\u8g2-master\csrc/u8x8_d_ssd1306_128x64_noname.c ****       }
 833              		.loc 1 239 0
 834 00f4 DB7C     		ldrb	r3, [r3, #19]	@ zero_extendqisi2
 835 00f6 85F82230 		strb	r3, [r5, #34]
 836              	.LVL136:
 837              	.LBE58:
 838              	.LBE67:
 839              		.loc 1 373 0
 840 00fa F8BD     		pop	{r3, r4, r5, r6, r7, pc}
 841              	.LVL137:
 842              	.L70:
 843              		.align	2
 844              	.L69:
 845 00fc A8000000 		.word	.LANCHOR0+168
 846 0100 10000000 		.word	.LANCHOR0+16
 847 0104 00000000 		.word	.LANCHOR0
 848 0108 58000000 		.word	.LANCHOR0+88
 849 010c 08000000 		.word	.LANCHOR0+8
 850 0110 18000000 		.word	.LANCHOR0+24
 851              		.cfi_endproc
 852              	.LFE3:
 853              		.size	u8x8_d_ssd1306_128x64_alt0, .-u8x8_d_ssd1306_128x64_alt0
 854              		.section	.text.u8x8_d_sh1106_128x64_noname,"ax",%progbits
 855              		.align	2
 856              		.global	u8x8_d_sh1106_128x64_noname
 857              		.thumb
 858              		.thumb_func
 859              		.type	u8x8_d_sh1106_128x64_noname, %function
 860              	u8x8_d_sh1106_128x64_noname:
 861              	.LFB4:
 374:..\u8g2-master\csrc/u8x8_d_ssd1306_128x64_noname.c **** 
 375:..\u8g2-master\csrc/u8x8_d_ssd1306_128x64_noname.c **** 
 376:..\u8g2-master\csrc/u8x8_d_ssd1306_128x64_noname.c **** static const u8x8_display_info_t u8x8_sh1106_128x64_noname_display_info =
 377:..\u8g2-master\csrc/u8x8_d_ssd1306_128x64_noname.c **** {
 378:..\u8g2-master\csrc/u8x8_d_ssd1306_128x64_noname.c ****   /* chip_enable_level = */ 0,
 379:..\u8g2-master\csrc/u8x8_d_ssd1306_128x64_noname.c ****   /* chip_disable_level = */ 1,
 380:..\u8g2-master\csrc/u8x8_d_ssd1306_128x64_noname.c ****   
 381:..\u8g2-master\csrc/u8x8_d_ssd1306_128x64_noname.c ****   /* post_chip_enable_wait_ns = */ 20,
 382:..\u8g2-master\csrc/u8x8_d_ssd1306_128x64_noname.c ****   /* pre_chip_disable_wait_ns = */ 10,
 383:..\u8g2-master\csrc/u8x8_d_ssd1306_128x64_noname.c ****   /* reset_pulse_width_ms = */ 100, 	/* SSD1306: 3 us */
 384:..\u8g2-master\csrc/u8x8_d_ssd1306_128x64_noname.c ****   /* post_reset_wait_ms = */ 100, /* far east OLEDs need much longer setup time */
 385:..\u8g2-master\csrc/u8x8_d_ssd1306_128x64_noname.c ****   /* sda_setup_time_ns = */ 50,		/* SSD1306: 15ns, but cycle time is 100ns, so use 100/2 */
 386:..\u8g2-master\csrc/u8x8_d_ssd1306_128x64_noname.c ****   /* sck_pulse_width_ns = */ 50,	/* SSD1306: 20ns, but cycle time is 100ns, so use 100/2, AVR: belo
 387:..\u8g2-master\csrc/u8x8_d_ssd1306_128x64_noname.c ****   /* sck_clock_hz = */ 4000000UL,	/* since Arduino 1.6.0, the SPI bus speed in Hz. Should be  10000
ARM GAS  C:\Users\info\AppData\Local\Temp\ccq5o0H3.s 			page 25


 388:..\u8g2-master\csrc/u8x8_d_ssd1306_128x64_noname.c ****   /* spi_mode = */ 3,		/* active low (clock is high by default), rising edge, this seems to be a di
 389:..\u8g2-master\csrc/u8x8_d_ssd1306_128x64_noname.c ****   /* i2c_bus_clock_100kHz = */ 4,
 390:..\u8g2-master\csrc/u8x8_d_ssd1306_128x64_noname.c ****   /* data_setup_time_ns = */ 40,
 391:..\u8g2-master\csrc/u8x8_d_ssd1306_128x64_noname.c ****   /* write_pulse_width_ns = */ 150,	/* SSD1306: cycle time is 300ns, so use 300/2 = 150 */
 392:..\u8g2-master\csrc/u8x8_d_ssd1306_128x64_noname.c ****   /* tile_width = */ 16,
 393:..\u8g2-master\csrc/u8x8_d_ssd1306_128x64_noname.c ****   /* tile_hight = */ 8,
 394:..\u8g2-master\csrc/u8x8_d_ssd1306_128x64_noname.c ****   /* default_x_offset = */ 2,
 395:..\u8g2-master\csrc/u8x8_d_ssd1306_128x64_noname.c ****   /* flipmode_x_offset = */ 2,
 396:..\u8g2-master\csrc/u8x8_d_ssd1306_128x64_noname.c ****   /* pixel_width = */ 128,
 397:..\u8g2-master\csrc/u8x8_d_ssd1306_128x64_noname.c ****   /* pixel_height = */ 64
 398:..\u8g2-master\csrc/u8x8_d_ssd1306_128x64_noname.c **** };
 399:..\u8g2-master\csrc/u8x8_d_ssd1306_128x64_noname.c **** 
 400:..\u8g2-master\csrc/u8x8_d_ssd1306_128x64_noname.c **** uint8_t u8x8_d_sh1106_128x64_noname(u8x8_t *u8x8, uint8_t msg, uint8_t arg_int, void *arg_ptr)
 401:..\u8g2-master\csrc/u8x8_d_ssd1306_128x64_noname.c **** {
 862              		.loc 1 401 0
 863              		.cfi_startproc
 864              		@ args = 0, pretend = 0, frame = 0
 865              		@ frame_needed = 0, uses_anonymous_args = 0
 866              	.LVL138:
 867 0000 F8B5     		push	{r3, r4, r5, r6, r7, lr}
 868              		.cfi_def_cfa_offset 24
 869              		.cfi_offset 3, -24
 870              		.cfi_offset 4, -20
 871              		.cfi_offset 5, -16
 872              		.cfi_offset 6, -12
 873              		.cfi_offset 7, -8
 874              		.cfi_offset 14, -4
 875              	.LBB70:
 876              	.LBB71:
 211:..\u8g2-master\csrc/u8x8_d_ssd1306_128x64_noname.c ****   {
 877              		.loc 1 211 0
 878 0002 A1F10B07 		sub	r7, r1, #11
 879              	.LBE71:
 880              	.LBE70:
 881              		.loc 1 401 0
 882 0006 0546     		mov	r5, r0
 883              	.LVL139:
 884 0008 1446     		mov	r4, r2
 885              	.LVL140:
 886 000a 1E46     		mov	r6, r3
 887              	.LVL141:
 888              	.LBB81:
 889              	.LBB72:
 211:..\u8g2-master\csrc/u8x8_d_ssd1306_128x64_noname.c ****   {
 890              		.loc 1 211 0
 891 000c 042F     		cmp	r7, #4
 892 000e 04D8     		bhi	.L72
 893 0010 DFE807F0 		tbb	[pc, r7]
 894              	.LVL142:
 895              	.L74:
 896 0014 58       		.byte	(.L73-.L74)/2
 897 0015 03       		.byte	(.L72-.L74)/2
 898 0016 3F       		.byte	(.L75-.L74)/2
 899 0017 49       		.byte	(.L76-.L74)/2
 900 0018 10       		.byte	(.L77-.L74)/2
 901 0019 00       		.p2align 1
 902              	.L72:
ARM GAS  C:\Users\info\AppData\Local\Temp\ccq5o0H3.s 			page 26


 903              	.LBE72:
 904              	.LBE81:
 402:..\u8g2-master\csrc/u8x8_d_ssd1306_128x64_noname.c ****   if ( u8x8_d_ssd1306_sh1106_generic(u8x8, msg, arg_int, arg_ptr) != 0 )
 403:..\u8g2-master\csrc/u8x8_d_ssd1306_128x64_noname.c ****     return 1;
 404:..\u8g2-master\csrc/u8x8_d_ssd1306_128x64_noname.c ****   
 405:..\u8g2-master\csrc/u8x8_d_ssd1306_128x64_noname.c ****   switch(msg)
 905              		.loc 1 405 0
 906 001a 0929     		cmp	r1, #9
 907 001c 58D0     		beq	.L84
 908 001e 0A29     		cmp	r1, #10
 909 0020 5CD1     		bne	.L91
 406:..\u8g2-master\csrc/u8x8_d_ssd1306_128x64_noname.c ****   {
 407:..\u8g2-master\csrc/u8x8_d_ssd1306_128x64_noname.c ****     case U8X8_MSG_DISPLAY_INIT:
 408:..\u8g2-master\csrc/u8x8_d_ssd1306_128x64_noname.c ****       u8x8_d_helper_display_init(u8x8);
 910              		.loc 1 408 0
 911 0022 2846     		mov	r0, r5
 912              	.LVL143:
 913 0024 FFF7FEFF 		bl	u8x8_d_helper_display_init
 914              	.LVL144:
 409:..\u8g2-master\csrc/u8x8_d_ssd1306_128x64_noname.c ****       /* maybe use a better init sequence */
 410:..\u8g2-master\csrc/u8x8_d_ssd1306_128x64_noname.c ****       /* https://www.mikrocontroller.net/topic/431371 */
 411:..\u8g2-master\csrc/u8x8_d_ssd1306_128x64_noname.c ****       /* the new sequence is added in the winstar constructor (see below), this is kept untouched *
 412:..\u8g2-master\csrc/u8x8_d_ssd1306_128x64_noname.c ****       u8x8_cad_SendSequence(u8x8, u8x8_d_ssd1306_128x64_noname_init_seq);    
 915              		.loc 1 412 0
 916 0028 2846     		mov	r0, r5
 917 002a 3449     		ldr	r1, .L92
 918 002c FFF7FEFF 		bl	u8x8_cad_SendSequence
 919              	.LVL145:
 413:..\u8g2-master\csrc/u8x8_d_ssd1306_128x64_noname.c ****       break;
 414:..\u8g2-master\csrc/u8x8_d_ssd1306_128x64_noname.c ****     case U8X8_MSG_DISPLAY_SETUP_MEMORY:
 415:..\u8g2-master\csrc/u8x8_d_ssd1306_128x64_noname.c ****       u8x8_d_helper_display_setup_memory(u8x8, &u8x8_sh1106_128x64_noname_display_info);
 416:..\u8g2-master\csrc/u8x8_d_ssd1306_128x64_noname.c ****       break;
 417:..\u8g2-master\csrc/u8x8_d_ssd1306_128x64_noname.c ****     default:
 418:..\u8g2-master\csrc/u8x8_d_ssd1306_128x64_noname.c ****       return 0;
 419:..\u8g2-master\csrc/u8x8_d_ssd1306_128x64_noname.c ****   }
 420:..\u8g2-master\csrc/u8x8_d_ssd1306_128x64_noname.c ****   return 1;
 920              		.loc 1 420 0
 921 0030 0120     		movs	r0, #1
 413:..\u8g2-master\csrc/u8x8_d_ssd1306_128x64_noname.c ****       break;
 922              		.loc 1 413 0
 923 0032 F8BD     		pop	{r3, r4, r5, r6, r7, pc}
 924              	.LVL146:
 925              	.L77:
 926              	.LBB82:
 927              	.LBB73:
 251:..\u8g2-master\csrc/u8x8_d_ssd1306_128x64_noname.c ****       x = ((u8x8_tile_t *)arg_ptr)->x_pos;    
 928              		.loc 1 251 0
 929 0034 FFF7FEFF 		bl	u8x8_cad_StartTransfer
 930              	.LVL147:
 254:..\u8g2-master\csrc/u8x8_d_ssd1306_128x64_noname.c ****     
 931              		.loc 1 254 0
 932 0038 95F82230 		ldrb	r3, [r5, #34]	@ zero_extendqisi2
 252:..\u8g2-master\csrc/u8x8_d_ssd1306_128x64_noname.c ****       x *= 8;
 933              		.loc 1 252 0
 934 003c 7779     		ldrb	r7, [r6, #5]	@ zero_extendqisi2
 935              	.LVL148:
 256:..\u8g2-master\csrc/u8x8_d_ssd1306_128x64_noname.c ****     
ARM GAS  C:\Users\info\AppData\Local\Temp\ccq5o0H3.s 			page 27


 936              		.loc 1 256 0
 937 003e 4021     		movs	r1, #64
 254:..\u8g2-master\csrc/u8x8_d_ssd1306_128x64_noname.c ****     
 938              		.loc 1 254 0
 939 0040 03EBC707 		add	r7, r3, r7, lsl #3
 940              	.LVL149:
 941 0044 07F0FF07 		and	r7, r7, #255
 942              	.LVL150:
 256:..\u8g2-master\csrc/u8x8_d_ssd1306_128x64_noname.c ****     
 943              		.loc 1 256 0
 944 0048 2846     		mov	r0, r5
 945 004a FFF7FEFF 		bl	u8x8_cad_SendCmd
 946              	.LVL151:
 258:..\u8g2-master\csrc/u8x8_d_ssd1306_128x64_noname.c ****       u8x8_cad_SendArg(u8x8, 0x000 | ((x&15)));					/* probably wrong, should be SendCmd */
 947              		.loc 1 258 0
 948 004e 3909     		lsrs	r1, r7, #4
 949 0050 41F01001 		orr	r1, r1, #16
 950 0054 2846     		mov	r0, r5
 951 0056 FFF7FEFF 		bl	u8x8_cad_SendCmd
 952              	.LVL152:
 259:..\u8g2-master\csrc/u8x8_d_ssd1306_128x64_noname.c ****       u8x8_cad_SendArg(u8x8, 0x0b0 | (((u8x8_tile_t *)arg_ptr)->y_pos));	/* probably wrong, should 
 953              		.loc 1 259 0
 954 005a 07F00F01 		and	r1, r7, #15
 955 005e 2846     		mov	r0, r5
 956 0060 FFF7FEFF 		bl	u8x8_cad_SendArg
 957              	.LVL153:
 260:..\u8g2-master\csrc/u8x8_d_ssd1306_128x64_noname.c **** 
 958              		.loc 1 260 0
 959 0064 B179     		ldrb	r1, [r6, #6]	@ zero_extendqisi2
 960 0066 2846     		mov	r0, r5
 961 0068 41F0B001 		orr	r1, r1, #176
 962 006c FFF7FEFF 		bl	u8x8_cad_SendArg
 963              	.LVL154:
 964              	.L81:
 267:..\u8g2-master\csrc/u8x8_d_ssd1306_128x64_noname.c **** 	/*
 965              		.loc 1 267 0
 966 0070 3179     		ldrb	r1, [r6, #4]	@ zero_extendqisi2
 967 0072 3268     		ldr	r2, [r6]
 968 0074 C900     		lsls	r1, r1, #3
 969 0076 01F0F801 		and	r1, r1, #248
 970 007a 2846     		mov	r0, r5
 971 007c FFF7FEFF 		bl	u8x8_cad_SendData
 972              	.LVL155:
 276:..\u8g2-master\csrc/u8x8_d_ssd1306_128x64_noname.c ****       } while( arg_int > 0 );
 973              		.loc 1 276 0
 974 0080 621E     		subs	r2, r4, #1
 975              	.LVL156:
 277:..\u8g2-master\csrc/u8x8_d_ssd1306_128x64_noname.c ****       
 976              		.loc 1 277 0
 977 0082 12F0FF04 		ands	r4, r2, #255
 978 0086 F3D1     		bne	.L81
 279:..\u8g2-master\csrc/u8x8_d_ssd1306_128x64_noname.c ****       break;
 979              		.loc 1 279 0
 980 0088 2846     		mov	r0, r5
 981 008a FFF7FEFF 		bl	u8x8_cad_EndTransfer
 982              	.LVL157:
 983              	.LBE73:
ARM GAS  C:\Users\info\AppData\Local\Temp\ccq5o0H3.s 			page 28


 984              	.LBE82:
 403:..\u8g2-master\csrc/u8x8_d_ssd1306_128x64_noname.c ****   
 985              		.loc 1 403 0
 986 008e 0120     		movs	r0, #1
 421:..\u8g2-master\csrc/u8x8_d_ssd1306_128x64_noname.c ****     
 422:..\u8g2-master\csrc/u8x8_d_ssd1306_128x64_noname.c **** }
 987              		.loc 1 422 0
 988 0090 F8BD     		pop	{r3, r4, r5, r6, r7, pc}
 989              	.LVL158:
 990              	.L75:
 991              	.LBB83:
 992              	.LBB74:
 231:..\u8g2-master\csrc/u8x8_d_ssd1306_128x64_noname.c ****       {
 993              		.loc 1 231 0
 994 0092 52BB     		cbnz	r2, .L80
 233:..\u8g2-master\csrc/u8x8_d_ssd1306_128x64_noname.c **** 	u8x8->x_offset = u8x8->display_info->default_x_offset;
 995              		.loc 1 233 0
 996 0094 1A49     		ldr	r1, .L92+4
 997              	.LVL159:
 998 0096 FFF7FEFF 		bl	u8x8_cad_SendSequence
 999              	.LVL160:
 234:..\u8g2-master\csrc/u8x8_d_ssd1306_128x64_noname.c ****       }
 1000              		.loc 1 234 0
 1001 009a 2B68     		ldr	r3, [r5]
 1002              	.LBE74:
 1003              	.LBE83:
 403:..\u8g2-master\csrc/u8x8_d_ssd1306_128x64_noname.c ****   
 1004              		.loc 1 403 0
 1005 009c 0120     		movs	r0, #1
 1006              	.LBB84:
 1007              	.LBB75:
 234:..\u8g2-master\csrc/u8x8_d_ssd1306_128x64_noname.c ****       }
 1008              		.loc 1 234 0
 1009 009e 9B7C     		ldrb	r3, [r3, #18]	@ zero_extendqisi2
 1010 00a0 85F82230 		strb	r3, [r5, #34]
 1011              	.LVL161:
 1012              	.LBE75:
 1013              	.LBE84:
 1014              		.loc 1 422 0
 1015 00a4 F8BD     		pop	{r3, r4, r5, r6, r7, pc}
 1016              	.LVL162:
 1017              	.L76:
 1018              	.LBB85:
 1019              	.LBB76:
 244:..\u8g2-master\csrc/u8x8_d_ssd1306_128x64_noname.c ****       u8x8_cad_SendCmd(u8x8, 0x081 );
 1020              		.loc 1 244 0
 1021 00a6 FFF7FEFF 		bl	u8x8_cad_StartTransfer
 1022              	.LVL163:
 245:..\u8g2-master\csrc/u8x8_d_ssd1306_128x64_noname.c ****       u8x8_cad_SendArg(u8x8, arg_int );	/* ssd1306 has range from 0 to 255 */
 1023              		.loc 1 245 0
 1024 00aa 8121     		movs	r1, #129
 1025 00ac 2846     		mov	r0, r5
 1026 00ae FFF7FEFF 		bl	u8x8_cad_SendCmd
 1027              	.LVL164:
 246:..\u8g2-master\csrc/u8x8_d_ssd1306_128x64_noname.c ****       u8x8_cad_EndTransfer(u8x8);
 1028              		.loc 1 246 0
 1029 00b2 2146     		mov	r1, r4
ARM GAS  C:\Users\info\AppData\Local\Temp\ccq5o0H3.s 			page 29


 1030 00b4 2846     		mov	r0, r5
 1031 00b6 FFF7FEFF 		bl	u8x8_cad_SendArg
 1032              	.LVL165:
 247:..\u8g2-master\csrc/u8x8_d_ssd1306_128x64_noname.c ****       break;
 1033              		.loc 1 247 0
 1034 00ba 2846     		mov	r0, r5
 1035 00bc FFF7FEFF 		bl	u8x8_cad_EndTransfer
 1036              	.LVL166:
 1037              	.LBE76:
 1038              	.LBE85:
 403:..\u8g2-master\csrc/u8x8_d_ssd1306_128x64_noname.c ****   
 1039              		.loc 1 403 0
 1040 00c0 0120     		movs	r0, #1
 1041              		.loc 1 422 0
 1042 00c2 F8BD     		pop	{r3, r4, r5, r6, r7, pc}
 1043              	.LVL167:
 1044              	.L73:
 1045              	.LBB86:
 1046              	.LBB77:
 225:..\u8g2-master\csrc/u8x8_d_ssd1306_128x64_noname.c **** 	u8x8_cad_SendSequence(u8x8, u8x8_d_ssd1306_128x64_noname_powersave0_seq);
 1047              		.loc 1 225 0
 1048 00c4 62B9     		cbnz	r2, .L78
 226:..\u8g2-master\csrc/u8x8_d_ssd1306_128x64_noname.c ****       else
 1049              		.loc 1 226 0
 1050 00c6 0F49     		ldr	r1, .L92+8
 1051              	.LVL168:
 1052 00c8 FFF7FEFF 		bl	u8x8_cad_SendSequence
 1053              	.LVL169:
 1054              	.LBE77:
 1055              	.LBE86:
 403:..\u8g2-master\csrc/u8x8_d_ssd1306_128x64_noname.c ****   
 1056              		.loc 1 403 0
 1057 00cc 0120     		movs	r0, #1
 1058              		.loc 1 422 0
 1059 00ce F8BD     		pop	{r3, r4, r5, r6, r7, pc}
 1060              	.LVL170:
 1061              	.L84:
 415:..\u8g2-master\csrc/u8x8_d_ssd1306_128x64_noname.c ****       break;
 1062              		.loc 1 415 0
 1063 00d0 2846     		mov	r0, r5
 1064              	.LVL171:
 1065 00d2 0D49     		ldr	r1, .L92+12
 1066              	.LVL172:
 1067 00d4 FFF7FEFF 		bl	u8x8_d_helper_display_setup_memory
 1068              	.LVL173:
 420:..\u8g2-master\csrc/u8x8_d_ssd1306_128x64_noname.c ****     
 1069              		.loc 1 420 0
 1070 00d8 0120     		movs	r0, #1
 416:..\u8g2-master\csrc/u8x8_d_ssd1306_128x64_noname.c ****     default:
 1071              		.loc 1 416 0
 1072 00da F8BD     		pop	{r3, r4, r5, r6, r7, pc}
 1073              	.LVL174:
 1074              	.L91:
 418:..\u8g2-master\csrc/u8x8_d_ssd1306_128x64_noname.c ****   }
 1075              		.loc 1 418 0
 1076 00dc 0020     		movs	r0, #0
 1077              	.LVL175:
ARM GAS  C:\Users\info\AppData\Local\Temp\ccq5o0H3.s 			page 30


 1078 00de F8BD     		pop	{r3, r4, r5, r6, r7, pc}
 1079              	.LVL176:
 1080              	.L78:
 1081              	.LBB87:
 1082              	.LBB78:
 228:..\u8g2-master\csrc/u8x8_d_ssd1306_128x64_noname.c ****       break;
 1083              		.loc 1 228 0
 1084 00e0 0A49     		ldr	r1, .L92+16
 1085              	.LVL177:
 1086 00e2 FFF7FEFF 		bl	u8x8_cad_SendSequence
 1087              	.LVL178:
 1088              	.LBE78:
 1089              	.LBE87:
 403:..\u8g2-master\csrc/u8x8_d_ssd1306_128x64_noname.c ****   
 1090              		.loc 1 403 0
 1091 00e6 0120     		movs	r0, #1
 1092              		.loc 1 422 0
 1093 00e8 F8BD     		pop	{r3, r4, r5, r6, r7, pc}
 1094              	.LVL179:
 1095              	.L80:
 1096              	.LBB88:
 1097              	.LBB79:
 238:..\u8g2-master\csrc/u8x8_d_ssd1306_128x64_noname.c **** 	u8x8->x_offset = u8x8->display_info->flipmode_x_offset;
 1098              		.loc 1 238 0
 1099 00ea 0949     		ldr	r1, .L92+20
 1100              	.LVL180:
 1101 00ec FFF7FEFF 		bl	u8x8_cad_SendSequence
 1102              	.LVL181:
 239:..\u8g2-master\csrc/u8x8_d_ssd1306_128x64_noname.c ****       }
 1103              		.loc 1 239 0
 1104 00f0 2B68     		ldr	r3, [r5]
 1105              	.LBE79:
 1106              	.LBE88:
 403:..\u8g2-master\csrc/u8x8_d_ssd1306_128x64_noname.c ****   
 1107              		.loc 1 403 0
 1108 00f2 0120     		movs	r0, #1
 1109              	.LBB89:
 1110              	.LBB80:
 239:..\u8g2-master\csrc/u8x8_d_ssd1306_128x64_noname.c ****       }
 1111              		.loc 1 239 0
 1112 00f4 DB7C     		ldrb	r3, [r3, #19]	@ zero_extendqisi2
 1113 00f6 85F82230 		strb	r3, [r5, #34]
 1114              	.LVL182:
 1115              	.LBE80:
 1116              	.LBE89:
 1117              		.loc 1 422 0
 1118 00fa F8BD     		pop	{r3, r4, r5, r6, r7, pc}
 1119              	.LVL183:
 1120              	.L93:
 1121              		.align	2
 1122              	.L92:
 1123 00fc 20000000 		.word	.LANCHOR0+32
 1124 0100 10000000 		.word	.LANCHOR0+16
 1125 0104 00000000 		.word	.LANCHOR0
 1126 0108 E0000000 		.word	.LANCHOR0+224
 1127 010c 08000000 		.word	.LANCHOR0+8
 1128 0110 18000000 		.word	.LANCHOR0+24
ARM GAS  C:\Users\info\AppData\Local\Temp\ccq5o0H3.s 			page 31


 1129              		.cfi_endproc
 1130              	.LFE4:
 1131              		.size	u8x8_d_sh1106_128x64_noname, .-u8x8_d_sh1106_128x64_noname
 1132              		.section	.text.u8x8_d_sh1106_128x64_vcomh0,"ax",%progbits
 1133              		.align	2
 1134              		.global	u8x8_d_sh1106_128x64_vcomh0
 1135              		.thumb
 1136              		.thumb_func
 1137              		.type	u8x8_d_sh1106_128x64_vcomh0, %function
 1138              	u8x8_d_sh1106_128x64_vcomh0:
 1139              	.LFB5:
 423:..\u8g2-master\csrc/u8x8_d_ssd1306_128x64_noname.c **** 
 424:..\u8g2-master\csrc/u8x8_d_ssd1306_128x64_noname.c **** uint8_t u8x8_d_sh1106_128x64_vcomh0(u8x8_t *u8x8, uint8_t msg, uint8_t arg_int, void *arg_ptr)
 425:..\u8g2-master\csrc/u8x8_d_ssd1306_128x64_noname.c **** {
 1140              		.loc 1 425 0
 1141              		.cfi_startproc
 1142              		@ args = 0, pretend = 0, frame = 0
 1143              		@ frame_needed = 0, uses_anonymous_args = 0
 1144              	.LVL184:
 1145 0000 F8B5     		push	{r3, r4, r5, r6, r7, lr}
 1146              		.cfi_def_cfa_offset 24
 1147              		.cfi_offset 3, -24
 1148              		.cfi_offset 4, -20
 1149              		.cfi_offset 5, -16
 1150              		.cfi_offset 6, -12
 1151              		.cfi_offset 7, -8
 1152              		.cfi_offset 14, -4
 1153              	.LBB92:
 1154              	.LBB93:
 211:..\u8g2-master\csrc/u8x8_d_ssd1306_128x64_noname.c ****   {
 1155              		.loc 1 211 0
 1156 0002 A1F10B07 		sub	r7, r1, #11
 1157              	.LBE93:
 1158              	.LBE92:
 1159              		.loc 1 425 0
 1160 0006 0546     		mov	r5, r0
 1161              	.LVL185:
 1162 0008 1446     		mov	r4, r2
 1163              	.LVL186:
 1164 000a 1E46     		mov	r6, r3
 1165              	.LVL187:
 1166              	.LBB103:
 1167              	.LBB94:
 211:..\u8g2-master\csrc/u8x8_d_ssd1306_128x64_noname.c ****   {
 1168              		.loc 1 211 0
 1169 000c 042F     		cmp	r7, #4
 1170 000e 04D8     		bhi	.L95
 1171 0010 DFE807F0 		tbb	[pc, r7]
 1172              	.LVL188:
 1173              	.L97:
 1174 0014 58       		.byte	(.L96-.L97)/2
 1175 0015 03       		.byte	(.L95-.L97)/2
 1176 0016 3F       		.byte	(.L98-.L97)/2
 1177 0017 49       		.byte	(.L99-.L97)/2
 1178 0018 10       		.byte	(.L100-.L97)/2
 1179 0019 00       		.p2align 1
 1180              	.L95:
ARM GAS  C:\Users\info\AppData\Local\Temp\ccq5o0H3.s 			page 32


 1181              	.LBE94:
 1182              	.LBE103:
 426:..\u8g2-master\csrc/u8x8_d_ssd1306_128x64_noname.c ****   if ( u8x8_d_ssd1306_sh1106_generic(u8x8, msg, arg_int, arg_ptr) != 0 )
 427:..\u8g2-master\csrc/u8x8_d_ssd1306_128x64_noname.c ****     return 1;
 428:..\u8g2-master\csrc/u8x8_d_ssd1306_128x64_noname.c ****   
 429:..\u8g2-master\csrc/u8x8_d_ssd1306_128x64_noname.c ****   switch(msg)
 1183              		.loc 1 429 0
 1184 001a 0929     		cmp	r1, #9
 1185 001c 58D0     		beq	.L107
 1186 001e 0A29     		cmp	r1, #10
 1187 0020 5CD1     		bne	.L114
 430:..\u8g2-master\csrc/u8x8_d_ssd1306_128x64_noname.c ****   {
 431:..\u8g2-master\csrc/u8x8_d_ssd1306_128x64_noname.c ****     case U8X8_MSG_DISPLAY_INIT:
 432:..\u8g2-master\csrc/u8x8_d_ssd1306_128x64_noname.c ****       u8x8_d_helper_display_init(u8x8);
 1188              		.loc 1 432 0
 1189 0022 2846     		mov	r0, r5
 1190              	.LVL189:
 1191 0024 FFF7FEFF 		bl	u8x8_d_helper_display_init
 1192              	.LVL190:
 433:..\u8g2-master\csrc/u8x8_d_ssd1306_128x64_noname.c ****       u8x8_cad_SendSequence(u8x8, u8x8_d_ssd1306_128x64_vcomh0_init_seq);    
 1193              		.loc 1 433 0
 1194 0028 2846     		mov	r0, r5
 1195 002a 3449     		ldr	r1, .L115
 1196 002c FFF7FEFF 		bl	u8x8_cad_SendSequence
 1197              	.LVL191:
 434:..\u8g2-master\csrc/u8x8_d_ssd1306_128x64_noname.c ****       break;
 435:..\u8g2-master\csrc/u8x8_d_ssd1306_128x64_noname.c ****     case U8X8_MSG_DISPLAY_SETUP_MEMORY:
 436:..\u8g2-master\csrc/u8x8_d_ssd1306_128x64_noname.c ****       u8x8_d_helper_display_setup_memory(u8x8, &u8x8_sh1106_128x64_noname_display_info);
 437:..\u8g2-master\csrc/u8x8_d_ssd1306_128x64_noname.c ****       break;
 438:..\u8g2-master\csrc/u8x8_d_ssd1306_128x64_noname.c ****     default:
 439:..\u8g2-master\csrc/u8x8_d_ssd1306_128x64_noname.c ****       return 0;
 440:..\u8g2-master\csrc/u8x8_d_ssd1306_128x64_noname.c ****   }
 441:..\u8g2-master\csrc/u8x8_d_ssd1306_128x64_noname.c ****   return 1;
 1198              		.loc 1 441 0
 1199 0030 0120     		movs	r0, #1
 434:..\u8g2-master\csrc/u8x8_d_ssd1306_128x64_noname.c ****       break;
 1200              		.loc 1 434 0
 1201 0032 F8BD     		pop	{r3, r4, r5, r6, r7, pc}
 1202              	.LVL192:
 1203              	.L100:
 1204              	.LBB104:
 1205              	.LBB95:
 251:..\u8g2-master\csrc/u8x8_d_ssd1306_128x64_noname.c ****       x = ((u8x8_tile_t *)arg_ptr)->x_pos;    
 1206              		.loc 1 251 0
 1207 0034 FFF7FEFF 		bl	u8x8_cad_StartTransfer
 1208              	.LVL193:
 254:..\u8g2-master\csrc/u8x8_d_ssd1306_128x64_noname.c ****     
 1209              		.loc 1 254 0
 1210 0038 95F82230 		ldrb	r3, [r5, #34]	@ zero_extendqisi2
 252:..\u8g2-master\csrc/u8x8_d_ssd1306_128x64_noname.c ****       x *= 8;
 1211              		.loc 1 252 0
 1212 003c 7779     		ldrb	r7, [r6, #5]	@ zero_extendqisi2
 1213              	.LVL194:
 256:..\u8g2-master\csrc/u8x8_d_ssd1306_128x64_noname.c ****     
 1214              		.loc 1 256 0
 1215 003e 4021     		movs	r1, #64
 254:..\u8g2-master\csrc/u8x8_d_ssd1306_128x64_noname.c ****     
ARM GAS  C:\Users\info\AppData\Local\Temp\ccq5o0H3.s 			page 33


 1216              		.loc 1 254 0
 1217 0040 03EBC707 		add	r7, r3, r7, lsl #3
 1218              	.LVL195:
 1219 0044 07F0FF07 		and	r7, r7, #255
 1220              	.LVL196:
 256:..\u8g2-master\csrc/u8x8_d_ssd1306_128x64_noname.c ****     
 1221              		.loc 1 256 0
 1222 0048 2846     		mov	r0, r5
 1223 004a FFF7FEFF 		bl	u8x8_cad_SendCmd
 1224              	.LVL197:
 258:..\u8g2-master\csrc/u8x8_d_ssd1306_128x64_noname.c ****       u8x8_cad_SendArg(u8x8, 0x000 | ((x&15)));					/* probably wrong, should be SendCmd */
 1225              		.loc 1 258 0
 1226 004e 3909     		lsrs	r1, r7, #4
 1227 0050 41F01001 		orr	r1, r1, #16
 1228 0054 2846     		mov	r0, r5
 1229 0056 FFF7FEFF 		bl	u8x8_cad_SendCmd
 1230              	.LVL198:
 259:..\u8g2-master\csrc/u8x8_d_ssd1306_128x64_noname.c ****       u8x8_cad_SendArg(u8x8, 0x0b0 | (((u8x8_tile_t *)arg_ptr)->y_pos));	/* probably wrong, should 
 1231              		.loc 1 259 0
 1232 005a 07F00F01 		and	r1, r7, #15
 1233 005e 2846     		mov	r0, r5
 1234 0060 FFF7FEFF 		bl	u8x8_cad_SendArg
 1235              	.LVL199:
 260:..\u8g2-master\csrc/u8x8_d_ssd1306_128x64_noname.c **** 
 1236              		.loc 1 260 0
 1237 0064 B179     		ldrb	r1, [r6, #6]	@ zero_extendqisi2
 1238 0066 2846     		mov	r0, r5
 1239 0068 41F0B001 		orr	r1, r1, #176
 1240 006c FFF7FEFF 		bl	u8x8_cad_SendArg
 1241              	.LVL200:
 1242              	.L104:
 267:..\u8g2-master\csrc/u8x8_d_ssd1306_128x64_noname.c **** 	/*
 1243              		.loc 1 267 0
 1244 0070 3179     		ldrb	r1, [r6, #4]	@ zero_extendqisi2
 1245 0072 3268     		ldr	r2, [r6]
 1246 0074 C900     		lsls	r1, r1, #3
 1247 0076 01F0F801 		and	r1, r1, #248
 1248 007a 2846     		mov	r0, r5
 1249 007c FFF7FEFF 		bl	u8x8_cad_SendData
 1250              	.LVL201:
 276:..\u8g2-master\csrc/u8x8_d_ssd1306_128x64_noname.c ****       } while( arg_int > 0 );
 1251              		.loc 1 276 0
 1252 0080 621E     		subs	r2, r4, #1
 1253              	.LVL202:
 277:..\u8g2-master\csrc/u8x8_d_ssd1306_128x64_noname.c ****       
 1254              		.loc 1 277 0
 1255 0082 12F0FF04 		ands	r4, r2, #255
 1256 0086 F3D1     		bne	.L104
 279:..\u8g2-master\csrc/u8x8_d_ssd1306_128x64_noname.c ****       break;
 1257              		.loc 1 279 0
 1258 0088 2846     		mov	r0, r5
 1259 008a FFF7FEFF 		bl	u8x8_cad_EndTransfer
 1260              	.LVL203:
 1261              	.LBE95:
 1262              	.LBE104:
 427:..\u8g2-master\csrc/u8x8_d_ssd1306_128x64_noname.c ****   
 1263              		.loc 1 427 0
ARM GAS  C:\Users\info\AppData\Local\Temp\ccq5o0H3.s 			page 34


 1264 008e 0120     		movs	r0, #1
 442:..\u8g2-master\csrc/u8x8_d_ssd1306_128x64_noname.c ****     
 443:..\u8g2-master\csrc/u8x8_d_ssd1306_128x64_noname.c **** }
 1265              		.loc 1 443 0
 1266 0090 F8BD     		pop	{r3, r4, r5, r6, r7, pc}
 1267              	.LVL204:
 1268              	.L98:
 1269              	.LBB105:
 1270              	.LBB96:
 231:..\u8g2-master\csrc/u8x8_d_ssd1306_128x64_noname.c ****       {
 1271              		.loc 1 231 0
 1272 0092 52BB     		cbnz	r2, .L103
 233:..\u8g2-master\csrc/u8x8_d_ssd1306_128x64_noname.c **** 	u8x8->x_offset = u8x8->display_info->default_x_offset;
 1273              		.loc 1 233 0
 1274 0094 1A49     		ldr	r1, .L115+4
 1275              	.LVL205:
 1276 0096 FFF7FEFF 		bl	u8x8_cad_SendSequence
 1277              	.LVL206:
 234:..\u8g2-master\csrc/u8x8_d_ssd1306_128x64_noname.c ****       }
 1278              		.loc 1 234 0
 1279 009a 2B68     		ldr	r3, [r5]
 1280              	.LBE96:
 1281              	.LBE105:
 427:..\u8g2-master\csrc/u8x8_d_ssd1306_128x64_noname.c ****   
 1282              		.loc 1 427 0
 1283 009c 0120     		movs	r0, #1
 1284              	.LBB106:
 1285              	.LBB97:
 234:..\u8g2-master\csrc/u8x8_d_ssd1306_128x64_noname.c ****       }
 1286              		.loc 1 234 0
 1287 009e 9B7C     		ldrb	r3, [r3, #18]	@ zero_extendqisi2
 1288 00a0 85F82230 		strb	r3, [r5, #34]
 1289              	.LVL207:
 1290              	.LBE97:
 1291              	.LBE106:
 1292              		.loc 1 443 0
 1293 00a4 F8BD     		pop	{r3, r4, r5, r6, r7, pc}
 1294              	.LVL208:
 1295              	.L99:
 1296              	.LBB107:
 1297              	.LBB98:
 244:..\u8g2-master\csrc/u8x8_d_ssd1306_128x64_noname.c ****       u8x8_cad_SendCmd(u8x8, 0x081 );
 1298              		.loc 1 244 0
 1299 00a6 FFF7FEFF 		bl	u8x8_cad_StartTransfer
 1300              	.LVL209:
 245:..\u8g2-master\csrc/u8x8_d_ssd1306_128x64_noname.c ****       u8x8_cad_SendArg(u8x8, arg_int );	/* ssd1306 has range from 0 to 255 */
 1301              		.loc 1 245 0
 1302 00aa 8121     		movs	r1, #129
 1303 00ac 2846     		mov	r0, r5
 1304 00ae FFF7FEFF 		bl	u8x8_cad_SendCmd
 1305              	.LVL210:
 246:..\u8g2-master\csrc/u8x8_d_ssd1306_128x64_noname.c ****       u8x8_cad_EndTransfer(u8x8);
 1306              		.loc 1 246 0
 1307 00b2 2146     		mov	r1, r4
 1308 00b4 2846     		mov	r0, r5
 1309 00b6 FFF7FEFF 		bl	u8x8_cad_SendArg
 1310              	.LVL211:
ARM GAS  C:\Users\info\AppData\Local\Temp\ccq5o0H3.s 			page 35


 247:..\u8g2-master\csrc/u8x8_d_ssd1306_128x64_noname.c ****       break;
 1311              		.loc 1 247 0
 1312 00ba 2846     		mov	r0, r5
 1313 00bc FFF7FEFF 		bl	u8x8_cad_EndTransfer
 1314              	.LVL212:
 1315              	.LBE98:
 1316              	.LBE107:
 427:..\u8g2-master\csrc/u8x8_d_ssd1306_128x64_noname.c ****   
 1317              		.loc 1 427 0
 1318 00c0 0120     		movs	r0, #1
 1319              		.loc 1 443 0
 1320 00c2 F8BD     		pop	{r3, r4, r5, r6, r7, pc}
 1321              	.LVL213:
 1322              	.L96:
 1323              	.LBB108:
 1324              	.LBB99:
 225:..\u8g2-master\csrc/u8x8_d_ssd1306_128x64_noname.c **** 	u8x8_cad_SendSequence(u8x8, u8x8_d_ssd1306_128x64_noname_powersave0_seq);
 1325              		.loc 1 225 0
 1326 00c4 62B9     		cbnz	r2, .L101
 226:..\u8g2-master\csrc/u8x8_d_ssd1306_128x64_noname.c ****       else
 1327              		.loc 1 226 0
 1328 00c6 0F49     		ldr	r1, .L115+8
 1329              	.LVL214:
 1330 00c8 FFF7FEFF 		bl	u8x8_cad_SendSequence
 1331              	.LVL215:
 1332              	.LBE99:
 1333              	.LBE108:
 427:..\u8g2-master\csrc/u8x8_d_ssd1306_128x64_noname.c ****   
 1334              		.loc 1 427 0
 1335 00cc 0120     		movs	r0, #1
 1336              		.loc 1 443 0
 1337 00ce F8BD     		pop	{r3, r4, r5, r6, r7, pc}
 1338              	.LVL216:
 1339              	.L107:
 436:..\u8g2-master\csrc/u8x8_d_ssd1306_128x64_noname.c ****       break;
 1340              		.loc 1 436 0
 1341 00d0 2846     		mov	r0, r5
 1342              	.LVL217:
 1343 00d2 0D49     		ldr	r1, .L115+12
 1344              	.LVL218:
 1345 00d4 FFF7FEFF 		bl	u8x8_d_helper_display_setup_memory
 1346              	.LVL219:
 441:..\u8g2-master\csrc/u8x8_d_ssd1306_128x64_noname.c ****     
 1347              		.loc 1 441 0
 1348 00d8 0120     		movs	r0, #1
 437:..\u8g2-master\csrc/u8x8_d_ssd1306_128x64_noname.c ****     default:
 1349              		.loc 1 437 0
 1350 00da F8BD     		pop	{r3, r4, r5, r6, r7, pc}
 1351              	.LVL220:
 1352              	.L114:
 439:..\u8g2-master\csrc/u8x8_d_ssd1306_128x64_noname.c ****   }
 1353              		.loc 1 439 0
 1354 00dc 0020     		movs	r0, #0
 1355              	.LVL221:
 1356 00de F8BD     		pop	{r3, r4, r5, r6, r7, pc}
 1357              	.LVL222:
 1358              	.L101:
ARM GAS  C:\Users\info\AppData\Local\Temp\ccq5o0H3.s 			page 36


 1359              	.LBB109:
 1360              	.LBB100:
 228:..\u8g2-master\csrc/u8x8_d_ssd1306_128x64_noname.c ****       break;
 1361              		.loc 1 228 0
 1362 00e0 0A49     		ldr	r1, .L115+16
 1363              	.LVL223:
 1364 00e2 FFF7FEFF 		bl	u8x8_cad_SendSequence
 1365              	.LVL224:
 1366              	.LBE100:
 1367              	.LBE109:
 427:..\u8g2-master\csrc/u8x8_d_ssd1306_128x64_noname.c ****   
 1368              		.loc 1 427 0
 1369 00e6 0120     		movs	r0, #1
 1370              		.loc 1 443 0
 1371 00e8 F8BD     		pop	{r3, r4, r5, r6, r7, pc}
 1372              	.LVL225:
 1373              	.L103:
 1374              	.LBB110:
 1375              	.LBB101:
 238:..\u8g2-master\csrc/u8x8_d_ssd1306_128x64_noname.c **** 	u8x8->x_offset = u8x8->display_info->flipmode_x_offset;
 1376              		.loc 1 238 0
 1377 00ea 0949     		ldr	r1, .L115+20
 1378              	.LVL226:
 1379 00ec FFF7FEFF 		bl	u8x8_cad_SendSequence
 1380              	.LVL227:
 239:..\u8g2-master\csrc/u8x8_d_ssd1306_128x64_noname.c ****       }
 1381              		.loc 1 239 0
 1382 00f0 2B68     		ldr	r3, [r5]
 1383              	.LBE101:
 1384              	.LBE110:
 427:..\u8g2-master\csrc/u8x8_d_ssd1306_128x64_noname.c ****   
 1385              		.loc 1 427 0
 1386 00f2 0120     		movs	r0, #1
 1387              	.LBB111:
 1388              	.LBB102:
 239:..\u8g2-master\csrc/u8x8_d_ssd1306_128x64_noname.c ****       }
 1389              		.loc 1 239 0
 1390 00f4 DB7C     		ldrb	r3, [r3, #19]	@ zero_extendqisi2
 1391 00f6 85F82230 		strb	r3, [r5, #34]
 1392              	.LVL228:
 1393              	.LBE102:
 1394              	.LBE111:
 1395              		.loc 1 443 0
 1396 00fa F8BD     		pop	{r3, r4, r5, r6, r7, pc}
 1397              	.LVL229:
 1398              	.L116:
 1399              		.align	2
 1400              	.L115:
 1401 00fc 70000000 		.word	.LANCHOR0+112
 1402 0100 10000000 		.word	.LANCHOR0+16
 1403 0104 00000000 		.word	.LANCHOR0
 1404 0108 E0000000 		.word	.LANCHOR0+224
 1405 010c 08000000 		.word	.LANCHOR0+8
 1406 0110 18000000 		.word	.LANCHOR0+24
 1407              		.cfi_endproc
 1408              	.LFE5:
 1409              		.size	u8x8_d_sh1106_128x64_vcomh0, .-u8x8_d_sh1106_128x64_vcomh0
ARM GAS  C:\Users\info\AppData\Local\Temp\ccq5o0H3.s 			page 37


 1410              		.section	.text.u8x8_d_sh1106_128x64_winstar,"ax",%progbits
 1411              		.align	2
 1412              		.global	u8x8_d_sh1106_128x64_winstar
 1413              		.thumb
 1414              		.thumb_func
 1415              		.type	u8x8_d_sh1106_128x64_winstar, %function
 1416              	u8x8_d_sh1106_128x64_winstar:
 1417              	.LFB6:
 444:..\u8g2-master\csrc/u8x8_d_ssd1306_128x64_noname.c **** 
 445:..\u8g2-master\csrc/u8x8_d_ssd1306_128x64_noname.c **** uint8_t u8x8_d_sh1106_128x64_winstar(u8x8_t *u8x8, uint8_t msg, uint8_t arg_int, void *arg_ptr)
 446:..\u8g2-master\csrc/u8x8_d_ssd1306_128x64_noname.c **** {
 1418              		.loc 1 446 0
 1419              		.cfi_startproc
 1420              		@ args = 0, pretend = 0, frame = 0
 1421              		@ frame_needed = 0, uses_anonymous_args = 0
 1422              	.LVL230:
 1423 0000 F8B5     		push	{r3, r4, r5, r6, r7, lr}
 1424              		.cfi_def_cfa_offset 24
 1425              		.cfi_offset 3, -24
 1426              		.cfi_offset 4, -20
 1427              		.cfi_offset 5, -16
 1428              		.cfi_offset 6, -12
 1429              		.cfi_offset 7, -8
 1430              		.cfi_offset 14, -4
 1431              	.LBB114:
 1432              	.LBB115:
 211:..\u8g2-master\csrc/u8x8_d_ssd1306_128x64_noname.c ****   {
 1433              		.loc 1 211 0
 1434 0002 A1F10B07 		sub	r7, r1, #11
 1435              	.LBE115:
 1436              	.LBE114:
 1437              		.loc 1 446 0
 1438 0006 0546     		mov	r5, r0
 1439              	.LVL231:
 1440 0008 1446     		mov	r4, r2
 1441              	.LVL232:
 1442 000a 1E46     		mov	r6, r3
 1443              	.LVL233:
 1444              	.LBB125:
 1445              	.LBB116:
 211:..\u8g2-master\csrc/u8x8_d_ssd1306_128x64_noname.c ****   {
 1446              		.loc 1 211 0
 1447 000c 042F     		cmp	r7, #4
 1448 000e 04D8     		bhi	.L118
 1449 0010 DFE807F0 		tbb	[pc, r7]
 1450              	.LVL234:
 1451              	.L120:
 1452 0014 58       		.byte	(.L119-.L120)/2
 1453 0015 03       		.byte	(.L118-.L120)/2
 1454 0016 3F       		.byte	(.L121-.L120)/2
 1455 0017 49       		.byte	(.L122-.L120)/2
 1456 0018 10       		.byte	(.L123-.L120)/2
 1457 0019 00       		.p2align 1
 1458              	.L118:
 1459              	.LBE116:
 1460              	.LBE125:
 447:..\u8g2-master\csrc/u8x8_d_ssd1306_128x64_noname.c ****   if ( u8x8_d_ssd1306_sh1106_generic(u8x8, msg, arg_int, arg_ptr) != 0 )
ARM GAS  C:\Users\info\AppData\Local\Temp\ccq5o0H3.s 			page 38


 448:..\u8g2-master\csrc/u8x8_d_ssd1306_128x64_noname.c ****     return 1;
 449:..\u8g2-master\csrc/u8x8_d_ssd1306_128x64_noname.c ****   
 450:..\u8g2-master\csrc/u8x8_d_ssd1306_128x64_noname.c ****   switch(msg)
 1461              		.loc 1 450 0
 1462 001a 0929     		cmp	r1, #9
 1463 001c 58D0     		beq	.L130
 1464 001e 0A29     		cmp	r1, #10
 1465 0020 5CD1     		bne	.L137
 451:..\u8g2-master\csrc/u8x8_d_ssd1306_128x64_noname.c ****   {
 452:..\u8g2-master\csrc/u8x8_d_ssd1306_128x64_noname.c ****     case U8X8_MSG_DISPLAY_INIT:
 453:..\u8g2-master\csrc/u8x8_d_ssd1306_128x64_noname.c ****       u8x8_d_helper_display_init(u8x8);
 1466              		.loc 1 453 0
 1467 0022 2846     		mov	r0, r5
 1468              	.LVL235:
 1469 0024 FFF7FEFF 		bl	u8x8_d_helper_display_init
 1470              	.LVL236:
 454:..\u8g2-master\csrc/u8x8_d_ssd1306_128x64_noname.c ****       u8x8_cad_SendSequence(u8x8, u8x8_d_sh1106_128x64_winstar_init_seq);    
 1471              		.loc 1 454 0
 1472 0028 2846     		mov	r0, r5
 1473 002a 3449     		ldr	r1, .L138
 1474 002c FFF7FEFF 		bl	u8x8_cad_SendSequence
 1475              	.LVL237:
 455:..\u8g2-master\csrc/u8x8_d_ssd1306_128x64_noname.c ****       break;
 456:..\u8g2-master\csrc/u8x8_d_ssd1306_128x64_noname.c ****     case U8X8_MSG_DISPLAY_SETUP_MEMORY:
 457:..\u8g2-master\csrc/u8x8_d_ssd1306_128x64_noname.c ****       u8x8_d_helper_display_setup_memory(u8x8, &u8x8_sh1106_128x64_noname_display_info);
 458:..\u8g2-master\csrc/u8x8_d_ssd1306_128x64_noname.c ****       break;
 459:..\u8g2-master\csrc/u8x8_d_ssd1306_128x64_noname.c ****     default:
 460:..\u8g2-master\csrc/u8x8_d_ssd1306_128x64_noname.c ****       return 0;
 461:..\u8g2-master\csrc/u8x8_d_ssd1306_128x64_noname.c ****   }
 462:..\u8g2-master\csrc/u8x8_d_ssd1306_128x64_noname.c ****   return 1;
 1476              		.loc 1 462 0
 1477 0030 0120     		movs	r0, #1
 455:..\u8g2-master\csrc/u8x8_d_ssd1306_128x64_noname.c ****       break;
 1478              		.loc 1 455 0
 1479 0032 F8BD     		pop	{r3, r4, r5, r6, r7, pc}
 1480              	.LVL238:
 1481              	.L123:
 1482              	.LBB126:
 1483              	.LBB117:
 251:..\u8g2-master\csrc/u8x8_d_ssd1306_128x64_noname.c ****       x = ((u8x8_tile_t *)arg_ptr)->x_pos;    
 1484              		.loc 1 251 0
 1485 0034 FFF7FEFF 		bl	u8x8_cad_StartTransfer
 1486              	.LVL239:
 254:..\u8g2-master\csrc/u8x8_d_ssd1306_128x64_noname.c ****     
 1487              		.loc 1 254 0
 1488 0038 95F82230 		ldrb	r3, [r5, #34]	@ zero_extendqisi2
 252:..\u8g2-master\csrc/u8x8_d_ssd1306_128x64_noname.c ****       x *= 8;
 1489              		.loc 1 252 0
 1490 003c 7779     		ldrb	r7, [r6, #5]	@ zero_extendqisi2
 1491              	.LVL240:
 256:..\u8g2-master\csrc/u8x8_d_ssd1306_128x64_noname.c ****     
 1492              		.loc 1 256 0
 1493 003e 4021     		movs	r1, #64
 254:..\u8g2-master\csrc/u8x8_d_ssd1306_128x64_noname.c ****     
 1494              		.loc 1 254 0
 1495 0040 03EBC707 		add	r7, r3, r7, lsl #3
 1496              	.LVL241:
ARM GAS  C:\Users\info\AppData\Local\Temp\ccq5o0H3.s 			page 39


 1497 0044 07F0FF07 		and	r7, r7, #255
 1498              	.LVL242:
 256:..\u8g2-master\csrc/u8x8_d_ssd1306_128x64_noname.c ****     
 1499              		.loc 1 256 0
 1500 0048 2846     		mov	r0, r5
 1501 004a FFF7FEFF 		bl	u8x8_cad_SendCmd
 1502              	.LVL243:
 258:..\u8g2-master\csrc/u8x8_d_ssd1306_128x64_noname.c ****       u8x8_cad_SendArg(u8x8, 0x000 | ((x&15)));					/* probably wrong, should be SendCmd */
 1503              		.loc 1 258 0
 1504 004e 3909     		lsrs	r1, r7, #4
 1505 0050 41F01001 		orr	r1, r1, #16
 1506 0054 2846     		mov	r0, r5
 1507 0056 FFF7FEFF 		bl	u8x8_cad_SendCmd
 1508              	.LVL244:
 259:..\u8g2-master\csrc/u8x8_d_ssd1306_128x64_noname.c ****       u8x8_cad_SendArg(u8x8, 0x0b0 | (((u8x8_tile_t *)arg_ptr)->y_pos));	/* probably wrong, should 
 1509              		.loc 1 259 0
 1510 005a 07F00F01 		and	r1, r7, #15
 1511 005e 2846     		mov	r0, r5
 1512 0060 FFF7FEFF 		bl	u8x8_cad_SendArg
 1513              	.LVL245:
 260:..\u8g2-master\csrc/u8x8_d_ssd1306_128x64_noname.c **** 
 1514              		.loc 1 260 0
 1515 0064 B179     		ldrb	r1, [r6, #6]	@ zero_extendqisi2
 1516 0066 2846     		mov	r0, r5
 1517 0068 41F0B001 		orr	r1, r1, #176
 1518 006c FFF7FEFF 		bl	u8x8_cad_SendArg
 1519              	.LVL246:
 1520              	.L127:
 267:..\u8g2-master\csrc/u8x8_d_ssd1306_128x64_noname.c **** 	/*
 1521              		.loc 1 267 0
 1522 0070 3179     		ldrb	r1, [r6, #4]	@ zero_extendqisi2
 1523 0072 3268     		ldr	r2, [r6]
 1524 0074 C900     		lsls	r1, r1, #3
 1525 0076 01F0F801 		and	r1, r1, #248
 1526 007a 2846     		mov	r0, r5
 1527 007c FFF7FEFF 		bl	u8x8_cad_SendData
 1528              	.LVL247:
 276:..\u8g2-master\csrc/u8x8_d_ssd1306_128x64_noname.c ****       } while( arg_int > 0 );
 1529              		.loc 1 276 0
 1530 0080 621E     		subs	r2, r4, #1
 1531              	.LVL248:
 277:..\u8g2-master\csrc/u8x8_d_ssd1306_128x64_noname.c ****       
 1532              		.loc 1 277 0
 1533 0082 12F0FF04 		ands	r4, r2, #255
 1534 0086 F3D1     		bne	.L127
 279:..\u8g2-master\csrc/u8x8_d_ssd1306_128x64_noname.c ****       break;
 1535              		.loc 1 279 0
 1536 0088 2846     		mov	r0, r5
 1537 008a FFF7FEFF 		bl	u8x8_cad_EndTransfer
 1538              	.LVL249:
 1539              	.LBE117:
 1540              	.LBE126:
 448:..\u8g2-master\csrc/u8x8_d_ssd1306_128x64_noname.c ****   
 1541              		.loc 1 448 0
 1542 008e 0120     		movs	r0, #1
 463:..\u8g2-master\csrc/u8x8_d_ssd1306_128x64_noname.c ****     
 464:..\u8g2-master\csrc/u8x8_d_ssd1306_128x64_noname.c **** }
ARM GAS  C:\Users\info\AppData\Local\Temp\ccq5o0H3.s 			page 40


 1543              		.loc 1 464 0
 1544 0090 F8BD     		pop	{r3, r4, r5, r6, r7, pc}
 1545              	.LVL250:
 1546              	.L121:
 1547              	.LBB127:
 1548              	.LBB118:
 231:..\u8g2-master\csrc/u8x8_d_ssd1306_128x64_noname.c ****       {
 1549              		.loc 1 231 0
 1550 0092 52BB     		cbnz	r2, .L126
 233:..\u8g2-master\csrc/u8x8_d_ssd1306_128x64_noname.c **** 	u8x8->x_offset = u8x8->display_info->default_x_offset;
 1551              		.loc 1 233 0
 1552 0094 1A49     		ldr	r1, .L138+4
 1553              	.LVL251:
 1554 0096 FFF7FEFF 		bl	u8x8_cad_SendSequence
 1555              	.LVL252:
 234:..\u8g2-master\csrc/u8x8_d_ssd1306_128x64_noname.c ****       }
 1556              		.loc 1 234 0
 1557 009a 2B68     		ldr	r3, [r5]
 1558              	.LBE118:
 1559              	.LBE127:
 448:..\u8g2-master\csrc/u8x8_d_ssd1306_128x64_noname.c ****   
 1560              		.loc 1 448 0
 1561 009c 0120     		movs	r0, #1
 1562              	.LBB128:
 1563              	.LBB119:
 234:..\u8g2-master\csrc/u8x8_d_ssd1306_128x64_noname.c ****       }
 1564              		.loc 1 234 0
 1565 009e 9B7C     		ldrb	r3, [r3, #18]	@ zero_extendqisi2
 1566 00a0 85F82230 		strb	r3, [r5, #34]
 1567              	.LVL253:
 1568              	.LBE119:
 1569              	.LBE128:
 1570              		.loc 1 464 0
 1571 00a4 F8BD     		pop	{r3, r4, r5, r6, r7, pc}
 1572              	.LVL254:
 1573              	.L122:
 1574              	.LBB129:
 1575              	.LBB120:
 244:..\u8g2-master\csrc/u8x8_d_ssd1306_128x64_noname.c ****       u8x8_cad_SendCmd(u8x8, 0x081 );
 1576              		.loc 1 244 0
 1577 00a6 FFF7FEFF 		bl	u8x8_cad_StartTransfer
 1578              	.LVL255:
 245:..\u8g2-master\csrc/u8x8_d_ssd1306_128x64_noname.c ****       u8x8_cad_SendArg(u8x8, arg_int );	/* ssd1306 has range from 0 to 255 */
 1579              		.loc 1 245 0
 1580 00aa 8121     		movs	r1, #129
 1581 00ac 2846     		mov	r0, r5
 1582 00ae FFF7FEFF 		bl	u8x8_cad_SendCmd
 1583              	.LVL256:
 246:..\u8g2-master\csrc/u8x8_d_ssd1306_128x64_noname.c ****       u8x8_cad_EndTransfer(u8x8);
 1584              		.loc 1 246 0
 1585 00b2 2146     		mov	r1, r4
 1586 00b4 2846     		mov	r0, r5
 1587 00b6 FFF7FEFF 		bl	u8x8_cad_SendArg
 1588              	.LVL257:
 247:..\u8g2-master\csrc/u8x8_d_ssd1306_128x64_noname.c ****       break;
 1589              		.loc 1 247 0
 1590 00ba 2846     		mov	r0, r5
ARM GAS  C:\Users\info\AppData\Local\Temp\ccq5o0H3.s 			page 41


 1591 00bc FFF7FEFF 		bl	u8x8_cad_EndTransfer
 1592              	.LVL258:
 1593              	.LBE120:
 1594              	.LBE129:
 448:..\u8g2-master\csrc/u8x8_d_ssd1306_128x64_noname.c ****   
 1595              		.loc 1 448 0
 1596 00c0 0120     		movs	r0, #1
 1597              		.loc 1 464 0
 1598 00c2 F8BD     		pop	{r3, r4, r5, r6, r7, pc}
 1599              	.LVL259:
 1600              	.L119:
 1601              	.LBB130:
 1602              	.LBB121:
 225:..\u8g2-master\csrc/u8x8_d_ssd1306_128x64_noname.c **** 	u8x8_cad_SendSequence(u8x8, u8x8_d_ssd1306_128x64_noname_powersave0_seq);
 1603              		.loc 1 225 0
 1604 00c4 62B9     		cbnz	r2, .L124
 226:..\u8g2-master\csrc/u8x8_d_ssd1306_128x64_noname.c ****       else
 1605              		.loc 1 226 0
 1606 00c6 0F49     		ldr	r1, .L138+8
 1607              	.LVL260:
 1608 00c8 FFF7FEFF 		bl	u8x8_cad_SendSequence
 1609              	.LVL261:
 1610              	.LBE121:
 1611              	.LBE130:
 448:..\u8g2-master\csrc/u8x8_d_ssd1306_128x64_noname.c ****   
 1612              		.loc 1 448 0
 1613 00cc 0120     		movs	r0, #1
 1614              		.loc 1 464 0
 1615 00ce F8BD     		pop	{r3, r4, r5, r6, r7, pc}
 1616              	.LVL262:
 1617              	.L130:
 457:..\u8g2-master\csrc/u8x8_d_ssd1306_128x64_noname.c ****       break;
 1618              		.loc 1 457 0
 1619 00d0 2846     		mov	r0, r5
 1620              	.LVL263:
 1621 00d2 0D49     		ldr	r1, .L138+12
 1622              	.LVL264:
 1623 00d4 FFF7FEFF 		bl	u8x8_d_helper_display_setup_memory
 1624              	.LVL265:
 462:..\u8g2-master\csrc/u8x8_d_ssd1306_128x64_noname.c ****     
 1625              		.loc 1 462 0
 1626 00d8 0120     		movs	r0, #1
 458:..\u8g2-master\csrc/u8x8_d_ssd1306_128x64_noname.c ****     default:
 1627              		.loc 1 458 0
 1628 00da F8BD     		pop	{r3, r4, r5, r6, r7, pc}
 1629              	.LVL266:
 1630              	.L137:
 460:..\u8g2-master\csrc/u8x8_d_ssd1306_128x64_noname.c ****   }
 1631              		.loc 1 460 0
 1632 00dc 0020     		movs	r0, #0
 1633              	.LVL267:
 1634 00de F8BD     		pop	{r3, r4, r5, r6, r7, pc}
 1635              	.LVL268:
 1636              	.L124:
 1637              	.LBB131:
 1638              	.LBB122:
 228:..\u8g2-master\csrc/u8x8_d_ssd1306_128x64_noname.c ****       break;
ARM GAS  C:\Users\info\AppData\Local\Temp\ccq5o0H3.s 			page 42


 1639              		.loc 1 228 0
 1640 00e0 0A49     		ldr	r1, .L138+16
 1641              	.LVL269:
 1642 00e2 FFF7FEFF 		bl	u8x8_cad_SendSequence
 1643              	.LVL270:
 1644              	.LBE122:
 1645              	.LBE131:
 448:..\u8g2-master\csrc/u8x8_d_ssd1306_128x64_noname.c ****   
 1646              		.loc 1 448 0
 1647 00e6 0120     		movs	r0, #1
 1648              		.loc 1 464 0
 1649 00e8 F8BD     		pop	{r3, r4, r5, r6, r7, pc}
 1650              	.LVL271:
 1651              	.L126:
 1652              	.LBB132:
 1653              	.LBB123:
 238:..\u8g2-master\csrc/u8x8_d_ssd1306_128x64_noname.c **** 	u8x8->x_offset = u8x8->display_info->flipmode_x_offset;
 1654              		.loc 1 238 0
 1655 00ea 0949     		ldr	r1, .L138+20
 1656              	.LVL272:
 1657 00ec FFF7FEFF 		bl	u8x8_cad_SendSequence
 1658              	.LVL273:
 239:..\u8g2-master\csrc/u8x8_d_ssd1306_128x64_noname.c ****       }
 1659              		.loc 1 239 0
 1660 00f0 2B68     		ldr	r3, [r5]
 1661              	.LBE123:
 1662              	.LBE132:
 448:..\u8g2-master\csrc/u8x8_d_ssd1306_128x64_noname.c ****   
 1663              		.loc 1 448 0
 1664 00f2 0120     		movs	r0, #1
 1665              	.LBB133:
 1666              	.LBB124:
 239:..\u8g2-master\csrc/u8x8_d_ssd1306_128x64_noname.c ****       }
 1667              		.loc 1 239 0
 1668 00f4 DB7C     		ldrb	r3, [r3, #19]	@ zero_extendqisi2
 1669 00f6 85F82230 		strb	r3, [r5, #34]
 1670              	.LVL274:
 1671              	.LBE124:
 1672              	.LBE133:
 1673              		.loc 1 464 0
 1674 00fa F8BD     		pop	{r3, r4, r5, r6, r7, pc}
 1675              	.LVL275:
 1676              	.L139:
 1677              		.align	2
 1678              	.L138:
 1679 00fc F8000000 		.word	.LANCHOR0+248
 1680 0100 10000000 		.word	.LANCHOR0+16
 1681 0104 00000000 		.word	.LANCHOR0
 1682 0108 E0000000 		.word	.LANCHOR0+224
 1683 010c 08000000 		.word	.LANCHOR0+8
 1684 0110 18000000 		.word	.LANCHOR0+24
 1685              		.cfi_endproc
 1686              	.LFE6:
 1687              		.size	u8x8_d_sh1106_128x64_winstar, .-u8x8_d_sh1106_128x64_winstar
 1688              		.section	.rodata
 1689              		.align	2
 1690              		.set	.LANCHOR0,. + 0
ARM GAS  C:\Users\info\AppData\Local\Temp\ccq5o0H3.s 			page 43


 1691              		.type	u8x8_d_ssd1306_128x64_noname_powersave0_seq, %object
 1692              		.size	u8x8_d_ssd1306_128x64_noname_powersave0_seq, 5
 1693              	u8x8_d_ssd1306_128x64_noname_powersave0_seq:
 1694 0000 18       		.byte	24
 1695 0001 15       		.byte	21
 1696 0002 AF       		.byte	-81
 1697 0003 19       		.byte	25
 1698 0004 FF       		.byte	-1
 1699 0005 000000   		.space	3
 1700              		.type	u8x8_d_ssd1306_128x64_noname_powersave1_seq, %object
 1701              		.size	u8x8_d_ssd1306_128x64_noname_powersave1_seq, 5
 1702              	u8x8_d_ssd1306_128x64_noname_powersave1_seq:
 1703 0008 18       		.byte	24
 1704 0009 15       		.byte	21
 1705 000a AE       		.byte	-82
 1706 000b 19       		.byte	25
 1707 000c FF       		.byte	-1
 1708 000d 000000   		.space	3
 1709              		.type	u8x8_d_ssd1306_128x64_noname_flip0_seq, %object
 1710              		.size	u8x8_d_ssd1306_128x64_noname_flip0_seq, 7
 1711              	u8x8_d_ssd1306_128x64_noname_flip0_seq:
 1712 0010 18       		.byte	24
 1713 0011 15       		.byte	21
 1714 0012 A1       		.byte	-95
 1715 0013 15       		.byte	21
 1716 0014 C8       		.byte	-56
 1717 0015 19       		.byte	25
 1718 0016 FF       		.byte	-1
 1719 0017 00       		.space	1
 1720              		.type	u8x8_d_ssd1306_128x64_noname_flip1_seq, %object
 1721              		.size	u8x8_d_ssd1306_128x64_noname_flip1_seq, 7
 1722              	u8x8_d_ssd1306_128x64_noname_flip1_seq:
 1723 0018 18       		.byte	24
 1724 0019 15       		.byte	21
 1725 001a A0       		.byte	-96
 1726 001b 15       		.byte	21
 1727 001c C0       		.byte	-64
 1728 001d 19       		.byte	25
 1729 001e FF       		.byte	-1
 1730 001f 00       		.space	1
 1731              		.type	u8x8_d_ssd1306_128x64_noname_init_seq, %object
 1732              		.size	u8x8_d_ssd1306_128x64_noname_init_seq, 53
 1733              	u8x8_d_ssd1306_128x64_noname_init_seq:
 1734 0020 18       		.byte	24
 1735 0021 15       		.byte	21
 1736 0022 AE       		.byte	-82
 1737 0023 15       		.byte	21
 1738 0024 D5       		.byte	-43
 1739 0025 16       		.byte	22
 1740 0026 80       		.byte	-128
 1741 0027 15       		.byte	21
 1742 0028 A8       		.byte	-88
 1743 0029 16       		.byte	22
 1744 002a 3F       		.byte	63
 1745 002b 15       		.byte	21
 1746 002c D3       		.byte	-45
 1747 002d 16       		.byte	22
ARM GAS  C:\Users\info\AppData\Local\Temp\ccq5o0H3.s 			page 44


 1748 002e 00       		.byte	0
 1749 002f 15       		.byte	21
 1750 0030 40       		.byte	64
 1751 0031 15       		.byte	21
 1752 0032 8D       		.byte	-115
 1753 0033 16       		.byte	22
 1754 0034 14       		.byte	20
 1755 0035 15       		.byte	21
 1756 0036 20       		.byte	32
 1757 0037 16       		.byte	22
 1758 0038 00       		.byte	0
 1759 0039 15       		.byte	21
 1760 003a A1       		.byte	-95
 1761 003b 15       		.byte	21
 1762 003c C8       		.byte	-56
 1763 003d 15       		.byte	21
 1764 003e DA       		.byte	-38
 1765 003f 16       		.byte	22
 1766 0040 12       		.byte	18
 1767 0041 15       		.byte	21
 1768 0042 81       		.byte	-127
 1769 0043 16       		.byte	22
 1770 0044 CF       		.byte	-49
 1771 0045 15       		.byte	21
 1772 0046 D9       		.byte	-39
 1773 0047 16       		.byte	22
 1774 0048 F1       		.byte	-15
 1775 0049 15       		.byte	21
 1776 004a DB       		.byte	-37
 1777 004b 16       		.byte	22
 1778 004c 40       		.byte	64
 1779 004d 15       		.byte	21
 1780 004e 2E       		.byte	46
 1781 004f 15       		.byte	21
 1782 0050 A4       		.byte	-92
 1783 0051 15       		.byte	21
 1784 0052 A6       		.byte	-90
 1785 0053 19       		.byte	25
 1786 0054 FF       		.byte	-1
 1787 0055 000000   		.space	3
 1788              		.type	u8x8_ssd1306_128x64_noname_display_info, %object
 1789              		.size	u8x8_ssd1306_128x64_noname_display_info, 24
 1790              	u8x8_ssd1306_128x64_noname_display_info:
 1791 0058 00       		.byte	0
 1792 0059 01       		.byte	1
 1793 005a 14       		.byte	20
 1794 005b 0A       		.byte	10
 1795 005c 64       		.byte	100
 1796 005d 64       		.byte	100
 1797 005e 32       		.byte	50
 1798 005f 32       		.byte	50
 1799 0060 00127A00 		.word	8000000
 1800 0064 00       		.byte	0
 1801 0065 04       		.byte	4
 1802 0066 28       		.byte	40
 1803 0067 96       		.byte	-106
 1804 0068 10       		.byte	16
ARM GAS  C:\Users\info\AppData\Local\Temp\ccq5o0H3.s 			page 45


 1805 0069 08       		.byte	8
 1806 006a 00       		.byte	0
 1807 006b 00       		.byte	0
 1808 006c 8000     		.short	128
 1809 006e 4000     		.short	64
 1810              		.type	u8x8_d_ssd1306_128x64_vcomh0_init_seq, %object
 1811              		.size	u8x8_d_ssd1306_128x64_vcomh0_init_seq, 53
 1812              	u8x8_d_ssd1306_128x64_vcomh0_init_seq:
 1813 0070 18       		.byte	24
 1814 0071 15       		.byte	21
 1815 0072 AE       		.byte	-82
 1816 0073 15       		.byte	21
 1817 0074 D5       		.byte	-43
 1818 0075 16       		.byte	22
 1819 0076 80       		.byte	-128
 1820 0077 15       		.byte	21
 1821 0078 A8       		.byte	-88
 1822 0079 16       		.byte	22
 1823 007a 3F       		.byte	63
 1824 007b 15       		.byte	21
 1825 007c D3       		.byte	-45
 1826 007d 16       		.byte	22
 1827 007e 00       		.byte	0
 1828 007f 15       		.byte	21
 1829 0080 40       		.byte	64
 1830 0081 15       		.byte	21
 1831 0082 8D       		.byte	-115
 1832 0083 16       		.byte	22
 1833 0084 14       		.byte	20
 1834 0085 15       		.byte	21
 1835 0086 20       		.byte	32
 1836 0087 16       		.byte	22
 1837 0088 00       		.byte	0
 1838 0089 15       		.byte	21
 1839 008a A1       		.byte	-95
 1840 008b 15       		.byte	21
 1841 008c C8       		.byte	-56
 1842 008d 15       		.byte	21
 1843 008e DA       		.byte	-38
 1844 008f 16       		.byte	22
 1845 0090 12       		.byte	18
 1846 0091 15       		.byte	21
 1847 0092 81       		.byte	-127
 1848 0093 16       		.byte	22
 1849 0094 EF       		.byte	-17
 1850 0095 15       		.byte	21
 1851 0096 D9       		.byte	-39
 1852 0097 16       		.byte	22
 1853 0098 A1       		.byte	-95
 1854 0099 15       		.byte	21
 1855 009a DB       		.byte	-37
 1856 009b 16       		.byte	22
 1857 009c 00       		.byte	0
 1858 009d 15       		.byte	21
 1859 009e 2E       		.byte	46
 1860 009f 15       		.byte	21
 1861 00a0 A4       		.byte	-92
ARM GAS  C:\Users\info\AppData\Local\Temp\ccq5o0H3.s 			page 46


 1862 00a1 15       		.byte	21
 1863 00a2 A6       		.byte	-90
 1864 00a3 19       		.byte	25
 1865 00a4 FF       		.byte	-1
 1866 00a5 000000   		.space	3
 1867              		.type	u8x8_d_ssd1306_128x64_alt0_init_seq, %object
 1868              		.size	u8x8_d_ssd1306_128x64_alt0_init_seq, 53
 1869              	u8x8_d_ssd1306_128x64_alt0_init_seq:
 1870 00a8 18       		.byte	24
 1871 00a9 15       		.byte	21
 1872 00aa AE       		.byte	-82
 1873 00ab 15       		.byte	21
 1874 00ac D5       		.byte	-43
 1875 00ad 16       		.byte	22
 1876 00ae 80       		.byte	-128
 1877 00af 15       		.byte	21
 1878 00b0 A8       		.byte	-88
 1879 00b1 16       		.byte	22
 1880 00b2 3F       		.byte	63
 1881 00b3 15       		.byte	21
 1882 00b4 D3       		.byte	-45
 1883 00b5 16       		.byte	22
 1884 00b6 00       		.byte	0
 1885 00b7 15       		.byte	21
 1886 00b8 40       		.byte	64
 1887 00b9 15       		.byte	21
 1888 00ba 8D       		.byte	-115
 1889 00bb 16       		.byte	22
 1890 00bc 14       		.byte	20
 1891 00bd 15       		.byte	21
 1892 00be 20       		.byte	32
 1893 00bf 16       		.byte	22
 1894 00c0 00       		.byte	0
 1895 00c1 15       		.byte	21
 1896 00c2 A1       		.byte	-95
 1897 00c3 15       		.byte	21
 1898 00c4 C8       		.byte	-56
 1899 00c5 15       		.byte	21
 1900 00c6 DA       		.byte	-38
 1901 00c7 16       		.byte	22
 1902 00c8 02       		.byte	2
 1903 00c9 15       		.byte	21
 1904 00ca 81       		.byte	-127
 1905 00cb 16       		.byte	22
 1906 00cc CF       		.byte	-49
 1907 00cd 15       		.byte	21
 1908 00ce D9       		.byte	-39
 1909 00cf 16       		.byte	22
 1910 00d0 F1       		.byte	-15
 1911 00d1 15       		.byte	21
 1912 00d2 DB       		.byte	-37
 1913 00d3 16       		.byte	22
 1914 00d4 40       		.byte	64
 1915 00d5 15       		.byte	21
 1916 00d6 2E       		.byte	46
 1917 00d7 15       		.byte	21
 1918 00d8 A4       		.byte	-92
ARM GAS  C:\Users\info\AppData\Local\Temp\ccq5o0H3.s 			page 47


 1919 00d9 15       		.byte	21
 1920 00da A6       		.byte	-90
 1921 00db 19       		.byte	25
 1922 00dc FF       		.byte	-1
 1923 00dd 000000   		.space	3
 1924              		.type	u8x8_sh1106_128x64_noname_display_info, %object
 1925              		.size	u8x8_sh1106_128x64_noname_display_info, 24
 1926              	u8x8_sh1106_128x64_noname_display_info:
 1927 00e0 00       		.byte	0
 1928 00e1 01       		.byte	1
 1929 00e2 14       		.byte	20
 1930 00e3 0A       		.byte	10
 1931 00e4 64       		.byte	100
 1932 00e5 64       		.byte	100
 1933 00e6 32       		.byte	50
 1934 00e7 32       		.byte	50
 1935 00e8 00093D00 		.word	4000000
 1936 00ec 03       		.byte	3
 1937 00ed 04       		.byte	4
 1938 00ee 28       		.byte	40
 1939 00ef 96       		.byte	-106
 1940 00f0 10       		.byte	16
 1941 00f1 08       		.byte	8
 1942 00f2 02       		.byte	2
 1943 00f3 02       		.byte	2
 1944 00f4 8000     		.short	128
 1945 00f6 4000     		.short	64
 1946              		.type	u8x8_d_sh1106_128x64_winstar_init_seq, %object
 1947              		.size	u8x8_d_sh1106_128x64_winstar_init_seq, 45
 1948              	u8x8_d_sh1106_128x64_winstar_init_seq:
 1949 00f8 18       		.byte	24
 1950 00f9 15       		.byte	21
 1951 00fa AE       		.byte	-82
 1952 00fb 15       		.byte	21
 1953 00fc A4       		.byte	-92
 1954 00fd 15       		.byte	21
 1955 00fe D5       		.byte	-43
 1956 00ff 16       		.byte	22
 1957 0100 50       		.byte	80
 1958 0101 15       		.byte	21
 1959 0102 A8       		.byte	-88
 1960 0103 16       		.byte	22
 1961 0104 3F       		.byte	63
 1962 0105 15       		.byte	21
 1963 0106 D3       		.byte	-45
 1964 0107 16       		.byte	22
 1965 0108 00       		.byte	0
 1966 0109 15       		.byte	21
 1967 010a 40       		.byte	64
 1968 010b 15       		.byte	21
 1969 010c AD       		.byte	-83
 1970 010d 16       		.byte	22
 1971 010e 8B       		.byte	-117
 1972 010f 15       		.byte	21
 1973 0110 D9       		.byte	-39
 1974 0111 16       		.byte	22
 1975 0112 22       		.byte	34
ARM GAS  C:\Users\info\AppData\Local\Temp\ccq5o0H3.s 			page 48


 1976 0113 15       		.byte	21
 1977 0114 DB       		.byte	-37
 1978 0115 16       		.byte	22
 1979 0116 35       		.byte	53
 1980 0117 15       		.byte	21
 1981 0118 32       		.byte	50
 1982 0119 15       		.byte	21
 1983 011a 81       		.byte	-127
 1984 011b 16       		.byte	22
 1985 011c FF       		.byte	-1
 1986 011d 15       		.byte	21
 1987 011e A6       		.byte	-90
 1988 011f 15       		.byte	21
 1989 0120 DA       		.byte	-38
 1990 0121 16       		.byte	22
 1991 0122 12       		.byte	18
 1992 0123 19       		.byte	25
 1993 0124 FF       		.byte	-1
 1994              		.text
 1995              	.Letext0:
 1996              		.file 2 "c:\\program files (x86)\\cypress\\psoc creator\\4.2\\psoc creator\\import\\gnu\\arm\\5.4.
 1997              		.file 3 "c:\\program files (x86)\\cypress\\psoc creator\\4.2\\psoc creator\\import\\gnu\\arm\\5.4.
 1998              		.file 4 "..\\u8g2-master\\csrc\\u8x8.h"