ARM GAS  C:\Users\info\AppData\Local\Temp\ccD9M76K.s 			page 1


   1              		.syntax unified
   2              		.cpu cortex-m3
   3              		.fpu softvfp
   4              		.eabi_attribute 20, 1
   5              		.eabi_attribute 21, 1
   6              		.eabi_attribute 23, 3
   7              		.eabi_attribute 24, 1
   8              		.eabi_attribute 25, 1
   9              		.eabi_attribute 26, 1
  10              		.eabi_attribute 30, 4
  11              		.eabi_attribute 34, 1
  12              		.eabi_attribute 18, 4
  13              		.thumb
  14              		.syntax unified
  15              		.file	"u8x8_string.c"
  16              		.text
  17              	.Ltext0:
  18              		.section	.gnu.lto_.profile.bf14dc81,"",%progbits
  19 0000 789C6361 		.ascii	"x\234ca`d`e`\000\222;\031\223\000\003\015\001("
  19      60646065 
  19      6000923B 
  19      19930003 
  19      0D0128
  20              		.text
  21              		.section	.gnu.lto_.icf.bf14dc81,"",%progbits
  22 0000 789C6361 		.ascii	"x\234ca`d\000\0015\006\004`c\370;\375\350g&\306\351"
  22      60640001 
  22      35060460 
  22      63F83BFD 
  22      E86726C6 
  23 0015 E73E3CE1 		.ascii	"\347><\341c\272\177r\303mV\346\337\013\236\237\343`"
  23      63BA7F72 
  23      C36D56E6 
  23      DF0B9E9F 
  23      E360
  24 0027 79B9F6E5 		.ascii	"y\271\366\345\017F\326\033/f\277bd\000\000\213\363\024"
  24      0F46D61B 
  24      2F66BF62 
  24      6400008B 
  24      F314
  25 0039 24       		.ascii	"$"
  26              		.text
  27              		.section	.gnu.lto_.jmpfuncs.bf14dc81,"",%progbits
  28 0000 789C8D50 		.ascii	"x\234\215P9\022\3020\014\324\31260\251\370\001\3613"
  28      3912C230 
  28      0CD4CA36 
  28      30A9F801 
  28      F133
  29 0012 53C91469 		.ascii	"S\311\024i)\231t\224\034\177\340\013\324\374\201\231"
  29      29997494 
  29      1C7FE00B 
  29      D4FC8199 
  30 0022 FC2033AC 		.ascii	"\374 3\254\355\220\002\032TH\232]i\327\262\027H\216"
  30      ED90021A 
  30      54489A5D 
  30      69D7B217 
  30      488E
ARM GAS  C:\Users\info\AppData\Local\Temp\ccD9M76K.s 			page 2


  31 0034 C8E2A4C6 		.ascii	"\310\342\244\306J\024pf`\230\326\336k\227)\355\220\007"
  31      4A147066 
  31      6098D6DE 
  31      6B9729ED 
  31      9007
  32 0046 1D993579 		.ascii	"\035\2315y\242(\250\262\370\220\027\260\363\346L7u\276"
  32      A228A8B2 
  32      F89017B0 
  32      F3E64C37 
  32      75BE
  33 0058 92CC9814 		.ascii	"\222\314\230\024\207\375\353\030\"Nih{z\021y\216\367"
  33      87FDEB18 
  33      224E6968 
  33      7B7A1179 
  33      8EF7
  34 006a 4763531A 		.ascii	"GcS\032R\332\366\024=#r\364\002\023\371\026\320\316"
  34      52DAF614 
  34      3D2372F4 
  34      0213F916 
  34      D0CE
  35 007c CB2FFA9F 		.ascii	"\313/\372\237\354\265\310\336\262l\276\003E\2159\314"
  35      ECB5C8DE 
  35      B26CBE03 
  35      458D39CC 
  36 008c 2FE699D0 		.ascii	"/\346\231\320f\271\360c0\377\207_\334\265\256\211\266"
  36      66B9F063 
  36      30FF875F 
  36      DCB5AE89 
  36      B6
  37 009d F2061531 		.ascii	"\362\006\0251/~"
  37      2F7E
  38              		.text
  39              		.section	.gnu.lto_.inline.bf14dc81,"",%progbits
  40 0000 789C6D90 		.ascii	"x\234m\220\277J\003A\020\306\277\231\335\273\335\300"
  40      BF4A0341 
  40      10C6BF99 
  40      DDBBDDC0 
  41 0010 FD110916 		.ascii	"\375\021\011\026\022H\032_\347\036\304k|\205\200\327"
  41      12481A5F 
  41      E71EC46B 
  41      7C8580D7 
  42 0020 5F212A56 		.ascii	"_!*V\207 &EH\235.\244\264\361\012\333{\003KA,\204\314"
  42      87202645 
  42      489D2EA4 
  42      B4F10ADB 
  42      7B034B41 
  43 0037 DC1E6A88 		.ascii	"\334\036j\210\263\305\300\354|\277\357c,\010ZW\241\365"
  43      B3C5C0EC 
  43      7CBFEF63 
  43      2C085A57 
  43      A1F5
  44 0049 1503C9A7 		.ascii	"\025\003\311\247\314\371\364\261\311\0207S\326)!\331"
  44      CCF9F4B1 
  44      C9103753 
  44      D62921D9 
  45 0059 820C6697 		.ascii	"\202\014f\227\337L\267\325\356\325}pe\230@\3174\001"
  45      DF4CB7D5 
ARM GAS  C:\Users\info\AppData\Local\Temp\ccD9M76K.s 			page 3


  45      EED57D70 
  45      659840CF 
  45      3401
  46 006b 66E5D005 		.ascii	"f\345\320\005d\025\2422\333LO\220=<9\257\004\306(\021"
  46      6415A232 
  46      DB4C4F90 
  46      3D3C39AF 
  46      04C62811 
  47 007f 8057C0FA 		.ascii	"\200W\300\372}\363\225*\300\010`\241B_\016]\000\346"
  47      7DF3952A 
  47      C00860A1 
  47      425F0E5D 
  47      00E6
  48 0091 00206553 		.ascii	"\000 eSxp]\324\205\301\370\3458\206\025\312r\210\261"
  48      78705DD4 
  48      85C1F8E5 
  48      388615CA 
  48      7288B1
  49 00a4 FC3FC6D9 		.ascii	"\374?\306\331\365*\304\370eY\\\314\015\261QK\352}\317"
  49      F52AC4F8 
  49      65595CCC 
  49      0DB1514B 
  49      EA7DCF
  50 00b7 6F5A1F34 		.ascii	"oZ\0374\334\346\211nG\031\301v\256.:\2078\027\265\012"
  50      DCE6896E 
  50      4719C176 
  50      AE2E3A87 
  50      3817B50A 
  51 00cb F5FDFD10 		.ascii	"\365\375\375\020d F\030\277\311I\330\337\337E?\227\213"
  51      64204618 
  51      BFC949D8 
  51      DFDF453F 
  51      978B
  52 00dd 7342D4B9 		.ascii	"sB\324\271\260+\256)\351r\347\214\030P]`\017\002\230"
  52      B02BAE29 
  52      E972E78C 
  52      18505D60 
  52      0F0298
  53 00f0 4215     		.ascii	"B\025"
  54              		.text
  55              		.section	.gnu.lto_.pureconst.bf14dc81,"",%progbits
  56 0000 789C6361 		.ascii	"x\234ca`d\340e```c0e4e\022a\226b\221`\225\000\000\007"
  56      6064E065 
  56      60606063 
  56      30653465 
  56      12619662 
  57 001a 7F00F0   		.ascii	"\177\000\360"
  58              		.text
  59              		.section	.gnu.lto_u8x8_GetStringLineStart.part.0.bf14dc81,"",%progbits
  60 0000 789C6D52 		.ascii	"x\234mR]HTQ\020>s\346\356\375Y\357\232PA?K\370\"\213"
  60      5D485451 
  60      103E73E6 
  60      EEFD59EF 
  60      9A50413F 
  61 0018 0412FD80 		.ascii	"\004\022\375\200OAo=\367\\\030\254\242\202\370\240\026"
  61      4F416F3D 
  61      F75C18AC 
ARM GAS  C:\Users\info\AppData\Local\Temp\ccD9M76K.s 			page 4


  61      A282F8A0 
  61      16
  62 0029 3E045EF7 		.ascii	">\004^\367\272\366\203\202Q\255\370\023\032Qj\226\353"
  62      BAF68382 
  62      51ADF813 
  62      1A516A96 
  62      EB
  63 003a 665B9841 		.ascii	"f[\230A\"\244&\246\025T\020=\224\302>T\210\273X\222"
  63      22A426A6 
  63      1554103D 
  63      94C23E54 
  63      88BB5892 
  64 004e 683673EE 		.ascii	"h6s\356\232=t\340\336\23193\337|sfF\023 \370\\C!\216"
  64      9A3D74E0 
  64      DE993933 
  64      DF7C7366 
  64      461320F8 
  65 0066 913C4F1F 		.ascii	"\221<O\037\370\005Xms\244X \225\224\240)\211\236<\241"
  65      F805586D 
  65      73A45820 
  65      9594A029 
  65      899E3CA1 
  66 007a 49730285 		.ascii	"Is\002\205\343\367\315\315\010\341\330>\251/\357&\023"
  66      E3F7CDCD 
  66      08E1D83E 
  66      A92FEF26 
  66      13
  67 008b 7B8BC9D2 		.ascii	"{\213\311\322\263N\303s\032\200\214i4M\000V\034\023"
  67      B34EC373 
  67      1A808C69 
  67      344D0056 
  67      1C13
  68 009d 44832551 		.ascii	"D\203%Q\363\351\206\011\015R\023\336\371!7$\274i\032"
  68      F3E98609 
  68      0D5213DE 
  68      F9213724 
  68      BC691A
  69 00b0 EEC61519 		.ascii	"\356\306\025\031E\001\032\231\351W\235\213\271l\002"
  69      45011A99 
  69      E9579D8B 
  69      B96C02
  70 00bf E493D9E5 		.ascii	"\344\223\331\345\274\275l\024\3669N\304\371\374b\241"
  70      BCBD6C14 
  70      F6394EC4 
  70      F9FC62A1 
  71 00cf E2AA1B3D 		.ascii	"\342\252\033=\031E)6\245\200~\010B\037\004\271\372\001"
  71      19452936 
  71      A5807E08 
  71      421F04B9 
  71      FA01
  72 00e1 28A4D8A1 		.ascii	"(\244\330\241\201\245\237\022\017\200 }j\276g\332\037"
  72      81A59F12 
  72      0F80207D 
  72      6ABE67DA 
  72      1F
  73 00f2 BAC33867 		.ascii	"\272\3038g\354\214\203QD\270\007\310\270#A8\024\024"
  73      EC8C8351 
ARM GAS  C:\Users\info\AppData\Local\Temp\ccD9M76K.s 			page 5


  73      44B807C8 
  73      B8234138 
  73      1414
  74 0104 74216010 		.ascii	"t!`\020B\024\373n\365C\334\306\220\302Ez[\276\351Y\\"
  74      4214FB6E 
  74      F543DCC6 
  74      90C2457A 
  74      5BBEE959 
  75 0119 FBA4EDB4 		.ascii	"\373\244\355\264\001\321\301}\017\271\305\310\025\300"
  75      01D1C17D 
  75      0FB9C5C8 
  75      15C0
  76 0127 03083120 		.ascii	"\003\0101 \326\357fv\340A\005~\276\024\033\015\024\334"
  76      D6EF6676 
  76      E041057E 
  76      BE141B0D 
  76      14DC
  77 0139 66F078D7 		.ascii	"f\360x\327d\240\335\031o\314g\342\241\177\211\371Pl"
  77      64A0DD19 
  77      6FCC67E2 
  77      A17F89F9 
  77      506C
  78 014b EB4AFFB4 		.ascii	"\353J\377\264\201G\025\356\356\330\3651#\213\353h\266"
  78      814715EE 
  78      EED8F531 
  78      238BEB68 
  78      B6
  79 015c B3380D86 		.ascii	"\2638\015\206\377\203[H\374\276\021\320\233\034:\371"
  79      FF835B48 
  79      FCBE11D0 
  79      9B1C3AF9 
  80 016c 90800288 		.ascii	"\220\200\002\210C\001\267\203\272\360\020t\232\254\344"
  80      4301B783 
  80      BAF01074 
  80      9AACE4
  81 017b 1BF6C44F 		.ascii	"\033\366\304O9\316\346\246\353\264-\006 \027T\301\224"
  81      39CEE6A6 
  81      EBB42D06 
  81      201754C1 
  81      94
  82 018c 8C1CA874 		.ascii	"\214\034\250tMp\240\017\270\011\272\322\015~\230\251"
  82      4D70A00F 
  82      B809BAD2 
  82      0D7E98A9 
  83 019c 9C16F0DF 		.ascii	"\234\026\360\337\257\256s\324\215\255t!\226\211\352"
  83      AFAE73D4 
  83      8DAD7421 
  83      9689EA
  84 01ab A946C222 		.ascii	"\251F\302\"\201i)Y\210\014\230.Z\026d\300O5&/\316&\374"
  84      81692959 
  84      880C982E 
  84      5A1664C0 
  84      4F35262F 
  85 01c2 3C431A22 		.ascii	"<C\032\"\214@\320\372\224\250\022i\211\342\375K\301"
  85      8C40D0FA 
  85      94A81269 
  85      89E2FD4B 
ARM GAS  C:\Users\info\AppData\Local\Temp\ccD9M76K.s 			page 6


  85      C1
  86 01d3 B1392EA2 		.ascii	"\2619.\242o}\344,\011\203L\333\245\315\000\027uc6y\201"
  86      6F7DE42C 
  86      09834CDB 
  86      A5CD0017 
  86      75633679 
  87 01e8 E234414B 		.ascii	"\3424AK\203\013\020\311S\234\344\025\236Ae\270\010\""
  87      830B10C9 
  87      539CE415 
  87      9E4165B8 
  87      0822
  88 01fa 0591B52B 		.ascii	"\005\221\265+\251\216\\~\260\213\274C\261\350\304\274"
  88      A98E5C7E 
  88      B08BBC43 
  88      B1E8C4BC 
  89 020a C18452F5 		.ascii	"\301\204R\365suj\346\222\335\0037\033\251IyQ\364\021"
  89      73756AE6 
  89      92DD0337 
  89      1BA94979 
  89      51F411
  90 021d 081EF1A6 		.ascii	"\010\036\361\246@\022z\200\222I\325\253\004\347\226"
  90      40127A80 
  90      9249D5AB 
  90      04E796
  91 022c E20B347D 		.ascii	"\342\0134}tW[\366l\247\213\177\037\375\025\340t\324"
  91      74575BF6 
  91      6CA78B7F 
  91      1FFD15E0 
  91      74D4
  92 023e 4F78AC56 		.ascii	"Ox\254V\214\312\244\012MI\277\034\244gj.\372\331\260"
  92      8CCAA40A 
  92      4D49BF1C 
  92      A4676A2E 
  92      FAD9B0
  93 0251 A99EB4F4 		.ascii	"\251\236\264\364\011Z|L\201\333\335\274\266\327\313"
  93      095A7C4C 
  93      81DBDDBC 
  93      B6D7CB
  94 0260 834C4A63 		.ascii	"\203LJc\333\"S\265\243Gv+\260\315\265\261\374z\303\366"
  94      DB2253B5 
  94      A347762B 
  94      B0CDB5B1 
  94      FC7AC3F6 
  95 0274 B8FCF0C4 		.ascii	"\270\374\360\304\343\242\214\272\310\354B\025<\330\272"
  95      E3A28CBA 
  95      C8EC4215 
  95      3CD8BA
  96 0283 CF8B264A 		.ascii	"\317\213&J_\326k\210\265\235L\027kNu\036\367\274\034"
  96      5FD66B88 
  96      B59D4C17 
  96      6B4E751E 
  96      F7BC1C
  97 0296 C0BDFE4B 		.ascii	"\300\275\376K\250:\247\253p\223g\364\225[\350R\303\371"
  97      A83AA7AB 
  97      709367F4 
  97      955BE852 
  97      C3F9
ARM GAS  C:\Users\info\AppData\Local\Temp\ccD9M76K.s 			page 7


  98 02a8 2D06F743 		.ascii	"-\006\367C[OVPM\372\263d)\315\023(\210f\273\277\250"
  98      5B4F5650 
  98      4DFAB364 
  98      29CD1328 
  98      8866BBBF 
  99 02bd E8F4B9E2 		.ascii	"\350\364\271\342\362\303%\341\332\2320i\365\305%\265"
  99      F2C325E1 
  99      DA9A3069 
  99      F5C525B5 
 100 02cd 753595D5 		.ascii	"u5\225\325\345EaaVUV\227\225T\226\326#]yF\270\272\016"
 100      E5456161 
 100      56555697 
 100      955496D6 
 100      235D7946 
 101 02e4 CAFE001D 		.ascii	"\312\376\000\035\035+@"
 101      1D2B40
 102              		.text
 103              		.section	.gnu.lto_u8x8_GetStringLineCnt.bf14dc81,"",%progbits
 104 0000 789C6D53 		.ascii	"x\234mSMKTQ\030>\3179\367k\356\334\311 Z5\204\004\""
 104      4D4B5451 
 104      183ECF39 
 104      F76BEEDC 
 104      C9205A35 
 105 0017 5248E8C6 		.ascii	"RH\350\306m\177\241u 1\210\0105\013\265h\347u\356\214"
 105      6D7FA175 
 105      20318808 
 105      350BB568 
 105      E775EE8C 
 106 002b 458DD0A2 		.ascii	"E\215\320\242\024\304P\210r\372\034'3\021\205\206\002"
 106      14C45088 
 106      72FA1C27 
 106      33118586 
 106      02
 107 003c 95CA3E16 		.ascii	"\225\312>\026\025\210\2134p\241%\316dJ\221\331\373\236"
 107      15888B34 
 107      70A125CE 
 107      644A91D9 
 107      FB9E
 108 004e ABD9A20B 		.ascii	"\253\331\242\013s\316y\277\236\367y\336s\306\020\020"
 108      73CE79BF 
 108      9EF779DE 
 108      73C61010 
 109 005e FC259510 		.ascii	"\374%\225\020\307x\247\037\"\002\362\352k!:\035)\255"
 109      C778A71F 
 109      2202F2EA 
 109      6B213A1D 
 109      29AD
 110 0070 0D5BF8AE 		.ascii	"\015[\370\256\3357%\204\357\331p\330\017\025\356'\034"
 110      DD372584 
 110      EFD970D8 
 110      0F15EE27 
 110      1C
 111 0081 69A5396C 		.ascii	"i\2459ld\2479lHs\355 \231j\260\201,\023*\004\261\000"
 111      64A7396C 
 111      4873ED20 
 111      996AB081 
 111      2C132A04 
ARM GAS  C:\Users\info\AppData\Local\Temp\ccD9M76K.s 			page 8


 112 0097 3EF80E44 		.ascii	">\370\016D\207\264\225c\230\026:\244#\302\357\273\334"
 112      87B49563 
 112      98163AA4 
 112      23C2EFBB 
 112      DC
 113 00a8 9278B939 		.ascii	"\222x\2719\223uk\206|?\345\177\312|\360zsEd\210\321"
 113      93756B86 
 113      7C3FE57F 
 113      CA7CF07A 
 113      73456488 
 114 00bd B614A88F 		.ascii	"\266\024\250\217\343x\234Y\015\241\2062\337\245\207"
 114      E3789C59 
 114      0DA18632 
 114      DFA587
 115 00cc FBD5BACC 		.ascii	"\373\325\272\314(\300 \2634\333\367y\037\233\022\225"
 115      28C020B3 
 115      34DBF779 
 115      1F9B1295 
 116 00dc 64BEDFFC 		.ascii	"d\276\337\374\230\367\324a\010:\247\006\263+V\365-\306"
 116      98F7D461 
 116      083AA706 
 116      B32B56F5 
 116      2DC6
 117 00ee F4C79AFC 		.ascii	"\364\307\232\374HF)\334\205b\314;\210#\207\270 \227"
 117      484629DC 
 117      8562CC3B 
 117      882387B8 
 117      2097
 118 0100 C03D5473 		.ascii	"\300=TszO.(W\250#\272\364\351j\317x\254\352&\227\026"
 118      7A4F2E28 
 118      57A823BA 
 118      F4E96ACF 
 118      78ACEA26 
 119 0116 C7CEF6FA 		.ascii	"\307\316\366\372\305\316J\242\203\373a\365.#\301\251"
 119      C5CE4AA2 
 119      83FB61F5 
 119      2E23C1A9 
 120 0126 DDEBB919 		.ascii	"\335\353\271\031[\035\325e\267'\256M\330;e\243\247w"
 120      5B1DD565 
 120      B727AE4D 
 120      D83B65A3 
 120      A777
 121 0138 CA0C3CFC 		.ascii	"\312\014<\374O\331b\341\367\365\230\225\366\351\253"
 121      4FD962E1 
 121      F7F59895 
 121      F6E9AB
 122 0147 441E5578 		.ascii	"D\036Ux\200*\226K:\207a\321\235\310]o\376d\321\337\336"
 122      802A964B 
 122      3A8761D1 
 122      9DC85D6F 
 122      FE64D1DF 
 123 015c 0EFCE288 		.ascii	"\016\374\342\210\271\240b\320|\011\215\"\212\370\013"
 123      B9A062D0 
 123      7C098D22 
 123      8AF80B
 124 016b 433B4CF0 		.ascii	"C;L\360ji\267#\2704\242\375\256^\243\332\357\351U\210"
 124      6A69B723 
ARM GAS  C:\Users\info\AppData\Local\Temp\ccD9M76K.s 			page 9


 124      B834A2FD 
 124      AE5EA3DA 
 124      EFE95588 
 125 017f 35EAB26C 		.ascii	"5\352\262l\213\222\224\264\251E\244H\242nJQb6z\361U"
 125      8B9294B4 
 125      A945A448 
 125      A26E4A51 
 125      62367AF1 
 126 0194 C1E5890A 		.ascii	"\301\345\211\012\000\005\032\322\002\322s\301\267:N"
 126      00051AD2 
 126      02D273C1 
 126      B73A4E
 127 01a3 0994C993 		.ascii	"\011\224\311\223\312<{cs\206\"6\217\020j*I[\244m\210"
 127      CA3C7B63 
 127      73862236 
 127      8F106A2A 
 127      495BA46D 
 128 01b8 320CCA92 		.ascii	"2\014\312\222(\023 U\313\311\025\213bJ\320\013Q\024"
 128      28132055 
 128      CBC9158B 
 128      624AD00B 
 128      5114
 129 01ca 74031531 		.ascii	"t\003\0251&\273\011)b\222\351\005J\032\010T\324\234"
 129      26BB0929 
 129      6292E905 
 129      4A1A0854 
 129      D49C
 130 01dc FFCA941C 		.ascii	"\377\312\224\034A/\005\304i\277&KQ\021\032\244\"\240"
 130      412F05C4 
 130      69BF264B 
 130      51111AA4 
 130      22A0
 131 01ee 764B48FD 		.ascii	"vKH\375\274<u>\344\342\020\227\315\351\027\227\274\001"
 131      BC3C753E 
 131      E4E21097 
 131      CDE91797 
 131      BC01
 132 0200 DCE8E449 		.ascii	"\334\350\344I\326\323@LJ\013Ia\004\003\340r\277B\313"
 132      D6D3404C 
 132      4A0B4961 
 132      0403E072 
 132      BF42CB
 133 0213 CB339E13 		.ascii	"\3133\236\023\312\031z\216=\214\374\227\361\0371\326"
 133      CA197A8E 
 133      3D8CFC97 
 133      F11F31D6 
 134 0223 4373C7E3 		.ascii	"Cs\307\343PO\031\304\312\260iq\025i\221\201\262\330"
 134      504F19C4 
 134      CAB06971 
 134      15699181 
 134      B2D8
 135 0235 F0884349 		.ascii	"\360\210CI\032Z\315\022\202\376\2569+\304\211p[\272"
 135      1A5ACD12 
 135      82FEAE39 
 135      2BC48970 
 135      5BBA
 136 0247 DE4548DD 		.ascii	"\336EH\335L\363\215\204\315\012j\257\327\326\332\333"
ARM GAS  C:\Users\info\AppData\Local\Temp\ccD9M76K.s 			page 10


 136      4CF38D84 
 136      CD0A6AAF 
 136      D7D6DADB 
 137 0257 2D2FECE5 		.ascii	"-/\354\345b\364\357\354L\261~\200\001{\272V7v\262\243"
 137      62F4EFEC 
 137      4CB17E80 
 137      017BBA56 
 137      3776B2A3 
 138 026b 245ECF7F 		.ascii	"$^\317\177\027R\317#\252\323-\276\271e\036L@/\230\331"
 138      1752CF23 
 138      AAD32DBE 
 138      B9651E4C 
 138      402F98D9 
 139 027f AA7FEF85 		.ascii	"\252\177\357\205\376\323xB\263\237\277b\023\210\363"
 139      FED37842 
 139      B39FBF62 
 139      1388F3
 140 028e 6BD6A24B 		.ascii	"k\326\242K\007\325\320\315\037\252\255=u\256\241\271"
 140      07D5D0CD 
 140      1FAAAD3D 
 140      75AEA1B9 
 141 029e AE31D1D6 		.ascii	"\2561\321\326\232\240\323\205\206\306\266\366\326\226"
 141      9AA0D385 
 141      86C6B6F6 
 141      D696
 142 02ac 64736D42 		.ascii	"dsmB(:9gZ\222M\215\211d;\232\376\000\354\327\032\307"
 142      283A3967 
 142      5A924D8D 
 142      89643B9A 
 142      FE00ECD7 
 143              		.text
 144              		.section	.gnu.lto_u8x8_GetStringLineStart.bf14dc81,"",%progbits
 145 0000 789C6D52 		.ascii	"x\234mR\315kSA\020\237\337\356\353{!$\232\273\241\344"
 145      CD6B5341 
 145      109FDFEE 
 145      EB7B2124 
 145      9ABBA1E4 
 146 0014 124211A2 		.ascii	"\022B\021\242h\205\376\011\236=Wr\210\245\006J\220\266"
 146      6885FE09 
 146      9E3D5772 
 146      88A5064A 
 146      90B6
 147 0026 426FD926 		.ascii	"Bo\331&y~@\204\012\332\240\025\024D\223\372\3214\326"
 147      797E4084 
 147      0ADAA015 
 147      144493FA 
 147      D134D6
 148 0039 1E6284C6 		.ascii	"\036b\204\306\203\265\007?P\024A=h\274\210\226\222\204"
 148      83B5073F 
 148      5014413D 
 148      68BC8896 
 148      9284
 149 004b AA78A871 		.ascii	"\252x\250q\346%\202\007\027\226\335\231\367\373\230"
 149      E6258207 
 149      1796DD99 
 149      F7FB98
 150 005a 997D1681 		.ascii	"\231}\026\201d\215*\242C|\016\363\306\000A\315='\232"
ARM GAS  C:\Users\info\AppData\Local\Temp\ccD9M76K.s 			page 11


 150      648D2AA2 
 150      437C0EF3 
 150      C60041CD 
 150      3D279A
 151 006d F529653D 		.ascii	"\365)e=\034$\343\327\257\367\221\011hX\222\206\005\310"
 151      1C24E3D7 
 151      AFF79109 
 151      68589286 
 151      05C8
 152 007f 697CA08C 		.ascii	"i|\240\214\322\0262*\363]\355(\274\314/_\321\333\312"
 152      D216322A 
 152      F35DED28 
 152      BCCC2F5F 
 152      D1DBCA
 153 0092 D50CE1B0 		.ascii	"\325\014\341\260\375\354\362\347]\022\002\021\016\027"
 153      FDECF2E7 
 153      5D120211 
 153      0E17
 154 00a0 CCABB3CE 		.ascii	"\314\253\263\316P\311\230\254\371\370\270y\374|\316"
 154      50C998AC 
 154      F9F8B879 
 154      FC7CCE
 155 00af 3DEC6A45 		.ascii	"=\354jE]E(#\214\022\302\342\275\210!\306.-n\375Pz\020"
 155      5D452823 
 155      8C12C2E2 
 155      BD8821C6 
 155      2E2D6EFD 
 156 00c6 C4F7272F 		.ascii	"\304\367'/\256n\370c7\204g\352G\215v\265\306-h\341\035"
 156      AE6EF863 
 156      378467EA 
 156      478D76B5 
 156      C62D68E1 
 157 00db 0C637F98 		.ascii	"\014c\177\2308A\270\215\030c\337\374|[\011\350\230\307"
 157      3841B88D 
 157      1863DFFC 
 157      7C5B09E8 
 157      98C7
 158 00ed CB5E2B7C 		.ascii	"\313^+|\263\373\274\342z\300\314\201\355p\247\307\374"
 158      B3FBBCE2 
 158      7AC0CC81 
 158      ED70A7C7 
 158      FC
 159 00fe EB2815E0 		.ascii	"\353(\025\340.bB\230/\347:\273\365^\217\274\2665_\013"
 159      2E624298 
 159      2FE73ABB 
 159      F55E8FBC 
 159      B6355F0B 
 160 0112 46AF0BB9 		.ascii	"F\257\013\271\261\260\036,\232\306lD\214\227\3765\226"
 160      B1B01E2C 
 160      9AC66C44 
 160      8C97FE35 
 160      96
 161 0123 C5D873DB 		.ascii	"\305\330s\333\345\015G\017{\274\233\365\013u\247\317"
 161      E50D470F 
 161      7BBC9BF5 
 161      0B75A7CF 
 162 0133 BB742AD0 		.ascii	"\273t*\320\347YX\376\017\257Y\375}1h\347\015\257\010"
ARM GAS  C:\Users\info\AppData\Local\Temp\ccD9M76K.s 			page 12


 162      E75958FE 
 162      0FAF59FD 
 162      7D3168E7 
 162      0DAF08
 163 0146 AA88A282 		.ascii	"\252\210\242\202\250\214\203\247p\0176\277\013$S9\322"
 163      A88C83A7 
 163      700F36BF 
 163      0B245339 
 163      D2
 164 0157 30DD6ECE 		.ascii	"0\335n\3164\212\366\243\226\315#\347\222Y\211\277\360"
 164      348AF6A3 
 164      96CD23E7 
 164      925989BF 
 164      F0
 165 0168 5CB96B7E 		.ascii	"\\\271k~\014\256\337\366\272p\274~\250\305\273\344P"
 165      0CAEDFF6 
 165      BA70BC7E 
 165      A8C5BBE4 
 165      50
 166 0179 9B712547 		.ascii	"\233q%G7\221\225\026<Mf\261\361\352\351\247U\277<\014"
 166      37919516 
 166      3C4D66B1 
 166      F1EAE9A7 
 166      55BF3C0C 
 167 018d 2B6085A7 		.ascii	"+`\205\247\360\011\371w\271\265\202-\230\234\326\014"
 167      F009F977 
 167      B9B5822D 
 167      989CD60C 
 168 019d A96CD67E 		.ascii	"\251l\326~\005\0052\000\302}\364jn+M\017,\375\005n\250"
 168      05053200 
 168      C27DF46A 
 168      6E2B4D0F 
 168      2CFD056E 
 169 01b2 87741859 		.ascii	"\207t\030Y\253m\276w2;\346\2141!W\333]%\205\257\"C,"
 169      AB6DBE77 
 169      323BE68C 
 169      312157DB 
 169      5D2585AF 
 170 01c9 94D396AB 		.ascii	"\224\323\226\253\035\242\216\200-\205\016\224\370\251"
 170      1DA28E80 
 170      2D850E94 
 170      F8A9
 171 01d7 0FD50916 		.ascii	"\017\325\011\026\263\244\272\257\310\206\030*\177a\007"
 171      B3A4BAAF 
 171      C886182A 
 171      7F6107
 172 01e6 105461E5 		.ascii	"\020Ta\345\004+s\246\305R%\207{\331\023\217\217\236"
 172      042B73A6 
 172      C5522587 
 172      7BD9138F 
 172      8F9E
 173 01f8 1C193F90 		.ascii	"\034\031?\220HNM&\37163\222\230\232\236L\245\307\343"
 173      484E4D26 
 173      F9363392 
 173      989A9E4C 
 173      A5C7E3
 174 020b 49F24DA4 		.ascii	"I\362M\244\322c\211\324\261\031\315\251^\220LOc\354"
ARM GAS  C:\Users\info\AppData\Local\Temp\ccD9M76K.s 			page 13


 174      D26389D4 
 174      B119CDA9 
 174      5E904C4F 
 174      63EC
 175 021d 0F590FD1 		.ascii	"\017Y\017\321\337"
 175      DF
 176              		.text
 177              		.section	.gnu.lto_u8x8_CopyStringLine.bf14dc81,"",%progbits
 178 0000 789C6D52 		.ascii	"x\234mR\313K\224Q\024?\347\236\3575\23736\322\262!\204"
 178      CB4B9451 
 178      143FE79E 
 178      EF359F33 
 178      36D2B221 
 179 0015 16128449 		.ascii	"\026\022\204IE\330\242\177\242u\341B\245\214h\221\005"
 179      45D8A27F 
 179      A275E142 
 179      A58C6891 
 179      05
 180 0026 EDE6369F 		.ascii	"\355\3466\237S\366\022%\014\212\261q#eZj\331c\260\300"
 180      53F61225 
 180      0C8AB171 
 180      23655A6A 
 180      D963B0C0 
 181 003a 066A22C8 		.ascii	"\006j\"\310r\321\203jQ\006\022%63\214J\3024\235{\257"
 181      72D1836A 
 181      51061225 
 181      36338C4A 
 181      C2349D7B 
 182 004f A94417E6 		.ascii	"\251D\027\346\233{\316\375\235\363\373\235\207\005\010"
 182      9B7BCEFD 
 182      9DF3FB9D 
 182      870508
 183 005e EA2C10C0 		.ascii	"\352,\020\300v\376\217\363\017}@\321=\005p\312\023\""
 183      76FE8FF3 
 183      0F7D40D1 
 183      3D0570CA 
 183      1322
 184 0070 548A82F4 		.ascii	"T\212\202\364)\265\027d\230\2045\236\0056\275OUlZh+"
 184      29B51764 
 184      9884359E 
 184      0536BD4F 
 184      556C5A68 
 185 0085 14DAC2CB 		.ascii	"\024\332\302\313\022{\235\251\027\374\030vVL\327\230"
 185      127B9DA9 
 185      17FC1876 
 185      564CD798 
 186 0095 AE413DF1 		.ascii	"\256A=\361<\014\231\244!Du\221\036B\\\220e;.\273\342"
 186      3C0C99A4 
 186      21447591 
 186      1E425C90 
 186      653B2EBB 
 187 00aa C2067316 		.ascii	"\302\006s\026DY`\366\314lFl\275.\371|\036\370\331 o"
 187      445960F6 
 187      CC6C466C 
 187      BD2EF97C 
 187      1EF8D920 
 188 00bf 4C629225 		.ascii	"Lb\222%V\204\301\340u\334\312\250\351\216\321\024\225"
ARM GAS  C:\Users\info\AppData\Local\Temp\ccD9M76K.s 			page 14


 188      5684C1E0 
 188      75DCCAA8 
 188      E98ED114 
 188      95
 189 00d0 4492102D 		.ascii	"D\222\020-6\013/\257~\255V\246\300Z6\227\257==\353\320"
 189      360B2FAF 
 189      7EAD56A6 
 189      C05A3697 
 189      AF3D3DEB 
 190 00e5 6604BEA7 		.ascii	"f\004\276\247K\275\357\335\272\001)\023R\366\264\312"
 190      4BBDEFDD 
 190      BA012913 
 190      52F6B4CA 
 191 00f5 5092086F 		.ascii	"P\222\010o\"q>\034\304\030\336\300\030\260\013p\010"
 191      22713E1C 
 191      C418DEC0 
 191      18B00B70 
 191      08
 192 0106 EB187D7B 		.ascii	"\353\030}{p~Q\320\026\035\231{\225~\356\257D>> )I\026"
 192      707E51D0 
 192      161D997B 
 192      957EEEAF 
 192      443E3E20 
 193 011d 0E9BC89D 		.ascii	"\016\233\310\2351lPq\026\340-\035\367f\351\335H\230"
 193      316C5071 
 193      16E02D1D 
 193      F766E9DD 
 193      4898
 194 012f B6E9B844 		.ascii	"\266\351\270D\377\205\037\316J\334\225ga\331\315\005"
 194      FF851FCE 
 194      4ADC9567 
 194      61D9CD05 
 195 013f D878FB5F 		.ascii	"\330x\373_N\033p\004\353T\300\314\330\357\336\210\323"
 195      4E1B7004 
 195      EB54C0CC 
 195      D8EFDE88 
 195      D3
 196 0150 A14AAE35 		.ascii	"\241J\2565\205\342(:j<#\373&e\245\022\310\311\262\363"
 196      85E2283A 
 196      6A3C23FB 
 196      2665A512 
 196      C8C9B2F3 
 197 0164 E491BB11 		.ascii	"\344\221\273\021\265L\241\277\244\303]Tw\356+\313\360"
 197      B54CA1BF 
 197      A4C35D54 
 197      77EE2BCB 
 197      F0
 198 0175 5179AAB4 		.ascii	"Qy\252\264?\314\004ND\003\253\265#\252\3575\206\023"
 198      3FCC044E 
 198      4403ABB5 
 198      23AAEF35 
 198      8613
 199 0187 F24C32E8 		.ascii	"\362L2\350CA\010\376\243/\330\361!\250\\t\024k@.+\272"
 199      434108FE 
 199      A32FD8F1 
 199      21A85C74 
 199      146B402E 
ARM GAS  C:\Users\info\AppData\Local\Temp\ccD9M76K.s 			page 15


 200 019d 9CCCBE72 		.ascii	"\234\314\276rU?\211)\307X\256:\005Ap\336\243o\230\234"
 200      553F8929 
 200      C758AE3A 
 200      054170DE 
 200      A36F989C 
 201 01b1 BC942303 		.ascii	"\274\224#\003\256bp&3\367\321\215\227e\247\224\321$"
 201      AE627026 
 201      33F7D18D 
 201      9765A794 
 201      D124
 202 01c3 B915C1CA 		.ascii	"\271\025\301\312\361\016\306!\240P@~\222<\230A\241K"
 202      F10EC621 
 202      A050407E 
 202      923C9841 
 202      A14B
 203 01d5 62728E01 		.ascii	"br\216\001&\374\030\014u9k9V\011m&\274\273JhA\336!("
 203      26FC180C 
 203      75396B39 
 203      56096D26 
 203      BCBB4A68 
 204 01ed 62846511 		.ascii	"b\204e\021\026\261\232\321\224\312\304\370\311\006^"
 204      16B19AD1 
 204      94CAC4F8 
 204      C9065E
 205 01fc 259CC144 		.ascii	"%\234\301D\024LZ\002c\014)\003a\026\023\313\347\026"
 205      144C5A02 
 205      630C2903 
 205      611613CB 
 205      E716
 206 020e 53FB0C47 		.ascii	"S\373\014G\2309\226r/:\303i\354\343q\260.248\216i\004"
 206      98399672 
 206      2F3AC369 
 206      ECE371B0 
 206      2E323438 
 207 0225 DD81C36B 		.ascii	"\335\201\303k\320r\376u9\254\344\370\350\343=#\247\210"
 207      D072FE75 
 207      39ACE4F8 
 207      E8E33D23 
 207      A788
 208 0237 1850C4E2 		.ascii	"\030P\304\342O\324MM\034)\"\005T\255\314\032wx\342\020"
 208      4FD44D4D 
 208      1C292205 
 208      54ADCC1A 
 208      7778E210 
 209 024b 2B7280F7 		.ascii	"+r\200\367\3364s\242k\317Z\262\221\271\314\257\210I"
 209      DE3473A2 
 209      6BCF5AB2 
 209      91B9CCAF 
 209      8849
 210 025d 06787FB5 		.ascii	"\006x\177\2656\027\372s@,\363\362\330\334\264n\347:"
 210      3617FA73 
 210      402CF3F2 
 210      D8DCB46E 
 210      E73A
 211 026f 8DA7D432 		.ascii	"\215\247\3242l\340\031r)f\000\370\200\205rB.,H\235\236"
 211      6CE01972 
 211      296600F8 
ARM GAS  C:\Users\info\AppData\Local\Temp\ccD9M76K.s 			page 16


 211      80857242 
 211      2E2C489D 
 212 0284 EADB6D08 		.ascii	"\352\333m\010\242\012\300\273\370\267\303\272\372\250"
 212      A20AC0BB 
 212      F8B7C3BA 
 212      FAA8
 213 0292 01BDEDDB 		.ascii	"\001\275\355\333e@5\252\334u \335\257\032\255\302S#"
 213      654035AA 
 213      DC7520DD 
 213      AF1AADC2 
 213      5323
 214 02a4 5DD738A1 		.ascii	"]\3278\241\032W\312\317\367\374W\221\253\025\211\025"
 214      1A57CACF 
 214      F7FC5791 
 214      AB158915 
 215 02b4 450F59D1 		.ascii	"E\017Y\321\372\331\361\312bF\275\024Q\350\201\2616["
 215      FAD9F1CA 
 215      6246BD14 
 215      51E881B1 
 215      365B
 216 02c6 7DF8A120 		.ascii	"}\370\241 Bj\325\276+&}\362\274&\203>\357\341\246\372"
 216      426AD5BE 
 216      2B267DF2 
 216      BC26833E 
 216      EFE1A6FA 
 217 02da FAFD271A 		.ascii	"\372\375'\032\017\356hjn?\326\314\267\223\215M\355\307"
 217      0FEE686A 
 217      6E3FD6CC 
 217      B7938D4D 
 217      EDC7
 218 02ec 8FB51D3D 		.ascii	"\217\265\035=X\337\014VKk\373q\357H\333\321\326\246"
 218      58DF0C56 
 218      4B6BFB71 
 218      EF48DBD1 
 218      D6A6
 219 02fe B69693C4 		.ascii	"\266\226\223\304\376?\017\241M\300"
 219      FE3F0FA1 
 219      4DC0
 220              		.text
 221              		.section	.gnu.lto_u8x8_DrawUTF8Line.bf14dc81,"",%progbits
 222 0000 789C8D54 		.ascii	"x\234\215T_L\034E\034\236\337\314\336\356\336r\177\010"
 222      5F4C1C45 
 222      1C9EDFCC 
 222      DEEEDE72 
 222      7F08
 223 0012 0172E8C5 		.ascii	"\001r\350\305\320\030r\022\023R\2651<\372\350\263\317"
 223      D0187212 
 223      1352B531 
 223      3CFAE8B3 
 223      CF
 224 0023 357DA0A6 		.ascii	"5}\240\24611>\024M\361\351\026\356\216C$\006\265^\221"
 224      31313E14 
 224      4DF1E916 
 224      EE8E4324 
 224      06B55E91 
 225 0037 6A68420C 		.ascii	"jhB\014BQ\016\365\244\320\303\036h\217\006(\025\251"
 225      42510EF5 
ARM GAS  C:\Users\info\AppData\Local\Temp\ccD9M76K.s 			page 17


 225      A4D0C31E 
 225      688F0628 
 225      15A9
 226 0049 FF801A4B 		.ascii	"\377\200\032KmC\2646\\\225\324\252\347\371\373\315\354"
 226      6D43B436 
 226      5C95D4AA 
 226      E7F9FBCD 
 226      EC
 227 005a E9716074 		.ascii	"\351q`t\223\335\235\231\375\276o\276\33773\2531`tm\350"
 227      93DD9D99 
 227      FDBE6FBE 
 227      DF3733AB 
 227      3160746D 
 228 006f 8C35E33B 		.ascii	"\2145\343;\2017T0\340\275K\214\265\233\234\213\256\020"
 228      81375430 
 228      E0BD4B8C 
 228      B59B9C8B 
 228      AE10
 229 0081 B32D8D9E 		.ascii	"\263-\215\236\036\001\232\032\326@W\015\227j\314\230"
 229      1E019A1A 
 229      D640570D 
 229      976ACC98 
 230 0091 3A77F5CC 		.ascii	":w\365\3141D\032Q\003\221\006\270\025\300T\215\031\323"
 230      31441A51 
 230      039106B8 
 230      15C0548D 
 230      19D3
 231 00a3 CD4D05B0 		.ascii	"\315M\005\260$\300\002\240q\333\004\026\346Bs\351\206"
 231      24C002A0 
 231      71DB0416 
 231      E64273E9 
 231      86
 232 00b4 E9B6202C 		.ascii	"\351\266 ,t\006\031\015\012\312\224\273\264\263\315"
 232      7406190D 
 232      0ACA94BB 
 232      B4B3CD
 233 00c3 F31C16EE 		.ascii	"\363\034\026\356\\\350\261\032\207l\273\303\376\356"
 233      5CE8B11A 
 233      876CBBC3 
 233      FEEE
 234 00d1 FAEF8FE7 		.ascii	"\372\357\217\347:b\201\230`\254\300\031<\022\204\375"
 234      3A628198 
 234      60ACC019 
 234      3C1284FD 
 235 00e1 41723F04 		.ascii	"Ar?\004\215\210\\\216&\337\024\277\360\230\000\320\260"
 235      8D885C8E 
 235      26DF14BF 
 235      F09800D0 
 235      B0
 236 00f2 9BBBD87F 		.ascii	"\233\273\330\177\315G]\016\365\330=uyp]\027\367\001"
 236      CD475D0E 
 236      F5D83D75 
 236      79705D17 
 236      F701
 237 0104 C37662FE 		.ascii	"\303vb\376\362-o\350m\322\264O<e\273cB\300\010\010\322"
 237      F22D6FE8 
 237      6DD2B44F 
ARM GAS  C:\Users\info\AppData\Local\Temp\ccD9M76K.s 			page 18


 237      3C65BB63 
 237      42C00808 
 238 0119 1C8620BC 		.ascii	"\034\206 \274\003A\206C\014NC\010\321\375S\361\016K"
 238      03418643 
 238      0C4E4308 
 238      D1FD53F1 
 238      0E4B
 239 012b DC2F99C7 		.ascii	"\334/\231\307O\377z\322t\230+O\332\002\255\300\250b"
 239      4FFF7AD2 
 239      74982B4F 
 239      DA02ADC0 
 239      A862
 240 013d 2A37E40D 		.ascii	"*7\344\015\336\225\274t\367\302\037\246h\220\274\027"
 240      DE95BC74 
 240      F7C21FA6 
 240      6890BC17 
 241 014d 57B35BBA 		.ascii	"W\263[\272\303\273\353\360\336\333\305\033\223\274o"
 241      C3BBEBF0 
 241      DEDBC51B 
 241      93BC6F
 242 015c 3E4BBEE4 		.ascii	">K\276\344\023!\311;\323\373F\177\321\351@\266\302\336"
 242      1321C93B 
 242      D3FB467F 
 242      D1E940B6 
 242      C2DE
 243 016e 4FC4E42E 		.ascii	"O\304\344.\342\270$\316fO\216\031\242Q\022\247V\277"
 243      E2B824CE 
 243      664F8E19 
 243      A25112A7 
 243      56BF
 244 0180 1F763BC4 		.ascii	"\037v;\304+Y\217\335\0131\241\301\373\345Ej\014>\200"
 244      2B598FDD 
 244      0B31A1C1 
 244      FBE5456A 
 244      0C3E80
 245 0193 1011AE0F 		.ascii	"\020\021\256\017n\327\212\007%7\031\277\360\252\257"
 245      6ED78A07 
 245      253719BF 
 245      F0AAAF
 246 01a2 6190B899 		.ascii	"a\220\270\231\3559\377\011;\323^O\363~X:/]\210mO-\374"
 246      ED39FF09 
 246      3BD35E4F 
 246      F37E583A 
 246      2F5D886D 
 247 01b9 244493E4 		.ascii	"$D\223\344\365_\232\356\362+\236=q\320\216<F\244\217"
 247      F55F9AEE 
 247      F22B9E3D 
 247      71D08E3C 
 247      46A48F
 248 01cc F620F55C 		.ascii	"\366 \365\\=5\344\026\017I\322Z~t\021\234\311~\216\377"
 248      3D35E416 
 248      0F49D25A 
 248      7E74119C 
 248      C97E8EFF 
 249 01e0 33D9993D 		.ascii	"3\331\231=x\233_\015O\272\304\001\311\273\262>\220\266"
 249      789B5F0D 
 249      4FBAC401 
ARM GAS  C:\Users\info\AppData\Local\Temp\ccD9M76K.s 			page 19


 249      C9BBB23E 
 249      90B6
 250 01f2 CA279BDA 		.ascii	"\312'\233\332\203\2641\376\347\353^=j\343U\017g\241"
 250      83B431FE 
 250      E7EB5E3D 
 250      6AE3550F 
 250      67A1
 251 0204 0126F19E 		.ascii	"\001&\361\236\300;\005\015\264\2150\2764\350\270\343"
 251      C03B050D 
 251      B48D30BE 
 251      34E8B8E3 
 252 0214 B4F2AF63 		.ascii	"\264\362\257cOd\354B!bgr\306\314\272u\0170\002p\271"
 252      4F64EC42 
 252      21626772 
 252      C6CCBA75 
 252      0F300270 
 253 0229 BC381782 		.ascii	"\2748\027\202\014\240-b\002eh1\242V\000\255\205G\"\275"
 253      0CA02D62 
 253      02656831 
 253      A25600AD 
 253      854722BD 
 254 023d F2E903C2 		.ascii	"\362\351\003\302\373\031\011V\002-q\225T\250\306\364"
 254      FB190956 
 254      022D7195 
 254      54A8C6F4 
 255 024d 5D3552A6 		.ascii	"]5R\246V~\014\310v\235|2\266\205\306\360\330\3448\307"
 255      567E0CC8 
 255      769D7C32 
 255      B685C6F0 
 255      D8E438C7 
 256 0261 97D8808E 		.ascii	"\227\330\200\216\314\3359.\215\242&m\341\330\354%\203"
 256      CCDD392E 
 256      8DA2266D 
 256      E1D8EC25 
 256      83
 257 0272 76379E66 		.ascii	"v7\236f\230\306\265\334\204X&\037\027\004\211\010\013"
 257      98C6B5DC 
 257      8458261F 
 257      17048908 
 257      0B
 258 0283 11939337 		.ascii	"\021\223\2237\327\214p\336\356\262\355\312\230\320\013"
 258      D78C70DE 
 258      EEB2EDCA 
 258      98D00B
 259 0292 1C4B848F 		.ascii	"\034K\204\217!\314\"\302\210\0103&\014\266\001J\022"
 259      21CC22C2 
 259      88083326 
 259      0CB6014A 
 259      12
 260 02a3 8D23875D 		.ascii	"\215#\207]\205\350R$\357w$\"\242BF\230\343\202\315\012"
 260      85E85224 
 260      EF772422 
 260      A2424698 
 260      E382CD0A 
 261 02b7 69E1B579 		.ascii	"i\341\265yQ\264@_o@\244\257\363\363\007\024\336\203"
 261      51B4405F 
 261      6F40A4AF 
ARM GAS  C:\Users\info\AppData\Local\Temp\ccD9M76K.s 			page 20


 261      F3F30714 
 261      DE83
 262 02c9 232452D4 		.ascii	"#$R\324\224\030\017a\222\235\253\016\306\213#\350\354"
 262      94180F61 
 262      929DAB0E 
 262      C68B23E8 
 262      EC
 263 02da 7CE14EC6 		.ascii	"|\341N\306O\336]\210=\207\336wp\274rN\315)\273\222\251"
 263      4FDE5D88 
 263      3D87DE77 
 263      70BC724E 
 263      CD29BB92 
 264 02ef 516064E0 		.ascii	"Q`d\340\255ne`\202\206|$\236\350\374\315\021\367#\210"
 264      AD6E6560 
 264      82867C24 
 264      9EE8FCCD 
 264      11F72388 
 265 0303 068B6229 		.ascii	"\006\213b)\302\370\031\273\015@\001\361\305s\325(.\322"
 265      C2F819BB 
 265      0D4001F1 
 265      C573D528 
 265      2ED2
 266 0315 CB419477 		.ascii	"\313A\224w1\3745\211M\210gR\363\022\316v%f\0260{\374"
 266      31FC3589 
 266      4D886752 
 266      F312CE76 
 266      25661630 
 267 032b 1D1513E3 		.ascii	"\035\025\023\343\021Q\211\240\227\333\177L\270\366="
 267      115189A0 
 267      97DB7F4C 
 267      B8F63D
 268 033a 3A60F7E1 		.ascii	":`\367\3416u\023\355\353[\323K\026\322\372p\207\275"
 268      367513ED 
 268      EB5BD34B 
 268      16D2FA70 
 268      87BD
 269 034c 82C7CC82 		.ascii	"\202\307\314\202\031\330'5a\026\3021\025T\242\363\333"
 269      19D82735 
 269      6116C231 
 269      1554A2F3 
 269      DB
 270 035d 619F325A 		.ascii	"a\2372Z\205ZHK\305\027\307-\265\202\000\237\224\244"
 270      855A484B 
 270      C517C72D 
 270      B582009F 
 270      94A4
 271 036f 208BAB92 		.ascii	" \213\253\222)\350\014\177\231N\014r\230\253E\272v<"
 271      29E80C7F 
 271      994E0C72 
 271      98AB45BA 
 271      763C
 272 0381 A0B4B82C 		.ascii	"\240\264\270,\221\212\304\226O\273\271\034@\252+\275"
 272      918AC496 
 272      4FBBB91C 
 272      40AA2BBD 
 273 0391 42351A14 		.ascii	"B5\032\024!\225xv\336\243\320\325\377V\344\247\245E"
 273      21957876 
ARM GAS  C:\Users\info\AppData\Local\Temp\ccD9M76K.s 			page 21


 273      DEA3D0D5 
 273      FF56E4A7 
 273      A545
 274 03a3 CACDE198 		.ascii	"\312\315\341\230>\240\2105\362K\365N\2135\012r\273Q"
 274      3EA08835 
 274      F24BF54E 
 274      8B350A72 
 274      BB51
 275 03b5 616AE506 		.ascii	"aj\345\006(\313\277V\226a\376\235\366\312\177\244}\276"
 275      28CBBF56 
 275      9661FE9D 
 275      F6CA7FA4 
 275      7DBE
 276 03c7 6844FCFF 		.ascii	"hD\374\377\264\263\305\264\347J\322\376r\304I\033\003"
 276      B4B3C5B4 
 276      E74AD2FE 
 276      72C4491B 
 276      03
 277 03d8 11BBE30D 		.ascii	"\021\273\343\015H_\356\362x\205\212\267P\214W\250\012"
 277      485FEEF2 
 277      78858AB7 
 277      508C57A8 
 277      0A
 278 03e9 305E6CD5 		.ascii	"0^l\325\030\353+\250\0260G\277\240x-\212W\036\201\033"
 278      18EB2BA8 
 278      163047BF 
 278      A0782D8A 
 278      571E811B 
 279 03fd 234EBE75 		.ascii	"#N\276u\222\341\3339U\035\373\001w\356Z\267\327\301"
 279      92E1DB39 
 279      551DFB01 
 279      77EE5AB7 
 279      D7C1
 280 040f 90DE161E 		.ascii	"\220\336\026\036\306\250\201\005\337\333\324t\360\371"
 280      C6A88105 
 280      DFDBD474 
 280      F0F9
 281 041d E6230F1F 		.ascii	"\346#\017\037ji=\332\202\255\266\346C\255\317\035}\372"
 281      6A693DDA 
 281      82ADB6E6 
 281      43ADCF1D 
 281      7DFA
 282 042f D9234D2D 		.ascii	"\331#M-L\243.\264\301\013p\014Z\371\3416\336\322\306"
 282      4CA32EB4 
 282      C10B700C 
 282      5AF9E136 
 282      DED2C6
 283 0442 9F390687 		.ascii	"\2379\006\207y=\373\013\315\0142\036"
 283      793DFB0B 
 283      CD0C321E 
 284              		.text
 285              		.section	.gnu.lto_u8x8_DrawUTF8Lines.bf14dc81,"",%progbits
 286 0000 789C6D93 		.ascii	"x\234m\223\337K\223Q\030\307\317s\236w\333\273\315-"
 286      DF4B9351 
 286      18C7CF73 
 286      9E77DBBB 
 286      CD2D
ARM GAS  C:\Users\info\AppData\Local\Temp\ccD9M76K.s 			page 22


 287 0012 A11BA111 		.ascii	"\241\033\241\021B\214!\201I\335\370/\004]u]x1\302\274"
 287      428C2181 
 287      49DDF82F 
 287      045D755D 
 287      7831C2BC 
 288 0026 F1428DEC 		.ascii	"\361B\215\354j\307\275{\263\322\013\013\177\344,\012"
 288      6AC7BD7B 
 288      B3D20B0B 
 288      7FE42C0A 
 289 0036 4CCC5F6D 		.ascii	"L\314_mK\315\037Y\274\032\254hf\005v\241\005\225\225"
 289      4BCD1F59 
 289      BC1AAC68 
 289      660576A1 
 289      059595
 290 0049 89443829 		.ascii	"\211D8)\012R\327s\316;\241Z\007\266\367\234\363>\237"
 290      0A52D773 
 290      CE3BA15A 
 290      07B6F79C 
 290      F33E9F
 291 005c E7F93E3F 		.ascii	"\347\371>?^\215\001\223k\257\306X\005=\217\321\017\234"
 291      5E8D0193 
 291      6BAFC658 
 291      053D8FD1 
 291      0F9C
 292 006e 0C78DB02 		.ascii	"\014x\333\002cM:\007\315\336\240\275\231\3255\216\255"
 292      634D3A07 
 292      CDDEA0BD 
 292      99D5358E 
 292      AD
 293 007f 8F19131E 		.ascii	"\217\031\023\036G\314\305D\221\003@\336\013\035X\204"
 293      47CCC544 
 293      910340DE 
 293      0B1D5884 
 294 008f A3E68008 		.ascii	"\243\346\200\010\327\030X\032\344l\277\337\3716\207"
 294      D718581A 
 294      E46CBFDF 
 294      F93687
 295 009e CC8F27AD 		.ascii	"\314\217'\255\236\262~!\242\342\335\247\304\321l\324"
 295      9EB27E21 
 295      A2E2DDA7 
 295      C4D16CD4 
 296 00ae 2C3191B1 		.ascii	",1\221\261\034gp$\000\025\001\031\263\037\312\310\362"
 296      1C677024 
 296      00150119 
 296      B31FCAC8 
 296      F2
 297 00bf 652C790D 		.ascii	"e,y\015\277q\023\0014:f\237\305?\370\345\221C)\035o"
 297      BF711301 
 297      343A669F 
 297      C53FF8E5 
 297      9143291D 
 298 00d4 2EF6BE71 		.ascii	".\366\276q\342~`\264\357|\272\370\325\027\352\223>E"
 298      E27E60B4 
 298      EF7CBAF8 
 298      D517EA93 
 298      3E45
 299 00e6 F729E136 		.ascii	"\367)\3416\021a\020P\372\034\200\000\334\206\000\243"
ARM GAS  C:\Users\info\AppData\Local\Temp\ccD9M76K.s 			page 23


 299      11611050 
 299      FA1C8000 
 299      DC8600A3 
 300 00f6 2B064310 		.ascii	"+\006C\020\"\353\370ts\324\203\007\024\331>\364\263"
 300      22EBF874 
 300      73D48307 
 300      14D93EF4 
 300      B3
 301 0107 47CF93AF 		.ascii	"G\317\223\257N\012$)0l\223\266\032\251\015F\0247s)\263"
 301      4E0A2429 
 301      306C93B6 
 301      1AA90D46 
 301      14377329 
 302 011c A5635071 		.ascii	"\245cPq\027\227\323\033\316<\367+\317\335)\340\022\212"
 302      1797D31B 
 302      CE3CF72B 
 302      CFDD29E0 
 302      128A
 303 012e 5B7A916C 		.ascii	"[z\221l\361cHq\223m\335\361]\245\251\264WTH0Y\000\246"
 303      F1634871 
 303      936DDDF1 
 303      5DA5A9B4 
 303      57544830 
 304 0145 143897EE 		.ascii	"\0248\227\356I\270\260L\201\323\313\037\007\334y\360"
 304      49B8B04C 
 304      81D3CB1F 
 304      07DC79F0 
 305 0155 6DBA48B4 		.ascii	"m\272H\264\201\211\032\334\3757I\252\367(\204$0\021"
 305      81891ADC 
 305      FD3749AA 
 305      F7288424 
 305      3011
 306 0167 DFB1343C 		.ascii	"\337\2614<\250\340\301\221\365\317Z\260W\302VG\306\327"
 306      A8E0C191 
 306      F5CF5AB0 
 306      57C25647 
 306      C6D7
 307 0179 25ACA652 		.ascii	"%\254\246R\031x\354\317\300r\221m_\346\321C?\036R\334"
 307      1978ECCF 
 307      C072916D 
 307      5FE6D143 
 307      3F1E52DC 
 308 018d AD951BED 		.ascii	"\255\225\033\355\230\347\256d\274\")t\211\335\373\017"
 308      98E7AE64 
 308      BC222974 
 308      89DDFB0F 
 309 019d B692DAE9 		.ascii	"\266\222\332\351\3609c\202V)L@\020\306!(\233J\311L\202"
 309      F0396382 
 309      56294C40 
 309      10C62128 
 309      9B4AC94C 
 310 01b2 93FACF77 		.ascii	"\223\372\317wo\023\307-\221\313\031\302\272\354\235"
 310      6F13C72D 
 310      91CB19C2 
 310      BAEC9D
 311 01c1 1DF3EE01 		.ascii	"\035\363\356\001U&rG\257i\200H=M\034\231\271@\336\353"
 311      55267247 
ARM GAS  C:\Users\info\AppData\Local\Temp\ccD9M76K.s 			page 24


 311      AF698048 
 311      3D4D1C99 
 311      B940DEEB 
 312 01d5 322737C8 		.ascii	"2'7\310\316y@\366\301\013\2628>\005\371\025\304\330"
 312      CE7940F6 
 312      C10BB238 
 312      3E05F915 
 312      C4D8
 313 01e7 0685A101 		.ascii	"\006\205\241\001\314rN\017\\\203\230\325\225A\031\326"
 313      CC724E0F 
 313      5C8398D5 
 313      954119D6 
 314 01f7 4027499B 		.ascii	"@'I\233\232\372\362\332\025\331\026\027\204(6\321\221"
 314      9AFAF2DA 
 314      15D91617 
 314      842836D1 
 314      91
 315 0208 E3A406A6 		.ascii	"\343\244\006\246 \302\014t\230\350d+\300\225F\012j\250"
 315      20C20C74 
 315      98E8642B 
 315      C095460A 
 315      6AA8
 316 021a 63D4EA6E 		.ascii	"c\324\352n\361\251+r/\307\313\234{\356\222\223G\337"
 316      F1A92B72 
 316      2FC7CB9C 
 316      7BEE9293 
 316      47DF
 317 022c 074C83CC 		.ascii	"\007L\203\3149\313\221\321\350S0\323\272\236\341v0\275"
 317      39CB91D1 
 317      E85330D3 
 317      BA9EE176 
 317      30BD
 318 023e 20982B47 		.ascii	" \230+G\232\030\334W\301\270\212\247\2635(\221\366\254"
 318      9A18DC57 
 318      C1B88AA7 
 318      B3352891 
 318      F6AC
 319 0250 C0DA9DE3 		.ascii	"\300\332\235\343\262\3713\312\332m\240\307@0\320K\216"
 319      B2F933CA 
 319      DA6DA0C7 
 319      4030D04B 
 319      8E
 320 0261 4DF4B055 		.ascii	"M\364\260U0:\317\357\014\027\331\261|\364\216\034\214"
 320      303ACFEF 
 320      0C17D9B1 
 320      7CF48E1C 
 320      8C
 321 0272 37CFA73C 		.ascii	"7\317\247<\2664\200\007$m7\031*\017\031\331\320\352"
 321      B6348007 
 321      246D3719 
 321      2A0F19D9 
 321      D0EA
 322 0284 709D0DF9 		.ascii	"p\235\015\371I\304_V\0232e\277\312Gc\364\355\"%_\314"
 322      49C45F56 
 322      133265BF 
 322      CA4763F4 
 322      ED22255F 
ARM GAS  C:\Users\info\AppData\Local\Temp\ccD9M76K.s 			page 25


 323 0299 EC6BCEEC 		.ascii	"\354k\316\354\203\362\004\354=\304\026\014\277\355\207"
 323      83F204EC 
 323      3DC4160C 
 323      BFED87
 324 02a8 CB3AD1DA 		.ascii	"\313:\321\332\004\322\347\342\364\347\303\255\245\222"
 324      04D2E7E2 
 324      F4E7C3AD 
 324      A592
 325 02b6 4DF24AE5 		.ascii	"M\362J\345\341\363K\247\311+^\225-q\310\226\254SIG\355"
 325      E1F34BA7 
 325      C92B5E95 
 325      2D71C896 
 325      AC534947 
 326 02cb 92E6C90D 		.ascii	"\222\346\311\015jB\314E\265\331W^~\342Le\365\341\252"
 326      6A42CC45 
 326      B5D9575E 
 326      7EE24C65 
 326      F5E1AA
 327 02de 707D5D98 		.ascii	"p}]\230v\215\225U\365\015u5\265\325\345a\246\311#4\302"
 327      768D9555 
 327      F50D7535 
 327      B5D5E561 
 327      A6C92334 
 328 02f3 39380BF5 		.ascii	"98\013\365\030\256m\200\232\337qnN\345"
 328      18AE6D80 
 328      9ADF716E 
 328      4EE5
 329              		.text
 330              		.section	.gnu.lto_.symbol_nodes.bf14dc81,"",%progbits
 331 0000 789C55CD 		.ascii	"x\234U\315?\012\2021\014\005\360\227\244i\217\241\316"
 331      3F0A8231 
 331      0C05F097 
 331      A4698FA1 
 331      CE
 332 0011 1E3245DC 		.ascii	"\0362E\334\\\274\202E\017\241\340\"\037\270u\362\000"
 332      5CBC8245 
 332      0FA1E022 
 332      1FB875F2 
 332      00
 333 0022 0EDF2878 		.ascii	"\016\337(x\001\377\245\342`\263\274\227\037\201\004"
 333      01FFA5E2 
 333      60B3BC97 
 333      1F8104
 334 0031 102EF0E1 		.ascii	"\020.\360\341d\300\272\002\006\332/7y\352\004\243\037"
 334      64C0BA02 
 334      06DA2F37 
 334      79EA04A3 
 334      1F
 335 0042 E190670E 		.ascii	"\341\220g\016d\334\003\233\364 \026z\010\246\035P\264"
 335      64DC039B 
 335      F420167A 
 335      08A61D50 
 335      B4
 336 0053 F80520B7 		.ascii	"\370\005 \267'\244\226\376wa\240\354*\211\227\323c$"
 336      27A496FE 
 336      7761A0EC 
 336      2A8997D3 
ARM GAS  C:\Users\info\AppData\Local\Temp\ccD9M76K.s 			page 26


 336      6324
 337 0065 0909C3F5 		.ascii	"\011\011\303\365\345\0311\236\337Gme\273\272MZ\016\265"
 337      E519319E 
 337      DF476D65 
 337      BBBA4D5A 
 337      0EB5
 338 0077 81124ABB 		.ascii	"\201\022J\273P\306\342y\237\213\006\024O|\000-H7\021"
 338      50C6E279 
 338      9F8B0614 
 338      4F7C002D 
 338      483711
 339              		.text
 340              		.section	.gnu.lto_.refs.bf14dc81,"",%progbits
 341 0000 789C6361 		.ascii	"x\234ca`\004B \000\000\0009\000\007"
 341      60044220 
 341      00000039 
 341      0007
 342              		.text
 343              		.section	.gnu.lto_.decls.bf14dc81,"",%progbits
 344 0000 789CBD59 		.ascii	"x\234\275YkP\024W\026\236\333w\200af\200\010\230PY*"
 344      6B501457 
 344      169EDB77 
 344      80616680 
 344      08985059 
 345 0015 6B652D65 		.ascii	"ke-e\253\022|eS\326\376\312nv\223\255\255\255\255\255"
 345      AB127C65 
 345      53D6FECA 
 345      6E7693AD 
 345      ADADADAD 
 346 0029 CA26BFA8 		.ascii	"\312&\277\250\232\214\303\000\263\301a\3024>\262?\266"
 346      9A8CC300 
 346      B3C161C2 
 346      343EB23F 
 346      B6
 347 003a 41C44714 		.ascii	"A\304G\024D\024EE|\003\202\212\274\014\0122\200 \012"
 347      44144545 
 347      7C03828A 
 347      BC0C0A32 
 347      80200A
 348 004d 28F2F201 		.ascii	"(\362\362\001\012\276\020\037(\012\212\210\312\236{"
 348      0ABE101F 
 348      280A8A88 
 348      CA9E7B
 349 005c 6FCF7437 		.ascii	"o\317t76\273\376\330l\227g\372\236s\277{\316w\317}\322"
 349      36BBFED8 
 349      6C9767FA 
 349      9E73BF7B 
 349      CE77CF7D 
 350 0071 6A354843 		.ascii	"j5HC\236\252\3675\232\006\255F\363\021\247\321L\300"
 350      9EAAF735 
 350      9A06AD46 
 350      F311A7D1 
 350      4CC0
 351 0083 E303B66F 		.ascii	"\343\003\266o@\274@\216\202\024\203\224\202\204\202"
 351      40BC408E 
 351      82148394 
 351      828482
ARM GAS  C:\Users\info\AppData\Local\Temp\ccD9M76K.s 			page 27


 352 0092 9469D8A3 		.ascii	"\224i\330\243\0039\005\322\010\322\002\322\016\022\005"
 352      033905D2 
 352      08D202D2 
 352      0E1205
 353 00a1 EE6240E2 		.ascii	"\356b@\342@x\244y\343!x\342;\020$X\364Y\003R\004R\""
 353      4078A479 
 353      E32178E2 
 353      3B102458 
 353      F4590352 
 354 00b8 FA270F12 		.ascii	"\372'\017\022\261\223\237F\261}\315$\037j\355\033U\332"
 354      B1939F46 
 354      B17DCD24 
 354      1F6AED1B 
 354      55DA
 355 00ca B788BCD5 		.ascii	"\267\210\274\325\342\223\266\011\320\260N\304r\"^\215"
 355      E293B609 
 355      D0B04EC4 
 355      72225E8D 
 356 00da 07E9AB41 		.ascii	"\007\351\253A\314\221\333W\231\350\313\315g\011\370"
 356      CC91DB57 
 356      99E8CBCD 
 356      6709F8
 357 00e9 6A9EC48B 		.ascii	"j\236\304\213\023\333\266\250\370$\2713N\352\333\357"
 357      13DBB6A8 
 357      F824B933 
 357      4EEADBEF 
 358 00f9 9194F7A5 		.ascii	"\221\224\367\245Pv\202,C\322\230\330\305\034c\261=/"
 358      5076822C 
 358      43D298D8 
 358      C51C63B1 
 358      3D2F
 359 010b E67EF243 		.ascii	"\346~\362C\306\3040\205\357\345\360>-\343\373\003\274"
 359      C6C43085 
 359      EFE5F03E 
 359      2DE3FB03 
 359      BC
 360 011c ADA20FAD 		.ascii	"\255\242\017\255\330\326=\306Q*\276_q\350Br\321\016"
 360      D8D63DC6 
 360      512ABE5F 
 360      71E84272 
 360      D10E
 361 012e 3CC2A140 		.ascii	"<\302\241@=\322\202\372\270e\333M\177P\203\365h\006"
 361      3DD282FA 
 361      B865DB4D 
 361      7F5083F5 
 361      6806
 362 0140 A865D95D 		.ascii	"\250e\331];\015\372\325\002<\033V\010\201\215\376\004"
 362      3B0DFAD5 
 362      023C1B56 
 362      08818DFE 
 362      04
 363 0151 97874251 		.ascii	"\227\207BQ.\202~\241|\244\207\3379\241hn(\361U?1\352"
 363      2E827EA1 
 363      7CA487DF 
 363      39A1686E 
 363      28F1553F 
 364 0167 0A60BE38 		.ascii	"\012`\2768P\333\206\232\263\015\314\327;\240v>\257z"
ARM GAS  C:\Users\info\AppData\Local\Temp\ccD9M76K.s 			page 28


 364      50DB869A 
 364      B30DCCD7 
 364      3BA0763E 
 364      AF7A
 365 0179 61C41C02 		.ascii	"a\304\034\002\244\266$\251w\267?\012\013E\340\012\351"
 365      A4B624A9 
 365      77B73F0A 
 365      0B45E00A 
 365      E9
 366 018a 0F50FF82 		.ascii	"\017P\377\202\300iP\021\322\243B\204\335\004\267\011"
 366      C0695011 
 366      D2A34284 
 366      DD04B709 
 367 019a 107BE85F 		.ascii	"\020{\350_\304\014e\035}\203%I\030\332#x\207h\320\002"
 367      C40C651D 
 367      7D832549 
 367      18DA2378 
 367      8768D002 
 368 01ae 1A1A1D42 		.ascii	"\032\032\035Ba\264J\203\216\200\303\303\210\262\271"
 368      61B44A83 
 368      8E80C3C3 
 368      88B2B9
 369 01bd 34DA3BEA 		.ascii	"4\332;\352\027\270\201\372v\011\237!\352\273\000\352"
 369      17B881FA 
 369      76099F21 
 369      EABB00EA 
 370 01cd 0F52EE47 		.ascii	"\017R\356GQ\240\273\007T\201\026\265\333Z\007t\306\265"
 370      51A0BB07 
 370      548116B5 
 370      DB5A0774 
 370      C6B5
 371 01df C4BFD85B 		.ascii	"\304\277\330[\260\313\272[\214\310 \3237\240\257\234"
 371      B0CBBA5B 
 371      8CC820D3 
 371      37A0AF9C 
 372 01ef 6E4EF6D6 		.ascii	"nN\366\326\213l6\37476\367\013\372\273\374\025\276K"
 372      8B6C36FC 
 372      3736F70B 
 372      FABBFC15 
 372      BE4B
 373 0201 903C95A5 		.ascii	"\220<\225\245\242\357R\352;\343\350\2765^\012t\221\002"
 373      A2EF52EA 
 373      3BE3E8BE 
 373      355E0A74 
 373      9102
 374 0213 5D26A2CB 		.ascii	"]&\242\313(\372\247\265[\237\005t\243\313\010\222+\216"
 374      28FAA7B5 
 374      5B9F0574 
 374      A3CB0892 
 374      2B8E
 375 0225 3242EC17 		.ascii	"2B\354\027Q\3210\241*\0248\372\253\361\230</\215\007"
 375      51D130A1 
 375      2A1438FA 
 375      ABF1983C 
 375      2F8D07
 376 0238 22162567 		.ascii	"\"\026%g\364\237\373=\341~\250\023\311;\022\033!\017"
 376      F49FFB3D 
ARM GAS  C:\Users\info\AppData\Local\Temp\ccD9M76K.s 			page 29


 376      E17EA813 
 376      C93B121B 
 376      210F
 377 024a 03B14CEB 		.ascii	"\003\261L\3539)\000b\252\273\201\314\037\243+\343\204"
 377      39290062 
 377      AABB81CC 
 377      1FA32BE3 
 377      84
 378 025b 947D42EE 		.ascii	"\224}B\356\211\273q\333\365\365:\354C\246\023\352\035"
 378      89BB71DB 
 378      F5F53AEC 
 378      43A613EA 
 378      1D
 379 026c CBFB22BC 		.ascii	"\313\373\"\274\320=\213\376*\315\3563uMIX\313\261\274"
 379      D03D8BFE 
 379      2ACDEE33 
 379      754D4958 
 379      CBB1BC
 380 027f A2455A62 		.ascii	"\242EZb;\262\362V\276\016\246e\250\036M \242?\250\030"
 380      3BB2F256 
 380      BE0EA665 
 380      A81E4D20 
 380      A23FA818 
 381 0293 F3633AA9 		.ascii	"\363c:\251.u\015\037\322\3429\244\314](\271\\\357\213"
 381      2E750D1F 
 381      D2E239A4 
 381      CC5D28B9 
 381      5CEF8B
 382 02a6 C2D804ED 		.ascii	"\302\330\004\355\033~\372\273\025\202\200\320I\030\212"
 382      1B7EFABB 
 382      158280D0 
 382      49188A
 383 02b5 4A84D14F 		.ascii	"J\204\321O(\234\020\012%3HeRV\3014\000\237\004\205N"
 383      289C100A 
 383      25334865 
 383      5256C134 
 383      009F0485 
 384 02ca C0C81D67 		.ascii	"\300\310\035g\023!?'\357\224\037\256D4\300\340\246\373"
 384      13213F27 
 384      EF941FAE 
 384      4434C0E0 
 384      A6FB
 385 02dc ABB12740 		.ascii	"\253\261'@Vjh\201 \274\203j @\265\024\340$\232\"\202"
 385      566A6881 
 385      20BC836A 
 385      2040B514 
 385      E0249A22 
 386 02f1 4B3D42F6 		.ascii	"K=B\366\340\365&/\332i\342\250\002\321^\257\030i\337"
 386      E0F5262F 
 386      DA69E2A8 
 386      02D15EAF 
 386      1869DF
 387 0304 A40BC924 		.ascii	"\244\013\311$q\204\025\302\014\216&DZ\015u(\004~k\221"
 387      718415C2 
 387      0C8E2644 
 387      5A0D7528 
 387      047E6B91 
ARM GAS  C:\Users\info\AppData\Local\Temp\ccD9M76K.s 			page 30


 388 0318 96E52DBD 		.ascii	"\226\345-\275\353\346M\335\207\273\004W\221\3207\232"
 388      EBE64DDD 
 388      87BB0457 
 388      91D0379A 
 389 0328 F1C70B7B 		.ascii	"\361\307\013{SV\267B\303o\275\011\020\035\223\270\035"
 389      5356B742 
 389      C36FBD09 
 389      101D93B8 
 389      1D
 390 0339 A36B1595 		.ascii	"\243k\025\225\243n\030\246S\350Ch\333\236\370:\337\033"
 390      A36E18A6 
 390      53E84368 
 390      DB9EF83A 
 390      DF1B
 391 034b 5FA40B5D 		.ascii	"_\244\013]u\000Z\313w\326`9\225\032\305\302<M\2514\270"
 391      75005ACB 
 391      77D66039 
 391      951AC5C2 
 391      3C4DA934 
 392 0360 A99C6FAA 		.ascii	"\251\234o\252\311F@\245\257Hp\035\265f\011\256$h6\237"
 392      C94640A5 
 392      AF48701D 
 392      B56609AE 
 392      2468369F 
 393 0374 A050BDC4 		.ascii	"\240P\275\304\243^\316\243\221\362\330\364\270\242\316"
 393      A35ECEA3 
 393      91F2D8F4 
 393      B8A2CE
 394 0383 0F0F4ECD 		.ascii	"\017\017N\315C\231\247\263o\225\247fJ\256\311M\256\254"
 394      4399A7B3 
 394      6F95A766 
 394      4AAEC94D 
 394      AEAC
 395 0395 3B6D9C13 		.ascii	";m\234\023\311mn\360g\354\022\347\023\030:#\261;#g\327"
 395      C96D6EF0 
 395      67EC12E7 
 395      13183A23 
 395      B13B2367 
 396 03aa 42D96564 		.ascii	"B\331ed$7h\361J\374\226\354\3163v\231#\351]>\324\010"
 396      243768F1 
 396      4AFC96EC 
 396      CE337699 
 396      23E95D3E 
 397 03c0 2B1FB58A 		.ascii	"+\037\265\212\306\234k\343~r\312\337\274+c\334F\031"
 397      C69C6BE3 
 397      7E72CADF 
 397      BC2B63DC 
 397      4619
 398 03d2 5F7033AE 		.ascii	"_p3\256N\331\3614\000\030\357\002\306\343)X\314'G`\350"
 398      4ED9F134 
 398      0018EF02 
 398      C6E32958 
 398      CC274760 
 399 03e7 9CC4F89C 		.ascii	"\234\304\370\234\234q;e\\\330\373\270T\207\263\336\226"
 399      9C713B65 
 399      5CD8FBB8 
 399      5487B3DE 
ARM GAS  C:\Users\info\AppData\Local\Temp\ccD9M76K.s 			page 31


 399      96
 400 03f8 71272397 		.ascii	"q'#\227\333v/\324c\353b\266\227}7:\265\036\343Ef\334"
 400      DB762FD4 
 400      63EB62B6 
 400      977D373A 
 400      B51EE345 
 401 040e 3E7CF5AE 		.ascii	">|\365\256/;<\302@}\230|\273O<<B@\025\006\222s8\\\300"
 401      2F3B3CC2 
 401      407D987C 
 401      BB4F3C3C 
 401      42401506 
 402 0427 82570FA4 		.ascii	"\202W\017\244W\353\360q\246\264\346\016^\364\307mL\031"
 402      57EBF071 
 402      A6B4E60E 
 402      5EF4C76D 
 402      4C19
 403 0439 D8555DAC 		.ascii	"\330U]\254\303\203L\311\353\337\221jd.\026\312\216\266"
 403      C3834CC9 
 403      EBDF916A 
 403      642E16CA 
 403      8EB6
 404 044b 4076B46D 		.ascii	"@v\264mvm|\251\307c\014z\342Xe\203\027\203\316%\275"
 404      766D7CA9 
 404      C7630C7A 
 404      E2586583 
 404      1783CE25 
 405 0460 ABB83117 		.ascii	"\253\2701\027'k\221\234W0\343\365\254\251\343*\306\031"
 405      276B919C 
 405      5730E3F5 
 405      ACA9E32A 
 405      C619
 406 0472 AC2EADB6 		.ascii	"\254.\255\266\252N\207s\230\322\320s\245S\213\013\230"
 406      AA4E8773 
 406      98D2D073 
 406      A5538B0B 
 406      98
 407 0483 92585557 		.ascii	"\222XUW\342\207]LyURR\207\360\031\246\354\1771>D\016"
 407      E2875D4C 
 407      79555252 
 407      87F019A6 
 407      EC7F313E 
 408 0499 DC59B0FD 		.ascii	"\334Y\260\375L`\331\3763\213\355?\325Mg\016\030q\033"
 408      4C60D9FE 
 408      338BED3F 
 408      D54D670E 
 408      18711B
 409 04ac 0573FB5C 		.ascii	"\005s\373\\I+\341\200\014\243\213\037\006W\237\347\257"
 409      492BE180 
 409      0CA38B1F 
 409      06579FE7 
 409      AF
 410 04bd F18C2D7A 		.ascii	"\361\214-z\010\353\177\226\270\376\357\203\361\036\030"
 410      08EB7F96 
 410      B8FEEF83 
 410      F11E18
 411 04cc C5AD6AF0 		.ascii	"\305\255j\360\317t\253\032\204\374>\220Fu\226\236M\202"
 411      CF74AB1A 
ARM GAS  C:\Users\info\AppData\Local\Temp\ccD9M76K.s 			page 32


 411      84FC3E90 
 411      4675969E 
 411      4D82
 412 04de 93E9DDFD 		.ascii	"\223\351\335\375z|\225\305\310\037j.\014\2302\306\343"
 412      7A7C95C5 
 412      C81F6A2E 
 412      0C9832C6 
 412      E3
 413 04ef 296364A5 		.ascii	")cd\245\316*$\273\325\020\304x$\305\030Db\020\367\010"
 413      CE2A24BB 
 413      D510C478 
 413      24C51844 
 413      6210F708 
 414 0503 06B211EC 		.ascii	"\006\262\021\354_\233\377\330\210\373Y\022\262;ol\360"
 414      5F9BFFD8 
 414      88FB5912 
 414      B23B6F6C 
 414      F0
 415 0514 553B3BA7 		.ascii	"U;;\247\330\322\356\366\034{iT\234\207#\212\363\360"
 415      D8D2EEF6 
 415      1C7B6954 
 415      9C87238A 
 415      F3F0
 416 0526 293B0F01 		.ascii	");\017\001\231|o\357 \302\367Y\230\253\215\371\005$"
 416      997C6FEF 
 416      20C2F759 
 416      98AB8DF9 
 416      0524
 417 0538 D7B349AE 		.ascii	"\327\263I\256'&\002d\331\236\315\262\335\226\366d\237"
 417      27260264 
 417      D99ECDB2 
 417      DD96F664 
 417      9F
 418 0549 0F7ECA32 		.ascii	"\017~\3122\321\260\276\244\330 m\367\373\215\025\244"
 418      D1B0BEA4 
 418      D8206DF7 
 418      FB8D15A4 
 419 0559 7FE31069 		.ascii	"\177\343\020iL\352\337l\317f\314\230h<4\320\013 ?[$"
 419      4CEADF6C 
 419      CF66CC98 
 419      683C34D0 
 419      0B203F5B 
 420 056e FF1C8CA3 		.ascii	"\377\034\214\243\342\216\277/}\2177\026\274h\214\254"
 420      E28EBF2F 
 420      7D8F3716 
 420      BC688CAC 
 421 057e D283A37A 		.ascii	"\322\203\243z\331\216\377\011\315\341k\210\361R\212"
 421      D98EFF09 
 421      CDE16B88 
 421      F1528A
 422 058d 318EA60E 		.ascii	"1\216\246\016\362J=\210\373\262\025\310.[7\216\216>"
 422      F24A3D88 
 422      FBB215C8 
 422      2E5B378E 
 422      8E3E
 423 059f D0E13534 		.ascii	"\320\34154&:\\8^\244\247\353\355k\367Z\355N\311m2x\226"
 423      263A5C38 
ARM GAS  C:\Users\info\AppData\Local\Temp\ccD9M76K.s 			page 33


 423      5EA4A7EB 
 423      ED6BF75A 
 423      ED4EC96D 
 424 05b6 6022478D 		.ascii	"`\"G\215\235\227\256u\372z\214I\314\270j\342\352)\035"
 424      9D97AE75 
 424      FA7A8C49 
 424      CCB86AE2 
 424      EA291D
 425 05c9 DECE3C25 		.ascii	"\336\316<%\347\256\337\356\207s\231\262\355\304\310"
 425      E7AEDFEE 
 425      877399B2 
 425      EDC4C8
 426 05d8 592F1652 		.ascii	"Y/\026R\007jj\326\223\023>\370\010\253kw\355\332\356"
 426      076A6AD6 
 426      93133EF8 
 426      08AB6B77 
 426      EDDAEE
 427 05eb 8BCB9972 		.ascii	"\213\313\231r\263tt\237\037\256a\312\365GUY>\236 \214"
 427      B374749F 
 427      1FAE61CA 
 427      F5475559 
 427      3E9E208C 
 428 05ff 4D595B4E 		.ascii	"MY[N\257\017>\303\000/\316\217\037G\270\213)\353\332"
 428      AF0F3EC3 
 428      002FCE8F 
 428      1F47B88B 
 428      29EBDA
 429 0612 CB17E09B 		.ascii	"\313\027\340\233\254\\\330y\351\025\302\217\230\322"
 429      AC5CD879 
 429      E915C28F 
 429      98D2
 430 0620 F27AE824 		.ascii	"\362z\350$\306\211\336T9\324\227\322\356\20572\345\300"
 430      C689DE54 
 430      39D497D2 
 430      EE853732 
 430      E5C0
 431 0632 CBDDA546 		.ascii	"\313\335\245F\274\223)\015\243U{\275p>S\326\376xp\267"
 431      BC93290D 
 431      A3557BBD 
 431      703E53D6 
 431      FE7870B7 
 432 0646 3F3EC994 		.ascii	"?>\311\224\225\353\012*1\276\300\224\326\336\342\247"
 432      95EB0A2A 
 432      31BEC094 
 432      D6DEE2A7 
 433 0656 DEB89F29 		.ascii	"\336\270\237)\275\327\322\377\201\037\261\362\375\216"
 433      BDD7D2FF 
 433      811FB1F2 
 433      FD8E
 434 0664 B6742FFC 		.ascii	"\266t/\374\222)\257\212W\235\320\3424v\347\270\3238"
 434      9229AF8A 
 434      579DD0E2 
 434      3476E7B8 
 434      D338
 435 0676 3662C0BB 		.ascii	"6b\300\273\231\362\2426\251\002\341R\246\224\327\216"
 435      99F2A236 
 435      A902E152 
ARM GAS  C:\Users\info\AppData\Local\Temp\ccD9M76K.s 			page 34


 435      A694D78E 
 436 0686 357BE133 		.ascii	"5{\3413Ly\230T\260\017\341\033Li\335<\230\311\341q\246"
 436      4C799854 
 436      B00FE11B 
 436      4C69DD3C 
 436      98C9E171 
 437 069b BC1CCF48 		.ascii	"\274\034\317H\364\302\251:\266\352{\006\012\015x\027"
 437      F4C2A93A 
 437      B6EA7B06 
 437      0A0D7817 
 438 06ab 538A2A93 		.ascii	"S\212*\223\007\305K\270\213\334P\362\326\017\325\351"
 438      07C54BB8 
 438      8BDC50F2 
 438      D60FD5E9 
 439 06bb 7105AD9C 		.ascii	"q\005\255\234\236X\335r\332\007\315$O\320L\351\011\003"
 439      9E58DD72 
 439      DA07CD24 
 439      4FD04CE9 
 439      0903
 440 06cd D943264C 		.ascii	"\331C&L_\366\201\357\253\312{\004!\305H3\274\225\303"
 440      5FF681EF 
 440      ABCA7B04 
 440      21C54833 
 440      BC95C3
 441 06e0 28970B72 		.ascii	"(\227\013r/\2609d\271\334 \213FC\341\256\3126\203P\364"
 441      2FB03964 
 441      B9DC208B 
 441      4643E1AE 
 441      CA368350 
 442 06f5 2D856E50 		.ascii	"-\205nPB'\350\322Z A\267\236\367@w\250x-\220y\355\220"
 442      4227E8D2 
 442      5A2041B7 
 442      9EF74077 
 442      A8782D90 
 443 070c A05B54A0 		.ascii	"\240[T\240\2752\350&\011\232\255\002\245\361\323\305"
 443      BD32E826 
 443      099AAD02 
 443      A5F1D3C5 
 444 071c BB9D8078 		.ascii	"\273\235\200x\015\332\305\205\242'd)\344\210pX\013\250"
 444      0DDAC585 
 444      A2276429 
 444      E4887058 
 444      0BA8
 445 072e 840B43F9 		.ascii	"\204\013C\371\334Lt\000d\037\310A\220\002\220R\220="
 445      DC4C7400 
 445      641FC841 
 445      90029052 
 445      903D
 446 0740 20FB410E 		.ascii	" \373A\016\203\034\0059\002R\010R\014R\016\262\027\344"
 446      831C0539 
 446      02520852 
 446      0C520EB2 
 446      17E4
 447 0752 10481E48 		.ascii	"\020H\036H\021H\0317\223^ \031\2776)A\251j\011\272\""
 447      11481937 
 447      935E2019 
 447      BF362941 
ARM GAS  C:\Users\info\AppData\Local\Temp\ccD9M76K.s 			page 35


 447      A96A09BA 
 448 0767 EBCB46A9 		.ascii	"\353\313F\251/;U\3722OBn\223\220\333U\220r\247;$\350"
 448      2F3B55FA 
 448      324F426E 
 448      9390DB55 
 448      9072A73B 
 449 077d 3615689E 		.ascii	"6\025h\236\014Z$q\315PBS\270\311\003\337*a\323\324\372"
 449      0C5A2471 
 449      CD504253 
 449      B8C903DF 
 449      2A61D3D4 
 450 0792 251FCEEE 		.ascii	"%\037\316\3564r\267I\306t\243\312\024\321\236-\211\371"
 450      3472B749 
 450      C674A3CA 
 450      14D19E2D 
 450      89F9
 451 07a4 96756E73 		.ascii	"\226uns\233\337\026\301\225\210\251\363MjDn\311\234"
 451      9BDF16C1 
 451      9588A9F3 
 451      4D6A446E 
 451      C99C
 452 07b6 0F6FF4DF 		.ascii	"\017o\364\337\012\327\020LO\222\365\"\332s\00012\362"
 452      0AD7104C 
 452      4F92F522 
 452      DA730031 
 452      32F2
 453 07c8 4E4E9C97 		.ascii	"NN\234\227y\337\254\346"
 453      79DFACE6 
 454 07d0 5D8E2E95 		.ascii	"]\216.\225\272\271Q\015\313\246\"\335\216]\343\251F"
 454      BAB9510D 
 454      CBA622DD 
 454      8E5DE3A9 
 454      46
 455 07e1 01FECA04 		.ascii	"\001\376\312\004\214F\334\212\245i\220#\217\232\245"
 455      8C46DC8A 
 455      A5699023 
 455      8F9AA5
 456 07f0 320EF22E 		.ascii	"2\016\362.=\225wi\267z\227\344cqB\236\260t\265\321\240"
 456      3D957769 
 456      B77A97E4 
 456      6371429E 
 456      B074B5D1 
 457 0805 D985BDE0 		.ascii	"\331\205\275\340r\332\366\254\000\334M\367\002\256\345"
 457      72DAF6AC 
 457      00DC4DF7 
 457      02AEE5
 458 0814 D6B66A7F 		.ascii	"\326\266j\177\024\024\246\276<*`I\374\234\313\203\345"
 458      1414A6BE 
 458      3C2A6049 
 458      FC9CCB83 
 458      E5
 459 0825 2CEBDC47 		.ascii	",\353\334G$g?A\240c\234\347\004#)\244|w\347\345\256"
 459      24673F41 
 459      A0639CE7 
 459      042329A4 
 459      7C77E7E5 
 460 083a 47412241 		.ascii	"GA\"A\327\224\0045\377sv\020;e\355p\"R\334\032\216\313"
ARM GAS  C:\Users\info\AppData\Local\Temp\ccD9M76K.s 			page 36


 460      D7940435 
 460      FF737610 
 460      3B65ED70 
 460      2252DC1A 
 461 0850 A62D5C30 		.ascii	"\246-\\08\367\255a\364\320\235\036/\374H\247\270\014"
 461      38F7AD61 
 461      F4D09D1E 
 461      2FFC48A7 
 461      B80C
 462 0862 06B2CB60 		.ascii	"\006\262\313`i\325\343\375\342\005P \367\265\201\333"
 462      69D5E3FD 
 462      E2055020 
 462      F7B581DB 
 463 0872 DB1BF478 		.ascii	"\333\033\364x\\\334\267\333\2174\007\3404_\242\374\352"
 463      5CDCB7DB 
 463      8F3407E0 
 463      345FA2FC 
 463      EA
 464 0883 E0C3B11C 		.ascii	"\340\303\261\034=\322\032\203\024;3<Fc\2106L,\204\315"
 464      3DD21A83 
 464      143B333C 
 464      46638836 
 464      4C2C84CD 
 465 0897 0C0B23A7 		.ascii	"\014\013#\247_-gDk\341\210\225\323\253S\320\253e\364"
 465      5F2D6744 
 465      6BE18895 
 465      D3AB53D0 
 465      AB65F4
 466 08aa 14837B12 		.ascii	"\024\203{\022rW\005\363\026\335\204\334\325\213\203"
 466      725705F3 
 466      16DD84DC 
 466      D58B83
 467 08b9 7B03CAD7 		.ascii	"{\003\312\327\241\353= \335 W@.\203\264\203\264\201"
 467      A1EB3D20 
 467      DD205740 
 467      2E83B483 
 467      B481
 468 08cb 5C006905 		.ascii	"\\\000i\0059\017r\016\244\005\244\031\244\011\344,\310"
 468      390F720E 
 468      A405A419 
 468      A409E42C 
 468      C8
 469 08dc 19904690 		.ascii	"\031\220F\220\323 \015 \247\024\373\337x\227lnV\303"
 469      D3200D20 
 469      A714FBDF 
 469      78976C6E 
 469      56C3
 470 08ee 10D74B73 		.ascii	"\020\327Ks\363\262lq\252\363\254\024\033\374\374<\237"
 470      F3B26C71 
 470      AAF3AC14 
 470      1BFCFC3C 
 470      9F
 471 08ff 7779167A 		.ascii	"wy\026z7Ra)\337R\237I\330\0365\254|\357\033\221\260"
 471      37526129 
 471      DF529F49 
 471      D81E35AC 
 471      7CEF1B91 
ARM GAS  C:\Users\info\AppData\Local\Temp\ccD9M76K.s 			page 37


 472 0914 57D5B0B2 		.ascii	"W\325\260\262\003\362\211\004\275\246\006\225m\221C"
 472      03F28904 
 472      BDA60695 
 472      6D9143
 473 0923 12F4BA12 		.ascii	"\022\364\272\022\332\207&\237\220\327$\354M5\254|'\351"
 473      DA87269F 
 473      90D724EC 
 473      4D35AC7C 
 473      27E9
 474 0935 91B0B7D5 		.ascii	"\221\260\267\325\260\362]\252K\302\366\253a\345\333"
 474      B0F25DAA 
 474      4BC2F6AB 
 474      61E5DB
 475 0944 688784BD 		.ascii	"h\207\204\275\243\206\225g\267M\302\016\250a\345\331"
 475      A3869567 
 475      B74DC20E 
 475      A861E5D9 
 476 0954 BD9029DB 		.ascii	"\275\220)\333)\357\212h\317N\33179m\325\231\323\331"
 476      29EF8A68 
 476      CF4ED937 
 476      396DD599 
 476      D3D9
 477 0966 4104377E 		.ascii	"A\0047~4,\302=\007\321\2237hWe\312\016\256g\352x\231"
 477      342CC23D 
 477      07D19337 
 477      685765CA 
 477      0EAE67EA 
 478 097c FB135D01 		.ascii	"\373\023]\001\014\336\001\253S\340&\301\345G\221|\331"
 478      0CDE01AB 
 478      53E026C1 
 478      E547917C 
 478      D9
 479 098d 76712112 		.ascii	"vq!\022\350\022L\362Nh\3156\302\251`\032\031f\312/!"
 479      E8124CF2 
 479      4E68CD36 
 479      C2A9601A 
 479      1966CA2F 
 480 09a2 D0007E2F 		.ascii	"\320\000~/r\344Ow\367\226\261\0024\266\361\346\234\233"
 480      72E44F77 
 480      F796B102 
 480      34B6F1E6 
 480      9C9B
 481 09b4 4E365EC2 		.ascii	"N6^\3024Y\332x;\351\246\301zS!\357\315J\365\336\310"
 481      3459DA78 
 481      3BE9A6C1 
 481      7A5321EF 
 481      CD4AF5DE 
 482 09c9 3A5FDE65 		.ascii	":_\336e\0246\230)x\325d\260\312\271*\241W\253\243e\256"
 482      14369829 
 482      78D564B0 
 482      CAB92AA1 
 482      57ABA365 
 483 09de 4B328319 		.ascii	"K2\203\031\223\253\000_3\031>G=\255\275\362\264\366"
 483      93AB005F 
 483      33193E47 
 483      3DADBDF2 
 483      B4F6
ARM GAS  C:\Users\info\AppData\Local\Temp\ccD9M76K.s 			page 38


 484 09f0 415AAFA9 		.ascii	"AZ\257\251\246\265W\221\326kji\035R\244\265\227\246"
 484      A6B55791 
 484      D66B6A69 
 484      1D52A4B5 
 484      97A6
 485 0a02 B586A695 		.ascii	"\265\206\246\225\245\362h\352\273$\225\204\334\217R"
 485      A5F268EA 
 485      BB249584 
 485      DC8F52
 486 0a11 2AAFC952 		.ascii	"*\257\311Ry4\363\227\254\003pf\240u\252\035\230'\335"
 486      7934F397 
 486      AC037066 
 486      A075AA1D 
 486      9827DD
 487 0a24 23B233E9 		.ascii	"#\2623\351=\242^y\217`u[R? ud\253wI\261\352\335\347"
 487      3DA25E79 
 487      8F60755B 
 487      523F2075 
 487      64AB7749 
 488 0a3c 654E6F65 		.ascii	"eNoe.\373\303\214\214\366%\366m\344q\313\363\335\377"
 488      2EFBC38C 
 488      8CF625F6 
 488      6DE471CB 
 488      F3DDFF
 489 0a4f E18BD96D 		.ascii	"\341\213\331m\332\241[\234\370\211\347l\353\352\373"
 489      DAA15B9C 
 489      F889E76C 
 489      EBEAFB
 490 0a5e E247A9BE 		.ascii	"\342G\251\276\321\366\245\351{S\004\362\361\3563\012"
 490      D1F6A5E9 
 490      7B5304F2 
 490      F1EE330A 
 491 0a6e 441DD29F 		.ascii	"D\035\322\237\231\035\362\217<\375\034\371\3103t\253"
 491      991DF28F 
 491      3CFD1CF9 
 491      C83374AB 
 492 0a7e A9D98033 		.ascii	"\251\331\2003\351y\206\366\356\333\374\300[\374V\364"
 492      E97986F6 
 492      EEDBFCC0 
 492      5BFC56F4 
 493 0a8e FAAC9179 		.ascii	"\372\254\221y\241N\356H\314\241(9\031\240N\356e\265"
 493      A14EEE48 
 493      CCA12839 
 493      19A04EEE 
 493      65B5
 494 0aa0 AE30E27C 		.ascii	"\2560\342|\337\267\374Rt\217{\363K\321}fKK;\362\276"
 494      DFB7FC52 
 494      748F7BF3 
 494      4BD17D66 
 494      4B4B3BF2 
 495 0ab5 27190F98 		.ascii	"'\031\017\230m\274\257\253\3268u2\036\322d\014\272\223"
 495      6DBCAFAB 
 495      D6387532 
 495      1ED2640C 
 495      BA93
 496 0ac7 91F1E3F5 		.ascii	"\221\361\343\365\025\376$\031\360\327\366\216\003\337"
 496      15FE2419 
ARM GAS  C:\Users\info\AppData\Local\Temp\ccD9M76K.s 			page 39


 496      F0D7F68E 
 496      03DF
 497 0ad5 0FEE4D71 		.ascii	"\017\356Mq\375\215\202\320]\251\017w9\366?\016\350\021"
 497      FD8D82D0 
 497      5DA90F77 
 497      39F63F0E 
 497      E811
 498 0ae7 E57F6CFF 		.ascii	"\345\177l\377\305;\006|lj\376\365[\0066!\017\257\307"
 498      C53B067C 
 498      6C6AFEF5 
 498      5B063621 
 498      0FAFC7
 499 0afa 8C57EFED 		.ascii	"\214W\357\355\027\215\372\251y\015S^O\334\274Fw\215"
 499      178DFAA9 
 499      790D535E 
 499      4FDCBC46 
 499      778D
 500 0b0c 1423C6CB 		.ascii	"\024#\306\313\325\365\317,\241\226#\0104$\221\032r\223"
 500      D5F5CF2C 
 500      A1962308 
 500      3424911A 
 500      7293
 501 0b1e 1AA1A484 		.ascii	"\032\241\244\204\236\223\2079\305e\206|\212\225}\002"
 501      9E938739 
 501      C565867C 
 501      8A957D02 
 502 0b2e 61B705F2 		.ascii	"a\267\005\362VE7+\320\317D\3643\212\356([\265\306[\201"
 502      5645372B 
 502      D0CF44F4 
 502      338AEE28 
 502      5BB5C65B 
 503 0b43 1E562CAA 		.ascii	"\036V,\252Q\021=J\321\215\305\353Z\225\3779\361P\201"
 503      51113D4A 
 503      D18DC5EB 
 503      5A95FF39 
 503      F15081
 504 0b56 7E2EA29F 		.ascii	"~.\242\237S\364\212gM\227\224LN+\230\214\211\3501\212"
 504      53F48A67 
 504      4D97944C 
 504      4E2B988C 
 504      89E8318A 
 505 0b6a 1E2DCEAC 		.ascii	"\036-\316\254R\372\276\255\360\375BD\223\267\326\022"
 505      52FABEAD 
 505      F0FD4244 
 505      93B7D612 
 506 0b7a 638EFF20 		.ascii	"c\216\377 a\341\262\205\246/\255\374W|\274\315\036\375"
 506      61E1B285 
 506      A62FADFC 
 506      577CBCCD 
 506      1EFD
 507 0b8c 179BDDFA 		.ascii	"\027\233\335\372\025o\216\347\303\035\344g\256\356\313"
 507      156F8EE7 
 507      C31DE467 
 507      AEEECB
 508 0b9b BF7E3DE3 		.ascii	"\277~=\343\363y\3634\276&S\202\315\316/4\361\211\310"
 508      F379F334 
 508      BE265382 
ARM GAS  C:\Users\info\AppData\Local\Temp\ccD9M76K.s 			page 40


 508      CDCE2F34 
 508      F189C8
 509 0bae F2DB0847 		.ascii	"\362\333\010G|\\t\274y\361\214([\254\3259#l\331\302"
 509      7C5C74BC 
 509      79F18C28 
 509      5BACD539 
 509      236CD9C2 
 510 0bc2 4F7F1D61 		.ascii	"O\177\035aY\356\210\267:\235\021\016g\234e\206%\336"
 510      59EE88B7 
 510      3A9D110E 
 510      679C6586 
 510      25DE
 511 0bd4 6AE6E3E2 		.ascii	"j\346\343\342#>\011\237\2574\330\026;\342\342\371\210"
 511      233E099F 
 511      AF34D816 
 511      3BE2E2F9 
 511      88
 512 0be5 687B4284 		.ascii	"h{B\2049~q\304o\302?\011\237GJ\037\333\343\354\326\217"
 512      397E71C4 
 512      6FC23F09 
 512      9F474A1F 
 512      DBE3ECD6 
 513 0bfa ADE645B6 		.ascii	"\255\346E\266\010\233\335\022\233\020i\215Xl\266\304"
 513      089BDD12 
 513      9B10698D 
 513      586CB6C4 
 514 0c0a 009F0853 		.ascii	"\000\237\010S\2445\312\234\020\313\233\370\345\016\253"
 514      A435CA9C 
 514      10CB9BF8 
 514      E50EAB
 515 0c19 333C46E3 		.ascii	"3<F\343#RY\362\377b\342\\\356\21409\371H\010\013\341"
 515      235259F2 
 515      FF62E25C 
 515      EE8C3039 
 515      F948080B 
 516 0c2e 7F111E1E 		.ascii	"\177\021\036\036\221\2600z\276\311\342\214\267D\320"
 516      91B0307A 
 516      BEC9E28C 
 516      B744D0
 517 0c3d 043A69F6 		.ascii	"\004:i\366\302-\232\351o\346\363s;\377\336\024Y\016"
 517      C22D9AE9 
 517      6FE6F373 
 517      3BFFDE14 
 517      590E
 518 0c4f A2F6CFE3 		.ascii	"\242\366\317\343\034\313\245\212i\324\366\207x\363\322"
 518      1CCBA58A 
 518      69D4F687 
 518      78F3D2
 519 0c5e AFFFFEC5 		.ascii	"\257\377\376\305Bb\361\217\264.\212K\260[\254\020\306"
 519      4262F18F 
 519      B42E8A4B 
 519      B05BAC10 
 519      C6
 520 0c6f CC5BDFF3 		.ascii	"\314[\337\363\250\261f'or\330\354\314\376\276\307\356"
 520      A8B16627 
 520      6F72D8EC 
 520      CCFEBEC7 
ARM GAS  C:\Users\info\AppData\Local\Temp\ccD9M76K.s 			page 41


 520      EE
 521 0c80 CE97A7CA 		.ascii	"\316\227\247\312\020\355\260\305\231 '`\325'\360Q\013"
 521      10EDB0C5 
 521      99202760 
 521      D527F051 
 521      0B
 522 0c91 99191C2F 		.ascii	"\231\031\034/\261\001\336\034\031I\362e\260\315\267"
 522      B101DE1C 
 522      1949F265 
 522      B0CDB7
 523 0ca0 908A78DE 		.ascii	"\220\212x\336\032I\313\242=\330\3464E\305\331y\223\315"
 523      1A49CBA2 
 523      3DD8E634 
 523      45C5D979 
 523      93CD
 524 0cb2 BEC41AEF 		.ascii	"\276\304\032\357\264\232\026\307EZu\313LqQQN+\257\263"
 524      B49A16C7 
 524      455A75CB 
 524      4C715151 
 524      4E2BAFB3 
 525 0cc6 DA2D7190 		.ascii	"\332-q\220\231h=\233\"\363>5\361:wAK\332\371.Jp\232"
 525      99683D9B 
 525      22F33E35 
 525      F13A7741 
 525      4BDAF92E 
 526 0cdd 2CB17196 		.ascii	",\261q\226\357D\310\202\371\"\204\024\246Qnf{$\320\216"
 526      EF44C882 
 526      F9228414 
 526      A6516E66 
 526      7B24D08E 
 527 0cf1 352F3759 		.ascii	"5/7Y\026\031h\006\026;\243\241\354\263h9o\205\267\267"
 527      16196806 
 527      163BA3A1 
 527      ECB36839 
 527      6F85B7B7 
 528 0d05 C51C092F 		.ascii	"\305\034\011/}\244\315\351`(\037\273u\031\017o#E\223"
 528      7DA4CDE9 
 528      60281FBB 
 528      75190F6F 
 528      234593
 529 0d18 B94C1477 		.ascii	"\271L\024w\275\315\036\025gp\330\226YcMKm\221|\314\264"
 529      BDCD1E15 
 529      6770D896 
 529      59634D4B 
 529      6D917CCC 
 530 0d2d A8589B83 		.ascii	"\250X\233\203\3606\271y\277\343\316\222\333`\340a\012"
 530      F036B979 
 530      BFE3CE92 
 530      DB60E061 
 530      0A
 531 0d3e 9962ACB6 		.ascii	"\231b\254\266\350\030^O\313\264e\360\322x\033Pp$\304"
 531      E8185E4F 
 531      CBB465F0 
 531      D2781B50 
 531      7024C4
 532 0d51 3A458BC9 		.ascii	":E\213\311\356\014\2144\363f\0234Jp\230x\333b+\230\202"
 532      EE0C8C34 
ARM GAS  C:\Users\info\AppData\Local\Temp\ccD9M76K.s 			page 42


 532      F3661334 
 532      4A709878 
 532      DB622B98 
 533 0d66 49C63C3D 		.ascii	"I\306<=5\315\233;\367\273?\375\240s:l4]F'\330XM\314"
 533      35CD9B3B 
 533      F7BB3FFD 
 533      A0733A6C 
 533      345D4627 
 534 0d7e 0F814451 		.ascii	"\017\201DQ:\234\346\214\234\344/\320\021\007\243\013"
 534      3A9CE68C 
 534      9CE42FD0 
 534      1107A30B 
 535 0d8e F9B7F2A6 		.ascii	"\371\267\362\246\245f\033\017\011\011f\232\274\345b"
 535      A5661B0F 
 535      0909669A 
 535      BCE562
 536 0d9d 6708CC75 		.ascii	"g\010\314u\350\276\315a\202\276\233\027\021\332\004"
 536      E8BECD61 
 536      82BE9B17 
 536      11DA04
 537 0dac 6D870AE2 		.ascii	"m\207\012\342\200\326X\355\362\212@\005:\326\272\304"
 537      80D658ED 
 537      F28A4005 
 537      3AD6BAC4 
 538 0dbc 1A3B4D0E 		.ascii	"\032;M\016\243\226\020\232Vy:\311$O\260\360F\226U\226"
 538      A396109A 
 538      56793AC9 
 538      244FB0F0 
 538      46965596 
 539 0dd0 A7E03796 		.ascii	"\247\3407\226\002\254\217\2407\233\362\006\3672\001"
 539      02AC8FA0 
 539      379BF206 
 539      F73201
 540 0ddf 0F419E89 		.ascii	"\017A\236\211\312f$\031joZ\317\007\2761\371\235~\012"
 540      CA662419 
 540      6A6F5ACF 
 540      07BE31F9 
 540      9D7E0A
 541 0df2 53807B25 		.ascii	"S\200{%\321z\253\375\337\224wp\364"
 541      D17AABFD 
 541      DF947770 
 541      F4
 542              		.text
 543              		.section	.gnu.lto_.symtab.bf14dc81,"",%progbits
 544 0000 75387838 		.ascii	"u8x8_GetStringLineCnt\000"
 544      5F476574 
 544      53747269 
 544      6E674C69 
 544      6E65436E 
 545 0016 00       		.ascii	"\000"
 546 0017 00       		.ascii	"\000"
 547 0018 00       		.ascii	"\000"
 548 0019 00000000 		.ascii	"\000\000\000\000\000\000\000\000"
 548      00000000 
 549 0021 C8000000 		.ascii	"\310\000\000\000"
 550 0025 75387838 		.ascii	"u8x8_GetStringLineStart\000"
 550      5F476574 
ARM GAS  C:\Users\info\AppData\Local\Temp\ccD9M76K.s 			page 43


 550      53747269 
 550      6E674C69 
 550      6E655374 
 551 003d 00       		.ascii	"\000"
 552 003e 00       		.ascii	"\000"
 553 003f 00       		.ascii	"\000"
 554 0040 00000000 		.ascii	"\000\000\000\000\000\000\000\000"
 554      00000000 
 555 0048 CD000000 		.ascii	"\315\000\000\000"
 556 004c 75387838 		.ascii	"u8x8_CopyStringLine\000"
 556      5F436F70 
 556      79537472 
 556      696E674C 
 556      696E6500 
 557 0060 00       		.ascii	"\000"
 558 0061 00       		.ascii	"\000"
 559 0062 00       		.ascii	"\000"
 560 0063 00000000 		.ascii	"\000\000\000\000\000\000\000\000"
 560      00000000 
 561 006b D3000000 		.ascii	"\323\000\000\000"
 562 006f 75387838 		.ascii	"u8x8_DrawUTF8Line\000"
 562      5F447261 
 562      77555446 
 562      384C696E 
 562      6500
 563 0081 00       		.ascii	"\000"
 564 0082 00       		.ascii	"\000"
 565 0083 00       		.ascii	"\000"
 566 0084 00000000 		.ascii	"\000\000\000\000\000\000\000\000"
 566      00000000 
 567 008c 66010000 		.ascii	"f\001\000\000"
 568 0090 75387838 		.ascii	"u8x8_DrawUTF8Lines\000"
 568      5F447261 
 568      77555446 
 568      384C696E 
 568      657300
 569 00a3 00       		.ascii	"\000"
 570 00a4 00       		.ascii	"\000"
 571 00a5 00       		.ascii	"\000"
 572 00a6 00000000 		.ascii	"\000\000\000\000\000\000\000\000"
 572      00000000 
 573 00ae 68010000 		.ascii	"h\001\000\000"
 574 00b2 75387838 		.ascii	"u8x8_DrawUTF8\000"
 574      5F447261 
 574      77555446 
 574      3800
 575 00c0 00       		.ascii	"\000"
 576 00c1 02       		.ascii	"\002"
 577 00c2 00       		.ascii	"\000"
 578 00c3 00000000 		.ascii	"\000\000\000\000\000\000\000\000"
 578      00000000 
 579 00cb 6F010000 		.ascii	"o\001\000\000"
 580 00cf 75387838 		.ascii	"u8x8_GetUTF8Len\000"
 580      5F476574 
 580      55544638 
 580      4C656E00 
 581 00df 00       		.ascii	"\000"
ARM GAS  C:\Users\info\AppData\Local\Temp\ccD9M76K.s 			page 44


 582 00e0 02       		.ascii	"\002"
 583 00e1 00       		.ascii	"\000"
 584 00e2 00000000 		.ascii	"\000\000\000\000\000\000\000\000"
 584      00000000 
 585 00ea 74010000 		.ascii	"t\001\000\000"
 586              		.text
 587              		.section	.gnu.lto_.opts,"",%progbits
 588 0000 272D666D 		.ascii	"'-fmath-errno' '-fsigned-zeros' '-ftrapping-math' '"
 588      6174682D 
 588      6572726E 
 588      6F272027 
 588      2D667369 
 589 0033 2D666E6F 		.ascii	"-fno-trapv' '-fno-openmp' '-fno-openacc' '-mcpu=cor"
 589      2D747261 
 589      70762720 
 589      272D666E 
 589      6F2D6F70 
 590 0066 7465782D 		.ascii	"tex-m3' '-mthumb' '-g' '-Os' '-ffunction-sections' "
 590      6D332720 
 590      272D6D74 
 590      68756D62 
 590      2720272D 
 591 0099 272D6666 		.ascii	"'-ffat-lto-objects' '-flto'\000"
 591      61742D6C 
 591      746F2D6F 
 591      626A6563 
 591      74732720 
 592              		.text
 593              		.cfi_sections	.debug_frame
 594              		.section	.text.u8x8_GetStringLineCnt,"ax",%progbits
 595              		.align	1
 596              		.global	u8x8_GetStringLineCnt
 597              		.thumb
 598              		.thumb_func
 599              		.type	u8x8_GetStringLineCnt, %function
 600              	u8x8_GetStringLineCnt:
 601              	.LFB0:
 602              		.file 1 "..\\u8g2_csrc\\u8x8_string.c"
   1:..\u8g2_csrc/u8x8_string.c **** /*
   2:..\u8g2_csrc/u8x8_string.c **** 
   3:..\u8g2_csrc/u8x8_string.c ****   u8x8_string.c
   4:..\u8g2_csrc/u8x8_string.c ****   
   5:..\u8g2_csrc/u8x8_string.c ****   string line procedures
   6:..\u8g2_csrc/u8x8_string.c ****   
   7:..\u8g2_csrc/u8x8_string.c ****   Universal 8bit Graphics Library (https://github.com/olikraus/u8g2/)
   8:..\u8g2_csrc/u8x8_string.c **** 
   9:..\u8g2_csrc/u8x8_string.c ****   Copyright (c) 2016, olikraus@gmail.com
  10:..\u8g2_csrc/u8x8_string.c ****   All rights reserved.
  11:..\u8g2_csrc/u8x8_string.c **** 
  12:..\u8g2_csrc/u8x8_string.c ****   Redistribution and use in source and binary forms, with or without modification, 
  13:..\u8g2_csrc/u8x8_string.c ****   are permitted provided that the following conditions are met:
  14:..\u8g2_csrc/u8x8_string.c **** 
  15:..\u8g2_csrc/u8x8_string.c ****   * Redistributions of source code must retain the above copyright notice, this list 
  16:..\u8g2_csrc/u8x8_string.c ****     of conditions and the following disclaimer.
  17:..\u8g2_csrc/u8x8_string.c ****     
  18:..\u8g2_csrc/u8x8_string.c ****   * Redistributions in binary form must reproduce the above copyright notice, this 
  19:..\u8g2_csrc/u8x8_string.c ****     list of conditions and the following disclaimer in the documentation and/or other 
ARM GAS  C:\Users\info\AppData\Local\Temp\ccD9M76K.s 			page 45


  20:..\u8g2_csrc/u8x8_string.c ****     materials provided with the distribution.
  21:..\u8g2_csrc/u8x8_string.c **** 
  22:..\u8g2_csrc/u8x8_string.c ****   THIS SOFTWARE IS PROVIDED BY THE COPYRIGHT HOLDERS AND 
  23:..\u8g2_csrc/u8x8_string.c ****   CONTRIBUTORS "AS IS" AND ANY EXPRESS OR IMPLIED WARRANTIES, 
  24:..\u8g2_csrc/u8x8_string.c ****   INCLUDING, BUT NOT LIMITED TO, THE IMPLIED WARRANTIES OF 
  25:..\u8g2_csrc/u8x8_string.c ****   MERCHANTABILITY AND FITNESS FOR A PARTICULAR PURPOSE ARE 
  26:..\u8g2_csrc/u8x8_string.c ****   DISCLAIMED. IN NO EVENT SHALL THE COPYRIGHT HOLDER OR 
  27:..\u8g2_csrc/u8x8_string.c ****   CONTRIBUTORS BE LIABLE FOR ANY DIRECT, INDIRECT, INCIDENTAL, 
  28:..\u8g2_csrc/u8x8_string.c ****   SPECIAL, EXEMPLARY, OR CONSEQUENTIAL DAMAGES (INCLUDING, BUT 
  29:..\u8g2_csrc/u8x8_string.c ****   NOT LIMITED TO, PROCUREMENT OF SUBSTITUTE GOODS OR SERVICES; 
  30:..\u8g2_csrc/u8x8_string.c ****   LOSS OF USE, DATA, OR PROFITS; OR BUSINESS INTERRUPTION) HOWEVER 
  31:..\u8g2_csrc/u8x8_string.c ****   CAUSED AND ON ANY THEORY OF LIABILITY, WHETHER IN CONTRACT, 
  32:..\u8g2_csrc/u8x8_string.c ****   STRICT LIABILITY, OR TORT (INCLUDING NEGLIGENCE OR OTHERWISE) 
  33:..\u8g2_csrc/u8x8_string.c ****   ARISING IN ANY WAY OUT OF THE USE OF THIS SOFTWARE, EVEN IF 
  34:..\u8g2_csrc/u8x8_string.c ****   ADVISED OF THE POSSIBILITY OF SUCH DAMAGE.    
  35:..\u8g2_csrc/u8x8_string.c **** 
  36:..\u8g2_csrc/u8x8_string.c **** */
  37:..\u8g2_csrc/u8x8_string.c **** 
  38:..\u8g2_csrc/u8x8_string.c **** #include "u8x8.h"
  39:..\u8g2_csrc/u8x8_string.c **** 
  40:..\u8g2_csrc/u8x8_string.c **** uint8_t u8x8_GetStringLineCnt(const char *str)
  41:..\u8g2_csrc/u8x8_string.c **** {
 603              		.loc 1 41 0
 604              		.cfi_startproc
 605              		@ args = 0, pretend = 0, frame = 0
 606              		@ frame_needed = 0, uses_anonymous_args = 0
 607              		@ link register save eliminated.
 608              	.LVL0:
  42:..\u8g2_csrc/u8x8_string.c ****   char e;
  43:..\u8g2_csrc/u8x8_string.c ****   uint8_t line_cnt = 1;
  44:..\u8g2_csrc/u8x8_string.c ****   if ( str == NULL )
 609              		.loc 1 44 0
 610 0000 48B1     		cbz	r0, .L2
 611 0002 431E     		subs	r3, r0, #1
 612 0004 0120     		movs	r0, #1
 613              	.LVL1:
 614              	.L3:
  45:..\u8g2_csrc/u8x8_string.c ****     return 0;
  46:..\u8g2_csrc/u8x8_string.c ****   for(;;)
  47:..\u8g2_csrc/u8x8_string.c ****   {
  48:..\u8g2_csrc/u8x8_string.c ****     e = *str;
 615              		.loc 1 48 0
 616 0006 13F8012F 		ldrb	r2, [r3, #1]!	@ zero_extendqisi2
 617              	.LVL2:
  49:..\u8g2_csrc/u8x8_string.c ****     if ( e == '\0' )
 618              		.loc 1 49 0
 619 000a 22B1     		cbz	r2, .L2
 620              	.LVL3:
  50:..\u8g2_csrc/u8x8_string.c ****       break;
  51:..\u8g2_csrc/u8x8_string.c ****     str++;
  52:..\u8g2_csrc/u8x8_string.c ****     if ( e == '\n' )
 621              		.loc 1 52 0
 622 000c 0A2A     		cmp	r2, #10
 623 000e FAD1     		bne	.L3
  53:..\u8g2_csrc/u8x8_string.c ****       line_cnt++;
 624              		.loc 1 53 0
 625 0010 0130     		adds	r0, r0, #1
ARM GAS  C:\Users\info\AppData\Local\Temp\ccD9M76K.s 			page 46


 626              	.LVL4:
 627 0012 C0B2     		uxtb	r0, r0
 628              	.LVL5:
 629 0014 F7E7     		b	.L3
 630              	.LVL6:
 631              	.L2:
  54:..\u8g2_csrc/u8x8_string.c ****   }
  55:..\u8g2_csrc/u8x8_string.c ****   return line_cnt;
  56:..\u8g2_csrc/u8x8_string.c **** }
 632              		.loc 1 56 0
 633 0016 7047     		bx	lr
 634              		.cfi_endproc
 635              	.LFE0:
 636              		.size	u8x8_GetStringLineCnt, .-u8x8_GetStringLineCnt
 637              		.section	.text.u8x8_GetStringLineStart,"ax",%progbits
 638              		.align	1
 639              		.global	u8x8_GetStringLineStart
 640              		.thumb
 641              		.thumb_func
 642              		.type	u8x8_GetStringLineStart, %function
 643              	u8x8_GetStringLineStart:
 644              	.LFB1:
  57:..\u8g2_csrc/u8x8_string.c **** 
  58:..\u8g2_csrc/u8x8_string.c **** 
  59:..\u8g2_csrc/u8x8_string.c **** /*
  60:..\u8g2_csrc/u8x8_string.c ****     Assumes strings, separated by '\n' in "str".
  61:..\u8g2_csrc/u8x8_string.c ****     Returns the string at index "line_idx". First strng has line_idx = 0
  62:..\u8g2_csrc/u8x8_string.c ****     Example:
  63:..\u8g2_csrc/u8x8_string.c ****       Returns "xyz" for line_idx = 1 with str = "abc\nxyz"
  64:..\u8g2_csrc/u8x8_string.c ****     Support both UTF8 and normal strings.
  65:..\u8g2_csrc/u8x8_string.c **** */
  66:..\u8g2_csrc/u8x8_string.c **** const char *u8x8_GetStringLineStart(uint8_t line_idx, const char *str )
  67:..\u8g2_csrc/u8x8_string.c **** {
 645              		.loc 1 67 0
 646              		.cfi_startproc
 647              		@ args = 0, pretend = 0, frame = 0
 648              		@ frame_needed = 0, uses_anonymous_args = 0
 649              		@ link register save eliminated.
 650              	.LVL7:
  68:..\u8g2_csrc/u8x8_string.c ****   char e;
  69:..\u8g2_csrc/u8x8_string.c ****   uint8_t line_cnt = 1;
  70:..\u8g2_csrc/u8x8_string.c ****   
  71:..\u8g2_csrc/u8x8_string.c ****   if ( line_idx == 0 )
 651              		.loc 1 71 0
 652 0000 60B1     		cbz	r0, .L14
 653 0002 0123     		movs	r3, #1
 654              	.LVL8:
 655              	.L10:
 656              	.LBB4:
 657              	.LBB5:
  72:..\u8g2_csrc/u8x8_string.c ****     return str;
  73:..\u8g2_csrc/u8x8_string.c **** 
  74:..\u8g2_csrc/u8x8_string.c ****   for(;;)
  75:..\u8g2_csrc/u8x8_string.c ****   {
  76:..\u8g2_csrc/u8x8_string.c ****     e = *str;
 658              		.loc 1 76 0
 659 0004 11F8012B 		ldrb	r2, [r1], #1	@ zero_extendqisi2
ARM GAS  C:\Users\info\AppData\Local\Temp\ccD9M76K.s 			page 47


 660              	.LVL9:
  77:..\u8g2_csrc/u8x8_string.c ****     if ( e == '\0' )
 661              		.loc 1 77 0
 662 0008 32B1     		cbz	r2, .L13
 663              	.LVL10:
  78:..\u8g2_csrc/u8x8_string.c ****       break;
  79:..\u8g2_csrc/u8x8_string.c ****     str++;
  80:..\u8g2_csrc/u8x8_string.c ****     if ( e == '\n' )
 664              		.loc 1 80 0
 665 000a 0A2A     		cmp	r2, #10
 666 000c FAD1     		bne	.L10
  81:..\u8g2_csrc/u8x8_string.c ****     {
  82:..\u8g2_csrc/u8x8_string.c ****       if ( line_cnt == line_idx )
 667              		.loc 1 82 0
 668 000e 9842     		cmp	r0, r3
 669 0010 04D0     		beq	.L14
  83:..\u8g2_csrc/u8x8_string.c **** 	return str;
  84:..\u8g2_csrc/u8x8_string.c ****       line_cnt++;
 670              		.loc 1 84 0
 671 0012 0133     		adds	r3, r3, #1
 672              	.LVL11:
 673 0014 DBB2     		uxtb	r3, r3
 674              	.LVL12:
 675 0016 F5E7     		b	.L10
 676              	.LVL13:
 677              	.L13:
  85:..\u8g2_csrc/u8x8_string.c ****     }
  86:..\u8g2_csrc/u8x8_string.c ****   }
  87:..\u8g2_csrc/u8x8_string.c ****   return NULL;	/* line not found */
 678              		.loc 1 87 0
 679 0018 1046     		mov	r0, r2
 680              	.LVL14:
 681 001a 7047     		bx	lr
 682              	.LVL15:
 683              	.L14:
  79:..\u8g2_csrc/u8x8_string.c ****     if ( e == '\n' )
 684              		.loc 1 79 0
 685 001c 0846     		mov	r0, r1
 686              	.LVL16:
 687              	.LBE5:
 688              	.LBE4:
  88:..\u8g2_csrc/u8x8_string.c **** }
 689              		.loc 1 88 0
 690 001e 7047     		bx	lr
 691              		.cfi_endproc
 692              	.LFE1:
 693              		.size	u8x8_GetStringLineStart, .-u8x8_GetStringLineStart
 694              		.section	.text.u8x8_CopyStringLine,"ax",%progbits
 695              		.align	1
 696              		.global	u8x8_CopyStringLine
 697              		.thumb
 698              		.thumb_func
 699              		.type	u8x8_CopyStringLine, %function
 700              	u8x8_CopyStringLine:
 701              	.LFB2:
  89:..\u8g2_csrc/u8x8_string.c **** 
  90:..\u8g2_csrc/u8x8_string.c **** /* copy until first '\n' or '\0' in str */
ARM GAS  C:\Users\info\AppData\Local\Temp\ccD9M76K.s 			page 48


  91:..\u8g2_csrc/u8x8_string.c **** /* Important: There is no string overflow check, ensure */
  92:..\u8g2_csrc/u8x8_string.c **** /* that the destination buffer is large enough */
  93:..\u8g2_csrc/u8x8_string.c **** void u8x8_CopyStringLine(char *dest, uint8_t line_idx, const char *str)
  94:..\u8g2_csrc/u8x8_string.c **** {
 702              		.loc 1 94 0
 703              		.cfi_startproc
 704              		@ args = 0, pretend = 0, frame = 0
 705              		@ frame_needed = 0, uses_anonymous_args = 0
 706              	.LVL17:
 707 0000 10B5     		push	{r4, lr}
 708              		.cfi_def_cfa_offset 8
 709              		.cfi_offset 4, -8
 710              		.cfi_offset 14, -4
 711              		.loc 1 94 0
 712 0002 0B46     		mov	r3, r1
  95:..\u8g2_csrc/u8x8_string.c ****   if ( dest == NULL )
 713              		.loc 1 95 0
 714 0004 0446     		mov	r4, r0
 715 0006 78B1     		cbz	r0, .L15
  96:..\u8g2_csrc/u8x8_string.c ****     return;
  97:..\u8g2_csrc/u8x8_string.c ****   str = u8x8_GetStringLineStart( line_idx, str );
 716              		.loc 1 97 0
 717 0008 1146     		mov	r1, r2
 718              	.LVL18:
 719 000a 1846     		mov	r0, r3
 720              	.LVL19:
 721 000c FFF7FEFF 		bl	u8x8_GetStringLineStart
 722              	.LVL20:
  98:..\u8g2_csrc/u8x8_string.c ****   if ( str != NULL )
 723              		.loc 1 98 0
 724 0010 40B1     		cbz	r0, .L17
 725 0012 0138     		subs	r0, r0, #1
 726              	.LVL21:
 727              	.L18:
  99:..\u8g2_csrc/u8x8_string.c ****   {
 100:..\u8g2_csrc/u8x8_string.c ****     for(;;)
 101:..\u8g2_csrc/u8x8_string.c ****     {
 102:..\u8g2_csrc/u8x8_string.c ****       if ( *str == '\n' || *str == '\0' )
 728              		.loc 1 102 0
 729 0014 10F8013F 		ldrb	r3, [r0, #1]!	@ zero_extendqisi2
 730 0018 0A2B     		cmp	r3, #10
 731 001a 03D0     		beq	.L17
 732              		.loc 1 102 0 is_stmt 0 discriminator 1
 733 001c 13B1     		cbz	r3, .L17
 103:..\u8g2_csrc/u8x8_string.c **** 	break;
 104:..\u8g2_csrc/u8x8_string.c ****       *dest = *str;
 734              		.loc 1 104 0 is_stmt 1
 735 001e 04F8013B 		strb	r3, [r4], #1
 736              	.LVL22:
 105:..\u8g2_csrc/u8x8_string.c ****       dest++;
 106:..\u8g2_csrc/u8x8_string.c ****       str++;
 107:..\u8g2_csrc/u8x8_string.c ****     }
 737              		.loc 1 107 0
 738 0022 F7E7     		b	.L18
 739              	.L17:
 108:..\u8g2_csrc/u8x8_string.c ****   }
 109:..\u8g2_csrc/u8x8_string.c ****   *dest = '\0';
ARM GAS  C:\Users\info\AppData\Local\Temp\ccD9M76K.s 			page 49


 740              		.loc 1 109 0
 741 0024 0023     		movs	r3, #0
 742 0026 2370     		strb	r3, [r4]
 743              	.L15:
 744 0028 10BD     		pop	{r4, pc}
 745              		.cfi_endproc
 746              	.LFE2:
 747              		.size	u8x8_CopyStringLine, .-u8x8_CopyStringLine
 748              		.section	.text.u8x8_DrawUTF8Line,"ax",%progbits
 749              		.align	1
 750              		.global	u8x8_DrawUTF8Line
 751              		.thumb
 752              		.thumb_func
 753              		.type	u8x8_DrawUTF8Line, %function
 754              	u8x8_DrawUTF8Line:
 755              	.LFB3:
 110:..\u8g2_csrc/u8x8_string.c **** }
 111:..\u8g2_csrc/u8x8_string.c **** 
 112:..\u8g2_csrc/u8x8_string.c **** /*
 113:..\u8g2_csrc/u8x8_string.c ****   Draw a string
 114:..\u8g2_csrc/u8x8_string.c ****   Extend the string to size "w"
 115:..\u8g2_csrc/u8x8_string.c ****   Center the string within "w"
 116:..\u8g2_csrc/u8x8_string.c ****   return the size of the string
 117:..\u8g2_csrc/u8x8_string.c **** 
 118:..\u8g2_csrc/u8x8_string.c **** */
 119:..\u8g2_csrc/u8x8_string.c **** uint8_t u8x8_DrawUTF8Line(u8x8_t *u8x8, uint8_t x, uint8_t y, uint8_t w, const char *s)
 120:..\u8g2_csrc/u8x8_string.c **** {
 756              		.loc 1 120 0
 757              		.cfi_startproc
 758              		@ args = 4, pretend = 0, frame = 0
 759              		@ frame_needed = 0, uses_anonymous_args = 0
 760              	.LVL23:
 761 0000 2DE9F843 		push	{r3, r4, r5, r6, r7, r8, r9, lr}
 762              		.cfi_def_cfa_offset 32
 763              		.cfi_offset 3, -32
 764              		.cfi_offset 4, -28
 765              		.cfi_offset 5, -24
 766              		.cfi_offset 6, -20
 767              		.cfi_offset 7, -16
 768              		.cfi_offset 8, -12
 769              		.cfi_offset 9, -8
 770              		.cfi_offset 14, -4
 771              		.loc 1 120 0
 772 0004 0D46     		mov	r5, r1
 121:..\u8g2_csrc/u8x8_string.c ****   uint8_t d, lw;
 122:..\u8g2_csrc/u8x8_string.c ****   uint8_t cx, dx;
 123:..\u8g2_csrc/u8x8_string.c ****     
 124:..\u8g2_csrc/u8x8_string.c ****   d = 0;
 125:..\u8g2_csrc/u8x8_string.c ****   
 126:..\u8g2_csrc/u8x8_string.c ****   lw = u8x8_GetUTF8Len(u8x8, s);
 773              		.loc 1 126 0
 774 0006 0899     		ldr	r1, [sp, #32]
 775              	.LVL24:
 120:..\u8g2_csrc/u8x8_string.c ****   uint8_t d, lw;
 776              		.loc 1 120 0
 777 0008 9846     		mov	r8, r3
 778 000a 0646     		mov	r6, r0
ARM GAS  C:\Users\info\AppData\Local\Temp\ccD9M76K.s 			page 50


 779 000c 1746     		mov	r7, r2
 780              		.loc 1 126 0
 781 000e FFF7FEFF 		bl	u8x8_GetUTF8Len
 782              	.LVL25:
 127:..\u8g2_csrc/u8x8_string.c ****   if ( lw < w )
 128:..\u8g2_csrc/u8x8_string.c ****   {
 129:..\u8g2_csrc/u8x8_string.c ****     d = w;
 130:..\u8g2_csrc/u8x8_string.c ****     d -=lw;
 131:..\u8g2_csrc/u8x8_string.c ****     d /= 2;
 132:..\u8g2_csrc/u8x8_string.c ****   }
 133:..\u8g2_csrc/u8x8_string.c ****     
 134:..\u8g2_csrc/u8x8_string.c ****   cx = x;
 783              		.loc 1 134 0
 784 0012 2C46     		mov	r4, r5
 127:..\u8g2_csrc/u8x8_string.c ****   if ( lw < w )
 785              		.loc 1 127 0
 786 0014 4045     		cmp	r0, r8
 787              	.LVL26:
 130:..\u8g2_csrc/u8x8_string.c ****     d /= 2;
 788              		.loc 1 130 0
 789 0016 3ABF     		itte	cc
 790 0018 C0EB0800 		rsbcc	r0, r0, r8
 791              	.LVL27:
 131:..\u8g2_csrc/u8x8_string.c ****   }
 792              		.loc 1 131 0
 793 001c C0F34600 		ubfxcc	r0, r0, #1, #7
 794              	.LVL28:
 124:..\u8g2_csrc/u8x8_string.c ****   
 795              		.loc 1 124 0
 796 0020 0020     		movcs	r0, #0
 797              	.LVL29:
 135:..\u8g2_csrc/u8x8_string.c ****   dx = cx + d;
 798              		.loc 1 135 0
 799 0022 2844     		add	r0, r0, r5
 800              	.LVL30:
 801 0024 5FFA80F9 		uxtb	r9, r0
 802              	.LVL31:
 803              	.L33:
 136:..\u8g2_csrc/u8x8_string.c ****   while( cx < dx )
 804              		.loc 1 136 0
 805 0028 4C45     		cmp	r4, r9
 806 002a 08D2     		bcs	.L38
 137:..\u8g2_csrc/u8x8_string.c ****   {
 138:..\u8g2_csrc/u8x8_string.c ****     u8x8_DrawUTF8(u8x8, cx, y, " ");
 807              		.loc 1 138 0
 808 002c 2146     		mov	r1, r4
 809 002e 114B     		ldr	r3, .L40
 810 0030 3A46     		mov	r2, r7
 811 0032 3046     		mov	r0, r6
 812 0034 FFF7FEFF 		bl	u8x8_DrawUTF8
 813              	.LVL32:
 139:..\u8g2_csrc/u8x8_string.c ****     cx++;
 814              		.loc 1 139 0
 815 0038 601C     		adds	r0, r4, #1
 816 003a C4B2     		uxtb	r4, r0
 817              	.LVL33:
 818 003c F4E7     		b	.L33
ARM GAS  C:\Users\info\AppData\Local\Temp\ccD9M76K.s 			page 51


 819              	.L38:
 140:..\u8g2_csrc/u8x8_string.c ****   }
 141:..\u8g2_csrc/u8x8_string.c ****   cx += u8x8_DrawUTF8(u8x8, cx, y, s);
 820              		.loc 1 141 0
 821 003e 2146     		mov	r1, r4
 822 0040 089B     		ldr	r3, [sp, #32]
 823 0042 3A46     		mov	r2, r7
 824 0044 3046     		mov	r0, r6
 825 0046 FFF7FEFF 		bl	u8x8_DrawUTF8
 826              	.LVL34:
 142:..\u8g2_csrc/u8x8_string.c ****   dx = x + w;
 827              		.loc 1 142 0
 828 004a A844     		add	r8, r8, r5
 141:..\u8g2_csrc/u8x8_string.c ****   dx = x + w;
 829              		.loc 1 141 0
 830 004c 2044     		add	r0, r0, r4
 831 004e C4B2     		uxtb	r4, r0
 832              	.LVL35:
 833              		.loc 1 142 0
 834 0050 5FFA88F8 		uxtb	r8, r8
 835              	.LVL36:
 836              	.L35:
 143:..\u8g2_csrc/u8x8_string.c ****   while( cx < dx )
 837              		.loc 1 143 0
 838 0054 4445     		cmp	r4, r8
 839 0056 08D2     		bcs	.L39
 144:..\u8g2_csrc/u8x8_string.c ****   {
 145:..\u8g2_csrc/u8x8_string.c ****     u8x8_DrawUTF8(u8x8, cx, y, " ");
 840              		.loc 1 145 0
 841 0058 2146     		mov	r1, r4
 842 005a 064B     		ldr	r3, .L40
 843 005c 3A46     		mov	r2, r7
 844 005e 3046     		mov	r0, r6
 845 0060 FFF7FEFF 		bl	u8x8_DrawUTF8
 846              	.LVL37:
 146:..\u8g2_csrc/u8x8_string.c ****     cx++;
 847              		.loc 1 146 0
 848 0064 601C     		adds	r0, r4, #1
 849 0066 C4B2     		uxtb	r4, r0
 850              	.LVL38:
 851 0068 F4E7     		b	.L35
 852              	.L39:
 853              	.LVL39:
 147:..\u8g2_csrc/u8x8_string.c ****   }
 148:..\u8g2_csrc/u8x8_string.c ****   cx -= x;
 149:..\u8g2_csrc/u8x8_string.c ****   return cx;
 854              		.loc 1 149 0
 855 006a 601B     		subs	r0, r4, r5
 150:..\u8g2_csrc/u8x8_string.c **** }
 856              		.loc 1 150 0
 857 006c C0B2     		uxtb	r0, r0
 858 006e BDE8F883 		pop	{r3, r4, r5, r6, r7, r8, r9, pc}
 859              	.LVL40:
 860              	.L41:
 861 0072 00BF     		.align	2
 862              	.L40:
 863 0074 00000000 		.word	.LC0
ARM GAS  C:\Users\info\AppData\Local\Temp\ccD9M76K.s 			page 52


 864              		.cfi_endproc
 865              	.LFE3:
 866              		.size	u8x8_DrawUTF8Line, .-u8x8_DrawUTF8Line
 867              		.section	.text.u8x8_DrawUTF8Lines,"ax",%progbits
 868              		.align	1
 869              		.global	u8x8_DrawUTF8Lines
 870              		.thumb
 871              		.thumb_func
 872              		.type	u8x8_DrawUTF8Lines, %function
 873              	u8x8_DrawUTF8Lines:
 874              	.LFB4:
 151:..\u8g2_csrc/u8x8_string.c **** 
 152:..\u8g2_csrc/u8x8_string.c **** /*
 153:..\u8g2_csrc/u8x8_string.c ****   draw several lines at position x,y.
 154:..\u8g2_csrc/u8x8_string.c ****   lines are stored in s and must be separated with '\n'.
 155:..\u8g2_csrc/u8x8_string.c ****   lines can be centered with respect to "w" 
 156:..\u8g2_csrc/u8x8_string.c ****   if s == NULL nothing is drawn and 0 is returned
 157:..\u8g2_csrc/u8x8_string.c ****   returns the number of lines in s
 158:..\u8g2_csrc/u8x8_string.c **** */
 159:..\u8g2_csrc/u8x8_string.c **** uint8_t u8x8_DrawUTF8Lines(u8x8_t *u8x8, uint8_t x, uint8_t y, uint8_t w, const char *s)
 160:..\u8g2_csrc/u8x8_string.c **** {
 875              		.loc 1 160 0
 876              		.cfi_startproc
 877              		@ args = 4, pretend = 0, frame = 0
 878              		@ frame_needed = 0, uses_anonymous_args = 0
 879              	.LVL41:
 880 0000 2DE9F347 		push	{r0, r1, r4, r5, r6, r7, r8, r9, r10, lr}
 881              		.cfi_def_cfa_offset 40
 882              		.cfi_offset 4, -32
 883              		.cfi_offset 5, -28
 884              		.cfi_offset 6, -24
 885              		.cfi_offset 7, -20
 886              		.cfi_offset 8, -16
 887              		.cfi_offset 9, -12
 888              		.cfi_offset 10, -8
 889              		.cfi_offset 14, -4
 890              		.loc 1 160 0
 891 0004 8046     		mov	r8, r0
 161:..\u8g2_csrc/u8x8_string.c ****   uint8_t i;
 162:..\u8g2_csrc/u8x8_string.c ****   uint8_t cnt;
 163:..\u8g2_csrc/u8x8_string.c ****   cnt = u8x8_GetStringLineCnt(s);
 892              		.loc 1 163 0
 893 0006 0A98     		ldr	r0, [sp, #40]
 894              	.LVL42:
 160:..\u8g2_csrc/u8x8_string.c ****   uint8_t i;
 895              		.loc 1 160 0
 896 0008 8946     		mov	r9, r1
 897 000a 1746     		mov	r7, r2
 898 000c 9A46     		mov	r10, r3
 899              		.loc 1 163 0
 900 000e FFF7FEFF 		bl	u8x8_GetStringLineCnt
 901              	.LVL43:
 902 0012 0646     		mov	r6, r0
 903              	.LVL44:
 164:..\u8g2_csrc/u8x8_string.c ****   for( i = 0; i < cnt; i++ )
 904              		.loc 1 164 0
 905 0014 0025     		movs	r5, #0
ARM GAS  C:\Users\info\AppData\Local\Temp\ccD9M76K.s 			page 53


 906              	.LVL45:
 907              	.L43:
 908 0016 E8B2     		uxtb	r0, r5
 909 0018 3C18     		adds	r4, r7, r0
 910              		.loc 1 164 0 is_stmt 0 discriminator 1
 911 001a 8642     		cmp	r6, r0
 912 001c E4B2     		uxtb	r4, r4
 913              	.LVL46:
 914 001e 0BD9     		bls	.L45
 165:..\u8g2_csrc/u8x8_string.c ****   {
 166:..\u8g2_csrc/u8x8_string.c ****     u8x8_DrawUTF8Line(u8x8, x, y, w, u8x8_GetStringLineStart(i, s));
 915              		.loc 1 166 0 is_stmt 1 discriminator 3
 916 0020 0A99     		ldr	r1, [sp, #40]
 917 0022 FFF7FEFF 		bl	u8x8_GetStringLineStart
 918              	.LVL47:
 919 0026 5346     		mov	r3, r10
 920 0028 0090     		str	r0, [sp]
 921 002a 2246     		mov	r2, r4
 922 002c 4946     		mov	r1, r9
 923 002e 4046     		mov	r0, r8
 924 0030 FFF7FEFF 		bl	u8x8_DrawUTF8Line
 925              	.LVL48:
 926 0034 0135     		adds	r5, r5, #1
 927              	.LVL49:
 928 0036 EEE7     		b	.L43
 929              	.LVL50:
 930              	.L45:
 167:..\u8g2_csrc/u8x8_string.c ****     y++;
 168:..\u8g2_csrc/u8x8_string.c ****   }
 169:..\u8g2_csrc/u8x8_string.c ****   return cnt;
 170:..\u8g2_csrc/u8x8_string.c **** }
 931              		.loc 1 170 0
 932 0038 3046     		mov	r0, r6
 933              	.LVL51:
 934 003a 02B0     		add	sp, sp, #8
 935              		.cfi_def_cfa_offset 32
 936              		@ sp needed
 937 003c BDE8F087 		pop	{r4, r5, r6, r7, r8, r9, r10, pc}
 938              		.cfi_endproc
 939              	.LFE4:
 940              		.size	u8x8_DrawUTF8Lines, .-u8x8_DrawUTF8Lines
 941              		.section	.rodata.str1.1,"aMS",%progbits,1
 942              	.LC0:
 943 0000 2000     		.ascii	" \000"
 944              		.text
 945              	.Letext0:
 946              		.file 2 "c:\\program files (x86)\\cypress\\psoc creator\\4.2\\psoc creator\\import\\gnu\\arm\\5.4.
 947              		.file 3 "c:\\program files (x86)\\cypress\\psoc creator\\4.2\\psoc creator\\import\\gnu\\arm\\5.4.
 948              		.file 4 "..\\u8g2_csrc\\u8x8.h"