ARM GAS  C:\Users\info\AppData\Local\Temp\cc0Cgkpe.s 			page 1


   1              		.syntax unified
   2              		.cpu cortex-m3
   3              		.fpu softvfp
   4              		.eabi_attribute 20, 1
   5              		.eabi_attribute 21, 1
   6              		.eabi_attribute 23, 3
   7              		.eabi_attribute 24, 1
   8              		.eabi_attribute 25, 1
   9              		.eabi_attribute 26, 1
  10              		.eabi_attribute 30, 2
  11              		.eabi_attribute 34, 1
  12              		.eabi_attribute 18, 4
  13              		.thumb
  14              		.syntax unified
  15              		.file	"u8x8_d_sbn1661.c"
  16              		.text
  17              	.Ltext0:
  18              		.cfi_sections	.debug_frame
  19              		.section	.text.u8x8_d_sbn1661_122x32,"ax",%progbits
  20              		.align	2
  21              		.global	u8x8_d_sbn1661_122x32
  22              		.thumb
  23              		.thumb_func
  24              		.type	u8x8_d_sbn1661_122x32, %function
  25              	u8x8_d_sbn1661_122x32:
  26              	.LFB0:
  27              		.file 1 "..\\u8g2-master\\csrc\\u8x8_d_sbn1661.c"
   1:..\u8g2-master\csrc/u8x8_d_sbn1661.c **** /*
   2:..\u8g2-master\csrc/u8x8_d_sbn1661.c **** 
   3:..\u8g2-master\csrc/u8x8_d_sbn1661.c ****   u8x8_d_sbn1661.c 
   4:..\u8g2-master\csrc/u8x8_d_sbn1661.c ****   
   5:..\u8g2-master\csrc/u8x8_d_sbn1661.c ****   SED1520 / SBN1661 122x32 5V LCD
   6:..\u8g2-master\csrc/u8x8_d_sbn1661.c ****   
   7:..\u8g2-master\csrc/u8x8_d_sbn1661.c ****   Universal 8bit Graphics Library (https://github.com/olikraus/u8g2/)
   8:..\u8g2-master\csrc/u8x8_d_sbn1661.c **** 
   9:..\u8g2-master\csrc/u8x8_d_sbn1661.c ****   Copyright (c) 2016, olikraus@gmail.com
  10:..\u8g2-master\csrc/u8x8_d_sbn1661.c ****   All rights reserved.
  11:..\u8g2-master\csrc/u8x8_d_sbn1661.c **** 
  12:..\u8g2-master\csrc/u8x8_d_sbn1661.c ****   Redistribution and use in source and binary forms, with or without modification, 
  13:..\u8g2-master\csrc/u8x8_d_sbn1661.c ****   are permitted provided that the following conditions are met:
  14:..\u8g2-master\csrc/u8x8_d_sbn1661.c **** 
  15:..\u8g2-master\csrc/u8x8_d_sbn1661.c ****   * Redistributions of source code must retain the above copyright notice, this list 
  16:..\u8g2-master\csrc/u8x8_d_sbn1661.c ****     of conditions and the following disclaimer.
  17:..\u8g2-master\csrc/u8x8_d_sbn1661.c ****     
  18:..\u8g2-master\csrc/u8x8_d_sbn1661.c ****   * Redistributions in binary form must reproduce the above copyright notice, this 
  19:..\u8g2-master\csrc/u8x8_d_sbn1661.c ****     list of conditions and the following disclaimer in the documentation and/or other 
  20:..\u8g2-master\csrc/u8x8_d_sbn1661.c ****     materials provided with the distribution.
  21:..\u8g2-master\csrc/u8x8_d_sbn1661.c **** 
  22:..\u8g2-master\csrc/u8x8_d_sbn1661.c ****   THIS SOFTWARE IS PROVIDED BY THE COPYRIGHT HOLDERS AND 
  23:..\u8g2-master\csrc/u8x8_d_sbn1661.c ****   CONTRIBUTORS "AS IS" AND ANY EXPRESS OR IMPLIED WARRANTIES, 
  24:..\u8g2-master\csrc/u8x8_d_sbn1661.c ****   INCLUDING, BUT NOT LIMITED TO, THE IMPLIED WARRANTIES OF 
  25:..\u8g2-master\csrc/u8x8_d_sbn1661.c ****   MERCHANTABILITY AND FITNESS FOR A PARTICULAR PURPOSE ARE 
  26:..\u8g2-master\csrc/u8x8_d_sbn1661.c ****   DISCLAIMED. IN NO EVENT SHALL THE COPYRIGHT HOLDER OR 
  27:..\u8g2-master\csrc/u8x8_d_sbn1661.c ****   CONTRIBUTORS BE LIABLE FOR ANY DIRECT, INDIRECT, INCIDENTAL, 
  28:..\u8g2-master\csrc/u8x8_d_sbn1661.c ****   SPECIAL, EXEMPLARY, OR CONSEQUENTIAL DAMAGES (INCLUDING, BUT 
  29:..\u8g2-master\csrc/u8x8_d_sbn1661.c ****   NOT LIMITED TO, PROCUREMENT OF SUBSTITUTE GOODS OR SERVICES; 
  30:..\u8g2-master\csrc/u8x8_d_sbn1661.c ****   LOSS OF USE, DATA, OR PROFITS; OR BUSINESS INTERRUPTION) HOWEVER 
ARM GAS  C:\Users\info\AppData\Local\Temp\cc0Cgkpe.s 			page 2


  31:..\u8g2-master\csrc/u8x8_d_sbn1661.c ****   CAUSED AND ON ANY THEORY OF LIABILITY, WHETHER IN CONTRACT, 
  32:..\u8g2-master\csrc/u8x8_d_sbn1661.c ****   STRICT LIABILITY, OR TORT (INCLUDING NEGLIGENCE OR OTHERWISE) 
  33:..\u8g2-master\csrc/u8x8_d_sbn1661.c ****   ARISING IN ANY WAY OUT OF THE USE OF THIS SOFTWARE, EVEN IF 
  34:..\u8g2-master\csrc/u8x8_d_sbn1661.c ****   ADVISED OF THE POSSIBILITY OF SUCH DAMAGE.  
  35:..\u8g2-master\csrc/u8x8_d_sbn1661.c **** 
  36:..\u8g2-master\csrc/u8x8_d_sbn1661.c ****   
  37:..\u8g2-master\csrc/u8x8_d_sbn1661.c **** */
  38:..\u8g2-master\csrc/u8x8_d_sbn1661.c **** #include "u8x8.h"
  39:..\u8g2-master\csrc/u8x8_d_sbn1661.c **** 
  40:..\u8g2-master\csrc/u8x8_d_sbn1661.c **** 
  41:..\u8g2-master\csrc/u8x8_d_sbn1661.c **** 
  42:..\u8g2-master\csrc/u8x8_d_sbn1661.c **** 
  43:..\u8g2-master\csrc/u8x8_d_sbn1661.c **** static const uint8_t u8x8_d_sbn1661_init_seq[] = {
  44:..\u8g2-master\csrc/u8x8_d_sbn1661.c ****   U8X8_C(0x0c0),		                /* display start at line 0  */  
  45:..\u8g2-master\csrc/u8x8_d_sbn1661.c ****   U8X8_C(0x0a0),		                /* a0: ADC forward, a1: ADC reverse */  
  46:..\u8g2-master\csrc/u8x8_d_sbn1661.c ****   U8X8_C(0x0a4),		                /* a4: normal driving, a5: power save */  
  47:..\u8g2-master\csrc/u8x8_d_sbn1661.c ****   U8X8_C(0x0a9),		                /* a8: 1/16, a9: 1/32 duty */  
  48:..\u8g2-master\csrc/u8x8_d_sbn1661.c **** 
  49:..\u8g2-master\csrc/u8x8_d_sbn1661.c ****   //U8X8_C(0x0af),				/* display on */
  50:..\u8g2-master\csrc/u8x8_d_sbn1661.c ****   
  51:..\u8g2-master\csrc/u8x8_d_sbn1661.c ****   U8X8_END()             			/* end of sequence */
  52:..\u8g2-master\csrc/u8x8_d_sbn1661.c **** };
  53:..\u8g2-master\csrc/u8x8_d_sbn1661.c **** 
  54:..\u8g2-master\csrc/u8x8_d_sbn1661.c **** static const uint8_t u8x8_d_sbn1661_powersave0_seq[] = {
  55:..\u8g2-master\csrc/u8x8_d_sbn1661.c ****   U8X8_C(0x0af),		                /* display on */
  56:..\u8g2-master\csrc/u8x8_d_sbn1661.c ****   U8X8_END()             			/* end of sequence */
  57:..\u8g2-master\csrc/u8x8_d_sbn1661.c **** };
  58:..\u8g2-master\csrc/u8x8_d_sbn1661.c **** 
  59:..\u8g2-master\csrc/u8x8_d_sbn1661.c **** static const uint8_t u8x8_d_sbn1661_powersave1_seq[] = {
  60:..\u8g2-master\csrc/u8x8_d_sbn1661.c ****   U8X8_C(0x0ae),		                /* display off */
  61:..\u8g2-master\csrc/u8x8_d_sbn1661.c ****   U8X8_END()             			/* end of sequence */
  62:..\u8g2-master\csrc/u8x8_d_sbn1661.c **** };
  63:..\u8g2-master\csrc/u8x8_d_sbn1661.c **** 
  64:..\u8g2-master\csrc/u8x8_d_sbn1661.c **** 
  65:..\u8g2-master\csrc/u8x8_d_sbn1661.c **** struct u8x8_sbn1661_vars
  66:..\u8g2-master\csrc/u8x8_d_sbn1661.c **** {
  67:..\u8g2-master\csrc/u8x8_d_sbn1661.c ****   uint8_t *ptr;
  68:..\u8g2-master\csrc/u8x8_d_sbn1661.c ****   uint8_t x;
  69:..\u8g2-master\csrc/u8x8_d_sbn1661.c ****   uint8_t c;
  70:..\u8g2-master\csrc/u8x8_d_sbn1661.c ****   uint8_t arg_int;
  71:..\u8g2-master\csrc/u8x8_d_sbn1661.c **** };
  72:..\u8g2-master\csrc/u8x8_d_sbn1661.c **** 
  73:..\u8g2-master\csrc/u8x8_d_sbn1661.c **** #ifdef NOT_USED
  74:..\u8g2-master\csrc/u8x8_d_sbn1661.c **** static void u8x8_sbn1661_out(u8x8_t *u8x8, struct u8x8_sbn1661_vars *v, void *arg_ptr)
  75:..\u8g2-master\csrc/u8x8_d_sbn1661.c **** {
  76:..\u8g2-master\csrc/u8x8_d_sbn1661.c ****   uint8_t cnt;
  77:..\u8g2-master\csrc/u8x8_d_sbn1661.c ****   u8x8_cad_SendCmd(u8x8, 0x000 | ((v->x << 3) & 63) );
  78:..\u8g2-master\csrc/u8x8_d_sbn1661.c ****   u8x8_cad_SendCmd(u8x8, 0x0b8 | (((u8x8_tile_t *)arg_ptr)->y_pos));
  79:..\u8g2-master\csrc/u8x8_d_sbn1661.c ****   
  80:..\u8g2-master\csrc/u8x8_d_sbn1661.c ****   while( v->arg_int > 0 )
  81:..\u8g2-master\csrc/u8x8_d_sbn1661.c ****   {
  82:..\u8g2-master\csrc/u8x8_d_sbn1661.c ****       /* calculate tiles to next boundary (end or chip limit) */
  83:..\u8g2-master\csrc/u8x8_d_sbn1661.c ****       cnt = v->x;
  84:..\u8g2-master\csrc/u8x8_d_sbn1661.c ****       cnt += 8;
  85:..\u8g2-master\csrc/u8x8_d_sbn1661.c ****       cnt &= 0x0f8;
  86:..\u8g2-master\csrc/u8x8_d_sbn1661.c ****       cnt -= v->x;
  87:..\u8g2-master\csrc/u8x8_d_sbn1661.c ****             
ARM GAS  C:\Users\info\AppData\Local\Temp\cc0Cgkpe.s 			page 3


  88:..\u8g2-master\csrc/u8x8_d_sbn1661.c ****       if ( cnt > v->c )
  89:..\u8g2-master\csrc/u8x8_d_sbn1661.c **** 	cnt = v->c;
  90:..\u8g2-master\csrc/u8x8_d_sbn1661.c ****     
  91:..\u8g2-master\csrc/u8x8_d_sbn1661.c ****       /* of course we still could use cnt=1 here... */
  92:..\u8g2-master\csrc/u8x8_d_sbn1661.c ****       /* but setting cnt to 1 is not very efficient */
  93:..\u8g2-master\csrc/u8x8_d_sbn1661.c ****       //cnt = 1;
  94:..\u8g2-master\csrc/u8x8_d_sbn1661.c ****     
  95:..\u8g2-master\csrc/u8x8_d_sbn1661.c ****       v->x +=cnt;
  96:..\u8g2-master\csrc/u8x8_d_sbn1661.c ****       v->c-=cnt;
  97:..\u8g2-master\csrc/u8x8_d_sbn1661.c ****       cnt<<=3;
  98:..\u8g2-master\csrc/u8x8_d_sbn1661.c ****       u8x8_cad_SendData(u8x8, cnt, v->ptr);	/* note: SendData can not handle more than 255 bytes */
  99:..\u8g2-master\csrc/u8x8_d_sbn1661.c ****       v->ptr += cnt;
 100:..\u8g2-master\csrc/u8x8_d_sbn1661.c ****     
 101:..\u8g2-master\csrc/u8x8_d_sbn1661.c ****       if ( v->c == 0 )
 102:..\u8g2-master\csrc/u8x8_d_sbn1661.c ****       {
 103:..\u8g2-master\csrc/u8x8_d_sbn1661.c **** 	v->ptr = ((u8x8_tile_t *)arg_ptr)->tile_ptr;
 104:..\u8g2-master\csrc/u8x8_d_sbn1661.c **** 	v->c = ((u8x8_tile_t *)arg_ptr)->cnt;
 105:..\u8g2-master\csrc/u8x8_d_sbn1661.c **** 	v->arg_int--;
 106:..\u8g2-master\csrc/u8x8_d_sbn1661.c ****       }
 107:..\u8g2-master\csrc/u8x8_d_sbn1661.c ****       if ( ((v->x) & 7) == 0 )
 108:..\u8g2-master\csrc/u8x8_d_sbn1661.c **** 	break;       
 109:..\u8g2-master\csrc/u8x8_d_sbn1661.c ****   } 
 110:..\u8g2-master\csrc/u8x8_d_sbn1661.c **** }
 111:..\u8g2-master\csrc/u8x8_d_sbn1661.c **** #endif /* NOT_USED */
 112:..\u8g2-master\csrc/u8x8_d_sbn1661.c **** 
 113:..\u8g2-master\csrc/u8x8_d_sbn1661.c **** 
 114:..\u8g2-master\csrc/u8x8_d_sbn1661.c **** static const u8x8_display_info_t u8x8_sbn1661_122x32_display_info =
 115:..\u8g2-master\csrc/u8x8_d_sbn1661.c **** {
 116:..\u8g2-master\csrc/u8x8_d_sbn1661.c ****   /* chip_enable_level = */ 0,		/* sbn1661: Not used */
 117:..\u8g2-master\csrc/u8x8_d_sbn1661.c ****   /* chip_disable_level = */ 1,		/* sbn1661: Not used */
 118:..\u8g2-master\csrc/u8x8_d_sbn1661.c ****   
 119:..\u8g2-master\csrc/u8x8_d_sbn1661.c ****   /* post_chip_enable_wait_ns = */ 100,
 120:..\u8g2-master\csrc/u8x8_d_sbn1661.c ****   /* pre_chip_disable_wait_ns = */ 20,
 121:..\u8g2-master\csrc/u8x8_d_sbn1661.c ****   /* reset_pulse_width_ms = */ 1, 
 122:..\u8g2-master\csrc/u8x8_d_sbn1661.c ****   /* post_reset_wait_ms = */ 6, 		/*  */
 123:..\u8g2-master\csrc/u8x8_d_sbn1661.c ****   /* sda_setup_time_ns = */ 12,		
 124:..\u8g2-master\csrc/u8x8_d_sbn1661.c ****   /* sck_pulse_width_ns = */ 75,	/* sbn1661: Not used */
 125:..\u8g2-master\csrc/u8x8_d_sbn1661.c ****   /* sck_clock_hz = */ 4000000UL,	/* sbn1661: Not used */
 126:..\u8g2-master\csrc/u8x8_d_sbn1661.c ****   /* spi_mode = */ 0,				/* active high, rising edge */
 127:..\u8g2-master\csrc/u8x8_d_sbn1661.c ****   /* i2c_bus_clock_100kHz = */ 4,	/* sbn1661: Not used */
 128:..\u8g2-master\csrc/u8x8_d_sbn1661.c ****   /* data_setup_time_ns = */ 200,
 129:..\u8g2-master\csrc/u8x8_d_sbn1661.c ****   /* write_pulse_width_ns = */ 200,	/*  */
 130:..\u8g2-master\csrc/u8x8_d_sbn1661.c ****   /* tile_width = */ 16,		/* width of 16*8=128 pixel */
 131:..\u8g2-master\csrc/u8x8_d_sbn1661.c ****   /* tile_hight = */ 4,
 132:..\u8g2-master\csrc/u8x8_d_sbn1661.c ****   /* default_x_offset = */ 0,
 133:..\u8g2-master\csrc/u8x8_d_sbn1661.c ****   /* flipmode_x_offset = */ 0,
 134:..\u8g2-master\csrc/u8x8_d_sbn1661.c ****   /* pixel_width = */ 122,
 135:..\u8g2-master\csrc/u8x8_d_sbn1661.c ****   /* pixel_height = */ 32
 136:..\u8g2-master\csrc/u8x8_d_sbn1661.c **** };
 137:..\u8g2-master\csrc/u8x8_d_sbn1661.c **** 
 138:..\u8g2-master\csrc/u8x8_d_sbn1661.c **** uint8_t u8x8_d_sbn1661_122x32(u8x8_t *u8x8, uint8_t msg, uint8_t arg_int, void *arg_ptr)
 139:..\u8g2-master\csrc/u8x8_d_sbn1661.c **** {
  28              		.loc 1 139 0
  29              		.cfi_startproc
  30              		@ args = 0, pretend = 0, frame = 0
  31              		@ frame_needed = 0, uses_anonymous_args = 0
  32              	.LVL0:
ARM GAS  C:\Users\info\AppData\Local\Temp\cc0Cgkpe.s 			page 4


 140:..\u8g2-master\csrc/u8x8_d_sbn1661.c ****   uint8_t *ptr;
 141:..\u8g2-master\csrc/u8x8_d_sbn1661.c ****   //uint8_t x;
 142:..\u8g2-master\csrc/u8x8_d_sbn1661.c ****   //uint8_t c;
 143:..\u8g2-master\csrc/u8x8_d_sbn1661.c ****   
 144:..\u8g2-master\csrc/u8x8_d_sbn1661.c ****   switch(msg)
  33              		.loc 1 144 0
  34 0000 0939     		subs	r1, r1, #9
  35              	.LVL1:
 139:..\u8g2-master\csrc/u8x8_d_sbn1661.c ****   uint8_t *ptr;
  36              		.loc 1 139 0
  37 0002 F8B5     		push	{r3, r4, r5, r6, r7, lr}
  38              		.cfi_def_cfa_offset 24
  39              		.cfi_offset 3, -24
  40              		.cfi_offset 4, -20
  41              		.cfi_offset 5, -16
  42              		.cfi_offset 6, -12
  43              		.cfi_offset 7, -8
  44              		.cfi_offset 14, -4
 139:..\u8g2-master\csrc/u8x8_d_sbn1661.c ****   uint8_t *ptr;
  45              		.loc 1 139 0
  46 0004 0446     		mov	r4, r0
  47 0006 1E46     		mov	r6, r3
  48              		.loc 1 144 0
  49 0008 0629     		cmp	r1, #6
  50 000a 00F28480 		bhi	.L9
  51 000e DFE801F0 		tbb	[pc, r1]
  52              	.LVL2:
  53              	.L4:
  54 0012 7D       		.byte	(.L3-.L4)/2
  55 0013 60       		.byte	(.L5-.L4)/2
  56 0014 3D       		.byte	(.L6-.L4)/2
  57 0015 82       		.byte	(.L9-.L4)/2
  58 0016 82       		.byte	(.L9-.L4)/2
  59 0017 82       		.byte	(.L9-.L4)/2
  60 0018 04       		.byte	(.L7-.L4)/2
  61 0019 00       		.p2align 1
  62              	.L7:
 145:..\u8g2-master\csrc/u8x8_d_sbn1661.c ****   {
 146:..\u8g2-master\csrc/u8x8_d_sbn1661.c ****     case U8X8_MSG_DISPLAY_SETUP_MEMORY:
 147:..\u8g2-master\csrc/u8x8_d_sbn1661.c ****       u8x8_d_helper_display_setup_memory(u8x8, &u8x8_sbn1661_122x32_display_info);
 148:..\u8g2-master\csrc/u8x8_d_sbn1661.c ****       break;
 149:..\u8g2-master\csrc/u8x8_d_sbn1661.c ****     case U8X8_MSG_DISPLAY_INIT:
 150:..\u8g2-master\csrc/u8x8_d_sbn1661.c ****       u8x8_d_helper_display_init(u8x8);
 151:..\u8g2-master\csrc/u8x8_d_sbn1661.c ****     
 152:..\u8g2-master\csrc/u8x8_d_sbn1661.c ****       u8x8->cad_cb(u8x8, U8X8_MSG_CAD_START_TRANSFER, 0, NULL);
 153:..\u8g2-master\csrc/u8x8_d_sbn1661.c ****       u8x8_cad_SendSequence(u8x8, u8x8_d_sbn1661_init_seq);
 154:..\u8g2-master\csrc/u8x8_d_sbn1661.c ****       u8x8->cad_cb(u8x8, U8X8_MSG_CAD_END_TRANSFER, 0, NULL);
 155:..\u8g2-master\csrc/u8x8_d_sbn1661.c ****     
 156:..\u8g2-master\csrc/u8x8_d_sbn1661.c ****       u8x8->cad_cb(u8x8, U8X8_MSG_CAD_START_TRANSFER, 1, NULL);
 157:..\u8g2-master\csrc/u8x8_d_sbn1661.c ****       u8x8_cad_SendSequence(u8x8, u8x8_d_sbn1661_init_seq);
 158:..\u8g2-master\csrc/u8x8_d_sbn1661.c ****       u8x8->cad_cb(u8x8, U8X8_MSG_CAD_END_TRANSFER, 1, NULL);
 159:..\u8g2-master\csrc/u8x8_d_sbn1661.c ****       break;
 160:..\u8g2-master\csrc/u8x8_d_sbn1661.c ****     case U8X8_MSG_DISPLAY_SET_POWER_SAVE:
 161:..\u8g2-master\csrc/u8x8_d_sbn1661.c ****       
 162:..\u8g2-master\csrc/u8x8_d_sbn1661.c ****       if ( arg_int == 0 )
 163:..\u8g2-master\csrc/u8x8_d_sbn1661.c ****       {
 164:..\u8g2-master\csrc/u8x8_d_sbn1661.c **** 	u8x8->cad_cb(u8x8, U8X8_MSG_CAD_START_TRANSFER, 0, NULL);
ARM GAS  C:\Users\info\AppData\Local\Temp\cc0Cgkpe.s 			page 5


 165:..\u8g2-master\csrc/u8x8_d_sbn1661.c **** 	u8x8_cad_SendSequence(u8x8, u8x8_d_sbn1661_powersave0_seq);
 166:..\u8g2-master\csrc/u8x8_d_sbn1661.c **** 	u8x8->cad_cb(u8x8, U8X8_MSG_CAD_END_TRANSFER, 0, NULL);
 167:..\u8g2-master\csrc/u8x8_d_sbn1661.c **** 
 168:..\u8g2-master\csrc/u8x8_d_sbn1661.c **** 	u8x8->cad_cb(u8x8, U8X8_MSG_CAD_START_TRANSFER, 1, NULL);
 169:..\u8g2-master\csrc/u8x8_d_sbn1661.c **** 	u8x8_cad_SendSequence(u8x8, u8x8_d_sbn1661_powersave0_seq);
 170:..\u8g2-master\csrc/u8x8_d_sbn1661.c **** 	u8x8->cad_cb(u8x8, U8X8_MSG_CAD_END_TRANSFER, 1, NULL);	
 171:..\u8g2-master\csrc/u8x8_d_sbn1661.c ****       }
 172:..\u8g2-master\csrc/u8x8_d_sbn1661.c ****       else
 173:..\u8g2-master\csrc/u8x8_d_sbn1661.c ****       {
 174:..\u8g2-master\csrc/u8x8_d_sbn1661.c **** 	u8x8->cad_cb(u8x8, U8X8_MSG_CAD_START_TRANSFER, 0, NULL);
 175:..\u8g2-master\csrc/u8x8_d_sbn1661.c **** 	u8x8_cad_SendSequence(u8x8, u8x8_d_sbn1661_powersave1_seq);
 176:..\u8g2-master\csrc/u8x8_d_sbn1661.c **** 	u8x8->cad_cb(u8x8, U8X8_MSG_CAD_END_TRANSFER, 0, NULL);
 177:..\u8g2-master\csrc/u8x8_d_sbn1661.c **** 	
 178:..\u8g2-master\csrc/u8x8_d_sbn1661.c **** 	u8x8->cad_cb(u8x8, U8X8_MSG_CAD_START_TRANSFER, 1, NULL);
 179:..\u8g2-master\csrc/u8x8_d_sbn1661.c **** 	u8x8_cad_SendSequence(u8x8, u8x8_d_sbn1661_powersave1_seq);
 180:..\u8g2-master\csrc/u8x8_d_sbn1661.c **** 	u8x8->cad_cb(u8x8, U8X8_MSG_CAD_END_TRANSFER, 1, NULL);
 181:..\u8g2-master\csrc/u8x8_d_sbn1661.c **** 	
 182:..\u8g2-master\csrc/u8x8_d_sbn1661.c ****       }
 183:..\u8g2-master\csrc/u8x8_d_sbn1661.c ****       break;
 184:..\u8g2-master\csrc/u8x8_d_sbn1661.c ****     case U8X8_MSG_DISPLAY_DRAW_TILE:
 185:..\u8g2-master\csrc/u8x8_d_sbn1661.c **** 
 186:..\u8g2-master\csrc/u8x8_d_sbn1661.c ****       ptr = ((u8x8_tile_t *)arg_ptr)->tile_ptr;
 187:..\u8g2-master\csrc/u8x8_d_sbn1661.c ****       // x and c are ignored (u8g2 only)
 188:..\u8g2-master\csrc/u8x8_d_sbn1661.c ****       //x = ((u8x8_tile_t *)arg_ptr)->x_pos;
 189:..\u8g2-master\csrc/u8x8_d_sbn1661.c ****       //c = ((u8x8_tile_t *)arg_ptr)->cnt;
 190:..\u8g2-master\csrc/u8x8_d_sbn1661.c ****       
 191:..\u8g2-master\csrc/u8x8_d_sbn1661.c ****       u8x8->cad_cb(u8x8, U8X8_MSG_CAD_START_TRANSFER, 0, NULL);
  63              		.loc 1 191 0
  64 001a 0023     		movs	r3, #0
  65 001c 1A46     		mov	r2, r3
  66              	.LVL3:
  67 001e C768     		ldr	r7, [r0, #12]
  68 0020 1821     		movs	r1, #24
 186:..\u8g2-master\csrc/u8x8_d_sbn1661.c ****       // x and c are ignored (u8g2 only)
  69              		.loc 1 186 0
  70 0022 3568     		ldr	r5, [r6]
  71              	.LVL4:
  72              		.loc 1 191 0
  73 0024 B847     		blx	r7
  74              	.LVL5:
 192:..\u8g2-master\csrc/u8x8_d_sbn1661.c ****       u8x8_cad_SendCmd(u8x8, 0x000 | 0);		// column 0
  75              		.loc 1 192 0
  76 0026 0021     		movs	r1, #0
  77 0028 2046     		mov	r0, r4
  78 002a FFF7FEFF 		bl	u8x8_cad_SendCmd
  79              	.LVL6:
 193:..\u8g2-master\csrc/u8x8_d_sbn1661.c ****       u8x8_cad_SendCmd(u8x8, 0x0b8 | (((u8x8_tile_t *)arg_ptr)->y_pos));
  80              		.loc 1 193 0
  81 002e B179     		ldrb	r1, [r6, #6]	@ zero_extendqisi2
  82 0030 2046     		mov	r0, r4
  83 0032 41F0B801 		orr	r1, r1, #184
  84 0036 FFF7FEFF 		bl	u8x8_cad_SendCmd
  85              	.LVL7:
 194:..\u8g2-master\csrc/u8x8_d_sbn1661.c ****       u8x8_cad_SendData(u8x8, 61, ptr);	/* note: SendData can not handle more than 255 bytes */    
  86              		.loc 1 194 0
  87 003a 2A46     		mov	r2, r5
  88 003c 3D21     		movs	r1, #61
ARM GAS  C:\Users\info\AppData\Local\Temp\cc0Cgkpe.s 			page 6


  89 003e 2046     		mov	r0, r4
  90 0040 FFF7FEFF 		bl	u8x8_cad_SendData
  91              	.LVL8:
 195:..\u8g2-master\csrc/u8x8_d_sbn1661.c ****       u8x8->cad_cb(u8x8, U8X8_MSG_CAD_END_TRANSFER, 0, NULL);
  92              		.loc 1 195 0
  93 0044 0023     		movs	r3, #0
  94 0046 1A46     		mov	r2, r3
  95 0048 E768     		ldr	r7, [r4, #12]
  96 004a 1921     		movs	r1, #25
  97 004c 2046     		mov	r0, r4
  98 004e B847     		blx	r7
  99              	.LVL9:
 196:..\u8g2-master\csrc/u8x8_d_sbn1661.c **** 
 197:..\u8g2-master\csrc/u8x8_d_sbn1661.c ****       ptr += 61;
 198:..\u8g2-master\csrc/u8x8_d_sbn1661.c ****       
 199:..\u8g2-master\csrc/u8x8_d_sbn1661.c ****       u8x8->cad_cb(u8x8, U8X8_MSG_CAD_START_TRANSFER, 1, NULL);
 100              		.loc 1 199 0
 101 0050 0122     		movs	r2, #1
 102 0052 0023     		movs	r3, #0
 103 0054 1821     		movs	r1, #24
 104 0056 E768     		ldr	r7, [r4, #12]
 105 0058 2046     		mov	r0, r4
 106 005a B847     		blx	r7
 107              	.LVL10:
 200:..\u8g2-master\csrc/u8x8_d_sbn1661.c ****       u8x8_cad_SendCmd(u8x8, 0x000 | 0);		// column 0
 108              		.loc 1 200 0
 109 005c 0021     		movs	r1, #0
 110 005e 2046     		mov	r0, r4
 111 0060 FFF7FEFF 		bl	u8x8_cad_SendCmd
 112              	.LVL11:
 201:..\u8g2-master\csrc/u8x8_d_sbn1661.c ****       u8x8_cad_SendCmd(u8x8, 0x0b8 | (((u8x8_tile_t *)arg_ptr)->y_pos));
 113              		.loc 1 201 0
 114 0064 B179     		ldrb	r1, [r6, #6]	@ zero_extendqisi2
 115 0066 2046     		mov	r0, r4
 116 0068 41F0B801 		orr	r1, r1, #184
 117 006c FFF7FEFF 		bl	u8x8_cad_SendCmd
 118              	.LVL12:
 202:..\u8g2-master\csrc/u8x8_d_sbn1661.c ****     
 203:..\u8g2-master\csrc/u8x8_d_sbn1661.c ****       u8x8_cad_SendData(u8x8, 61, ptr);	/* note: SendData can not handle more than 255 bytes */    
 119              		.loc 1 203 0
 120 0070 05F13D02 		add	r2, r5, #61
 121              	.LVL13:
 122 0074 3D21     		movs	r1, #61
 123 0076 2046     		mov	r0, r4
 124 0078 FFF7FEFF 		bl	u8x8_cad_SendData
 125              	.LVL14:
 126              	.L11:
 204:..\u8g2-master\csrc/u8x8_d_sbn1661.c ****       u8x8->cad_cb(u8x8, U8X8_MSG_CAD_END_TRANSFER, 1, NULL);
 127              		.loc 1 204 0
 128 007c E568     		ldr	r5, [r4, #12]
 129 007e 2046     		mov	r0, r4
 130 0080 0023     		movs	r3, #0
 131 0082 0122     		movs	r2, #1
 132 0084 1921     		movs	r1, #25
 133 0086 A847     		blx	r5
 134              	.LVL15:
 205:..\u8g2-master\csrc/u8x8_d_sbn1661.c ****     
ARM GAS  C:\Users\info\AppData\Local\Temp\cc0Cgkpe.s 			page 7


 206:..\u8g2-master\csrc/u8x8_d_sbn1661.c ****       break;
 207:..\u8g2-master\csrc/u8x8_d_sbn1661.c ****     default:
 208:..\u8g2-master\csrc/u8x8_d_sbn1661.c ****       return 0;
 209:..\u8g2-master\csrc/u8x8_d_sbn1661.c ****   }
 210:..\u8g2-master\csrc/u8x8_d_sbn1661.c ****   return 1;
 135              		.loc 1 210 0
 136 0088 0120     		movs	r0, #1
 206:..\u8g2-master\csrc/u8x8_d_sbn1661.c ****     default:
 137              		.loc 1 206 0
 138 008a F8BD     		pop	{r3, r4, r5, r6, r7, pc}
 139              	.LVL16:
 140              	.L6:
 141 008c 1546     		mov	r5, r2
 162:..\u8g2-master\csrc/u8x8_d_sbn1661.c ****       {
 142              		.loc 1 162 0
 143 008e 002A     		cmp	r2, #0
 144 0090 43D1     		bne	.L8
 164:..\u8g2-master\csrc/u8x8_d_sbn1661.c **** 	u8x8_cad_SendSequence(u8x8, u8x8_d_sbn1661_powersave0_seq);
 145              		.loc 1 164 0
 146 0092 1346     		mov	r3, r2
 147 0094 C668     		ldr	r6, [r0, #12]
 148              	.LVL17:
 149 0096 1821     		movs	r1, #24
 150 0098 B047     		blx	r6
 151              	.LVL18:
 165:..\u8g2-master\csrc/u8x8_d_sbn1661.c **** 	u8x8->cad_cb(u8x8, U8X8_MSG_CAD_END_TRANSFER, 0, NULL);
 152              		.loc 1 165 0
 153 009a 2046     		mov	r0, r4
 154 009c 2C49     		ldr	r1, .L13
 155 009e FFF7FEFF 		bl	u8x8_cad_SendSequence
 156              	.LVL19:
 166:..\u8g2-master\csrc/u8x8_d_sbn1661.c **** 
 157              		.loc 1 166 0
 158 00a2 E668     		ldr	r6, [r4, #12]
 159 00a4 2B46     		mov	r3, r5
 160 00a6 2A46     		mov	r2, r5
 161 00a8 1921     		movs	r1, #25
 162 00aa 2046     		mov	r0, r4
 163 00ac B047     		blx	r6
 164              	.LVL20:
 168:..\u8g2-master\csrc/u8x8_d_sbn1661.c **** 	u8x8_cad_SendSequence(u8x8, u8x8_d_sbn1661_powersave0_seq);
 165              		.loc 1 168 0
 166 00ae 2B46     		mov	r3, r5
 167 00b0 0122     		movs	r2, #1
 168 00b2 E668     		ldr	r6, [r4, #12]
 169 00b4 1821     		movs	r1, #24
 170 00b6 2046     		mov	r0, r4
 171 00b8 B047     		blx	r6
 172              	.LVL21:
 169:..\u8g2-master\csrc/u8x8_d_sbn1661.c **** 	u8x8->cad_cb(u8x8, U8X8_MSG_CAD_END_TRANSFER, 1, NULL);	
 173              		.loc 1 169 0
 174 00ba 2046     		mov	r0, r4
 175 00bc 2449     		ldr	r1, .L13
 176 00be FFF7FEFF 		bl	u8x8_cad_SendSequence
 177              	.LVL22:
 170:..\u8g2-master\csrc/u8x8_d_sbn1661.c ****       }
 178              		.loc 1 170 0
ARM GAS  C:\Users\info\AppData\Local\Temp\cc0Cgkpe.s 			page 8


 179 00c2 2B46     		mov	r3, r5
 180 00c4 2046     		mov	r0, r4
 181 00c6 E568     		ldr	r5, [r4, #12]
 182 00c8 0122     		movs	r2, #1
 183 00ca 1921     		movs	r1, #25
 184 00cc A847     		blx	r5
 185              	.LVL23:
 186              		.loc 1 210 0
 187 00ce 0120     		movs	r0, #1
 188 00d0 F8BD     		pop	{r3, r4, r5, r6, r7, pc}
 189              	.LVL24:
 190              	.L5:
 150:..\u8g2-master\csrc/u8x8_d_sbn1661.c ****     
 191              		.loc 1 150 0
 192 00d2 FFF7FEFF 		bl	u8x8_d_helper_display_init
 193              	.LVL25:
 152:..\u8g2-master\csrc/u8x8_d_sbn1661.c ****       u8x8_cad_SendSequence(u8x8, u8x8_d_sbn1661_init_seq);
 194              		.loc 1 152 0
 195 00d6 0023     		movs	r3, #0
 196 00d8 1A46     		mov	r2, r3
 197 00da E568     		ldr	r5, [r4, #12]
 198 00dc 1821     		movs	r1, #24
 199 00de 2046     		mov	r0, r4
 200 00e0 A847     		blx	r5
 201              	.LVL26:
 153:..\u8g2-master\csrc/u8x8_d_sbn1661.c ****       u8x8->cad_cb(u8x8, U8X8_MSG_CAD_END_TRANSFER, 0, NULL);
 202              		.loc 1 153 0
 203 00e2 2046     		mov	r0, r4
 204 00e4 1B49     		ldr	r1, .L13+4
 205 00e6 FFF7FEFF 		bl	u8x8_cad_SendSequence
 206              	.LVL27:
 154:..\u8g2-master\csrc/u8x8_d_sbn1661.c ****     
 207              		.loc 1 154 0
 208 00ea 0023     		movs	r3, #0
 209 00ec 1A46     		mov	r2, r3
 210 00ee E568     		ldr	r5, [r4, #12]
 211 00f0 1921     		movs	r1, #25
 212 00f2 2046     		mov	r0, r4
 213 00f4 A847     		blx	r5
 214              	.LVL28:
 156:..\u8g2-master\csrc/u8x8_d_sbn1661.c ****       u8x8_cad_SendSequence(u8x8, u8x8_d_sbn1661_init_seq);
 215              		.loc 1 156 0
 216 00f6 E568     		ldr	r5, [r4, #12]
 217 00f8 0023     		movs	r3, #0
 218 00fa 0122     		movs	r2, #1
 219 00fc 1821     		movs	r1, #24
 220 00fe 2046     		mov	r0, r4
 221 0100 A847     		blx	r5
 222              	.LVL29:
 157:..\u8g2-master\csrc/u8x8_d_sbn1661.c ****       u8x8->cad_cb(u8x8, U8X8_MSG_CAD_END_TRANSFER, 1, NULL);
 223              		.loc 1 157 0
 224 0102 1449     		ldr	r1, .L13+4
 225 0104 2046     		mov	r0, r4
 226 0106 FFF7FEFF 		bl	u8x8_cad_SendSequence
 227              	.LVL30:
 228 010a B7E7     		b	.L11
 229              	.LVL31:
ARM GAS  C:\Users\info\AppData\Local\Temp\cc0Cgkpe.s 			page 9


 230              	.L3:
 147:..\u8g2-master\csrc/u8x8_d_sbn1661.c ****       break;
 231              		.loc 1 147 0
 232 010c 1249     		ldr	r1, .L13+8
 233 010e FFF7FEFF 		bl	u8x8_d_helper_display_setup_memory
 234              	.LVL32:
 235              		.loc 1 210 0
 236 0112 0120     		movs	r0, #1
 148:..\u8g2-master\csrc/u8x8_d_sbn1661.c ****     case U8X8_MSG_DISPLAY_INIT:
 237              		.loc 1 148 0
 238 0114 F8BD     		pop	{r3, r4, r5, r6, r7, pc}
 239              	.LVL33:
 240              	.L9:
 208:..\u8g2-master\csrc/u8x8_d_sbn1661.c ****   }
 241              		.loc 1 208 0
 242 0116 0020     		movs	r0, #0
 243              	.LVL34:
 211:..\u8g2-master\csrc/u8x8_d_sbn1661.c **** }
 244              		.loc 1 211 0
 245 0118 F8BD     		pop	{r3, r4, r5, r6, r7, pc}
 246              	.LVL35:
 247              	.L8:
 174:..\u8g2-master\csrc/u8x8_d_sbn1661.c **** 	u8x8_cad_SendSequence(u8x8, u8x8_d_sbn1661_powersave1_seq);
 248              		.loc 1 174 0
 249 011a 0023     		movs	r3, #0
 250 011c 1A46     		mov	r2, r3
 251              	.LVL36:
 252 011e C568     		ldr	r5, [r0, #12]
 253 0120 1821     		movs	r1, #24
 254 0122 A847     		blx	r5
 255              	.LVL37:
 175:..\u8g2-master\csrc/u8x8_d_sbn1661.c **** 	u8x8->cad_cb(u8x8, U8X8_MSG_CAD_END_TRANSFER, 0, NULL);
 256              		.loc 1 175 0
 257 0124 2046     		mov	r0, r4
 258 0126 0D49     		ldr	r1, .L13+12
 259 0128 FFF7FEFF 		bl	u8x8_cad_SendSequence
 260              	.LVL38:
 176:..\u8g2-master\csrc/u8x8_d_sbn1661.c **** 	
 261              		.loc 1 176 0
 262 012c 0023     		movs	r3, #0
 263 012e 1A46     		mov	r2, r3
 264 0130 E568     		ldr	r5, [r4, #12]
 265 0132 1921     		movs	r1, #25
 266 0134 2046     		mov	r0, r4
 267 0136 A847     		blx	r5
 268              	.LVL39:
 178:..\u8g2-master\csrc/u8x8_d_sbn1661.c **** 	u8x8_cad_SendSequence(u8x8, u8x8_d_sbn1661_powersave1_seq);
 269              		.loc 1 178 0
 270 0138 E568     		ldr	r5, [r4, #12]
 271 013a 0023     		movs	r3, #0
 272 013c 0122     		movs	r2, #1
 273 013e 1821     		movs	r1, #24
 274 0140 2046     		mov	r0, r4
 275 0142 A847     		blx	r5
 276              	.LVL40:
 179:..\u8g2-master\csrc/u8x8_d_sbn1661.c **** 	u8x8->cad_cb(u8x8, U8X8_MSG_CAD_END_TRANSFER, 1, NULL);
 277              		.loc 1 179 0
ARM GAS  C:\Users\info\AppData\Local\Temp\cc0Cgkpe.s 			page 10


 278 0144 0549     		ldr	r1, .L13+12
 279 0146 2046     		mov	r0, r4
 280 0148 FFF7FEFF 		bl	u8x8_cad_SendSequence
 281              	.LVL41:
 282 014c 96E7     		b	.L11
 283              	.L14:
 284 014e 00BF     		.align	2
 285              	.L13:
 286 0150 24000000 		.word	.LANCHOR0+36
 287 0154 18000000 		.word	.LANCHOR0+24
 288 0158 00000000 		.word	.LANCHOR0
 289 015c 28000000 		.word	.LANCHOR0+40
 290              		.cfi_endproc
 291              	.LFE0:
 292              		.size	u8x8_d_sbn1661_122x32, .-u8x8_d_sbn1661_122x32
 293              		.section	.text.u8x8_d_sed1520_122x32,"ax",%progbits
 294              		.align	2
 295              		.global	u8x8_d_sed1520_122x32
 296              		.thumb
 297              		.thumb_func
 298              		.type	u8x8_d_sed1520_122x32, %function
 299              	u8x8_d_sed1520_122x32:
 300              	.LFB1:
 212:..\u8g2-master\csrc/u8x8_d_sbn1661.c **** 
 213:..\u8g2-master\csrc/u8x8_d_sbn1661.c **** uint8_t u8x8_d_sed1520_122x32(u8x8_t *u8x8, uint8_t msg, uint8_t arg_int, void *arg_ptr)
 214:..\u8g2-master\csrc/u8x8_d_sbn1661.c **** {
 301              		.loc 1 214 0
 302              		.cfi_startproc
 303              		@ args = 0, pretend = 0, frame = 0
 304              		@ frame_needed = 0, uses_anonymous_args = 0
 305              	.LVL42:
 306              	.LBB4:
 307              	.LBB5:
 144:..\u8g2-master\csrc/u8x8_d_sbn1661.c ****   {
 308              		.loc 1 144 0
 309 0000 0939     		subs	r1, r1, #9
 310              	.LVL43:
 311              	.LBE5:
 312              	.LBE4:
 313              		.loc 1 214 0
 314 0002 F8B5     		push	{r3, r4, r5, r6, r7, lr}
 315              		.cfi_def_cfa_offset 24
 316              		.cfi_offset 3, -24
 317              		.cfi_offset 4, -20
 318              		.cfi_offset 5, -16
 319              		.cfi_offset 6, -12
 320              		.cfi_offset 7, -8
 321              		.cfi_offset 14, -4
 322              		.loc 1 214 0
 323 0004 0446     		mov	r4, r0
 324              	.LVL44:
 325 0006 1E46     		mov	r6, r3
 326              	.LVL45:
 327              	.LBB8:
 328              	.LBB6:
 144:..\u8g2-master\csrc/u8x8_d_sbn1661.c ****   {
 329              		.loc 1 144 0
ARM GAS  C:\Users\info\AppData\Local\Temp\cc0Cgkpe.s 			page 11


 330 0008 0629     		cmp	r1, #6
 331 000a 00F28480 		bhi	.L23
 332 000e DFE801F0 		tbb	[pc, r1]
 333              	.LVL46:
 334              	.L18:
 335 0012 7D       		.byte	(.L17-.L18)/2
 336 0013 60       		.byte	(.L19-.L18)/2
 337 0014 3D       		.byte	(.L20-.L18)/2
 338 0015 82       		.byte	(.L23-.L18)/2
 339 0016 82       		.byte	(.L23-.L18)/2
 340 0017 82       		.byte	(.L23-.L18)/2
 341 0018 04       		.byte	(.L21-.L18)/2
 342 0019 00       		.p2align 1
 343              	.L21:
 191:..\u8g2-master\csrc/u8x8_d_sbn1661.c ****       u8x8_cad_SendCmd(u8x8, 0x000 | 0);		// column 0
 344              		.loc 1 191 0
 345 001a 0023     		movs	r3, #0
 346 001c 1A46     		mov	r2, r3
 347              	.LVL47:
 348 001e C768     		ldr	r7, [r0, #12]
 349 0020 1821     		movs	r1, #24
 186:..\u8g2-master\csrc/u8x8_d_sbn1661.c ****       // x and c are ignored (u8g2 only)
 350              		.loc 1 186 0
 351 0022 3568     		ldr	r5, [r6]
 352              	.LVL48:
 191:..\u8g2-master\csrc/u8x8_d_sbn1661.c ****       u8x8_cad_SendCmd(u8x8, 0x000 | 0);		// column 0
 353              		.loc 1 191 0
 354 0024 B847     		blx	r7
 355              	.LVL49:
 192:..\u8g2-master\csrc/u8x8_d_sbn1661.c ****       u8x8_cad_SendCmd(u8x8, 0x0b8 | (((u8x8_tile_t *)arg_ptr)->y_pos));
 356              		.loc 1 192 0
 357 0026 0021     		movs	r1, #0
 358 0028 2046     		mov	r0, r4
 359 002a FFF7FEFF 		bl	u8x8_cad_SendCmd
 360              	.LVL50:
 193:..\u8g2-master\csrc/u8x8_d_sbn1661.c ****       u8x8_cad_SendData(u8x8, 61, ptr);	/* note: SendData can not handle more than 255 bytes */    
 361              		.loc 1 193 0
 362 002e B179     		ldrb	r1, [r6, #6]	@ zero_extendqisi2
 363 0030 2046     		mov	r0, r4
 364 0032 41F0B801 		orr	r1, r1, #184
 365 0036 FFF7FEFF 		bl	u8x8_cad_SendCmd
 366              	.LVL51:
 194:..\u8g2-master\csrc/u8x8_d_sbn1661.c ****       u8x8->cad_cb(u8x8, U8X8_MSG_CAD_END_TRANSFER, 0, NULL);
 367              		.loc 1 194 0
 368 003a 2A46     		mov	r2, r5
 369 003c 3D21     		movs	r1, #61
 370 003e 2046     		mov	r0, r4
 371 0040 FFF7FEFF 		bl	u8x8_cad_SendData
 372              	.LVL52:
 195:..\u8g2-master\csrc/u8x8_d_sbn1661.c **** 
 373              		.loc 1 195 0
 374 0044 0023     		movs	r3, #0
 375 0046 1A46     		mov	r2, r3
 376 0048 E768     		ldr	r7, [r4, #12]
 377 004a 1921     		movs	r1, #25
 378 004c 2046     		mov	r0, r4
 379 004e B847     		blx	r7
ARM GAS  C:\Users\info\AppData\Local\Temp\cc0Cgkpe.s 			page 12


 380              	.LVL53:
 199:..\u8g2-master\csrc/u8x8_d_sbn1661.c ****       u8x8_cad_SendCmd(u8x8, 0x000 | 0);		// column 0
 381              		.loc 1 199 0
 382 0050 0122     		movs	r2, #1
 383 0052 0023     		movs	r3, #0
 384 0054 1821     		movs	r1, #24
 385 0056 E768     		ldr	r7, [r4, #12]
 386 0058 2046     		mov	r0, r4
 387 005a B847     		blx	r7
 388              	.LVL54:
 200:..\u8g2-master\csrc/u8x8_d_sbn1661.c ****       u8x8_cad_SendCmd(u8x8, 0x0b8 | (((u8x8_tile_t *)arg_ptr)->y_pos));
 389              		.loc 1 200 0
 390 005c 0021     		movs	r1, #0
 391 005e 2046     		mov	r0, r4
 392 0060 FFF7FEFF 		bl	u8x8_cad_SendCmd
 393              	.LVL55:
 201:..\u8g2-master\csrc/u8x8_d_sbn1661.c ****     
 394              		.loc 1 201 0
 395 0064 B179     		ldrb	r1, [r6, #6]	@ zero_extendqisi2
 396 0066 2046     		mov	r0, r4
 397 0068 41F0B801 		orr	r1, r1, #184
 398 006c FFF7FEFF 		bl	u8x8_cad_SendCmd
 399              	.LVL56:
 203:..\u8g2-master\csrc/u8x8_d_sbn1661.c ****       u8x8->cad_cb(u8x8, U8X8_MSG_CAD_END_TRANSFER, 1, NULL);
 400              		.loc 1 203 0
 401 0070 05F13D02 		add	r2, r5, #61
 402              	.LVL57:
 403 0074 3D21     		movs	r1, #61
 404 0076 2046     		mov	r0, r4
 405 0078 FFF7FEFF 		bl	u8x8_cad_SendData
 406              	.LVL58:
 407              	.L25:
 204:..\u8g2-master\csrc/u8x8_d_sbn1661.c ****     
 408              		.loc 1 204 0
 409 007c E568     		ldr	r5, [r4, #12]
 410 007e 2046     		mov	r0, r4
 411 0080 0023     		movs	r3, #0
 412 0082 0122     		movs	r2, #1
 413 0084 1921     		movs	r1, #25
 414 0086 A847     		blx	r5
 415              	.LVL59:
 210:..\u8g2-master\csrc/u8x8_d_sbn1661.c **** }
 416              		.loc 1 210 0
 417 0088 0120     		movs	r0, #1
 418 008a F8BD     		pop	{r3, r4, r5, r6, r7, pc}
 419              	.LVL60:
 420              	.L20:
 421 008c 1546     		mov	r5, r2
 162:..\u8g2-master\csrc/u8x8_d_sbn1661.c ****       {
 422              		.loc 1 162 0
 423 008e 002A     		cmp	r2, #0
 424 0090 43D1     		bne	.L22
 164:..\u8g2-master\csrc/u8x8_d_sbn1661.c **** 	u8x8_cad_SendSequence(u8x8, u8x8_d_sbn1661_powersave0_seq);
 425              		.loc 1 164 0
 426 0092 1346     		mov	r3, r2
 427 0094 C668     		ldr	r6, [r0, #12]
 428              	.LVL61:
ARM GAS  C:\Users\info\AppData\Local\Temp\cc0Cgkpe.s 			page 13


 429 0096 1821     		movs	r1, #24
 430 0098 B047     		blx	r6
 431              	.LVL62:
 165:..\u8g2-master\csrc/u8x8_d_sbn1661.c **** 	u8x8->cad_cb(u8x8, U8X8_MSG_CAD_END_TRANSFER, 0, NULL);
 432              		.loc 1 165 0
 433 009a 2046     		mov	r0, r4
 434 009c 2C49     		ldr	r1, .L26
 435 009e FFF7FEFF 		bl	u8x8_cad_SendSequence
 436              	.LVL63:
 166:..\u8g2-master\csrc/u8x8_d_sbn1661.c **** 
 437              		.loc 1 166 0
 438 00a2 E668     		ldr	r6, [r4, #12]
 439 00a4 2B46     		mov	r3, r5
 440 00a6 2A46     		mov	r2, r5
 441 00a8 1921     		movs	r1, #25
 442 00aa 2046     		mov	r0, r4
 443 00ac B047     		blx	r6
 444              	.LVL64:
 168:..\u8g2-master\csrc/u8x8_d_sbn1661.c **** 	u8x8_cad_SendSequence(u8x8, u8x8_d_sbn1661_powersave0_seq);
 445              		.loc 1 168 0
 446 00ae 2B46     		mov	r3, r5
 447 00b0 0122     		movs	r2, #1
 448 00b2 E668     		ldr	r6, [r4, #12]
 449 00b4 1821     		movs	r1, #24
 450 00b6 2046     		mov	r0, r4
 451 00b8 B047     		blx	r6
 452              	.LVL65:
 169:..\u8g2-master\csrc/u8x8_d_sbn1661.c **** 	u8x8->cad_cb(u8x8, U8X8_MSG_CAD_END_TRANSFER, 1, NULL);	
 453              		.loc 1 169 0
 454 00ba 2046     		mov	r0, r4
 455 00bc 2449     		ldr	r1, .L26
 456 00be FFF7FEFF 		bl	u8x8_cad_SendSequence
 457              	.LVL66:
 170:..\u8g2-master\csrc/u8x8_d_sbn1661.c ****       }
 458              		.loc 1 170 0
 459 00c2 2B46     		mov	r3, r5
 460 00c4 2046     		mov	r0, r4
 461 00c6 E568     		ldr	r5, [r4, #12]
 462 00c8 0122     		movs	r2, #1
 463 00ca 1921     		movs	r1, #25
 464 00cc A847     		blx	r5
 465              	.LVL67:
 210:..\u8g2-master\csrc/u8x8_d_sbn1661.c **** }
 466              		.loc 1 210 0
 467 00ce 0120     		movs	r0, #1
 468 00d0 F8BD     		pop	{r3, r4, r5, r6, r7, pc}
 469              	.LVL68:
 470              	.L19:
 150:..\u8g2-master\csrc/u8x8_d_sbn1661.c ****     
 471              		.loc 1 150 0
 472 00d2 FFF7FEFF 		bl	u8x8_d_helper_display_init
 473              	.LVL69:
 152:..\u8g2-master\csrc/u8x8_d_sbn1661.c ****       u8x8_cad_SendSequence(u8x8, u8x8_d_sbn1661_init_seq);
 474              		.loc 1 152 0
 475 00d6 0023     		movs	r3, #0
 476 00d8 1A46     		mov	r2, r3
 477 00da E568     		ldr	r5, [r4, #12]
ARM GAS  C:\Users\info\AppData\Local\Temp\cc0Cgkpe.s 			page 14


 478 00dc 1821     		movs	r1, #24
 479 00de 2046     		mov	r0, r4
 480 00e0 A847     		blx	r5
 481              	.LVL70:
 153:..\u8g2-master\csrc/u8x8_d_sbn1661.c ****       u8x8->cad_cb(u8x8, U8X8_MSG_CAD_END_TRANSFER, 0, NULL);
 482              		.loc 1 153 0
 483 00e2 2046     		mov	r0, r4
 484 00e4 1B49     		ldr	r1, .L26+4
 485 00e6 FFF7FEFF 		bl	u8x8_cad_SendSequence
 486              	.LVL71:
 154:..\u8g2-master\csrc/u8x8_d_sbn1661.c ****     
 487              		.loc 1 154 0
 488 00ea 0023     		movs	r3, #0
 489 00ec 1A46     		mov	r2, r3
 490 00ee E568     		ldr	r5, [r4, #12]
 491 00f0 1921     		movs	r1, #25
 492 00f2 2046     		mov	r0, r4
 493 00f4 A847     		blx	r5
 494              	.LVL72:
 156:..\u8g2-master\csrc/u8x8_d_sbn1661.c ****       u8x8_cad_SendSequence(u8x8, u8x8_d_sbn1661_init_seq);
 495              		.loc 1 156 0
 496 00f6 E568     		ldr	r5, [r4, #12]
 497 00f8 0023     		movs	r3, #0
 498 00fa 0122     		movs	r2, #1
 499 00fc 1821     		movs	r1, #24
 500 00fe 2046     		mov	r0, r4
 501 0100 A847     		blx	r5
 502              	.LVL73:
 157:..\u8g2-master\csrc/u8x8_d_sbn1661.c ****       u8x8->cad_cb(u8x8, U8X8_MSG_CAD_END_TRANSFER, 1, NULL);
 503              		.loc 1 157 0
 504 0102 1449     		ldr	r1, .L26+4
 505 0104 2046     		mov	r0, r4
 506 0106 FFF7FEFF 		bl	u8x8_cad_SendSequence
 507              	.LVL74:
 508 010a B7E7     		b	.L25
 509              	.LVL75:
 510              	.L17:
 147:..\u8g2-master\csrc/u8x8_d_sbn1661.c ****       break;
 511              		.loc 1 147 0
 512 010c 1249     		ldr	r1, .L26+8
 513 010e FFF7FEFF 		bl	u8x8_d_helper_display_setup_memory
 514              	.LVL76:
 210:..\u8g2-master\csrc/u8x8_d_sbn1661.c **** }
 515              		.loc 1 210 0
 516 0112 0120     		movs	r0, #1
 517 0114 F8BD     		pop	{r3, r4, r5, r6, r7, pc}
 518              	.LVL77:
 519              	.L23:
 208:..\u8g2-master\csrc/u8x8_d_sbn1661.c ****   }
 520              		.loc 1 208 0
 521 0116 0020     		movs	r0, #0
 522              	.LVL78:
 523              	.LBE6:
 524              	.LBE8:
 215:..\u8g2-master\csrc/u8x8_d_sbn1661.c ****   return u8x8_d_sbn1661_122x32(u8x8, msg, arg_int, arg_ptr);
 216:..\u8g2-master\csrc/u8x8_d_sbn1661.c **** 
 217:..\u8g2-master\csrc/u8x8_d_sbn1661.c **** }
ARM GAS  C:\Users\info\AppData\Local\Temp\cc0Cgkpe.s 			page 15


 525              		.loc 1 217 0
 526 0118 F8BD     		pop	{r3, r4, r5, r6, r7, pc}
 527              	.LVL79:
 528              	.L22:
 529              	.LBB9:
 530              	.LBB7:
 174:..\u8g2-master\csrc/u8x8_d_sbn1661.c **** 	u8x8_cad_SendSequence(u8x8, u8x8_d_sbn1661_powersave1_seq);
 531              		.loc 1 174 0
 532 011a 0023     		movs	r3, #0
 533 011c 1A46     		mov	r2, r3
 534              	.LVL80:
 535 011e C568     		ldr	r5, [r0, #12]
 536 0120 1821     		movs	r1, #24
 537 0122 A847     		blx	r5
 538              	.LVL81:
 175:..\u8g2-master\csrc/u8x8_d_sbn1661.c **** 	u8x8->cad_cb(u8x8, U8X8_MSG_CAD_END_TRANSFER, 0, NULL);
 539              		.loc 1 175 0
 540 0124 2046     		mov	r0, r4
 541 0126 0D49     		ldr	r1, .L26+12
 542 0128 FFF7FEFF 		bl	u8x8_cad_SendSequence
 543              	.LVL82:
 176:..\u8g2-master\csrc/u8x8_d_sbn1661.c **** 	
 544              		.loc 1 176 0
 545 012c 0023     		movs	r3, #0
 546 012e 1A46     		mov	r2, r3
 547 0130 E568     		ldr	r5, [r4, #12]
 548 0132 1921     		movs	r1, #25
 549 0134 2046     		mov	r0, r4
 550 0136 A847     		blx	r5
 551              	.LVL83:
 178:..\u8g2-master\csrc/u8x8_d_sbn1661.c **** 	u8x8_cad_SendSequence(u8x8, u8x8_d_sbn1661_powersave1_seq);
 552              		.loc 1 178 0
 553 0138 E568     		ldr	r5, [r4, #12]
 554 013a 0023     		movs	r3, #0
 555 013c 0122     		movs	r2, #1
 556 013e 1821     		movs	r1, #24
 557 0140 2046     		mov	r0, r4
 558 0142 A847     		blx	r5
 559              	.LVL84:
 179:..\u8g2-master\csrc/u8x8_d_sbn1661.c **** 	u8x8->cad_cb(u8x8, U8X8_MSG_CAD_END_TRANSFER, 1, NULL);
 560              		.loc 1 179 0
 561 0144 0549     		ldr	r1, .L26+12
 562 0146 2046     		mov	r0, r4
 563 0148 FFF7FEFF 		bl	u8x8_cad_SendSequence
 564              	.LVL85:
 565 014c 96E7     		b	.L25
 566              	.L27:
 567 014e 00BF     		.align	2
 568              	.L26:
 569 0150 24000000 		.word	.LANCHOR0+36
 570 0154 18000000 		.word	.LANCHOR0+24
 571 0158 00000000 		.word	.LANCHOR0
 572 015c 28000000 		.word	.LANCHOR0+40
 573              	.LBE7:
 574              	.LBE9:
 575              		.cfi_endproc
 576              	.LFE1:
ARM GAS  C:\Users\info\AppData\Local\Temp\cc0Cgkpe.s 			page 16


 577              		.size	u8x8_d_sed1520_122x32, .-u8x8_d_sed1520_122x32
 578              		.section	.rodata
 579              		.align	2
 580              		.set	.LANCHOR0,. + 0
 581              		.type	u8x8_sbn1661_122x32_display_info, %object
 582              		.size	u8x8_sbn1661_122x32_display_info, 24
 583              	u8x8_sbn1661_122x32_display_info:
 584 0000 00       		.byte	0
 585 0001 01       		.byte	1
 586 0002 64       		.byte	100
 587 0003 14       		.byte	20
 588 0004 01       		.byte	1
 589 0005 06       		.byte	6
 590 0006 0C       		.byte	12
 591 0007 4B       		.byte	75
 592 0008 00093D00 		.word	4000000
 593 000c 00       		.byte	0
 594 000d 04       		.byte	4
 595 000e C8       		.byte	-56
 596 000f C8       		.byte	-56
 597 0010 10       		.byte	16
 598 0011 04       		.byte	4
 599 0012 00       		.byte	0
 600 0013 00       		.byte	0
 601 0014 7A00     		.short	122
 602 0016 2000     		.short	32
 603              		.type	u8x8_d_sbn1661_init_seq, %object
 604              		.size	u8x8_d_sbn1661_init_seq, 9
 605              	u8x8_d_sbn1661_init_seq:
 606 0018 15       		.byte	21
 607 0019 C0       		.byte	-64
 608 001a 15       		.byte	21
 609 001b A0       		.byte	-96
 610 001c 15       		.byte	21
 611 001d A4       		.byte	-92
 612 001e 15       		.byte	21
 613 001f A9       		.byte	-87
 614 0020 FF       		.byte	-1
 615 0021 000000   		.space	3
 616              		.type	u8x8_d_sbn1661_powersave0_seq, %object
 617              		.size	u8x8_d_sbn1661_powersave0_seq, 3
 618              	u8x8_d_sbn1661_powersave0_seq:
 619 0024 15       		.byte	21
 620 0025 AF       		.byte	-81
 621 0026 FF       		.byte	-1
 622 0027 00       		.space	1
 623              		.type	u8x8_d_sbn1661_powersave1_seq, %object
 624              		.size	u8x8_d_sbn1661_powersave1_seq, 3
 625              	u8x8_d_sbn1661_powersave1_seq:
 626 0028 15       		.byte	21
 627 0029 AE       		.byte	-82
 628 002a FF       		.byte	-1
 629              		.text
 630              	.Letext0:
 631              		.file 2 "c:\\program files (x86)\\cypress\\psoc creator\\4.2\\psoc creator\\import\\gnu\\arm\\5.4.
 632              		.file 3 "c:\\program files (x86)\\cypress\\psoc creator\\4.2\\psoc creator\\import\\gnu\\arm\\5.4.
 633              		.file 4 "..\\u8g2-master\\csrc\\u8x8.h"
ARM GAS  C:\Users\info\AppData\Local\Temp\cc0Cgkpe.s 			page 17

