ARM GAS  C:\Users\info\AppData\Local\Temp\ccr0lKXY.s 			page 1


   1              		.syntax unified
   2              		.cpu cortex-m3
   3              		.fpu softvfp
   4              		.eabi_attribute 20, 1
   5              		.eabi_attribute 21, 1
   6              		.eabi_attribute 23, 3
   7              		.eabi_attribute 24, 1
   8              		.eabi_attribute 25, 1
   9              		.eabi_attribute 26, 1
  10              		.eabi_attribute 30, 2
  11              		.eabi_attribute 34, 1
  12              		.eabi_attribute 18, 4
  13              		.thumb
  14              		.syntax unified
  15              		.file	"u8x8_u8toa.c"
  16              		.text
  17              	.Ltext0:
  18              		.cfi_sections	.debug_frame
  19              		.section	.text.u8x8_u8toap,"ax",%progbits
  20              		.align	2
  21              		.global	u8x8_u8toap
  22              		.thumb
  23              		.thumb_func
  24              		.type	u8x8_u8toap, %function
  25              	u8x8_u8toap:
  26              	.LFB0:
  27              		.file 1 "..\\u8g2-master\\csrc\\u8x8_u8toa.c"
   1:..\u8g2-master\csrc/u8x8_u8toa.c **** /*
   2:..\u8g2-master\csrc/u8x8_u8toa.c **** 
   3:..\u8g2-master\csrc/u8x8_u8toa.c ****   u8x8_u8toa.c
   4:..\u8g2-master\csrc/u8x8_u8toa.c **** 
   5:..\u8g2-master\csrc/u8x8_u8toa.c ****   Universal 8bit Graphics Library (https://github.com/olikraus/u8g2/)
   6:..\u8g2-master\csrc/u8x8_u8toa.c **** 
   7:..\u8g2-master\csrc/u8x8_u8toa.c ****   Copyright (c) 2016, olikraus@gmail.com
   8:..\u8g2-master\csrc/u8x8_u8toa.c ****   All rights reserved.
   9:..\u8g2-master\csrc/u8x8_u8toa.c **** 
  10:..\u8g2-master\csrc/u8x8_u8toa.c ****   Redistribution and use in source and binary forms, with or without modification, 
  11:..\u8g2-master\csrc/u8x8_u8toa.c ****   are permitted provided that the following conditions are met:
  12:..\u8g2-master\csrc/u8x8_u8toa.c **** 
  13:..\u8g2-master\csrc/u8x8_u8toa.c ****   * Redistributions of source code must retain the above copyright notice, this list 
  14:..\u8g2-master\csrc/u8x8_u8toa.c ****     of conditions and the following disclaimer.
  15:..\u8g2-master\csrc/u8x8_u8toa.c ****     
  16:..\u8g2-master\csrc/u8x8_u8toa.c ****   * Redistributions in binary form must reproduce the above copyright notice, this 
  17:..\u8g2-master\csrc/u8x8_u8toa.c ****     list of conditions and the following disclaimer in the documentation and/or other 
  18:..\u8g2-master\csrc/u8x8_u8toa.c ****     materials provided with the distribution.
  19:..\u8g2-master\csrc/u8x8_u8toa.c **** 
  20:..\u8g2-master\csrc/u8x8_u8toa.c ****   THIS SOFTWARE IS PROVIDED BY THE COPYRIGHT HOLDERS AND 
  21:..\u8g2-master\csrc/u8x8_u8toa.c ****   CONTRIBUTORS "AS IS" AND ANY EXPRESS OR IMPLIED WARRANTIES, 
  22:..\u8g2-master\csrc/u8x8_u8toa.c ****   INCLUDING, BUT NOT LIMITED TO, THE IMPLIED WARRANTIES OF 
  23:..\u8g2-master\csrc/u8x8_u8toa.c ****   MERCHANTABILITY AND FITNESS FOR A PARTICULAR PURPOSE ARE 
  24:..\u8g2-master\csrc/u8x8_u8toa.c ****   DISCLAIMED. IN NO EVENT SHALL THE COPYRIGHT HOLDER OR 
  25:..\u8g2-master\csrc/u8x8_u8toa.c ****   CONTRIBUTORS BE LIABLE FOR ANY DIRECT, INDIRECT, INCIDENTAL, 
  26:..\u8g2-master\csrc/u8x8_u8toa.c ****   SPECIAL, EXEMPLARY, OR CONSEQUENTIAL DAMAGES (INCLUDING, BUT 
  27:..\u8g2-master\csrc/u8x8_u8toa.c ****   NOT LIMITED TO, PROCUREMENT OF SUBSTITUTE GOODS OR SERVICES; 
  28:..\u8g2-master\csrc/u8x8_u8toa.c ****   LOSS OF USE, DATA, OR PROFITS; OR BUSINESS INTERRUPTION) HOWEVER 
  29:..\u8g2-master\csrc/u8x8_u8toa.c ****   CAUSED AND ON ANY THEORY OF LIABILITY, WHETHER IN CONTRACT, 
  30:..\u8g2-master\csrc/u8x8_u8toa.c ****   STRICT LIABILITY, OR TORT (INCLUDING NEGLIGENCE OR OTHERWISE) 
ARM GAS  C:\Users\info\AppData\Local\Temp\ccr0lKXY.s 			page 2


  31:..\u8g2-master\csrc/u8x8_u8toa.c ****   ARISING IN ANY WAY OUT OF THE USE OF THIS SOFTWARE, EVEN IF 
  32:..\u8g2-master\csrc/u8x8_u8toa.c ****   ADVISED OF THE POSSIBILITY OF SUCH DAMAGE.  
  33:..\u8g2-master\csrc/u8x8_u8toa.c ****   
  34:..\u8g2-master\csrc/u8x8_u8toa.c **** */
  35:..\u8g2-master\csrc/u8x8_u8toa.c **** 
  36:..\u8g2-master\csrc/u8x8_u8toa.c **** 
  37:..\u8g2-master\csrc/u8x8_u8toa.c **** #include "u8x8.h"
  38:..\u8g2-master\csrc/u8x8_u8toa.c **** 
  39:..\u8g2-master\csrc/u8x8_u8toa.c **** static const unsigned char u8x8_u8toa_tab[3]  = { 100, 10, 1 } ;
  40:..\u8g2-master\csrc/u8x8_u8toa.c **** const char *u8x8_u8toap(char * dest, uint8_t v)
  41:..\u8g2-master\csrc/u8x8_u8toa.c **** {
  28              		.loc 1 41 0
  29              		.cfi_startproc
  30              		@ args = 0, pretend = 0, frame = 0
  31              		@ frame_needed = 0, uses_anonymous_args = 0
  32              		@ link register save eliminated.
  33              	.LVL0:
  34 0000 70B4     		push	{r4, r5, r6}
  35              		.cfi_def_cfa_offset 12
  36              		.cfi_offset 4, -12
  37              		.cfi_offset 5, -8
  38              		.cfi_offset 6, -4
  39 0002 0B4D     		ldr	r5, .L10
  40 0004 441E     		subs	r4, r0, #1
  41 0006 861C     		adds	r6, r0, #2
  42              	.LVL1:
  43              	.L4:
  42:..\u8g2-master\csrc/u8x8_u8toa.c ****   uint8_t pos;
  43:..\u8g2-master\csrc/u8x8_u8toa.c ****   uint8_t d;
  44:..\u8g2-master\csrc/u8x8_u8toa.c ****   uint8_t c;
  45:..\u8g2-master\csrc/u8x8_u8toa.c ****   for( pos = 0; pos < 3; pos++ )
  46:..\u8g2-master\csrc/u8x8_u8toa.c ****   {
  47:..\u8g2-master\csrc/u8x8_u8toa.c ****       d = '0';
  48:..\u8g2-master\csrc/u8x8_u8toa.c ****       c = *(u8x8_u8toa_tab+pos);
  44              		.loc 1 48 0
  45 0008 15F8012B 		ldrb	r2, [r5], #1	@ zero_extendqisi2
  46              	.LVL2:
  49:..\u8g2-master\csrc/u8x8_u8toa.c ****       while( v >= c )
  47              		.loc 1 49 0
  48 000c 3023     		movs	r3, #48
  49 000e 8A42     		cmp	r2, r1
  50 0010 05D8     		bhi	.L2
  51              	.LVL3:
  52              	.L3:
  50:..\u8g2-master\csrc/u8x8_u8toa.c ****       {
  51:..\u8g2-master\csrc/u8x8_u8toa.c **** 	v -= c;
  53              		.loc 1 51 0
  54 0012 891A     		subs	r1, r1, r2
  55              	.LVL4:
  56 0014 C9B2     		uxtb	r1, r1
  57              	.LVL5:
  52:..\u8g2-master\csrc/u8x8_u8toa.c **** 	d++;
  58              		.loc 1 52 0
  59 0016 0133     		adds	r3, r3, #1
  60              	.LVL6:
  49:..\u8g2-master\csrc/u8x8_u8toa.c ****       while( v >= c )
  61              		.loc 1 49 0
ARM GAS  C:\Users\info\AppData\Local\Temp\ccr0lKXY.s 			page 3


  62 0018 8A42     		cmp	r2, r1
  63              		.loc 1 52 0
  64 001a DBB2     		uxtb	r3, r3
  65              	.LVL7:
  49:..\u8g2-master\csrc/u8x8_u8toa.c ****       while( v >= c )
  66              		.loc 1 49 0
  67 001c F9D9     		bls	.L3
  68              	.LVL8:
  69              	.L2:
  53:..\u8g2-master\csrc/u8x8_u8toa.c ****       }
  54:..\u8g2-master\csrc/u8x8_u8toa.c ****       dest[pos] = d;
  70              		.loc 1 54 0 discriminator 2
  71 001e 04F8013F 		strb	r3, [r4, #1]!
  72              	.LVL9:
  45:..\u8g2-master\csrc/u8x8_u8toa.c ****   {
  73              		.loc 1 45 0 discriminator 2
  74 0022 B442     		cmp	r4, r6
  75 0024 F0D1     		bne	.L4
  55:..\u8g2-master\csrc/u8x8_u8toa.c ****   }  
  56:..\u8g2-master\csrc/u8x8_u8toa.c ****   dest[3] = '\0';
  57:..\u8g2-master\csrc/u8x8_u8toa.c ****   return dest;
  58:..\u8g2-master\csrc/u8x8_u8toa.c **** }
  76              		.loc 1 58 0
  77 0026 70BC     		pop	{r4, r5, r6}
  78              		.cfi_restore 6
  79              		.cfi_restore 5
  80              		.cfi_restore 4
  81              		.cfi_def_cfa_offset 0
  82              	.LVL10:
  56:..\u8g2-master\csrc/u8x8_u8toa.c ****   return dest;
  83              		.loc 1 56 0
  84 0028 0023     		movs	r3, #0
  85 002a C370     		strb	r3, [r0, #3]
  86              		.loc 1 58 0
  87 002c 7047     		bx	lr
  88              	.L11:
  89 002e 00BF     		.align	2
  90              	.L10:
  91 0030 00000000 		.word	.LANCHOR0
  92              		.cfi_endproc
  93              	.LFE0:
  94              		.size	u8x8_u8toap, .-u8x8_u8toap
  95              		.section	.text.u8x8_u8toa,"ax",%progbits
  96              		.align	2
  97              		.global	u8x8_u8toa
  98              		.thumb
  99              		.thumb_func
 100              		.type	u8x8_u8toa, %function
 101              	u8x8_u8toa:
 102              	.LFB1:
  59:..\u8g2-master\csrc/u8x8_u8toa.c **** 
  60:..\u8g2-master\csrc/u8x8_u8toa.c **** /* v = value, d = number of digits */
  61:..\u8g2-master\csrc/u8x8_u8toa.c **** const char *u8x8_u8toa(uint8_t v, uint8_t d)
  62:..\u8g2-master\csrc/u8x8_u8toa.c **** {
 103              		.loc 1 62 0
 104              		.cfi_startproc
 105              		@ args = 0, pretend = 0, frame = 0
ARM GAS  C:\Users\info\AppData\Local\Temp\ccr0lKXY.s 			page 4


 106              		@ frame_needed = 0, uses_anonymous_args = 0
 107              		@ link register save eliminated.
 108              	.LVL11:
 109 0000 F0B4     		push	{r4, r5, r6, r7}
 110              		.cfi_def_cfa_offset 16
 111              		.cfi_offset 4, -16
 112              		.cfi_offset 5, -12
 113              		.cfi_offset 6, -8
 114              		.cfi_offset 7, -4
 115 0002 0D4E     		ldr	r6, .L20
 116 0004 0D4C     		ldr	r4, .L20+4
 117 0006 3546     		mov	r5, r6
  63:..\u8g2-master\csrc/u8x8_u8toa.c ****   static char buf[4];
  64:..\u8g2-master\csrc/u8x8_u8toa.c ****   d = 3-d;
 118              		.loc 1 64 0
 119 0008 C1F10301 		rsb	r1, r1, #3
 120              	.LVL12:
 121 000c C9B2     		uxtb	r1, r1
 122              	.LVL13:
 123 000e E71C     		adds	r7, r4, #3
 124              	.LVL14:
 125              	.L15:
 126              	.LBB4:
 127              	.LBB5:
  48:..\u8g2-master\csrc/u8x8_u8toa.c ****       while( v >= c )
 128              		.loc 1 48 0
 129 0010 14F8012B 		ldrb	r2, [r4], #1	@ zero_extendqisi2
 130              	.LVL15:
  49:..\u8g2-master\csrc/u8x8_u8toa.c ****       {
 131              		.loc 1 49 0
 132 0014 3023     		movs	r3, #48
 133 0016 8242     		cmp	r2, r0
 134 0018 05D8     		bhi	.L13
 135              	.LVL16:
 136              	.L14:
  51:..\u8g2-master\csrc/u8x8_u8toa.c **** 	d++;
 137              		.loc 1 51 0
 138 001a 801A     		subs	r0, r0, r2
 139              	.LVL17:
 140 001c C0B2     		uxtb	r0, r0
 141              	.LVL18:
  52:..\u8g2-master\csrc/u8x8_u8toa.c ****       }
 142              		.loc 1 52 0
 143 001e 0133     		adds	r3, r3, #1
 144              	.LVL19:
  49:..\u8g2-master\csrc/u8x8_u8toa.c ****       {
 145              		.loc 1 49 0
 146 0020 8242     		cmp	r2, r0
  52:..\u8g2-master\csrc/u8x8_u8toa.c ****       }
 147              		.loc 1 52 0
 148 0022 DBB2     		uxtb	r3, r3
 149              	.LVL20:
  49:..\u8g2-master\csrc/u8x8_u8toa.c ****       {
 150              		.loc 1 49 0
 151 0024 F9D9     		bls	.L14
 152              	.LVL21:
 153              	.L13:
ARM GAS  C:\Users\info\AppData\Local\Temp\ccr0lKXY.s 			page 5


  45:..\u8g2-master\csrc/u8x8_u8toa.c ****   {
 154              		.loc 1 45 0
 155 0026 BC42     		cmp	r4, r7
  54:..\u8g2-master\csrc/u8x8_u8toa.c ****   }  
 156              		.loc 1 54 0
 157 0028 05F8013B 		strb	r3, [r5], #1
 158              	.LVL22:
  45:..\u8g2-master\csrc/u8x8_u8toa.c ****   {
 159              		.loc 1 45 0
 160 002c F0D1     		bne	.L15
  56:..\u8g2-master\csrc/u8x8_u8toa.c ****   return dest;
 161              		.loc 1 56 0
 162 002e 0023     		movs	r3, #0
 163              	.LBE5:
 164              	.LBE4:
  65:..\u8g2-master\csrc/u8x8_u8toa.c ****   return u8x8_u8toap(buf, v) + d;
  66:..\u8g2-master\csrc/u8x8_u8toa.c **** }
 165              		.loc 1 66 0
 166 0030 7018     		adds	r0, r6, r1
 167              	.LVL23:
 168              	.LBB7:
 169              	.LBB6:
  56:..\u8g2-master\csrc/u8x8_u8toa.c ****   return dest;
 170              		.loc 1 56 0
 171 0032 F370     		strb	r3, [r6, #3]
 172              	.LVL24:
 173              	.LBE6:
 174              	.LBE7:
 175              		.loc 1 66 0
 176 0034 F0BC     		pop	{r4, r5, r6, r7}
 177              		.cfi_restore 7
 178              		.cfi_restore 6
 179              		.cfi_restore 5
 180              		.cfi_restore 4
 181              		.cfi_def_cfa_offset 0
 182 0036 7047     		bx	lr
 183              	.L21:
 184              		.align	2
 185              	.L20:
 186 0038 00000000 		.word	.LANCHOR1
 187 003c 00000000 		.word	.LANCHOR0
 188              		.cfi_endproc
 189              	.LFE1:
 190              		.size	u8x8_u8toa, .-u8x8_u8toa
 191              		.section	.rodata
 192              		.align	2
 193              		.set	.LANCHOR0,. + 0
 194              		.type	u8x8_u8toa_tab, %object
 195              		.size	u8x8_u8toa_tab, 3
 196              	u8x8_u8toa_tab:
 197 0000 64       		.byte	100
 198 0001 0A       		.byte	10
 199 0002 01       		.byte	1
 200              		.bss
 201              		.align	2
 202              		.set	.LANCHOR1,. + 0
 203              		.type	buf.5437, %object
ARM GAS  C:\Users\info\AppData\Local\Temp\ccr0lKXY.s 			page 6


 204              		.size	buf.5437, 4
 205              	buf.5437:
 206 0000 00000000 		.space	4
 207              		.text
 208              	.Letext0:
 209              		.file 2 "c:\\program files (x86)\\cypress\\psoc creator\\4.2\\psoc creator\\import\\gnu\\arm\\5.4.
 210              		.file 3 "c:\\program files (x86)\\cypress\\psoc creator\\4.2\\psoc creator\\import\\gnu\\arm\\5.4.