ARM GAS  C:\Users\info\AppData\Local\Temp\ccl9yQ1g.s 			page 1


   1              		.syntax unified
   2              		.cpu cortex-m3
   3              		.fpu softvfp
   4              		.eabi_attribute 20, 1
   5              		.eabi_attribute 21, 1
   6              		.eabi_attribute 23, 3
   7              		.eabi_attribute 24, 1
   8              		.eabi_attribute 25, 1
   9              		.eabi_attribute 26, 1
  10              		.eabi_attribute 30, 2
  11              		.eabi_attribute 34, 1
  12              		.eabi_attribute 18, 4
  13              		.thumb
  14              		.syntax unified
  15              		.file	"u8x8_d_sed1330.c"
  16              		.text
  17              	.Ltext0:
  18              		.cfi_sections	.debug_frame
  19              		.section	.text.u8x8_d_sed1330_common,"ax",%progbits
  20              		.align	2
  21              		.global	u8x8_d_sed1330_common
  22              		.thumb
  23              		.thumb_func
  24              		.type	u8x8_d_sed1330_common, %function
  25              	u8x8_d_sed1330_common:
  26              	.LFB0:
  27              		.file 1 "..\\u8g2-master\\csrc\\u8x8_d_sed1330.c"
   1:..\u8g2-master\csrc/u8x8_d_sed1330.c **** /*
   2:..\u8g2-master\csrc/u8x8_d_sed1330.c **** 
   3:..\u8g2-master\csrc/u8x8_d_sed1330.c ****   u8x8_d_sed1330.c
   4:..\u8g2-master\csrc/u8x8_d_sed1330.c ****   
   5:..\u8g2-master\csrc/u8x8_d_sed1330.c ****   Universal 8bit Graphics Library (https://github.com/olikraus/u8g2/)
   6:..\u8g2-master\csrc/u8x8_d_sed1330.c **** 
   7:..\u8g2-master\csrc/u8x8_d_sed1330.c ****   Copyright (c) 2016, olikraus@gmail.com
   8:..\u8g2-master\csrc/u8x8_d_sed1330.c ****   All rights reserved.
   9:..\u8g2-master\csrc/u8x8_d_sed1330.c **** 
  10:..\u8g2-master\csrc/u8x8_d_sed1330.c ****   Redistribution and use in source and binary forms, with or without modification, 
  11:..\u8g2-master\csrc/u8x8_d_sed1330.c ****   are permitted provided that the following conditions are met:
  12:..\u8g2-master\csrc/u8x8_d_sed1330.c **** 
  13:..\u8g2-master\csrc/u8x8_d_sed1330.c ****   * Redistributions of source code must retain the above copyright notice, this list 
  14:..\u8g2-master\csrc/u8x8_d_sed1330.c ****     of conditions and the following disclaimer.
  15:..\u8g2-master\csrc/u8x8_d_sed1330.c ****     
  16:..\u8g2-master\csrc/u8x8_d_sed1330.c ****   * Redistributions in binary form must reproduce the above copyright notice, this 
  17:..\u8g2-master\csrc/u8x8_d_sed1330.c ****     list of conditions and the following disclaimer in the documentation and/or other 
  18:..\u8g2-master\csrc/u8x8_d_sed1330.c ****     materials provided with the distribution.
  19:..\u8g2-master\csrc/u8x8_d_sed1330.c **** 
  20:..\u8g2-master\csrc/u8x8_d_sed1330.c ****   THIS SOFTWARE IS PROVIDED BY THE COPYRIGHT HOLDERS AND 
  21:..\u8g2-master\csrc/u8x8_d_sed1330.c ****   CONTRIBUTORS "AS IS" AND ANY EXPRESS OR IMPLIED WARRANTIES, 
  22:..\u8g2-master\csrc/u8x8_d_sed1330.c ****   INCLUDING, BUT NOT LIMITED TO, THE IMPLIED WARRANTIES OF 
  23:..\u8g2-master\csrc/u8x8_d_sed1330.c ****   MERCHANTABILITY AND FITNESS FOR A PARTICULAR PURPOSE ARE 
  24:..\u8g2-master\csrc/u8x8_d_sed1330.c ****   DISCLAIMED. IN NO EVENT SHALL THE COPYRIGHT HOLDER OR 
  25:..\u8g2-master\csrc/u8x8_d_sed1330.c ****   CONTRIBUTORS BE LIABLE FOR ANY DIRECT, INDIRECT, INCIDENTAL, 
  26:..\u8g2-master\csrc/u8x8_d_sed1330.c ****   SPECIAL, EXEMPLARY, OR CONSEQUENTIAL DAMAGES (INCLUDING, BUT 
  27:..\u8g2-master\csrc/u8x8_d_sed1330.c ****   NOT LIMITED TO, PROCUREMENT OF SUBSTITUTE GOODS OR SERVICES; 
  28:..\u8g2-master\csrc/u8x8_d_sed1330.c ****   LOSS OF USE, DATA, OR PROFITS; OR BUSINESS INTERRUPTION) HOWEVER 
  29:..\u8g2-master\csrc/u8x8_d_sed1330.c ****   CAUSED AND ON ANY THEORY OF LIABILITY, WHETHER IN CONTRACT, 
  30:..\u8g2-master\csrc/u8x8_d_sed1330.c ****   STRICT LIABILITY, OR TORT (INCLUDING NEGLIGENCE OR OTHERWISE) 
ARM GAS  C:\Users\info\AppData\Local\Temp\ccl9yQ1g.s 			page 2


  31:..\u8g2-master\csrc/u8x8_d_sed1330.c ****   ARISING IN ANY WAY OUT OF THE USE OF THIS SOFTWARE, EVEN IF 
  32:..\u8g2-master\csrc/u8x8_d_sed1330.c ****   ADVISED OF THE POSSIBILITY OF SUCH DAMAGE.  
  33:..\u8g2-master\csrc/u8x8_d_sed1330.c **** 
  34:..\u8g2-master\csrc/u8x8_d_sed1330.c **** 
  35:..\u8g2-master\csrc/u8x8_d_sed1330.c ****   The device might also work with the RA8835, SED1335 and SED1336 controller.
  36:..\u8g2-master\csrc/u8x8_d_sed1330.c ****   The following devices might be compatible:
  37:..\u8g2-master\csrc/u8x8_d_sed1330.c ****     RA8835
  38:..\u8g2-master\csrc/u8x8_d_sed1330.c ****     SED1330
  39:..\u8g2-master\csrc/u8x8_d_sed1330.c ****     SED1335
  40:..\u8g2-master\csrc/u8x8_d_sed1330.c ****     S1D13700
  41:..\u8g2-master\csrc/u8x8_d_sed1330.c **** 
  42:..\u8g2-master\csrc/u8x8_d_sed1330.c **** 
  43:..\u8g2-master\csrc/u8x8_d_sed1330.c **** */
  44:..\u8g2-master\csrc/u8x8_d_sed1330.c **** #include "u8x8.h"
  45:..\u8g2-master\csrc/u8x8_d_sed1330.c **** 
  46:..\u8g2-master\csrc/u8x8_d_sed1330.c **** 
  47:..\u8g2-master\csrc/u8x8_d_sed1330.c **** 
  48:..\u8g2-master\csrc/u8x8_d_sed1330.c **** static const uint8_t u8x8_d_sed1330_powersave0_seq[] = {
  49:..\u8g2-master\csrc/u8x8_d_sed1330.c ****   U8X8_START_TRANSFER(),             	/* enable chip, delay is part of the transfer start */
  50:..\u8g2-master\csrc/u8x8_d_sed1330.c ****   U8X8_CA(0x040, 0x030),		/* sys init (0x040) with one arg, where 0x030 is a wild guess */
  51:..\u8g2-master\csrc/u8x8_d_sed1330.c ****   U8X8_CA(0x059, 0x004),               /* send display on command (hex 0x059, see p37 ) */
  52:..\u8g2-master\csrc/u8x8_d_sed1330.c **** 							/* display cmd has one arg: 01010100 should enable all three blocks, but disable the cursor*
  53:..\u8g2-master\csrc/u8x8_d_sed1330.c ****   
  54:..\u8g2-master\csrc/u8x8_d_sed1330.c ****   U8X8_END_TRANSFER(),             	/* disable chip */
  55:..\u8g2-master\csrc/u8x8_d_sed1330.c ****   U8X8_END()             			/* end of sequence */
  56:..\u8g2-master\csrc/u8x8_d_sed1330.c **** };
  57:..\u8g2-master\csrc/u8x8_d_sed1330.c **** 
  58:..\u8g2-master\csrc/u8x8_d_sed1330.c **** static const uint8_t u8x8_d_sed1330_powersave1_seq[] = {
  59:..\u8g2-master\csrc/u8x8_d_sed1330.c ****   U8X8_START_TRANSFER(),             	/* enable chip, delay is part of the transfer start */
  60:..\u8g2-master\csrc/u8x8_d_sed1330.c ****   U8X8_CA(0x058, 0x000),               /* send display off command (hex 0x059, see p37) and turn of
  61:..\u8g2-master\csrc/u8x8_d_sed1330.c ****   /* maybe send a sleep in cmd */
  62:..\u8g2-master\csrc/u8x8_d_sed1330.c ****   //U8X8_C(0x053)				/* sleep in: 0x053 */
  63:..\u8g2-master\csrc/u8x8_d_sed1330.c ****   U8X8_END_TRANSFER(),             	/* disable chip */
  64:..\u8g2-master\csrc/u8x8_d_sed1330.c ****   U8X8_END()             			/* end of sequence */
  65:..\u8g2-master\csrc/u8x8_d_sed1330.c **** };
  66:..\u8g2-master\csrc/u8x8_d_sed1330.c **** 
  67:..\u8g2-master\csrc/u8x8_d_sed1330.c **** 
  68:..\u8g2-master\csrc/u8x8_d_sed1330.c **** uint8_t u8x8_d_sed1330_common(u8x8_t *u8x8, uint8_t msg, uint8_t arg_int, void *arg_ptr)
  69:..\u8g2-master\csrc/u8x8_d_sed1330.c **** {
  28              		.loc 1 69 0
  29              		.cfi_startproc
  30              		@ args = 0, pretend = 0, frame = 0
  31              		@ frame_needed = 0, uses_anonymous_args = 0
  32              	.LVL0:
  70:..\u8g2-master\csrc/u8x8_d_sed1330.c ****   uint8_t c, i;
  71:..\u8g2-master\csrc/u8x8_d_sed1330.c ****   uint16_t y;
  72:..\u8g2-master\csrc/u8x8_d_sed1330.c ****   uint8_t *ptr;
  73:..\u8g2-master\csrc/u8x8_d_sed1330.c ****   switch(msg)
  33              		.loc 1 73 0
  34 0000 0B29     		cmp	r1, #11
  69:..\u8g2-master\csrc/u8x8_d_sed1330.c ****   uint8_t c, i;
  35              		.loc 1 69 0
  36 0002 2DE9F041 		push	{r4, r5, r6, r7, r8, lr}
  37              		.cfi_def_cfa_offset 24
  38              		.cfi_offset 4, -24
  39              		.cfi_offset 5, -20
  40              		.cfi_offset 6, -16
ARM GAS  C:\Users\info\AppData\Local\Temp\ccl9yQ1g.s 			page 3


  41              		.cfi_offset 7, -12
  42              		.cfi_offset 8, -8
  43              		.cfi_offset 14, -4
  44              		.loc 1 73 0
  45 0006 3FD0     		beq	.L3
  46 0008 0F29     		cmp	r1, #15
  47 000a 3AD1     		bne	.L13
  48              	.LVL1:
  49 000c 1F46     		mov	r7, r3
  50              	.LVL2:
  51              	.LBB4:
  52              	.LBB5:
  74:..\u8g2-master\csrc/u8x8_d_sed1330.c ****   {
  75:..\u8g2-master\csrc/u8x8_d_sed1330.c ****     /* U8X8_MSG_DISPLAY_SETUP_MEMORY is handled by the calling function */
  76:..\u8g2-master\csrc/u8x8_d_sed1330.c ****     /*
  77:..\u8g2-master\csrc/u8x8_d_sed1330.c ****     case U8X8_MSG_DISPLAY_SETUP_MEMORY:
  78:..\u8g2-master\csrc/u8x8_d_sed1330.c ****       break;
  79:..\u8g2-master\csrc/u8x8_d_sed1330.c ****     case U8X8_MSG_DISPLAY_INIT:
  80:..\u8g2-master\csrc/u8x8_d_sed1330.c ****       break;
  81:..\u8g2-master\csrc/u8x8_d_sed1330.c ****     */
  82:..\u8g2-master\csrc/u8x8_d_sed1330.c ****     case U8X8_MSG_DISPLAY_SET_POWER_SAVE:
  83:..\u8g2-master\csrc/u8x8_d_sed1330.c ****       if ( arg_int == 0 )
  84:..\u8g2-master\csrc/u8x8_d_sed1330.c **** 	u8x8_cad_SendSequence(u8x8, u8x8_d_sed1330_powersave0_seq);
  85:..\u8g2-master\csrc/u8x8_d_sed1330.c ****       else
  86:..\u8g2-master\csrc/u8x8_d_sed1330.c **** 	u8x8_cad_SendSequence(u8x8, u8x8_d_sed1330_powersave1_seq);
  87:..\u8g2-master\csrc/u8x8_d_sed1330.c ****       break;
  88:..\u8g2-master\csrc/u8x8_d_sed1330.c ****     case U8X8_MSG_DISPLAY_DRAW_TILE:
  89:..\u8g2-master\csrc/u8x8_d_sed1330.c ****       y = (((u8x8_tile_t *)arg_ptr)->y_pos);
  90:..\u8g2-master\csrc/u8x8_d_sed1330.c ****       y*=8;
  91:..\u8g2-master\csrc/u8x8_d_sed1330.c ****       y*= u8x8->display_info->tile_width;
  53              		.loc 1 91 0
  54 000e 0368     		ldr	r3, [r0]
  55              	.LVL3:
  56 0010 BD79     		ldrb	r5, [r7, #6]	@ zero_extendqisi2
  57 0012 1B7C     		ldrb	r3, [r3, #16]	@ zero_extendqisi2
  58 0014 0446     		mov	r4, r0
  59 0016 03FB05F5 		mul	r5, r3, r5
  92:..\u8g2-master\csrc/u8x8_d_sed1330.c ****     
  93:..\u8g2-master\csrc/u8x8_d_sed1330.c ****       u8x8_cad_StartTransfer(u8x8);
  60              		.loc 1 93 0
  61 001a FFF7FEFF 		bl	u8x8_cad_StartTransfer
  62              	.LVL4:
  91:..\u8g2-master\csrc/u8x8_d_sed1330.c ****     
  63              		.loc 1 91 0
  64 001e ED00     		lsls	r5, r5, #3
  94:..\u8g2-master\csrc/u8x8_d_sed1330.c ****     
  95:..\u8g2-master\csrc/u8x8_d_sed1330.c ****       c = ((u8x8_tile_t *)arg_ptr)->cnt;	/* number of tiles */
  65              		.loc 1 95 0
  66 0020 97F80480 		ldrb	r8, [r7, #4]	@ zero_extendqisi2
  96:..\u8g2-master\csrc/u8x8_d_sed1330.c ****       ptr = ((u8x8_tile_t *)arg_ptr)->tile_ptr;	/* data ptr to the tiles */
  67              		.loc 1 96 0
  68 0024 3F68     		ldr	r7, [r7]
  69              	.LVL5:
  70 0026 0826     		movs	r6, #8
  91:..\u8g2-master\csrc/u8x8_d_sed1330.c ****     
  71              		.loc 1 91 0
  72 0028 ADB2     		uxth	r5, r5
ARM GAS  C:\Users\info\AppData\Local\Temp\ccl9yQ1g.s 			page 4


  73              	.LVL6:
  74              	.L6:
  97:..\u8g2-master\csrc/u8x8_d_sed1330.c ****       for( i = 0; i < 8; i++ )
  98:..\u8g2-master\csrc/u8x8_d_sed1330.c ****       {
  99:..\u8g2-master\csrc/u8x8_d_sed1330.c **** 	u8x8_cad_SendCmd(u8x8, 0x046 );	/* CSRW command*/
  75              		.loc 1 99 0
  76 002a 4621     		movs	r1, #70
  77 002c 2046     		mov	r0, r4
  78 002e FFF7FEFF 		bl	u8x8_cad_SendCmd
  79              	.LVL7:
 100:..\u8g2-master\csrc/u8x8_d_sed1330.c **** 	u8x8_cad_SendArg(u8x8, y&255);		/* CSRW low adr byte */
  80              		.loc 1 100 0
  81 0032 E9B2     		uxtb	r1, r5
  82 0034 2046     		mov	r0, r4
  83 0036 FFF7FEFF 		bl	u8x8_cad_SendArg
  84              	.LVL8:
 101:..\u8g2-master\csrc/u8x8_d_sed1330.c **** 	u8x8_cad_SendArg(u8x8, y>>8);		/* CSRW high adr byte */
  85              		.loc 1 101 0
  86 003a 290A     		lsrs	r1, r5, #8
  87 003c 2046     		mov	r0, r4
  88 003e FFF7FEFF 		bl	u8x8_cad_SendArg
  89              	.LVL9:
 102:..\u8g2-master\csrc/u8x8_d_sed1330.c **** 	u8x8_cad_SendCmd(u8x8, 0x042 );	/* MWRITE */
  90              		.loc 1 102 0
  91 0042 4221     		movs	r1, #66
  92 0044 2046     		mov	r0, r4
  93 0046 FFF7FEFF 		bl	u8x8_cad_SendCmd
  94              	.LVL10:
 103:..\u8g2-master\csrc/u8x8_d_sed1330.c **** 	
 104:..\u8g2-master\csrc/u8x8_d_sed1330.c **** 	u8x8_cad_SendData(u8x8, c, ptr);	/* note: SendData can not handle more than 255 bytes, send one li
  95              		.loc 1 104 0
  96 004a 3A46     		mov	r2, r7
  97 004c 4146     		mov	r1, r8
  98 004e 2046     		mov	r0, r4
  99 0050 FFF7FEFF 		bl	u8x8_cad_SendData
 100              	.LVL11:
 105:..\u8g2-master\csrc/u8x8_d_sed1330.c **** 	
 106:..\u8g2-master\csrc/u8x8_d_sed1330.c **** 	ptr += u8x8->display_info->tile_width;
 101              		.loc 1 106 0
 102 0054 2268     		ldr	r2, [r4]
 103 0056 731E     		subs	r3, r6, #1
 104 0058 127C     		ldrb	r2, [r2, #16]	@ zero_extendqisi2
  97:..\u8g2-master\csrc/u8x8_d_sed1330.c ****       {
 105              		.loc 1 97 0
 106 005a 13F0FF06 		ands	r6, r3, #255
 107:..\u8g2-master\csrc/u8x8_d_sed1330.c **** 	y += u8x8->display_info->tile_width;
 107              		.loc 1 107 0
 108 005e 1544     		add	r5, r5, r2
 109              	.LVL12:
 110 0060 ADB2     		uxth	r5, r5
 106:..\u8g2-master\csrc/u8x8_d_sed1330.c **** 	y += u8x8->display_info->tile_width;
 111              		.loc 1 106 0
 112 0062 1744     		add	r7, r7, r2
 113              	.LVL13:
  97:..\u8g2-master\csrc/u8x8_d_sed1330.c ****       {
 114              		.loc 1 97 0
 115 0064 E1D1     		bne	.L6
ARM GAS  C:\Users\info\AppData\Local\Temp\ccl9yQ1g.s 			page 5


 108:..\u8g2-master\csrc/u8x8_d_sed1330.c ****       }
 109:..\u8g2-master\csrc/u8x8_d_sed1330.c **** 
 110:..\u8g2-master\csrc/u8x8_d_sed1330.c ****       /* sometimes the display switches off... so just sent a display on command */
 111:..\u8g2-master\csrc/u8x8_d_sed1330.c ****       u8x8_cad_SendCmd(u8x8, 0x059 );	/* display on */
 116              		.loc 1 111 0
 117 0066 5921     		movs	r1, #89
 118 0068 2046     		mov	r0, r4
 119 006a FFF7FEFF 		bl	u8x8_cad_SendCmd
 120              	.LVL14:
 112:..\u8g2-master\csrc/u8x8_d_sed1330.c ****       u8x8_cad_SendArg(u8x8, 0x004);	/* arg for display on */
 121              		.loc 1 112 0
 122 006e 0421     		movs	r1, #4
 123 0070 2046     		mov	r0, r4
 124 0072 FFF7FEFF 		bl	u8x8_cad_SendArg
 125              	.LVL15:
 113:..\u8g2-master\csrc/u8x8_d_sed1330.c **** 
 114:..\u8g2-master\csrc/u8x8_d_sed1330.c ****       u8x8_cad_EndTransfer(u8x8);
 126              		.loc 1 114 0
 127 0076 2046     		mov	r0, r4
 128 0078 FFF7FEFF 		bl	u8x8_cad_EndTransfer
 129              	.LVL16:
 130 007c 0120     		movs	r0, #1
 131 007e BDE8F081 		pop	{r4, r5, r6, r7, r8, pc}
 132              	.LVL17:
 133              	.L13:
 134              	.LBE5:
 135              	.LBE4:
 115:..\u8g2-master\csrc/u8x8_d_sed1330.c ****       //u8x8->gpio_and_delay_cb(u8x8, U8X8_MSG_DELAY_NANO, 200, NULL);	/* extra dely required */
 116:..\u8g2-master\csrc/u8x8_d_sed1330.c **** 
 117:..\u8g2-master\csrc/u8x8_d_sed1330.c ****       break;
 118:..\u8g2-master\csrc/u8x8_d_sed1330.c ****     default:
 119:..\u8g2-master\csrc/u8x8_d_sed1330.c ****       return 0;
 136              		.loc 1 119 0
 137 0082 0020     		movs	r0, #0
 138              	.LVL18:
 120:..\u8g2-master\csrc/u8x8_d_sed1330.c ****   }
 121:..\u8g2-master\csrc/u8x8_d_sed1330.c ****   return 1;
 122:..\u8g2-master\csrc/u8x8_d_sed1330.c **** }
 139              		.loc 1 122 0
 140 0084 BDE8F081 		pop	{r4, r5, r6, r7, r8, pc}
 141              	.LVL19:
 142              	.L3:
  83:..\u8g2-master\csrc/u8x8_d_sed1330.c **** 	u8x8_cad_SendSequence(u8x8, u8x8_d_sed1330_powersave0_seq);
 143              		.loc 1 83 0
 144 0088 2AB9     		cbnz	r2, .L5
  84:..\u8g2-master\csrc/u8x8_d_sed1330.c ****       else
 145              		.loc 1 84 0
 146 008a 0649     		ldr	r1, .L14
 147              	.LVL20:
 148 008c FFF7FEFF 		bl	u8x8_cad_SendSequence
 149              	.LVL21:
 121:..\u8g2-master\csrc/u8x8_d_sed1330.c **** }
 150              		.loc 1 121 0
 151 0090 0120     		movs	r0, #1
 152 0092 BDE8F081 		pop	{r4, r5, r6, r7, r8, pc}
 153              	.LVL22:
 154              	.L5:
ARM GAS  C:\Users\info\AppData\Local\Temp\ccl9yQ1g.s 			page 6


  86:..\u8g2-master\csrc/u8x8_d_sed1330.c ****       break;
 155              		.loc 1 86 0
 156 0096 0449     		ldr	r1, .L14+4
 157              	.LVL23:
 158 0098 FFF7FEFF 		bl	u8x8_cad_SendSequence
 159              	.LVL24:
 121:..\u8g2-master\csrc/u8x8_d_sed1330.c **** }
 160              		.loc 1 121 0
 161 009c 0120     		movs	r0, #1
 162 009e BDE8F081 		pop	{r4, r5, r6, r7, r8, pc}
 163              	.L15:
 164 00a2 00BF     		.align	2
 165              	.L14:
 166 00a4 00000000 		.word	.LANCHOR0
 167 00a8 0C000000 		.word	.LANCHOR0+12
 168              		.cfi_endproc
 169              	.LFE0:
 170              		.size	u8x8_d_sed1330_common, .-u8x8_d_sed1330_common
 171              		.section	.text.u8x8_d_sed1330_240x128,"ax",%progbits
 172              		.align	2
 173              		.global	u8x8_d_sed1330_240x128
 174              		.thumb
 175              		.thumb_func
 176              		.type	u8x8_d_sed1330_240x128, %function
 177              	u8x8_d_sed1330_240x128:
 178              	.LFB1:
 123:..\u8g2-master\csrc/u8x8_d_sed1330.c **** 
 124:..\u8g2-master\csrc/u8x8_d_sed1330.c **** /*=============================================*/
 125:..\u8g2-master\csrc/u8x8_d_sed1330.c **** 
 126:..\u8g2-master\csrc/u8x8_d_sed1330.c **** 
 127:..\u8g2-master\csrc/u8x8_d_sed1330.c **** static const u8x8_display_info_t u8x8_sed1330_240x128_display_info =
 128:..\u8g2-master\csrc/u8x8_d_sed1330.c **** {
 129:..\u8g2-master\csrc/u8x8_d_sed1330.c ****   /* chip_enable_level = */ 0,
 130:..\u8g2-master\csrc/u8x8_d_sed1330.c ****   /* chip_disable_level = */ 1,
 131:..\u8g2-master\csrc/u8x8_d_sed1330.c ****   
 132:..\u8g2-master\csrc/u8x8_d_sed1330.c ****   /* post_chip_enable_wait_ns = */ 30,	/* G242CX Datasheet p5 */
 133:..\u8g2-master\csrc/u8x8_d_sed1330.c ****   /* pre_chip_disable_wait_ns = */ 10,	/* G242CX Datasheet p5 */
 134:..\u8g2-master\csrc/u8x8_d_sed1330.c ****   /* reset_pulse_width_ms = */ 1, 
 135:..\u8g2-master\csrc/u8x8_d_sed1330.c ****   /* post_reset_wait_ms = */ 6, 
 136:..\u8g2-master\csrc/u8x8_d_sed1330.c ****   /* sda_setup_time_ns = */ 20,		
 137:..\u8g2-master\csrc/u8x8_d_sed1330.c ****   /* sck_pulse_width_ns = */  140,	
 138:..\u8g2-master\csrc/u8x8_d_sed1330.c ****   /* sck_clock_hz = */ 1000000UL,	/* since Arduino 1.6.0, the SPI bus speed in Hz. Should be  10000
 139:..\u8g2-master\csrc/u8x8_d_sed1330.c ****   /* spi_mode = */ 0,		
 140:..\u8g2-master\csrc/u8x8_d_sed1330.c ****   /* i2c_bus_clock_100kHz = */ 4,
 141:..\u8g2-master\csrc/u8x8_d_sed1330.c ****   /* data_setup_time_ns = */ 120,		/* G242CX Datasheet p5 */
 142:..\u8g2-master\csrc/u8x8_d_sed1330.c ****   /* write_pulse_width_ns = */ 220,		/* G242CX Datasheet p5 */
 143:..\u8g2-master\csrc/u8x8_d_sed1330.c ****   /* tile_width = */ 0x01e,
 144:..\u8g2-master\csrc/u8x8_d_sed1330.c ****   /* tile_hight = */ 16,
 145:..\u8g2-master\csrc/u8x8_d_sed1330.c ****   /* default_x_offset = */ 0,
 146:..\u8g2-master\csrc/u8x8_d_sed1330.c ****   /* flipmode_x_offset = */ 0,
 147:..\u8g2-master\csrc/u8x8_d_sed1330.c ****   /* pixel_width = */ 240,
 148:..\u8g2-master\csrc/u8x8_d_sed1330.c ****   /* pixel_height = */ 128
 149:..\u8g2-master\csrc/u8x8_d_sed1330.c **** };
 150:..\u8g2-master\csrc/u8x8_d_sed1330.c **** 
 151:..\u8g2-master\csrc/u8x8_d_sed1330.c **** /* 240x128 Seiko G242C */
 152:..\u8g2-master\csrc/u8x8_d_sed1330.c **** static const uint8_t u8x8_d_sed1330_240x128_init_seq[] = {
 153:..\u8g2-master\csrc/u8x8_d_sed1330.c ****   U8X8_DLY(100),
ARM GAS  C:\Users\info\AppData\Local\Temp\ccl9yQ1g.s 			page 7


 154:..\u8g2-master\csrc/u8x8_d_sed1330.c ****   U8X8_START_TRANSFER(),             	/* enable chip, delay is part of the transfer start */
 155:..\u8g2-master\csrc/u8x8_d_sed1330.c ****   U8X8_DLY(100),
 156:..\u8g2-master\csrc/u8x8_d_sed1330.c **** 
 157:..\u8g2-master\csrc/u8x8_d_sed1330.c ****   /* system init command, see also u8x8_d_sed1330_powersave0_seq */
 158:..\u8g2-master\csrc/u8x8_d_sed1330.c ****   U8X8_CA(0x040, 0x030),		/* sys init (0x040) with one arg, where 0x030 is a wild guess */
 159:..\u8g2-master\csrc/u8x8_d_sed1330.c ****   /* system init has total 8 parameters, so 7 more are here */
 160:..\u8g2-master\csrc/u8x8_d_sed1330.c ****   U8X8_A(0x087),				/* no idea here... WF (topmost bit) is set to one because it is suggested in th
 161:..\u8g2-master\csrc/u8x8_d_sed1330.c ****   U8X8_A(0x007),				/* FY: height of a char+1, does not matter here (hopefully), because we use gra
 162:..\u8g2-master\csrc/u8x8_d_sed1330.c ****   U8X8_A(0x01d),				/* C/R: this could be the number of horizontal bytes - 1 (Value confirmed with 
 163:..\u8g2-master\csrc/u8x8_d_sed1330.c ****   U8X8_A(0x050),					/* TC/R: According to app notes fOSC=6Mhz fFF=70Hz --> TC/R = 74d*/
 164:..\u8g2-master\csrc/u8x8_d_sed1330.c ****   U8X8_A(0x080),				/* L/F: Lines per frame - 1, probably this is the height of the display - 1 (va
 165:..\u8g2-master\csrc/u8x8_d_sed1330.c ****   U8X8_A(0x01e),				/* Low byte of the virtual screen size. (Value confirmed with app notes p41)   
 166:..\u8g2-master\csrc/u8x8_d_sed1330.c ****   U8X8_A(0),					/* High byte of the virtual screen size, see also section 9.1.2 */
 167:..\u8g2-master\csrc/u8x8_d_sed1330.c **** 	
 168:..\u8g2-master\csrc/u8x8_d_sed1330.c ****   U8X8_C(0x044),				/* SCROLL */
 169:..\u8g2-master\csrc/u8x8_d_sed1330.c ****   U8X8_A(0x000),				
 170:..\u8g2-master\csrc/u8x8_d_sed1330.c ****   U8X8_A(0x000),				
 171:..\u8g2-master\csrc/u8x8_d_sed1330.c ****   U8X8_A(0x080),
 172:..\u8g2-master\csrc/u8x8_d_sed1330.c ****   U8X8_A(0x000),
 173:..\u8g2-master\csrc/u8x8_d_sed1330.c ****   U8X8_A(0x040),
 174:..\u8g2-master\csrc/u8x8_d_sed1330.c ****   U8X8_A(0x080),
 175:..\u8g2-master\csrc/u8x8_d_sed1330.c ****   U8X8_A(0x000),
 176:..\u8g2-master\csrc/u8x8_d_sed1330.c ****   U8X8_A(0x000),
 177:..\u8g2-master\csrc/u8x8_d_sed1330.c ****   U8X8_A(0x000),
 178:..\u8g2-master\csrc/u8x8_d_sed1330.c ****   U8X8_A(0x000),
 179:..\u8g2-master\csrc/u8x8_d_sed1330.c **** 	
 180:..\u8g2-master\csrc/u8x8_d_sed1330.c ****   U8X8_CA(0x05a, 0),			/* HDOT SCR: Horizontal dotwise scroll... set to 0 */
 181:..\u8g2-master\csrc/u8x8_d_sed1330.c **** 	
 182:..\u8g2-master\csrc/u8x8_d_sed1330.c ****   U8X8_CA(0x05b, 0x0c),			/* OVLAY: 2-layer, all graphics, OR between layer 1 and 2 */
 183:..\u8g2-master\csrc/u8x8_d_sed1330.c **** 
 184:..\u8g2-master\csrc/u8x8_d_sed1330.c **** 
 185:..\u8g2-master\csrc/u8x8_d_sed1330.c ****   U8X8_DLY(100),
 186:..\u8g2-master\csrc/u8x8_d_sed1330.c ****   U8X8_END_TRANSFER(),             	/* disable chip */
 187:..\u8g2-master\csrc/u8x8_d_sed1330.c ****   U8X8_DLY(100),
 188:..\u8g2-master\csrc/u8x8_d_sed1330.c **** };
 189:..\u8g2-master\csrc/u8x8_d_sed1330.c **** 
 190:..\u8g2-master\csrc/u8x8_d_sed1330.c **** /* RA8835 NHD-240128BZ */
 191:..\u8g2-master\csrc/u8x8_d_sed1330.c **** static const uint8_t u8x8_d_rh8835_nhd_240128_init_seq[] = {
 192:..\u8g2-master\csrc/u8x8_d_sed1330.c ****   U8X8_DLY(100),
 193:..\u8g2-master\csrc/u8x8_d_sed1330.c ****   U8X8_START_TRANSFER(),             	/* enable chip, delay is part of the transfer start */
 194:..\u8g2-master\csrc/u8x8_d_sed1330.c ****   U8X8_DLY(100),
 195:..\u8g2-master\csrc/u8x8_d_sed1330.c **** 
 196:..\u8g2-master\csrc/u8x8_d_sed1330.c ****   /* system init command, see also u8x8_d_sed1330_powersave0_seq */
 197:..\u8g2-master\csrc/u8x8_d_sed1330.c ****   U8X8_CA(0x040, 0x030),		/* sys init (0x040) with one arg, where 0x030 is a wild guess */
 198:..\u8g2-master\csrc/u8x8_d_sed1330.c ****   /* system init has total 8 parameters, so 7 more are here */
 199:..\u8g2-master\csrc/u8x8_d_sed1330.c ****   U8X8_A(0x087),				/* no idea here... WF (topmost bit) is set to one because it is suggested in th
 200:..\u8g2-master\csrc/u8x8_d_sed1330.c ****   U8X8_A(0x007),				/* FY: height of a char+1, does not matter here (hopefully), because we use gra
 201:..\u8g2-master\csrc/u8x8_d_sed1330.c ****   U8X8_A(0x01d),				/* C/R: this could be the number of horizontal bytes - 1 (Value confirmed with 
 202:..\u8g2-master\csrc/u8x8_d_sed1330.c ****   U8X8_A(0x050),					/* TC/R: According to app notes fOSC=6Mhz fFF=70Hz --> TC/R = 74d*/
 203:..\u8g2-master\csrc/u8x8_d_sed1330.c ****   U8X8_A(0x080),				/* L/F: Lines per frame - 1, probably this is the height of the display - 1 (va
 204:..\u8g2-master\csrc/u8x8_d_sed1330.c ****   U8X8_A(0x01e),				/* Low byte of the virtual screen size. (Value confirmed with app notes p41)   
 205:..\u8g2-master\csrc/u8x8_d_sed1330.c ****   U8X8_A(0),					/* High byte of the virtual screen size, see also section 9.1.2 */
 206:..\u8g2-master\csrc/u8x8_d_sed1330.c **** 
 207:..\u8g2-master\csrc/u8x8_d_sed1330.c ****   U8X8_C(0x044),				/* SCROLL */
 208:..\u8g2-master\csrc/u8x8_d_sed1330.c ****   U8X8_A(0x000),				
 209:..\u8g2-master\csrc/u8x8_d_sed1330.c ****   U8X8_A(0x000),				
 210:..\u8g2-master\csrc/u8x8_d_sed1330.c ****   U8X8_A(0x080),
ARM GAS  C:\Users\info\AppData\Local\Temp\ccl9yQ1g.s 			page 8


 211:..\u8g2-master\csrc/u8x8_d_sed1330.c ****   U8X8_A(0x000),
 212:..\u8g2-master\csrc/u8x8_d_sed1330.c ****   U8X8_A(0x040),
 213:..\u8g2-master\csrc/u8x8_d_sed1330.c ****   U8X8_A(0x080),
 214:..\u8g2-master\csrc/u8x8_d_sed1330.c ****   U8X8_A(0x000),
 215:..\u8g2-master\csrc/u8x8_d_sed1330.c ****   U8X8_A(0x000),
 216:..\u8g2-master\csrc/u8x8_d_sed1330.c ****   U8X8_A(0x000),
 217:..\u8g2-master\csrc/u8x8_d_sed1330.c ****   U8X8_A(0x000),
 218:..\u8g2-master\csrc/u8x8_d_sed1330.c **** 	
 219:..\u8g2-master\csrc/u8x8_d_sed1330.c ****   //U8X8_CA(0x05a, 0),			/* HDOT SCR: Horizontal dotwise scroll... set to 0 */
 220:..\u8g2-master\csrc/u8x8_d_sed1330.c **** 	
 221:..\u8g2-master\csrc/u8x8_d_sed1330.c ****   U8X8_CA(0x05b, 0x0c),			/* OVLAY: 2-layer, all graphics, OR between layer 1 and 2 */
 222:..\u8g2-master\csrc/u8x8_d_sed1330.c **** 
 223:..\u8g2-master\csrc/u8x8_d_sed1330.c ****   //U8X8_CA(0x059, 0x04),               /* send display on command (hex 0x059, see p37 ) */
 224:..\u8g2-master\csrc/u8x8_d_sed1330.c ****   
 225:..\u8g2-master\csrc/u8x8_d_sed1330.c ****   U8X8_DLY(100),
 226:..\u8g2-master\csrc/u8x8_d_sed1330.c ****   U8X8_END_TRANSFER(),             	/* disable chip */
 227:..\u8g2-master\csrc/u8x8_d_sed1330.c ****   U8X8_DLY(100),
 228:..\u8g2-master\csrc/u8x8_d_sed1330.c ****   
 229:..\u8g2-master\csrc/u8x8_d_sed1330.c **** };
 230:..\u8g2-master\csrc/u8x8_d_sed1330.c **** 
 231:..\u8g2-master\csrc/u8x8_d_sed1330.c **** 
 232:..\u8g2-master\csrc/u8x8_d_sed1330.c **** uint8_t u8x8_d_sed1330_240x128(u8x8_t *u8x8, uint8_t msg, uint8_t arg_int, void *arg_ptr)
 233:..\u8g2-master\csrc/u8x8_d_sed1330.c **** {
 179              		.loc 1 233 0
 180              		.cfi_startproc
 181              		@ args = 0, pretend = 0, frame = 0
 182              		@ frame_needed = 0, uses_anonymous_args = 0
 183              	.LVL25:
 234:..\u8g2-master\csrc/u8x8_d_sed1330.c ****   switch(msg)
 184              		.loc 1 234 0
 185 0000 0929     		cmp	r1, #9
 233:..\u8g2-master\csrc/u8x8_d_sed1330.c ****   switch(msg)
 186              		.loc 1 233 0
 187 0002 70B5     		push	{r4, r5, r6, lr}
 188              		.cfi_def_cfa_offset 16
 189              		.cfi_offset 4, -16
 190              		.cfi_offset 5, -12
 191              		.cfi_offset 6, -8
 192              		.cfi_offset 14, -4
 193              		.loc 1 234 0
 194 0004 0ED0     		beq	.L18
 195 0006 0A29     		cmp	r1, #10
 196 0008 08D1     		bne	.L24
 197 000a 0546     		mov	r5, r0
 235:..\u8g2-master\csrc/u8x8_d_sed1330.c ****   {
 236:..\u8g2-master\csrc/u8x8_d_sed1330.c ****     case U8X8_MSG_DISPLAY_SETUP_MEMORY:
 237:..\u8g2-master\csrc/u8x8_d_sed1330.c ****       u8x8_d_helper_display_setup_memory(u8x8, &u8x8_sed1330_240x128_display_info);
 238:..\u8g2-master\csrc/u8x8_d_sed1330.c ****       break;
 239:..\u8g2-master\csrc/u8x8_d_sed1330.c ****     case U8X8_MSG_DISPLAY_INIT:
 240:..\u8g2-master\csrc/u8x8_d_sed1330.c ****       u8x8_d_helper_display_init(u8x8);
 198              		.loc 1 240 0
 199 000c FFF7FEFF 		bl	u8x8_d_helper_display_init
 200              	.LVL26:
 241:..\u8g2-master\csrc/u8x8_d_sed1330.c ****       u8x8_cad_SendSequence(u8x8, u8x8_d_sed1330_240x128_init_seq);
 201              		.loc 1 241 0
 202 0010 2846     		mov	r0, r5
 203 0012 0749     		ldr	r1, .L25
ARM GAS  C:\Users\info\AppData\Local\Temp\ccl9yQ1g.s 			page 9


 204 0014 FFF7FEFF 		bl	u8x8_cad_SendSequence
 205              	.LVL27:
 242:..\u8g2-master\csrc/u8x8_d_sed1330.c ****       break;
 243:..\u8g2-master\csrc/u8x8_d_sed1330.c ****     default:
 244:..\u8g2-master\csrc/u8x8_d_sed1330.c ****       return u8x8_d_sed1330_common(u8x8, msg, arg_int, arg_ptr);
 245:..\u8g2-master\csrc/u8x8_d_sed1330.c ****   }
 246:..\u8g2-master\csrc/u8x8_d_sed1330.c ****   return 1;
 247:..\u8g2-master\csrc/u8x8_d_sed1330.c **** }
 206              		.loc 1 247 0
 207 0018 0120     		movs	r0, #1
 208 001a 70BD     		pop	{r4, r5, r6, pc}
 209              	.LVL28:
 210              	.L24:
 211 001c BDE87040 		pop	{r4, r5, r6, lr}
 212              		.cfi_remember_state
 213              		.cfi_restore 14
 214              		.cfi_restore 6
 215              		.cfi_restore 5
 216              		.cfi_restore 4
 217              		.cfi_def_cfa_offset 0
 244:..\u8g2-master\csrc/u8x8_d_sed1330.c ****   }
 218              		.loc 1 244 0
 219 0020 FFF7FEBF 		b	u8x8_d_sed1330_common
 220              	.LVL29:
 221              	.L18:
 222              		.cfi_restore_state
 237:..\u8g2-master\csrc/u8x8_d_sed1330.c ****       break;
 223              		.loc 1 237 0
 224 0024 0349     		ldr	r1, .L25+4
 225              	.LVL30:
 226 0026 FFF7FEFF 		bl	u8x8_d_helper_display_setup_memory
 227              	.LVL31:
 228              		.loc 1 247 0
 229 002a 0120     		movs	r0, #1
 230 002c 70BD     		pop	{r4, r5, r6, pc}
 231              	.L26:
 232 002e 00BF     		.align	2
 233              	.L25:
 234 0030 2C000000 		.word	.LANCHOR0+44
 235 0034 14000000 		.word	.LANCHOR0+20
 236              		.cfi_endproc
 237              	.LFE1:
 238              		.size	u8x8_d_sed1330_240x128, .-u8x8_d_sed1330_240x128
 239              		.section	.text.u8x8_d_ra8835_nhd_240x128,"ax",%progbits
 240              		.align	2
 241              		.global	u8x8_d_ra8835_nhd_240x128
 242              		.thumb
 243              		.thumb_func
 244              		.type	u8x8_d_ra8835_nhd_240x128, %function
 245              	u8x8_d_ra8835_nhd_240x128:
 246              	.LFB2:
 248:..\u8g2-master\csrc/u8x8_d_sed1330.c **** 
 249:..\u8g2-master\csrc/u8x8_d_sed1330.c **** 
 250:..\u8g2-master\csrc/u8x8_d_sed1330.c **** uint8_t u8x8_d_ra8835_nhd_240x128(u8x8_t *u8x8, uint8_t msg, uint8_t arg_int, void *arg_ptr)
 251:..\u8g2-master\csrc/u8x8_d_sed1330.c **** {
 247              		.loc 1 251 0
 248              		.cfi_startproc
ARM GAS  C:\Users\info\AppData\Local\Temp\ccl9yQ1g.s 			page 10


 249              		@ args = 0, pretend = 0, frame = 0
 250              		@ frame_needed = 0, uses_anonymous_args = 0
 251              	.LVL32:
 252:..\u8g2-master\csrc/u8x8_d_sed1330.c ****   switch(msg)
 252              		.loc 1 252 0
 253 0000 0929     		cmp	r1, #9
 251:..\u8g2-master\csrc/u8x8_d_sed1330.c ****   switch(msg)
 254              		.loc 1 251 0
 255 0002 70B5     		push	{r4, r5, r6, lr}
 256              		.cfi_def_cfa_offset 16
 257              		.cfi_offset 4, -16
 258              		.cfi_offset 5, -12
 259              		.cfi_offset 6, -8
 260              		.cfi_offset 14, -4
 261              		.loc 1 252 0
 262 0004 0ED0     		beq	.L29
 263 0006 0A29     		cmp	r1, #10
 264 0008 08D1     		bne	.L35
 265 000a 0546     		mov	r5, r0
 253:..\u8g2-master\csrc/u8x8_d_sed1330.c ****   {
 254:..\u8g2-master\csrc/u8x8_d_sed1330.c ****     case U8X8_MSG_DISPLAY_SETUP_MEMORY:
 255:..\u8g2-master\csrc/u8x8_d_sed1330.c ****       u8x8_d_helper_display_setup_memory(u8x8, &u8x8_sed1330_240x128_display_info);
 256:..\u8g2-master\csrc/u8x8_d_sed1330.c ****       break;
 257:..\u8g2-master\csrc/u8x8_d_sed1330.c ****     case U8X8_MSG_DISPLAY_INIT:
 258:..\u8g2-master\csrc/u8x8_d_sed1330.c ****       u8x8_d_helper_display_init(u8x8);
 266              		.loc 1 258 0
 267 000c FFF7FEFF 		bl	u8x8_d_helper_display_init
 268              	.LVL33:
 259:..\u8g2-master\csrc/u8x8_d_sed1330.c ****       u8x8_cad_SendSequence(u8x8, u8x8_d_rh8835_nhd_240128_init_seq);
 269              		.loc 1 259 0
 270 0010 2846     		mov	r0, r5
 271 0012 0749     		ldr	r1, .L36
 272 0014 FFF7FEFF 		bl	u8x8_cad_SendSequence
 273              	.LVL34:
 260:..\u8g2-master\csrc/u8x8_d_sed1330.c ****       break;
 261:..\u8g2-master\csrc/u8x8_d_sed1330.c ****     default:
 262:..\u8g2-master\csrc/u8x8_d_sed1330.c ****       return u8x8_d_sed1330_common(u8x8, msg, arg_int, arg_ptr);
 263:..\u8g2-master\csrc/u8x8_d_sed1330.c ****   }
 264:..\u8g2-master\csrc/u8x8_d_sed1330.c ****   return 1;
 265:..\u8g2-master\csrc/u8x8_d_sed1330.c **** }
 274              		.loc 1 265 0
 275 0018 0120     		movs	r0, #1
 276 001a 70BD     		pop	{r4, r5, r6, pc}
 277              	.LVL35:
 278              	.L35:
 279 001c BDE87040 		pop	{r4, r5, r6, lr}
 280              		.cfi_remember_state
 281              		.cfi_restore 14
 282              		.cfi_restore 6
 283              		.cfi_restore 5
 284              		.cfi_restore 4
 285              		.cfi_def_cfa_offset 0
 262:..\u8g2-master\csrc/u8x8_d_sed1330.c ****   }
 286              		.loc 1 262 0
 287 0020 FFF7FEBF 		b	u8x8_d_sed1330_common
 288              	.LVL36:
 289              	.L29:
ARM GAS  C:\Users\info\AppData\Local\Temp\ccl9yQ1g.s 			page 11


 290              		.cfi_restore_state
 255:..\u8g2-master\csrc/u8x8_d_sed1330.c ****       break;
 291              		.loc 1 255 0
 292 0024 0349     		ldr	r1, .L36+4
 293              	.LVL37:
 294 0026 FFF7FEFF 		bl	u8x8_d_helper_display_setup_memory
 295              	.LVL38:
 296              		.loc 1 265 0
 297 002a 0120     		movs	r0, #1
 298 002c 70BD     		pop	{r4, r5, r6, pc}
 299              	.L37:
 300 002e 00BF     		.align	2
 301              	.L36:
 302 0030 68000000 		.word	.LANCHOR0+104
 303 0034 14000000 		.word	.LANCHOR0+20
 304              		.cfi_endproc
 305              	.LFE2:
 306              		.size	u8x8_d_ra8835_nhd_240x128, .-u8x8_d_ra8835_nhd_240x128
 307              		.section	.text.u8x8_d_ra8835_320x240,"ax",%progbits
 308              		.align	2
 309              		.global	u8x8_d_ra8835_320x240
 310              		.thumb
 311              		.thumb_func
 312              		.type	u8x8_d_ra8835_320x240, %function
 313              	u8x8_d_ra8835_320x240:
 314              	.LFB3:
 266:..\u8g2-master\csrc/u8x8_d_sed1330.c **** 
 267:..\u8g2-master\csrc/u8x8_d_sed1330.c **** 
 268:..\u8g2-master\csrc/u8x8_d_sed1330.c **** 
 269:..\u8g2-master\csrc/u8x8_d_sed1330.c **** /*=============================================*/
 270:..\u8g2-master\csrc/u8x8_d_sed1330.c **** 
 271:..\u8g2-master\csrc/u8x8_d_sed1330.c **** 
 272:..\u8g2-master\csrc/u8x8_d_sed1330.c **** static const u8x8_display_info_t u8x8_sed1330_320x240_display_info =
 273:..\u8g2-master\csrc/u8x8_d_sed1330.c **** {
 274:..\u8g2-master\csrc/u8x8_d_sed1330.c ****   /* chip_enable_level = */ 0,
 275:..\u8g2-master\csrc/u8x8_d_sed1330.c ****   /* chip_disable_level = */ 1,
 276:..\u8g2-master\csrc/u8x8_d_sed1330.c ****   
 277:..\u8g2-master\csrc/u8x8_d_sed1330.c ****   /* post_chip_enable_wait_ns = */ 30,	/* G242CX Datasheet p5 */
 278:..\u8g2-master\csrc/u8x8_d_sed1330.c ****   /* pre_chip_disable_wait_ns = */ 10,	/* G242CX Datasheet p5 */
 279:..\u8g2-master\csrc/u8x8_d_sed1330.c ****   /* reset_pulse_width_ms = */ 1, 
 280:..\u8g2-master\csrc/u8x8_d_sed1330.c ****   /* post_reset_wait_ms = */ 6, 
 281:..\u8g2-master\csrc/u8x8_d_sed1330.c ****   /* sda_setup_time_ns = */ 20,		
 282:..\u8g2-master\csrc/u8x8_d_sed1330.c ****   /* sck_pulse_width_ns = */  140,	
 283:..\u8g2-master\csrc/u8x8_d_sed1330.c ****   /* sck_clock_hz = */ 1000000UL,	/* since Arduino 1.6.0, the SPI bus speed in Hz. Should be  10000
 284:..\u8g2-master\csrc/u8x8_d_sed1330.c ****   /* spi_mode = */ 0,		
 285:..\u8g2-master\csrc/u8x8_d_sed1330.c ****   /* i2c_bus_clock_100kHz = */ 4,
 286:..\u8g2-master\csrc/u8x8_d_sed1330.c ****   /* data_setup_time_ns = */ 120,		/* G242CX Datasheet p5 */
 287:..\u8g2-master\csrc/u8x8_d_sed1330.c ****   /* write_pulse_width_ns = */ 220,		/* G242CX Datasheet p5 */
 288:..\u8g2-master\csrc/u8x8_d_sed1330.c ****   /* tile_width = */ 40,
 289:..\u8g2-master\csrc/u8x8_d_sed1330.c ****   /* tile_hight = */ 30,
 290:..\u8g2-master\csrc/u8x8_d_sed1330.c ****   /* default_x_offset = */ 0,
 291:..\u8g2-master\csrc/u8x8_d_sed1330.c ****   /* flipmode_x_offset = */ 0,
 292:..\u8g2-master\csrc/u8x8_d_sed1330.c ****   /* pixel_width = */ 320,
 293:..\u8g2-master\csrc/u8x8_d_sed1330.c ****   /* pixel_height = */ 240
 294:..\u8g2-master\csrc/u8x8_d_sed1330.c **** };
 295:..\u8g2-master\csrc/u8x8_d_sed1330.c **** 
 296:..\u8g2-master\csrc/u8x8_d_sed1330.c **** static const uint8_t u8x8_d_sed1330_320x240_init_seq[] = {
ARM GAS  C:\Users\info\AppData\Local\Temp\ccl9yQ1g.s 			page 12


 297:..\u8g2-master\csrc/u8x8_d_sed1330.c ****   U8X8_DLY(100),
 298:..\u8g2-master\csrc/u8x8_d_sed1330.c ****   U8X8_START_TRANSFER(),             	/* enable chip, delay is part of the transfer start */
 299:..\u8g2-master\csrc/u8x8_d_sed1330.c ****   U8X8_DLY(100),
 300:..\u8g2-master\csrc/u8x8_d_sed1330.c **** 
 301:..\u8g2-master\csrc/u8x8_d_sed1330.c ****   /* system init command, see also u8x8_d_sed1330_powersave0_seq */
 302:..\u8g2-master\csrc/u8x8_d_sed1330.c ****   U8X8_CA(0x040, 0x030),		/* sys init (0x040) with one arg, where 0x030 is a wild guess */
 303:..\u8g2-master\csrc/u8x8_d_sed1330.c ****   /* system init has total 8 parameters, so 7 more are here */
 304:..\u8g2-master\csrc/u8x8_d_sed1330.c ****   U8X8_A(0x087),				/* no idea here... WF (topmost bit) is set to one because it is suggested in th
 305:..\u8g2-master\csrc/u8x8_d_sed1330.c ****   U8X8_A(0x007),				/* FY: height of a char+1, does not matter here (hopefully), because we use gra
 306:..\u8g2-master\csrc/u8x8_d_sed1330.c ****   U8X8_A(0x027),	/* 40-1 */		/* C/R: this could be the number of horizontal bytes - 1 (Value confir
 307:..\u8g2-master\csrc/u8x8_d_sed1330.c ****   U8X8_A(0x039),					/* TC/R: According to app notes fOSC=6Mhz fFF=70Hz --> TC/R = 74d*/
 308:..\u8g2-master\csrc/u8x8_d_sed1330.c ****   U8X8_A(0x0ef),				/* L/F: Lines per frame - 1, probably this is the height of the display - 1 (va
 309:..\u8g2-master\csrc/u8x8_d_sed1330.c ****   U8X8_A(0x028),				/* Low byte of the virtual screen size. (Value confirmed with app notes p41)   
 310:..\u8g2-master\csrc/u8x8_d_sed1330.c ****   U8X8_A(0),					/* High byte of the virtual screen size, see also section 9.1.2 */
 311:..\u8g2-master\csrc/u8x8_d_sed1330.c **** 	
 312:..\u8g2-master\csrc/u8x8_d_sed1330.c ****   U8X8_C(0x044),				/* SCROLL */
 313:..\u8g2-master\csrc/u8x8_d_sed1330.c ****   U8X8_A(0x000),				
 314:..\u8g2-master\csrc/u8x8_d_sed1330.c ****   U8X8_A(0x000),				
 315:..\u8g2-master\csrc/u8x8_d_sed1330.c ****   U8X8_A(0x0ef),
 316:..\u8g2-master\csrc/u8x8_d_sed1330.c ****   U8X8_A(0x0b0),
 317:..\u8g2-master\csrc/u8x8_d_sed1330.c ****   U8X8_A(0x004),
 318:..\u8g2-master\csrc/u8x8_d_sed1330.c ****   U8X8_A(0x0ef),
 319:..\u8g2-master\csrc/u8x8_d_sed1330.c ****   U8X8_A(0x000),
 320:..\u8g2-master\csrc/u8x8_d_sed1330.c ****   U8X8_A(0x000),
 321:..\u8g2-master\csrc/u8x8_d_sed1330.c ****   U8X8_A(0x000),
 322:..\u8g2-master\csrc/u8x8_d_sed1330.c ****   U8X8_A(0x000),
 323:..\u8g2-master\csrc/u8x8_d_sed1330.c **** 	
 324:..\u8g2-master\csrc/u8x8_d_sed1330.c ****   U8X8_CA(0x05a, 0),			/* HDOT SCR: Horizontal dotwise scroll... set to 0 */
 325:..\u8g2-master\csrc/u8x8_d_sed1330.c **** 	
 326:..\u8g2-master\csrc/u8x8_d_sed1330.c ****   U8X8_CA(0x05b, 0x0c),			/* OVLAY: 2-layer, all graphics, OR between layer 1 and 2 */
 327:..\u8g2-master\csrc/u8x8_d_sed1330.c **** 
 328:..\u8g2-master\csrc/u8x8_d_sed1330.c **** 
 329:..\u8g2-master\csrc/u8x8_d_sed1330.c ****   U8X8_DLY(100),
 330:..\u8g2-master\csrc/u8x8_d_sed1330.c ****   U8X8_END_TRANSFER(),             	/* disable chip */
 331:..\u8g2-master\csrc/u8x8_d_sed1330.c ****   U8X8_DLY(100),
 332:..\u8g2-master\csrc/u8x8_d_sed1330.c **** };
 333:..\u8g2-master\csrc/u8x8_d_sed1330.c **** 
 334:..\u8g2-master\csrc/u8x8_d_sed1330.c **** 
 335:..\u8g2-master\csrc/u8x8_d_sed1330.c **** 
 336:..\u8g2-master\csrc/u8x8_d_sed1330.c **** uint8_t u8x8_d_ra8835_320x240(u8x8_t *u8x8, uint8_t msg, uint8_t arg_int, void *arg_ptr)
 337:..\u8g2-master\csrc/u8x8_d_sed1330.c **** {
 315              		.loc 1 337 0
 316              		.cfi_startproc
 317              		@ args = 0, pretend = 0, frame = 0
 318              		@ frame_needed = 0, uses_anonymous_args = 0
 319              	.LVL39:
 338:..\u8g2-master\csrc/u8x8_d_sed1330.c ****   switch(msg)
 320              		.loc 1 338 0
 321 0000 0929     		cmp	r1, #9
 337:..\u8g2-master\csrc/u8x8_d_sed1330.c ****   switch(msg)
 322              		.loc 1 337 0
 323 0002 70B5     		push	{r4, r5, r6, lr}
 324              		.cfi_def_cfa_offset 16
 325              		.cfi_offset 4, -16
 326              		.cfi_offset 5, -12
 327              		.cfi_offset 6, -8
 328              		.cfi_offset 14, -4
ARM GAS  C:\Users\info\AppData\Local\Temp\ccl9yQ1g.s 			page 13


 329              		.loc 1 338 0
 330 0004 0ED0     		beq	.L40
 331 0006 0A29     		cmp	r1, #10
 332 0008 08D1     		bne	.L46
 333 000a 0546     		mov	r5, r0
 339:..\u8g2-master\csrc/u8x8_d_sed1330.c ****   {
 340:..\u8g2-master\csrc/u8x8_d_sed1330.c ****     case U8X8_MSG_DISPLAY_SETUP_MEMORY:
 341:..\u8g2-master\csrc/u8x8_d_sed1330.c ****       u8x8_d_helper_display_setup_memory(u8x8, &u8x8_sed1330_320x240_display_info);
 342:..\u8g2-master\csrc/u8x8_d_sed1330.c ****       break;
 343:..\u8g2-master\csrc/u8x8_d_sed1330.c ****     case U8X8_MSG_DISPLAY_INIT:
 344:..\u8g2-master\csrc/u8x8_d_sed1330.c ****       u8x8_d_helper_display_init(u8x8);
 334              		.loc 1 344 0
 335 000c FFF7FEFF 		bl	u8x8_d_helper_display_init
 336              	.LVL40:
 345:..\u8g2-master\csrc/u8x8_d_sed1330.c ****       u8x8_cad_SendSequence(u8x8, u8x8_d_sed1330_320x240_init_seq);
 337              		.loc 1 345 0
 338 0010 2846     		mov	r0, r5
 339 0012 0749     		ldr	r1, .L47
 340 0014 FFF7FEFF 		bl	u8x8_cad_SendSequence
 341              	.LVL41:
 346:..\u8g2-master\csrc/u8x8_d_sed1330.c ****       break;
 347:..\u8g2-master\csrc/u8x8_d_sed1330.c ****     default:
 348:..\u8g2-master\csrc/u8x8_d_sed1330.c ****       return u8x8_d_sed1330_common(u8x8, msg, arg_int, arg_ptr);
 349:..\u8g2-master\csrc/u8x8_d_sed1330.c ****   }
 350:..\u8g2-master\csrc/u8x8_d_sed1330.c ****   return 1;
 351:..\u8g2-master\csrc/u8x8_d_sed1330.c **** }
 342              		.loc 1 351 0
 343 0018 0120     		movs	r0, #1
 344 001a 70BD     		pop	{r4, r5, r6, pc}
 345              	.LVL42:
 346              	.L46:
 347 001c BDE87040 		pop	{r4, r5, r6, lr}
 348              		.cfi_remember_state
 349              		.cfi_restore 14
 350              		.cfi_restore 6
 351              		.cfi_restore 5
 352              		.cfi_restore 4
 353              		.cfi_def_cfa_offset 0
 348:..\u8g2-master\csrc/u8x8_d_sed1330.c ****   }
 354              		.loc 1 348 0
 355 0020 FFF7FEBF 		b	u8x8_d_sed1330_common
 356              	.LVL43:
 357              	.L40:
 358              		.cfi_restore_state
 341:..\u8g2-master\csrc/u8x8_d_sed1330.c ****       break;
 359              		.loc 1 341 0
 360 0024 0349     		ldr	r1, .L47+4
 361              	.LVL44:
 362 0026 FFF7FEFF 		bl	u8x8_d_helper_display_setup_memory
 363              	.LVL45:
 364              		.loc 1 351 0
 365 002a 0120     		movs	r0, #1
 366 002c 70BD     		pop	{r4, r5, r6, pc}
 367              	.L48:
 368 002e 00BF     		.align	2
 369              	.L47:
 370 0030 B8000000 		.word	.LANCHOR0+184
ARM GAS  C:\Users\info\AppData\Local\Temp\ccl9yQ1g.s 			page 14


 371 0034 A0000000 		.word	.LANCHOR0+160
 372              		.cfi_endproc
 373              	.LFE3:
 374              		.size	u8x8_d_ra8835_320x240, .-u8x8_d_ra8835_320x240
 375              		.section	.rodata
 376              		.align	2
 377              		.set	.LANCHOR0,. + 0
 378              		.type	u8x8_d_sed1330_powersave0_seq, %object
 379              		.size	u8x8_d_sed1330_powersave0_seq, 11
 380              	u8x8_d_sed1330_powersave0_seq:
 381 0000 18       		.byte	24
 382 0001 15       		.byte	21
 383 0002 40       		.byte	64
 384 0003 16       		.byte	22
 385 0004 30       		.byte	48
 386 0005 15       		.byte	21
 387 0006 59       		.byte	89
 388 0007 16       		.byte	22
 389 0008 04       		.byte	4
 390 0009 19       		.byte	25
 391 000a FF       		.byte	-1
 392 000b 00       		.space	1
 393              		.type	u8x8_d_sed1330_powersave1_seq, %object
 394              		.size	u8x8_d_sed1330_powersave1_seq, 7
 395              	u8x8_d_sed1330_powersave1_seq:
 396 000c 18       		.byte	24
 397 000d 15       		.byte	21
 398 000e 58       		.byte	88
 399 000f 16       		.byte	22
 400 0010 00       		.byte	0
 401 0011 19       		.byte	25
 402 0012 FF       		.byte	-1
 403 0013 00       		.space	1
 404              		.type	u8x8_sed1330_240x128_display_info, %object
 405              		.size	u8x8_sed1330_240x128_display_info, 24
 406              	u8x8_sed1330_240x128_display_info:
 407 0014 00       		.byte	0
 408 0015 01       		.byte	1
 409 0016 1E       		.byte	30
 410 0017 0A       		.byte	10
 411 0018 01       		.byte	1
 412 0019 06       		.byte	6
 413 001a 14       		.byte	20
 414 001b 8C       		.byte	-116
 415 001c 40420F00 		.word	1000000
 416 0020 00       		.byte	0
 417 0021 04       		.byte	4
 418 0022 78       		.byte	120
 419 0023 DC       		.byte	-36
 420 0024 1E       		.byte	30
 421 0025 10       		.byte	16
 422 0026 00       		.byte	0
 423 0027 00       		.byte	0
 424 0028 F000     		.short	240
 425 002a 8000     		.short	128
 426              		.type	u8x8_d_sed1330_240x128_init_seq, %object
 427              		.size	u8x8_d_sed1330_240x128_init_seq, 58
ARM GAS  C:\Users\info\AppData\Local\Temp\ccl9yQ1g.s 			page 15


 428              	u8x8_d_sed1330_240x128_init_seq:
 429 002c FE       		.byte	-2
 430 002d 64       		.byte	100
 431 002e 18       		.byte	24
 432 002f FE       		.byte	-2
 433 0030 64       		.byte	100
 434 0031 15       		.byte	21
 435 0032 40       		.byte	64
 436 0033 16       		.byte	22
 437 0034 30       		.byte	48
 438 0035 16       		.byte	22
 439 0036 87       		.byte	-121
 440 0037 16       		.byte	22
 441 0038 07       		.byte	7
 442 0039 16       		.byte	22
 443 003a 1D       		.byte	29
 444 003b 16       		.byte	22
 445 003c 50       		.byte	80
 446 003d 16       		.byte	22
 447 003e 80       		.byte	-128
 448 003f 16       		.byte	22
 449 0040 1E       		.byte	30
 450 0041 16       		.byte	22
 451 0042 00       		.byte	0
 452 0043 15       		.byte	21
 453 0044 44       		.byte	68
 454 0045 16       		.byte	22
 455 0046 00       		.byte	0
 456 0047 16       		.byte	22
 457 0048 00       		.byte	0
 458 0049 16       		.byte	22
 459 004a 80       		.byte	-128
 460 004b 16       		.byte	22
 461 004c 00       		.byte	0
 462 004d 16       		.byte	22
 463 004e 40       		.byte	64
 464 004f 16       		.byte	22
 465 0050 80       		.byte	-128
 466 0051 16       		.byte	22
 467 0052 00       		.byte	0
 468 0053 16       		.byte	22
 469 0054 00       		.byte	0
 470 0055 16       		.byte	22
 471 0056 00       		.byte	0
 472 0057 16       		.byte	22
 473 0058 00       		.byte	0
 474 0059 15       		.byte	21
 475 005a 5A       		.byte	90
 476 005b 16       		.byte	22
 477 005c 00       		.byte	0
 478 005d 15       		.byte	21
 479 005e 5B       		.byte	91
 480 005f 16       		.byte	22
 481 0060 0C       		.byte	12
 482 0061 FE       		.byte	-2
 483 0062 64       		.byte	100
 484 0063 19       		.byte	25
ARM GAS  C:\Users\info\AppData\Local\Temp\ccl9yQ1g.s 			page 16


 485 0064 FE       		.byte	-2
 486 0065 64       		.byte	100
 487 0066 0000     		.space	2
 488              		.type	u8x8_d_rh8835_nhd_240128_init_seq, %object
 489              		.size	u8x8_d_rh8835_nhd_240128_init_seq, 54
 490              	u8x8_d_rh8835_nhd_240128_init_seq:
 491 0068 FE       		.byte	-2
 492 0069 64       		.byte	100
 493 006a 18       		.byte	24
 494 006b FE       		.byte	-2
 495 006c 64       		.byte	100
 496 006d 15       		.byte	21
 497 006e 40       		.byte	64
 498 006f 16       		.byte	22
 499 0070 30       		.byte	48
 500 0071 16       		.byte	22
 501 0072 87       		.byte	-121
 502 0073 16       		.byte	22
 503 0074 07       		.byte	7
 504 0075 16       		.byte	22
 505 0076 1D       		.byte	29
 506 0077 16       		.byte	22
 507 0078 50       		.byte	80
 508 0079 16       		.byte	22
 509 007a 80       		.byte	-128
 510 007b 16       		.byte	22
 511 007c 1E       		.byte	30
 512 007d 16       		.byte	22
 513 007e 00       		.byte	0
 514 007f 15       		.byte	21
 515 0080 44       		.byte	68
 516 0081 16       		.byte	22
 517 0082 00       		.byte	0
 518 0083 16       		.byte	22
 519 0084 00       		.byte	0
 520 0085 16       		.byte	22
 521 0086 80       		.byte	-128
 522 0087 16       		.byte	22
 523 0088 00       		.byte	0
 524 0089 16       		.byte	22
 525 008a 40       		.byte	64
 526 008b 16       		.byte	22
 527 008c 80       		.byte	-128
 528 008d 16       		.byte	22
 529 008e 00       		.byte	0
 530 008f 16       		.byte	22
 531 0090 00       		.byte	0
 532 0091 16       		.byte	22
 533 0092 00       		.byte	0
 534 0093 16       		.byte	22
 535 0094 00       		.byte	0
 536 0095 15       		.byte	21
 537 0096 5B       		.byte	91
 538 0097 16       		.byte	22
 539 0098 0C       		.byte	12
 540 0099 FE       		.byte	-2
 541 009a 64       		.byte	100
ARM GAS  C:\Users\info\AppData\Local\Temp\ccl9yQ1g.s 			page 17


 542 009b 19       		.byte	25
 543 009c FE       		.byte	-2
 544 009d 64       		.byte	100
 545 009e 0000     		.space	2
 546              		.type	u8x8_sed1330_320x240_display_info, %object
 547              		.size	u8x8_sed1330_320x240_display_info, 24
 548              	u8x8_sed1330_320x240_display_info:
 549 00a0 00       		.byte	0
 550 00a1 01       		.byte	1
 551 00a2 1E       		.byte	30
 552 00a3 0A       		.byte	10
 553 00a4 01       		.byte	1
 554 00a5 06       		.byte	6
 555 00a6 14       		.byte	20
 556 00a7 8C       		.byte	-116
 557 00a8 40420F00 		.word	1000000
 558 00ac 00       		.byte	0
 559 00ad 04       		.byte	4
 560 00ae 78       		.byte	120
 561 00af DC       		.byte	-36
 562 00b0 28       		.byte	40
 563 00b1 1E       		.byte	30
 564 00b2 00       		.byte	0
 565 00b3 00       		.byte	0
 566 00b4 4001     		.short	320
 567 00b6 F000     		.short	240
 568              		.type	u8x8_d_sed1330_320x240_init_seq, %object
 569              		.size	u8x8_d_sed1330_320x240_init_seq, 58
 570              	u8x8_d_sed1330_320x240_init_seq:
 571 00b8 FE       		.byte	-2
 572 00b9 64       		.byte	100
 573 00ba 18       		.byte	24
 574 00bb FE       		.byte	-2
 575 00bc 64       		.byte	100
 576 00bd 15       		.byte	21
 577 00be 40       		.byte	64
 578 00bf 16       		.byte	22
 579 00c0 30       		.byte	48
 580 00c1 16       		.byte	22
 581 00c2 87       		.byte	-121
 582 00c3 16       		.byte	22
 583 00c4 07       		.byte	7
 584 00c5 16       		.byte	22
 585 00c6 27       		.byte	39
 586 00c7 16       		.byte	22
 587 00c8 39       		.byte	57
 588 00c9 16       		.byte	22
 589 00ca EF       		.byte	-17
 590 00cb 16       		.byte	22
 591 00cc 28       		.byte	40
 592 00cd 16       		.byte	22
 593 00ce 00       		.byte	0
 594 00cf 15       		.byte	21
 595 00d0 44       		.byte	68
 596 00d1 16       		.byte	22
 597 00d2 00       		.byte	0
 598 00d3 16       		.byte	22
ARM GAS  C:\Users\info\AppData\Local\Temp\ccl9yQ1g.s 			page 18


 599 00d4 00       		.byte	0
 600 00d5 16       		.byte	22
 601 00d6 EF       		.byte	-17
 602 00d7 16       		.byte	22
 603 00d8 B0       		.byte	-80
 604 00d9 16       		.byte	22
 605 00da 04       		.byte	4
 606 00db 16       		.byte	22
 607 00dc EF       		.byte	-17
 608 00dd 16       		.byte	22
 609 00de 00       		.byte	0
 610 00df 16       		.byte	22
 611 00e0 00       		.byte	0
 612 00e1 16       		.byte	22
 613 00e2 00       		.byte	0
 614 00e3 16       		.byte	22
 615 00e4 00       		.byte	0
 616 00e5 15       		.byte	21
 617 00e6 5A       		.byte	90
 618 00e7 16       		.byte	22
 619 00e8 00       		.byte	0
 620 00e9 15       		.byte	21
 621 00ea 5B       		.byte	91
 622 00eb 16       		.byte	22
 623 00ec 0C       		.byte	12
 624 00ed FE       		.byte	-2
 625 00ee 64       		.byte	100
 626 00ef 19       		.byte	25
 627 00f0 FE       		.byte	-2
 628 00f1 64       		.byte	100
 629              		.text
 630              	.Letext0:
 631              		.file 2 "c:\\program files (x86)\\cypress\\psoc creator\\4.2\\psoc creator\\import\\gnu\\arm\\5.4.
 632              		.file 3 "c:\\program files (x86)\\cypress\\psoc creator\\4.2\\psoc creator\\import\\gnu\\arm\\5.4.
 633              		.file 4 "..\\u8g2-master\\csrc\\u8x8.h"