ARM GAS  C:\Users\info\AppData\Local\Temp\cc3u3A5B.s 			page 1


   1              		.syntax unified
   2              		.cpu cortex-m3
   3              		.fpu softvfp
   4              		.eabi_attribute 20, 1
   5              		.eabi_attribute 21, 1
   6              		.eabi_attribute 23, 3
   7              		.eabi_attribute 24, 1
   8              		.eabi_attribute 25, 1
   9              		.eabi_attribute 26, 1
  10              		.eabi_attribute 30, 2
  11              		.eabi_attribute 34, 1
  12              		.eabi_attribute 18, 4
  13              		.thumb
  14              		.syntax unified
  15              		.file	"u8x8_d_a2printer.c"
  16              		.text
  17              	.Ltext0:
  18              		.cfi_sections	.debug_frame
  19              		.section	.text.get_delay_in_milliseconds,"ax",%progbits
  20              		.align	2
  21              		.global	get_delay_in_milliseconds
  22              		.thumb
  23              		.thumb_func
  24              		.type	get_delay_in_milliseconds, %function
  25              	get_delay_in_milliseconds:
  26              	.LFB0:
  27              		.file 1 "..\\u8g2-master\\csrc\\u8x8_d_a2printer.c"
   1:..\u8g2-master\csrc/u8x8_d_a2printer.c **** /*
   2:..\u8g2-master\csrc/u8x8_d_a2printer.c **** 
   3:..\u8g2-master\csrc/u8x8_d_a2printer.c ****   u8x8_d_a2printer.c
   4:..\u8g2-master\csrc/u8x8_d_a2printer.c ****   
   5:..\u8g2-master\csrc/u8x8_d_a2printer.c ****   Universal 8bit Graphics Library (https://github.com/olikraus/u8g2/)
   6:..\u8g2-master\csrc/u8x8_d_a2printer.c **** 
   7:..\u8g2-master\csrc/u8x8_d_a2printer.c ****   Copyright (c) 2016, olikraus@gmail.com
   8:..\u8g2-master\csrc/u8x8_d_a2printer.c ****   All rights reserved.
   9:..\u8g2-master\csrc/u8x8_d_a2printer.c **** 
  10:..\u8g2-master\csrc/u8x8_d_a2printer.c ****   Redistribution and use in source and binary forms, with or without modification, 
  11:..\u8g2-master\csrc/u8x8_d_a2printer.c ****   are permitted provided that the following conditions are met:
  12:..\u8g2-master\csrc/u8x8_d_a2printer.c **** 
  13:..\u8g2-master\csrc/u8x8_d_a2printer.c ****   * Redistributions of source code must retain the above copyright notice, this list 
  14:..\u8g2-master\csrc/u8x8_d_a2printer.c ****     of conditions and the following disclaimer.
  15:..\u8g2-master\csrc/u8x8_d_a2printer.c ****     
  16:..\u8g2-master\csrc/u8x8_d_a2printer.c ****   * Redistributions in binary form must reproduce the above copyright notice, this 
  17:..\u8g2-master\csrc/u8x8_d_a2printer.c ****     list of conditions and the following disclaimer in the documentation and/or other 
  18:..\u8g2-master\csrc/u8x8_d_a2printer.c ****     materials provided with the distribution.
  19:..\u8g2-master\csrc/u8x8_d_a2printer.c **** 
  20:..\u8g2-master\csrc/u8x8_d_a2printer.c ****   THIS SOFTWARE IS PROVIDED BY THE COPYRIGHT HOLDERS AND 
  21:..\u8g2-master\csrc/u8x8_d_a2printer.c ****   CONTRIBUTORS "AS IS" AND ANY EXPRESS OR IMPLIED WARRANTIES, 
  22:..\u8g2-master\csrc/u8x8_d_a2printer.c ****   INCLUDING, BUT NOT LIMITED TO, THE IMPLIED WARRANTIES OF 
  23:..\u8g2-master\csrc/u8x8_d_a2printer.c ****   MERCHANTABILITY AND FITNESS FOR A PARTICULAR PURPOSE ARE 
  24:..\u8g2-master\csrc/u8x8_d_a2printer.c ****   DISCLAIMED. IN NO EVENT SHALL THE COPYRIGHT HOLDER OR 
  25:..\u8g2-master\csrc/u8x8_d_a2printer.c ****   CONTRIBUTORS BE LIABLE FOR ANY DIRECT, INDIRECT, INCIDENTAL, 
  26:..\u8g2-master\csrc/u8x8_d_a2printer.c ****   SPECIAL, EXEMPLARY, OR CONSEQUENTIAL DAMAGES (INCLUDING, BUT 
  27:..\u8g2-master\csrc/u8x8_d_a2printer.c ****   NOT LIMITED TO, PROCUREMENT OF SUBSTITUTE GOODS OR SERVICES; 
  28:..\u8g2-master\csrc/u8x8_d_a2printer.c ****   LOSS OF USE, DATA, OR PROFITS; OR BUSINESS INTERRUPTION) HOWEVER 
  29:..\u8g2-master\csrc/u8x8_d_a2printer.c ****   CAUSED AND ON ANY THEORY OF LIABILITY, WHETHER IN CONTRACT, 
  30:..\u8g2-master\csrc/u8x8_d_a2printer.c ****   STRICT LIABILITY, OR TORT (INCLUDING NEGLIGENCE OR OTHERWISE) 
ARM GAS  C:\Users\info\AppData\Local\Temp\cc3u3A5B.s 			page 2


  31:..\u8g2-master\csrc/u8x8_d_a2printer.c ****   ARISING IN ANY WAY OUT OF THE USE OF THIS SOFTWARE, EVEN IF 
  32:..\u8g2-master\csrc/u8x8_d_a2printer.c ****   ADVISED OF THE POSSIBILITY OF SUCH DAMAGE.  
  33:..\u8g2-master\csrc/u8x8_d_a2printer.c **** 
  34:..\u8g2-master\csrc/u8x8_d_a2printer.c **** 
  35:..\u8g2-master\csrc/u8x8_d_a2printer.c ****   Use DC2 bitmap command of the A2 Micro panel termal printer
  36:..\u8g2-master\csrc/u8x8_d_a2printer.c ****   double stroke
  37:..\u8g2-master\csrc/u8x8_d_a2printer.c ****   
  38:..\u8g2-master\csrc/u8x8_d_a2printer.c ****   
  39:..\u8g2-master\csrc/u8x8_d_a2printer.c **** */
  40:..\u8g2-master\csrc/u8x8_d_a2printer.c **** 
  41:..\u8g2-master\csrc/u8x8_d_a2printer.c **** 
  42:..\u8g2-master\csrc/u8x8_d_a2printer.c **** #include "u8x8.h"
  43:..\u8g2-master\csrc/u8x8_d_a2printer.c **** 
  44:..\u8g2-master\csrc/u8x8_d_a2printer.c **** #define LINE_MIN_DELAY_MS 15
  45:..\u8g2-master\csrc/u8x8_d_a2printer.c **** /* higher values improve quality */
  46:..\u8g2-master\csrc/u8x8_d_a2printer.c **** /* however if the value is too high (>=5) then form feed does not work any more */
  47:..\u8g2-master\csrc/u8x8_d_a2printer.c **** #define LINE_EXTRA_8PIXEL_DELAY_MS 3
  48:..\u8g2-master\csrc/u8x8_d_a2printer.c **** /* this must be a power of two and between 1 and 8 */
  49:..\u8g2-master\csrc/u8x8_d_a2printer.c **** /* best quality only with 1 */
  50:..\u8g2-master\csrc/u8x8_d_a2printer.c **** #define NO_OF_LINES_TO_SEND_WITHOUT_DELAY 1
  51:..\u8g2-master\csrc/u8x8_d_a2printer.c **** 
  52:..\u8g2-master\csrc/u8x8_d_a2printer.c **** /* calculates the delay, based on the number of black pixel */
  53:..\u8g2-master\csrc/u8x8_d_a2printer.c **** /* actually only "none-zero" bytes are calculated which is, of course not so accurate, but should b
  54:..\u8g2-master\csrc/u8x8_d_a2printer.c **** uint16_t get_delay_in_milliseconds(uint8_t cnt, uint8_t *data)
  55:..\u8g2-master\csrc/u8x8_d_a2printer.c **** {
  28              		.loc 1 55 0
  29              		.cfi_startproc
  30              		@ args = 0, pretend = 0, frame = 0
  31              		@ frame_needed = 0, uses_anonymous_args = 0
  32              		@ link register save eliminated.
  33              	.LVL0:
  56:..\u8g2-master\csrc/u8x8_d_a2printer.c ****   uint8_t i;
  57:..\u8g2-master\csrc/u8x8_d_a2printer.c ****   uint16_t time = LINE_MIN_DELAY_MS;
  58:..\u8g2-master\csrc/u8x8_d_a2printer.c ****   for ( i = 0; i < cnt; i++ )
  34              		.loc 1 58 0
  35 0000 78B1     		cbz	r0, .L4
  36 0002 421E     		subs	r2, r0, #1
  37 0004 D2B2     		uxtb	r2, r2
  38 0006 0A44     		add	r2, r2, r1
  39 0008 0F20     		movs	r0, #15
  40              	.LVL1:
  41 000a 0139     		subs	r1, r1, #1
  42              	.LVL2:
  43              	.L3:
  44 000c 11F8013F 		ldrb	r3, [r1, #1]!	@ zero_extendqisi2
  45 0010 002B     		cmp	r3, #0
  46 0012 14BF     		ite	ne
  47 0014 0323     		movne	r3, #3
  48 0016 0023     		moveq	r3, #0
  49 0018 1844     		add	r0, r0, r3
  50 001a 9142     		cmp	r1, r2
  51 001c 80B2     		uxth	r0, r0
  52              	.LVL3:
  53 001e F5D1     		bne	.L3
  54 0020 7047     		bx	lr
  55              	.LVL4:
  56              	.L4:
ARM GAS  C:\Users\info\AppData\Local\Temp\cc3u3A5B.s 			page 3


  57:..\u8g2-master\csrc/u8x8_d_a2printer.c ****   for ( i = 0; i < cnt; i++ )
  57              		.loc 1 57 0
  58 0022 0F20     		movs	r0, #15
  59              	.LVL5:
  59:..\u8g2-master\csrc/u8x8_d_a2printer.c ****     if ( data[i] != 0 )
  60:..\u8g2-master\csrc/u8x8_d_a2printer.c ****       time += LINE_EXTRA_8PIXEL_DELAY_MS;
  61:..\u8g2-master\csrc/u8x8_d_a2printer.c ****   return time;
  62:..\u8g2-master\csrc/u8x8_d_a2printer.c **** }
  60              		.loc 1 62 0
  61 0024 7047     		bx	lr
  62              		.cfi_endproc
  63              	.LFE0:
  64              		.size	get_delay_in_milliseconds, .-get_delay_in_milliseconds
  65 0026 00BF     		.section	.text.u8x8_d_a2printer_common,"ax",%progbits
  66              		.align	2
  67              		.global	u8x8_d_a2printer_common
  68              		.thumb
  69              		.thumb_func
  70              		.type	u8x8_d_a2printer_common, %function
  71              	u8x8_d_a2printer_common:
  72              	.LFB1:
  63:..\u8g2-master\csrc/u8x8_d_a2printer.c **** 
  64:..\u8g2-master\csrc/u8x8_d_a2printer.c **** uint8_t u8x8_d_a2printer_common(u8x8_t *u8x8, uint8_t msg, U8X8_UNUSED uint8_t arg_int, void *arg_p
  65:..\u8g2-master\csrc/u8x8_d_a2printer.c **** {
  73              		.loc 1 65 0
  74              		.cfi_startproc
  75              		@ args = 0, pretend = 0, frame = 0
  76              		@ frame_needed = 0, uses_anonymous_args = 0
  77              	.LVL6:
  66:..\u8g2-master\csrc/u8x8_d_a2printer.c ****   uint8_t c, i, j;
  67:..\u8g2-master\csrc/u8x8_d_a2printer.c ****   uint8_t *ptr;
  68:..\u8g2-master\csrc/u8x8_d_a2printer.c ****   uint16_t delay_in_milliseconds;
  69:..\u8g2-master\csrc/u8x8_d_a2printer.c ****   switch(msg)
  78              		.loc 1 69 0
  79 0000 0B29     		cmp	r1, #11
  80 0002 00F09380 		beq	.L19
  81 0006 0F29     		cmp	r1, #15
  65:..\u8g2-master\csrc/u8x8_d_a2printer.c ****   uint8_t c, i, j;
  82              		.loc 1 65 0
  83 0008 2DE9F84F 		push	{r3, r4, r5, r6, r7, r8, r9, r10, fp, lr}
  84              		.cfi_def_cfa_offset 40
  85              		.cfi_offset 3, -40
  86              		.cfi_offset 4, -36
  87              		.cfi_offset 5, -32
  88              		.cfi_offset 6, -28
  89              		.cfi_offset 7, -24
  90              		.cfi_offset 8, -20
  91              		.cfi_offset 9, -16
  92              		.cfi_offset 10, -12
  93              		.cfi_offset 11, -8
  94              		.cfi_offset 14, -4
  95 000c 1D46     		mov	r5, r3
  96              		.loc 1 69 0
  97 000e 09D0     		beq	.L10
  98 0010 0A29     		cmp	r1, #10
  99 0012 02D0     		beq	.L11
  70:..\u8g2-master\csrc/u8x8_d_a2printer.c ****   {
ARM GAS  C:\Users\info\AppData\Local\Temp\cc3u3A5B.s 			page 4


  71:..\u8g2-master\csrc/u8x8_d_a2printer.c ****     /* U8X8_MSG_DISPLAY_SETUP_MEMORY is handled by the calling function */
  72:..\u8g2-master\csrc/u8x8_d_a2printer.c ****     /*
  73:..\u8g2-master\csrc/u8x8_d_a2printer.c ****     case U8X8_MSG_DISPLAY_SETUP_MEMORY:
  74:..\u8g2-master\csrc/u8x8_d_a2printer.c ****       break;
  75:..\u8g2-master\csrc/u8x8_d_a2printer.c ****     */
  76:..\u8g2-master\csrc/u8x8_d_a2printer.c ****     case U8X8_MSG_DISPLAY_INIT:
  77:..\u8g2-master\csrc/u8x8_d_a2printer.c ****       u8x8_d_helper_display_init(u8x8);
  78:..\u8g2-master\csrc/u8x8_d_a2printer.c ****       // no setup required
  79:..\u8g2-master\csrc/u8x8_d_a2printer.c ****       // u8x8_cad_SendSequence(u8x8, u8x8_d_a2printer_init_seq);
  80:..\u8g2-master\csrc/u8x8_d_a2printer.c ****       break;
  81:..\u8g2-master\csrc/u8x8_d_a2printer.c ****     case U8X8_MSG_DISPLAY_SET_POWER_SAVE:
  82:..\u8g2-master\csrc/u8x8_d_a2printer.c ****       // no powersave 
  83:..\u8g2-master\csrc/u8x8_d_a2printer.c ****       break;
  84:..\u8g2-master\csrc/u8x8_d_a2printer.c ****     case U8X8_MSG_DISPLAY_DRAW_TILE:
  85:..\u8g2-master\csrc/u8x8_d_a2printer.c ****       u8x8_cad_StartTransfer(u8x8);
  86:..\u8g2-master\csrc/u8x8_d_a2printer.c ****       
  87:..\u8g2-master\csrc/u8x8_d_a2printer.c ****       u8x8_cad_SendCmd(u8x8, 27);      /* ESC */
  88:..\u8g2-master\csrc/u8x8_d_a2printer.c ****       u8x8_cad_SendCmd(u8x8, 55 );      /* parameter command */
  89:..\u8g2-master\csrc/u8x8_d_a2printer.c ****       /* increasing the "max printing dots" requires a good power supply, but LINE_EXTRA_8PIXEL_DEL
  90:..\u8g2-master\csrc/u8x8_d_a2printer.c ****       u8x8_cad_SendCmd(u8x8, 0);      /* Max printing dots,Unit(8dots),Default:7(64 dots) 8*(x+1) .
  91:..\u8g2-master\csrc/u8x8_d_a2printer.c ****       u8x8_cad_SendCmd(u8x8, 200);      /* 3-255 Heating time,Unit(10us),Default:80(800us) */
  92:..\u8g2-master\csrc/u8x8_d_a2printer.c ****       u8x8_cad_SendCmd(u8x8, 2);      /* 0-255 Heating interval,Unit(10us),Default:2(20us) ... does
  93:..\u8g2-master\csrc/u8x8_d_a2printer.c ****       
  94:..\u8g2-master\csrc/u8x8_d_a2printer.c ****       //c = ((u8x8_tile_t *)arg_ptr)->cnt;	/* number of tiles */
  95:..\u8g2-master\csrc/u8x8_d_a2printer.c ****       c = u8x8->display_info->tile_width;
  96:..\u8g2-master\csrc/u8x8_d_a2printer.c ****       ptr = ((u8x8_tile_t *)arg_ptr)->tile_ptr;	/* data ptr to the tiles */
  97:..\u8g2-master\csrc/u8x8_d_a2printer.c ****     
  98:..\u8g2-master\csrc/u8x8_d_a2printer.c ****       u8x8_cad_SendCmd(u8x8, 18);      /* DC2 */
  99:..\u8g2-master\csrc/u8x8_d_a2printer.c ****       u8x8_cad_SendCmd(u8x8, 42 );      /* *  */
 100:..\u8g2-master\csrc/u8x8_d_a2printer.c ****       u8x8_cad_SendCmd(u8x8, 8 ); 	/* height */
 101:..\u8g2-master\csrc/u8x8_d_a2printer.c ****       u8x8_cad_SendCmd(u8x8, c ); 	/* c, u8x8->display_info->tile_width */
 102:..\u8g2-master\csrc/u8x8_d_a2printer.c ****       
 103:..\u8g2-master\csrc/u8x8_d_a2printer.c ****       for( j = 0; j < 8 / NO_OF_LINES_TO_SEND_WITHOUT_DELAY; j ++ )
 104:..\u8g2-master\csrc/u8x8_d_a2printer.c ****       {
 105:..\u8g2-master\csrc/u8x8_d_a2printer.c **** 
 106:..\u8g2-master\csrc/u8x8_d_a2printer.c **** 	delay_in_milliseconds = 0;
 107:..\u8g2-master\csrc/u8x8_d_a2printer.c **** 	for( i = 0; i < NO_OF_LINES_TO_SEND_WITHOUT_DELAY; i++ )
 108:..\u8g2-master\csrc/u8x8_d_a2printer.c **** 	{
 109:..\u8g2-master\csrc/u8x8_d_a2printer.c **** 	  u8x8_cad_SendData(u8x8, c, ptr);	/* c, note: SendData can not handle more than 255 bytes, send o
 110:..\u8g2-master\csrc/u8x8_d_a2printer.c **** 	  delay_in_milliseconds += get_delay_in_milliseconds(c, ptr);
 111:..\u8g2-master\csrc/u8x8_d_a2printer.c **** 	  ptr += c;
 112:..\u8g2-master\csrc/u8x8_d_a2printer.c **** 	}
 113:..\u8g2-master\csrc/u8x8_d_a2printer.c **** 	
 114:..\u8g2-master\csrc/u8x8_d_a2printer.c **** 	while( delay_in_milliseconds > 200 )
 115:..\u8g2-master\csrc/u8x8_d_a2printer.c **** 	{
 116:..\u8g2-master\csrc/u8x8_d_a2printer.c **** 	  u8x8->gpio_and_delay_cb(u8x8, U8X8_MSG_DELAY_MILLI, 200, NULL);	
 117:..\u8g2-master\csrc/u8x8_d_a2printer.c **** 	  delay_in_milliseconds -= 200;
 118:..\u8g2-master\csrc/u8x8_d_a2printer.c **** 	}
 119:..\u8g2-master\csrc/u8x8_d_a2printer.c **** 	u8x8->gpio_and_delay_cb(u8x8, U8X8_MSG_DELAY_MILLI, delay_in_milliseconds, NULL);	
 120:..\u8g2-master\csrc/u8x8_d_a2printer.c ****       }
 121:..\u8g2-master\csrc/u8x8_d_a2printer.c **** 
 122:..\u8g2-master\csrc/u8x8_d_a2printer.c ****       /* set parameters back to their default values */
 123:..\u8g2-master\csrc/u8x8_d_a2printer.c ****       u8x8_cad_SendCmd(u8x8, 27);      /* ESC */
 124:..\u8g2-master\csrc/u8x8_d_a2printer.c ****       u8x8_cad_SendCmd(u8x8, 55 );      /* parameter command */
 125:..\u8g2-master\csrc/u8x8_d_a2printer.c ****       u8x8_cad_SendCmd(u8x8, 7);      /* Max printing dots,Unit(8dots),Default:7(64 dots) 8*(x+1)*/
 126:..\u8g2-master\csrc/u8x8_d_a2printer.c ****       u8x8_cad_SendCmd(u8x8, 80);      /* 3-255 Heating time,Unit(10us),Default:80(800us) */
 127:..\u8g2-master\csrc/u8x8_d_a2printer.c ****       u8x8_cad_SendCmd(u8x8, 2);      /* 0-255 Heating interval,Unit(10us),Default:2(20us)*/
ARM GAS  C:\Users\info\AppData\Local\Temp\cc3u3A5B.s 			page 5


 128:..\u8g2-master\csrc/u8x8_d_a2printer.c **** 
 129:..\u8g2-master\csrc/u8x8_d_a2printer.c ****       u8x8_cad_EndTransfer(u8x8);
 130:..\u8g2-master\csrc/u8x8_d_a2printer.c **** 
 131:..\u8g2-master\csrc/u8x8_d_a2printer.c ****       break;
 132:..\u8g2-master\csrc/u8x8_d_a2printer.c ****     default:
 133:..\u8g2-master\csrc/u8x8_d_a2printer.c ****       return 0;
 100              		.loc 1 133 0
 101 0014 0020     		movs	r0, #0
 102              	.LVL7:
 103 0016 BDE8F88F 		pop	{r3, r4, r5, r6, r7, r8, r9, r10, fp, pc}
 104              	.LVL8:
 105              	.L11:
  77:..\u8g2-master\csrc/u8x8_d_a2printer.c ****       // no setup required
 106              		.loc 1 77 0
 107 001a FFF7FEFF 		bl	u8x8_d_helper_display_init
 108              	.LVL9:
 134:..\u8g2-master\csrc/u8x8_d_a2printer.c ****   }
 135:..\u8g2-master\csrc/u8x8_d_a2printer.c ****   return 1;
 109              		.loc 1 135 0
 110 001e 0120     		movs	r0, #1
  80:..\u8g2-master\csrc/u8x8_d_a2printer.c ****     case U8X8_MSG_DISPLAY_SET_POWER_SAVE:
 111              		.loc 1 80 0
 112 0020 BDE8F88F 		pop	{r3, r4, r5, r6, r7, r8, r9, r10, fp, pc}
 113              	.LVL10:
 114              	.L10:
 115 0024 0446     		mov	r4, r0
 116              	.LVL11:
 117              	.LBB10:
 118              	.LBB11:
  85:..\u8g2-master\csrc/u8x8_d_a2printer.c ****       
 119              		.loc 1 85 0
 120 0026 FFF7FEFF 		bl	u8x8_cad_StartTransfer
 121              	.LVL12:
  87:..\u8g2-master\csrc/u8x8_d_a2printer.c ****       u8x8_cad_SendCmd(u8x8, 55 );      /* parameter command */
 122              		.loc 1 87 0
 123 002a 1B21     		movs	r1, #27
 124 002c 2046     		mov	r0, r4
 125 002e FFF7FEFF 		bl	u8x8_cad_SendCmd
 126              	.LVL13:
  88:..\u8g2-master\csrc/u8x8_d_a2printer.c ****       /* increasing the "max printing dots" requires a good power supply, but LINE_EXTRA_8PIXEL_DEL
 127              		.loc 1 88 0
 128 0032 3721     		movs	r1, #55
 129 0034 2046     		mov	r0, r4
 130 0036 FFF7FEFF 		bl	u8x8_cad_SendCmd
 131              	.LVL14:
  90:..\u8g2-master\csrc/u8x8_d_a2printer.c ****       u8x8_cad_SendCmd(u8x8, 200);      /* 3-255 Heating time,Unit(10us),Default:80(800us) */
 132              		.loc 1 90 0
 133 003a 0021     		movs	r1, #0
 134 003c 2046     		mov	r0, r4
 135 003e FFF7FEFF 		bl	u8x8_cad_SendCmd
 136              	.LVL15:
  91:..\u8g2-master\csrc/u8x8_d_a2printer.c ****       u8x8_cad_SendCmd(u8x8, 2);      /* 0-255 Heating interval,Unit(10us),Default:2(20us) ... does
 137              		.loc 1 91 0
 138 0042 C821     		movs	r1, #200
 139 0044 2046     		mov	r0, r4
 140 0046 FFF7FEFF 		bl	u8x8_cad_SendCmd
 141              	.LVL16:
ARM GAS  C:\Users\info\AppData\Local\Temp\cc3u3A5B.s 			page 6


  92:..\u8g2-master\csrc/u8x8_d_a2printer.c ****       
 142              		.loc 1 92 0
 143 004a 0221     		movs	r1, #2
 144 004c 2046     		mov	r0, r4
 145 004e FFF7FEFF 		bl	u8x8_cad_SendCmd
 146              	.LVL17:
  95:..\u8g2-master\csrc/u8x8_d_a2printer.c ****       ptr = ((u8x8_tile_t *)arg_ptr)->tile_ptr;	/* data ptr to the tiles */
 147              		.loc 1 95 0
 148 0052 2368     		ldr	r3, [r4]
  98:..\u8g2-master\csrc/u8x8_d_a2printer.c ****       u8x8_cad_SendCmd(u8x8, 42 );      /* *  */
 149              		.loc 1 98 0
 150 0054 1221     		movs	r1, #18
 151 0056 2046     		mov	r0, r4
  95:..\u8g2-master\csrc/u8x8_d_a2printer.c ****       ptr = ((u8x8_tile_t *)arg_ptr)->tile_ptr;	/* data ptr to the tiles */
 152              		.loc 1 95 0
 153 0058 1F7C     		ldrb	r7, [r3, #16]	@ zero_extendqisi2
 154              	.LVL18:
  96:..\u8g2-master\csrc/u8x8_d_a2printer.c ****     
 155              		.loc 1 96 0
 156 005a 2D68     		ldr	r5, [r5]
 157              	.LVL19:
  98:..\u8g2-master\csrc/u8x8_d_a2printer.c ****       u8x8_cad_SendCmd(u8x8, 42 );      /* *  */
 158              		.loc 1 98 0
 159 005c FFF7FEFF 		bl	u8x8_cad_SendCmd
 160              	.LVL20:
  99:..\u8g2-master\csrc/u8x8_d_a2printer.c ****       u8x8_cad_SendCmd(u8x8, 8 ); 	/* height */
 161              		.loc 1 99 0
 162 0060 2A21     		movs	r1, #42
 163 0062 2046     		mov	r0, r4
 164 0064 FFF7FEFF 		bl	u8x8_cad_SendCmd
 165              	.LVL21:
 100:..\u8g2-master\csrc/u8x8_d_a2printer.c ****       u8x8_cad_SendCmd(u8x8, c ); 	/* c, u8x8->display_info->tile_width */
 166              		.loc 1 100 0
 167 0068 0821     		movs	r1, #8
 168 006a 2046     		mov	r0, r4
 169 006c FFF7FEFF 		bl	u8x8_cad_SendCmd
 170              	.LVL22:
 101:..\u8g2-master\csrc/u8x8_d_a2printer.c ****       
 171              		.loc 1 101 0
 172 0070 3946     		mov	r1, r7
 173 0072 2046     		mov	r0, r4
 174 0074 FFF7FEFF 		bl	u8x8_cad_SendCmd
 175              	.LVL23:
 176 0078 07F1FF3A 		add	r10, r7, #-1
 177 007c 5FFA8AFA 		uxtb	r10, r10
 178 0080 C7EB0A0A 		rsb	r10, r7, r10
 179 0084 05EB0709 		add	r9, r5, r7
 180 0088 05F1FF38 		add	r8, r5, #-1
 181 008c 0826     		movs	r6, #8
 182              	.LVL24:
 183              	.L12:
 109:..\u8g2-master\csrc/u8x8_d_a2printer.c **** 	  delay_in_milliseconds += get_delay_in_milliseconds(c, ptr);
 184              		.loc 1 109 0
 185 008e 08F10102 		add	r2, r8, #1
 186              	.LVL25:
 187 0092 3946     		mov	r1, r7
 188 0094 2046     		mov	r0, r4
ARM GAS  C:\Users\info\AppData\Local\Temp\cc3u3A5B.s 			page 7


 189 0096 FFF7FEFF 		bl	u8x8_cad_SendData
 190              	.LVL26:
 191              	.LBB12:
 192              	.LBB13:
  58:..\u8g2-master\csrc/u8x8_d_a2printer.c ****     if ( data[i] != 0 )
 193              		.loc 1 58 0
 194 009a 0F22     		movs	r2, #15
 195 009c 0FB3     		cbz	r7, .L15
 196 009e 4346     		mov	r3, r8
 197 00a0 0AEB0901 		add	r1, r10, r9
 198 00a4 4FF00F0B 		mov	fp, #15
 199              	.LVL27:
 200              	.L13:
 201 00a8 13F8012F 		ldrb	r2, [r3, #1]!	@ zero_extendqisi2
 202 00ac 002A     		cmp	r2, #0
 203 00ae 14BF     		ite	ne
 204 00b0 0322     		movne	r2, #3
 205 00b2 0022     		moveq	r2, #0
 206 00b4 5A44     		add	r2, r2, fp
 207 00b6 8B42     		cmp	r3, r1
 208 00b8 1FFA82FB 		uxth	fp, r2
 209              	.LVL28:
 210 00bc F4D1     		bne	.L13
 211              	.LVL29:
 212              	.LBE13:
 213              	.LBE12:
 114:..\u8g2-master\csrc/u8x8_d_a2printer.c **** 	{
 214              		.loc 1 114 0
 215 00be BBF1C80F 		cmp	fp, #200
 216 00c2 0CD9     		bls	.L27
 217              	.LVL30:
 218              	.L16:
 116:..\u8g2-master\csrc/u8x8_d_a2printer.c **** 	  delay_in_milliseconds -= 200;
 219              		.loc 1 116 0
 220 00c4 C822     		movs	r2, #200
 221 00c6 6569     		ldr	r5, [r4, #20]
 222 00c8 0023     		movs	r3, #0
 223 00ca 2921     		movs	r1, #41
 224 00cc 2046     		mov	r0, r4
 225 00ce A847     		blx	r5
 226              	.LVL31:
 117:..\u8g2-master\csrc/u8x8_d_a2printer.c **** 	}
 227              		.loc 1 117 0
 228 00d0 ABF1C802 		sub	r2, fp, #200
 229 00d4 1FFA82FB 		uxth	fp, r2
 230              	.LVL32:
 114:..\u8g2-master\csrc/u8x8_d_a2printer.c **** 	{
 231              		.loc 1 114 0
 232 00d8 BBF1C80F 		cmp	fp, #200
 233 00dc F2D8     		bhi	.L16
 234              	.L27:
 235 00de 5FFA8BF2 		uxtb	r2, fp
 236              	.LVL33:
 237              	.L15:
 119:..\u8g2-master\csrc/u8x8_d_a2printer.c ****       }
 238              		.loc 1 119 0
 239 00e2 6569     		ldr	r5, [r4, #20]
ARM GAS  C:\Users\info\AppData\Local\Temp\cc3u3A5B.s 			page 8


 240 00e4 0023     		movs	r3, #0
 241 00e6 2921     		movs	r1, #41
 242 00e8 2046     		mov	r0, r4
 243 00ea 013E     		subs	r6, r6, #1
 244 00ec A847     		blx	r5
 245              	.LVL34:
 103:..\u8g2-master\csrc/u8x8_d_a2printer.c ****       {
 246              		.loc 1 103 0
 247 00ee 16F0FF06 		ands	r6, r6, #255
 248 00f2 B944     		add	r9, r9, r7
 249 00f4 B844     		add	r8, r8, r7
 250              	.LVL35:
 251 00f6 CAD1     		bne	.L12
 123:..\u8g2-master\csrc/u8x8_d_a2printer.c ****       u8x8_cad_SendCmd(u8x8, 55 );      /* parameter command */
 252              		.loc 1 123 0
 253 00f8 1B21     		movs	r1, #27
 254 00fa 2046     		mov	r0, r4
 255 00fc FFF7FEFF 		bl	u8x8_cad_SendCmd
 256              	.LVL36:
 124:..\u8g2-master\csrc/u8x8_d_a2printer.c ****       u8x8_cad_SendCmd(u8x8, 7);      /* Max printing dots,Unit(8dots),Default:7(64 dots) 8*(x+1)*/
 257              		.loc 1 124 0
 258 0100 3721     		movs	r1, #55
 259 0102 2046     		mov	r0, r4
 260 0104 FFF7FEFF 		bl	u8x8_cad_SendCmd
 261              	.LVL37:
 125:..\u8g2-master\csrc/u8x8_d_a2printer.c ****       u8x8_cad_SendCmd(u8x8, 80);      /* 3-255 Heating time,Unit(10us),Default:80(800us) */
 262              		.loc 1 125 0
 263 0108 0721     		movs	r1, #7
 264 010a 2046     		mov	r0, r4
 265 010c FFF7FEFF 		bl	u8x8_cad_SendCmd
 266              	.LVL38:
 126:..\u8g2-master\csrc/u8x8_d_a2printer.c ****       u8x8_cad_SendCmd(u8x8, 2);      /* 0-255 Heating interval,Unit(10us),Default:2(20us)*/
 267              		.loc 1 126 0
 268 0110 5021     		movs	r1, #80
 269 0112 2046     		mov	r0, r4
 270 0114 FFF7FEFF 		bl	u8x8_cad_SendCmd
 271              	.LVL39:
 127:..\u8g2-master\csrc/u8x8_d_a2printer.c **** 
 272              		.loc 1 127 0
 273 0118 0221     		movs	r1, #2
 274 011a 2046     		mov	r0, r4
 275 011c FFF7FEFF 		bl	u8x8_cad_SendCmd
 276              	.LVL40:
 129:..\u8g2-master\csrc/u8x8_d_a2printer.c **** 
 277              		.loc 1 129 0
 278 0120 2046     		mov	r0, r4
 279 0122 FFF7FEFF 		bl	u8x8_cad_EndTransfer
 280              	.LVL41:
 281 0126 0120     		movs	r0, #1
 282 0128 BDE8F88F 		pop	{r3, r4, r5, r6, r7, r8, r9, r10, fp, pc}
 283              	.LVL42:
 284              	.L19:
 285              		.cfi_def_cfa_offset 0
 286              		.cfi_restore 3
 287              		.cfi_restore 4
 288              		.cfi_restore 5
 289              		.cfi_restore 6
ARM GAS  C:\Users\info\AppData\Local\Temp\cc3u3A5B.s 			page 9


 290              		.cfi_restore 7
 291              		.cfi_restore 8
 292              		.cfi_restore 9
 293              		.cfi_restore 10
 294              		.cfi_restore 11
 295              		.cfi_restore 14
 296              	.LBE11:
 297              	.LBE10:
 298              		.loc 1 135 0
 299 012c 0120     		movs	r0, #1
 300              	.LVL43:
 301 012e 7047     		bx	lr
 302              		.cfi_endproc
 303              	.LFE1:
 304              		.size	u8x8_d_a2printer_common, .-u8x8_d_a2printer_common
 305              		.section	.text.u8x8_d_a2printer_384x240,"ax",%progbits
 306              		.align	2
 307              		.global	u8x8_d_a2printer_384x240
 308              		.thumb
 309              		.thumb_func
 310              		.type	u8x8_d_a2printer_384x240, %function
 311              	u8x8_d_a2printer_384x240:
 312              	.LFB2:
 136:..\u8g2-master\csrc/u8x8_d_a2printer.c **** }
 137:..\u8g2-master\csrc/u8x8_d_a2printer.c **** 
 138:..\u8g2-master\csrc/u8x8_d_a2printer.c **** 
 139:..\u8g2-master\csrc/u8x8_d_a2printer.c **** static const u8x8_display_info_t u8x8_a2printer_384x240_display_info =
 140:..\u8g2-master\csrc/u8x8_d_a2printer.c **** {
 141:..\u8g2-master\csrc/u8x8_d_a2printer.c ****   /* most of the settings are not required, because this is a serial RS232 printer */
 142:..\u8g2-master\csrc/u8x8_d_a2printer.c ****   
 143:..\u8g2-master\csrc/u8x8_d_a2printer.c ****   /* chip_enable_level = */ 1,
 144:..\u8g2-master\csrc/u8x8_d_a2printer.c ****   /* chip_disable_level = */ 0,
 145:..\u8g2-master\csrc/u8x8_d_a2printer.c ****   
 146:..\u8g2-master\csrc/u8x8_d_a2printer.c ****   /* post_chip_enable_wait_ns = */ 5,
 147:..\u8g2-master\csrc/u8x8_d_a2printer.c ****   /* pre_chip_disable_wait_ns = */ 5,
 148:..\u8g2-master\csrc/u8x8_d_a2printer.c ****   /* reset_pulse_width_ms = */ 1, 
 149:..\u8g2-master\csrc/u8x8_d_a2printer.c ****   /* post_reset_wait_ms = */ 6, 
 150:..\u8g2-master\csrc/u8x8_d_a2printer.c ****   /* sda_setup_time_ns = */ 20,		
 151:..\u8g2-master\csrc/u8x8_d_a2printer.c ****   /* sck_pulse_width_ns = */  140,	
 152:..\u8g2-master\csrc/u8x8_d_a2printer.c ****   /* sck_clock_hz = */ 1000000UL,	/* since Arduino 1.6.0, the SPI bus speed in Hz. Should be  10000
 153:..\u8g2-master\csrc/u8x8_d_a2printer.c ****   /* spi_mode = */ 0,		/* old: sck_takeover_edge, new: active high (bit 1), rising edge (bit 0) */
 154:..\u8g2-master\csrc/u8x8_d_a2printer.c ****   /* i2c_bus_clock_100kHz = */ 4,
 155:..\u8g2-master\csrc/u8x8_d_a2printer.c ****   /* data_setup_time_ns = */ 30,
 156:..\u8g2-master\csrc/u8x8_d_a2printer.c ****   /* write_pulse_width_ns = */ 40,
 157:..\u8g2-master\csrc/u8x8_d_a2printer.c ****   /* tile_width = */ 48,
 158:..\u8g2-master\csrc/u8x8_d_a2printer.c ****   /* tile_hight = */ 30,
 159:..\u8g2-master\csrc/u8x8_d_a2printer.c ****   /* default_x_offset = */ 0,
 160:..\u8g2-master\csrc/u8x8_d_a2printer.c ****   /* flipmode_x_offset = */ 0,
 161:..\u8g2-master\csrc/u8x8_d_a2printer.c ****   /* pixel_width = */ 384,
 162:..\u8g2-master\csrc/u8x8_d_a2printer.c ****   /* pixel_height = */ 240
 163:..\u8g2-master\csrc/u8x8_d_a2printer.c **** };
 164:..\u8g2-master\csrc/u8x8_d_a2printer.c **** 
 165:..\u8g2-master\csrc/u8x8_d_a2printer.c **** uint8_t u8x8_d_a2printer_384x240(u8x8_t *u8x8, uint8_t msg, uint8_t arg_int, void *arg_ptr)
 166:..\u8g2-master\csrc/u8x8_d_a2printer.c **** {
 313              		.loc 1 166 0
 314              		.cfi_startproc
 315              		@ args = 0, pretend = 0, frame = 0
ARM GAS  C:\Users\info\AppData\Local\Temp\cc3u3A5B.s 			page 10


 316              		@ frame_needed = 0, uses_anonymous_args = 0
 317              	.LVL44:
 167:..\u8g2-master\csrc/u8x8_d_a2printer.c ****   switch(msg)
 318              		.loc 1 167 0
 319 0000 0929     		cmp	r1, #9
 320 0002 01D0     		beq	.L34
 168:..\u8g2-master\csrc/u8x8_d_a2printer.c ****   {
 169:..\u8g2-master\csrc/u8x8_d_a2printer.c ****     case U8X8_MSG_DISPLAY_SETUP_MEMORY:
 170:..\u8g2-master\csrc/u8x8_d_a2printer.c ****       u8x8_d_helper_display_setup_memory(u8x8, &u8x8_a2printer_384x240_display_info);
 171:..\u8g2-master\csrc/u8x8_d_a2printer.c ****       break;
 172:..\u8g2-master\csrc/u8x8_d_a2printer.c ****     default:
 173:..\u8g2-master\csrc/u8x8_d_a2printer.c ****       return u8x8_d_a2printer_common(u8x8, msg, arg_int, arg_ptr);
 321              		.loc 1 173 0
 322 0004 FFF7FEBF 		b	u8x8_d_a2printer_common
 323              	.LVL45:
 324              	.L34:
 166:..\u8g2-master\csrc/u8x8_d_a2printer.c ****   switch(msg)
 325              		.loc 1 166 0
 326 0008 10B5     		push	{r4, lr}
 327              		.cfi_def_cfa_offset 8
 328              		.cfi_offset 4, -8
 329              		.cfi_offset 14, -4
 170:..\u8g2-master\csrc/u8x8_d_a2printer.c ****       break;
 330              		.loc 1 170 0
 331 000a 0249     		ldr	r1, .L36
 332              	.LVL46:
 333 000c FFF7FEFF 		bl	u8x8_d_helper_display_setup_memory
 334              	.LVL47:
 174:..\u8g2-master\csrc/u8x8_d_a2printer.c ****   }
 175:..\u8g2-master\csrc/u8x8_d_a2printer.c ****   return 1;
 176:..\u8g2-master\csrc/u8x8_d_a2printer.c **** }
 335              		.loc 1 176 0
 336 0010 0120     		movs	r0, #1
 337 0012 10BD     		pop	{r4, pc}
 338              	.L37:
 339              		.align	2
 340              	.L36:
 341 0014 00000000 		.word	.LANCHOR0
 342              		.cfi_endproc
 343              	.LFE2:
 344              		.size	u8x8_d_a2printer_384x240, .-u8x8_d_a2printer_384x240
 345              		.section	.rodata
 346              		.align	2
 347              		.set	.LANCHOR0,. + 0
 348              		.type	u8x8_a2printer_384x240_display_info, %object
 349              		.size	u8x8_a2printer_384x240_display_info, 24
 350              	u8x8_a2printer_384x240_display_info:
 351 0000 01       		.byte	1
 352 0001 00       		.byte	0
 353 0002 05       		.byte	5
 354 0003 05       		.byte	5
 355 0004 01       		.byte	1
 356 0005 06       		.byte	6
 357 0006 14       		.byte	20
 358 0007 8C       		.byte	-116
 359 0008 40420F00 		.word	1000000
 360 000c 00       		.byte	0
ARM GAS  C:\Users\info\AppData\Local\Temp\cc3u3A5B.s 			page 11


 361 000d 04       		.byte	4
 362 000e 1E       		.byte	30
 363 000f 28       		.byte	40
 364 0010 30       		.byte	48
 365 0011 1E       		.byte	30
 366 0012 00       		.byte	0
 367 0013 00       		.byte	0
 368 0014 8001     		.short	384
 369 0016 F000     		.short	240
 370              		.text
 371              	.Letext0:
 372              		.file 2 "c:\\program files (x86)\\cypress\\psoc creator\\4.2\\psoc creator\\import\\gnu\\arm\\5.4.
 373              		.file 3 "c:\\program files (x86)\\cypress\\psoc creator\\4.2\\psoc creator\\import\\gnu\\arm\\5.4.
 374              		.file 4 "..\\u8g2-master\\csrc\\u8x8.h"