ARM GAS  C:\Users\info\AppData\Local\Temp\ccrI6DV7.s 			page 1


   1              		.syntax unified
   2              		.cpu cortex-m3
   3              		.fpu softvfp
   4              		.eabi_attribute 20, 1
   5              		.eabi_attribute 21, 1
   6              		.eabi_attribute 23, 3
   7              		.eabi_attribute 24, 1
   8              		.eabi_attribute 25, 1
   9              		.eabi_attribute 26, 1
  10              		.eabi_attribute 30, 2
  11              		.eabi_attribute 34, 1
  12              		.eabi_attribute 18, 4
  13              		.thumb
  14              		.syntax unified
  15              		.file	"u8x8_d_ssd1305.c"
  16              		.text
  17              	.Ltext0:
  18              		.cfi_sections	.debug_frame
  19              		.section	.text.u8x8_d_ssd1305_128x32_noname,"ax",%progbits
  20              		.align	2
  21              		.global	u8x8_d_ssd1305_128x32_noname
  22              		.thumb
  23              		.thumb_func
  24              		.type	u8x8_d_ssd1305_128x32_noname, %function
  25              	u8x8_d_ssd1305_128x32_noname:
  26              	.LFB1:
  27              		.file 1 "..\\u8g2-master\\csrc\\u8x8_d_ssd1305.c"
   1:..\u8g2-master\csrc/u8x8_d_ssd1305.c **** /*
   2:..\u8g2-master\csrc/u8x8_d_ssd1305.c **** 
   3:..\u8g2-master\csrc/u8x8_d_ssd1305.c ****   u8x8_d_ssd1305.c
   4:..\u8g2-master\csrc/u8x8_d_ssd1305.c **** 
   5:..\u8g2-master\csrc/u8x8_d_ssd1305.c ****   Universal 8bit Graphics Library (https://github.com/olikraus/u8g2/)
   6:..\u8g2-master\csrc/u8x8_d_ssd1305.c **** 
   7:..\u8g2-master\csrc/u8x8_d_ssd1305.c ****   Copyright (c) 2017, olikraus@gmail.com
   8:..\u8g2-master\csrc/u8x8_d_ssd1305.c ****   All rights reserved.
   9:..\u8g2-master\csrc/u8x8_d_ssd1305.c **** 
  10:..\u8g2-master\csrc/u8x8_d_ssd1305.c ****   Redistribution and use in source and binary forms, with or without modification, 
  11:..\u8g2-master\csrc/u8x8_d_ssd1305.c ****   are permitted provided that the following conditions are met:
  12:..\u8g2-master\csrc/u8x8_d_ssd1305.c **** 
  13:..\u8g2-master\csrc/u8x8_d_ssd1305.c ****   * Redistributions of source code must retain the above copyright notice, this list 
  14:..\u8g2-master\csrc/u8x8_d_ssd1305.c ****     of conditions and the following disclaimer.
  15:..\u8g2-master\csrc/u8x8_d_ssd1305.c ****     
  16:..\u8g2-master\csrc/u8x8_d_ssd1305.c ****   * Redistributions in binary form must reproduce the above copyright notice, this 
  17:..\u8g2-master\csrc/u8x8_d_ssd1305.c ****     list of conditions and the following disclaimer in the documentation and/or other 
  18:..\u8g2-master\csrc/u8x8_d_ssd1305.c ****     materials provided with the distribution.
  19:..\u8g2-master\csrc/u8x8_d_ssd1305.c **** 
  20:..\u8g2-master\csrc/u8x8_d_ssd1305.c ****   THIS SOFTWARE IS PROVIDED BY THE COPYRIGHT HOLDERS AND 
  21:..\u8g2-master\csrc/u8x8_d_ssd1305.c ****   CONTRIBUTORS "AS IS" AND ANY EXPRESS OR IMPLIED WARRANTIES, 
  22:..\u8g2-master\csrc/u8x8_d_ssd1305.c ****   INCLUDING, BUT NOT LIMITED TO, THE IMPLIED WARRANTIES OF 
  23:..\u8g2-master\csrc/u8x8_d_ssd1305.c ****   MERCHANTABILITY AND FITNESS FOR A PARTICULAR PURPOSE ARE 
  24:..\u8g2-master\csrc/u8x8_d_ssd1305.c ****   DISCLAIMED. IN NO EVENT SHALL THE COPYRIGHT HOLDER OR 
  25:..\u8g2-master\csrc/u8x8_d_ssd1305.c ****   CONTRIBUTORS BE LIABLE FOR ANY DIRECT, INDIRECT, INCIDENTAL, 
  26:..\u8g2-master\csrc/u8x8_d_ssd1305.c ****   SPECIAL, EXEMPLARY, OR CONSEQUENTIAL DAMAGES (INCLUDING, BUT 
  27:..\u8g2-master\csrc/u8x8_d_ssd1305.c ****   NOT LIMITED TO, PROCUREMENT OF SUBSTITUTE GOODS OR SERVICES; 
  28:..\u8g2-master\csrc/u8x8_d_ssd1305.c ****   LOSS OF USE, DATA, OR PROFITS; OR BUSINESS INTERRUPTION) HOWEVER 
  29:..\u8g2-master\csrc/u8x8_d_ssd1305.c ****   CAUSED AND ON ANY THEORY OF LIABILITY, WHETHER IN CONTRACT, 
  30:..\u8g2-master\csrc/u8x8_d_ssd1305.c ****   STRICT LIABILITY, OR TORT (INCLUDING NEGLIGENCE OR OTHERWISE) 
ARM GAS  C:\Users\info\AppData\Local\Temp\ccrI6DV7.s 			page 2


  31:..\u8g2-master\csrc/u8x8_d_ssd1305.c ****   ARISING IN ANY WAY OUT OF THE USE OF THIS SOFTWARE, EVEN IF 
  32:..\u8g2-master\csrc/u8x8_d_ssd1305.c ****   ADVISED OF THE POSSIBILITY OF SUCH DAMAGE.  
  33:..\u8g2-master\csrc/u8x8_d_ssd1305.c ****   
  34:..\u8g2-master\csrc/u8x8_d_ssd1305.c **** */
  35:..\u8g2-master\csrc/u8x8_d_ssd1305.c **** 
  36:..\u8g2-master\csrc/u8x8_d_ssd1305.c **** 
  37:..\u8g2-master\csrc/u8x8_d_ssd1305.c **** #include "u8x8.h"
  38:..\u8g2-master\csrc/u8x8_d_ssd1305.c **** 
  39:..\u8g2-master\csrc/u8x8_d_ssd1305.c **** 
  40:..\u8g2-master\csrc/u8x8_d_ssd1305.c **** 
  41:..\u8g2-master\csrc/u8x8_d_ssd1305.c **** 
  42:..\u8g2-master\csrc/u8x8_d_ssd1305.c **** static const uint8_t u8x8_d_ssd1305_powersave0_seq[] = {
  43:..\u8g2-master\csrc/u8x8_d_ssd1305.c ****   U8X8_START_TRANSFER(),             	/* enable chip, delay is part of the transfer start */
  44:..\u8g2-master\csrc/u8x8_d_ssd1305.c ****   U8X8_C(0x0af),		                /* display on */
  45:..\u8g2-master\csrc/u8x8_d_ssd1305.c ****   U8X8_END_TRANSFER(),             	/* disable chip */
  46:..\u8g2-master\csrc/u8x8_d_ssd1305.c ****   U8X8_END()             			/* end of sequence */
  47:..\u8g2-master\csrc/u8x8_d_ssd1305.c **** };
  48:..\u8g2-master\csrc/u8x8_d_ssd1305.c **** 
  49:..\u8g2-master\csrc/u8x8_d_ssd1305.c **** static const uint8_t u8x8_d_ssd1305_powersave1_seq[] = {
  50:..\u8g2-master\csrc/u8x8_d_ssd1305.c ****   U8X8_START_TRANSFER(),             	/* enable chip, delay is part of the transfer start */
  51:..\u8g2-master\csrc/u8x8_d_ssd1305.c ****   U8X8_C(0x0ae),		                /* display off */
  52:..\u8g2-master\csrc/u8x8_d_ssd1305.c ****   U8X8_END_TRANSFER(),             	/* disable chip */
  53:..\u8g2-master\csrc/u8x8_d_ssd1305.c ****   U8X8_END()             			/* end of sequence */
  54:..\u8g2-master\csrc/u8x8_d_ssd1305.c **** };
  55:..\u8g2-master\csrc/u8x8_d_ssd1305.c **** 
  56:..\u8g2-master\csrc/u8x8_d_ssd1305.c **** static const uint8_t u8x8_d_ssd1305_128x32_flip0_seq[] = {
  57:..\u8g2-master\csrc/u8x8_d_ssd1305.c ****   U8X8_START_TRANSFER(),             	/* enable chip, delay is part of the transfer start */
  58:..\u8g2-master\csrc/u8x8_d_ssd1305.c ****   U8X8_CA(0x0d3, 32),			/* display offset to 32 */
  59:..\u8g2-master\csrc/u8x8_d_ssd1305.c ****   U8X8_C(0x0a1),				/* segment remap a0/a1*/
  60:..\u8g2-master\csrc/u8x8_d_ssd1305.c ****   U8X8_C(0x0c8),				/* c0: scan dir normal, c8: reverse */
  61:..\u8g2-master\csrc/u8x8_d_ssd1305.c ****   U8X8_END_TRANSFER(),             	/* disable chip */
  62:..\u8g2-master\csrc/u8x8_d_ssd1305.c ****   U8X8_END()             			/* end of sequence */
  63:..\u8g2-master\csrc/u8x8_d_ssd1305.c **** };
  64:..\u8g2-master\csrc/u8x8_d_ssd1305.c **** 
  65:..\u8g2-master\csrc/u8x8_d_ssd1305.c **** static const uint8_t u8x8_d_ssd1305_128x32_flip1_seq[] = {
  66:..\u8g2-master\csrc/u8x8_d_ssd1305.c ****   U8X8_START_TRANSFER(),             	/* enable chip, delay is part of the transfer start */
  67:..\u8g2-master\csrc/u8x8_d_ssd1305.c ****   U8X8_CA(0x0d3, 0),			/* display offset to  */
  68:..\u8g2-master\csrc/u8x8_d_ssd1305.c ****   U8X8_C(0x0a0),				/* segment remap a0/a1*/
  69:..\u8g2-master\csrc/u8x8_d_ssd1305.c ****   U8X8_C(0x0c0),				/* c0: scan dir normal, c8: reverse */
  70:..\u8g2-master\csrc/u8x8_d_ssd1305.c ****   U8X8_END_TRANSFER(),             	/* disable chip */
  71:..\u8g2-master\csrc/u8x8_d_ssd1305.c ****   U8X8_END()             			/* end of sequence */
  72:..\u8g2-master\csrc/u8x8_d_ssd1305.c **** };
  73:..\u8g2-master\csrc/u8x8_d_ssd1305.c **** 
  74:..\u8g2-master\csrc/u8x8_d_ssd1305.c **** 
  75:..\u8g2-master\csrc/u8x8_d_ssd1305.c **** 
  76:..\u8g2-master\csrc/u8x8_d_ssd1305.c **** static uint8_t u8x8_d_ssd1305_generic(u8x8_t *u8x8, uint8_t msg, uint8_t arg_int, void *arg_ptr)
  77:..\u8g2-master\csrc/u8x8_d_ssd1305.c **** {
  78:..\u8g2-master\csrc/u8x8_d_ssd1305.c ****   uint8_t x, c;
  79:..\u8g2-master\csrc/u8x8_d_ssd1305.c ****   uint8_t *ptr;
  80:..\u8g2-master\csrc/u8x8_d_ssd1305.c ****   switch(msg)
  81:..\u8g2-master\csrc/u8x8_d_ssd1305.c ****   {
  82:..\u8g2-master\csrc/u8x8_d_ssd1305.c ****     case U8X8_MSG_DISPLAY_DRAW_TILE:
  83:..\u8g2-master\csrc/u8x8_d_ssd1305.c ****       u8x8_cad_StartTransfer(u8x8);
  84:..\u8g2-master\csrc/u8x8_d_ssd1305.c ****       x = ((u8x8_tile_t *)arg_ptr)->x_pos;    
  85:..\u8g2-master\csrc/u8x8_d_ssd1305.c ****       x *= 8;
  86:..\u8g2-master\csrc/u8x8_d_ssd1305.c ****       x += u8x8->x_offset;
  87:..\u8g2-master\csrc/u8x8_d_ssd1305.c ****     
ARM GAS  C:\Users\info\AppData\Local\Temp\ccrI6DV7.s 			page 3


  88:..\u8g2-master\csrc/u8x8_d_ssd1305.c ****       u8x8_cad_SendCmd(u8x8, 0x040 );	/* set line offset to 0 */
  89:..\u8g2-master\csrc/u8x8_d_ssd1305.c ****     
  90:..\u8g2-master\csrc/u8x8_d_ssd1305.c ****       u8x8_cad_SendCmd(u8x8, 0x010 | (x>>4) );
  91:..\u8g2-master\csrc/u8x8_d_ssd1305.c ****       u8x8_cad_SendArg(u8x8, 0x000 | ((x&15)));
  92:..\u8g2-master\csrc/u8x8_d_ssd1305.c ****       u8x8_cad_SendArg(u8x8, 0x0b0 | (((u8x8_tile_t *)arg_ptr)->y_pos)   );
  93:..\u8g2-master\csrc/u8x8_d_ssd1305.c **** 
  94:..\u8g2-master\csrc/u8x8_d_ssd1305.c ****     
  95:..\u8g2-master\csrc/u8x8_d_ssd1305.c ****       do
  96:..\u8g2-master\csrc/u8x8_d_ssd1305.c ****       {
  97:..\u8g2-master\csrc/u8x8_d_ssd1305.c **** 	c = ((u8x8_tile_t *)arg_ptr)->cnt;
  98:..\u8g2-master\csrc/u8x8_d_ssd1305.c **** 	ptr = ((u8x8_tile_t *)arg_ptr)->tile_ptr;
  99:..\u8g2-master\csrc/u8x8_d_ssd1305.c **** 	u8x8_cad_SendData(u8x8, c*8, ptr); 	/* note: SendData can not handle more than 255 bytes */
 100:..\u8g2-master\csrc/u8x8_d_ssd1305.c **** 	/*
 101:..\u8g2-master\csrc/u8x8_d_ssd1305.c **** 	do
 102:..\u8g2-master\csrc/u8x8_d_ssd1305.c **** 	{
 103:..\u8g2-master\csrc/u8x8_d_ssd1305.c **** 	  u8x8_cad_SendData(u8x8, 8, ptr);
 104:..\u8g2-master\csrc/u8x8_d_ssd1305.c **** 	  ptr += 8;
 105:..\u8g2-master\csrc/u8x8_d_ssd1305.c **** 	  c--;
 106:..\u8g2-master\csrc/u8x8_d_ssd1305.c **** 	} while( c > 0 );
 107:..\u8g2-master\csrc/u8x8_d_ssd1305.c **** 	*/
 108:..\u8g2-master\csrc/u8x8_d_ssd1305.c **** 	arg_int--;
 109:..\u8g2-master\csrc/u8x8_d_ssd1305.c ****       } while( arg_int > 0 );
 110:..\u8g2-master\csrc/u8x8_d_ssd1305.c ****       
 111:..\u8g2-master\csrc/u8x8_d_ssd1305.c ****       u8x8_cad_EndTransfer(u8x8);
 112:..\u8g2-master\csrc/u8x8_d_ssd1305.c ****       break;
 113:..\u8g2-master\csrc/u8x8_d_ssd1305.c ****     case U8X8_MSG_DISPLAY_SET_POWER_SAVE:
 114:..\u8g2-master\csrc/u8x8_d_ssd1305.c ****       if ( arg_int == 0 )
 115:..\u8g2-master\csrc/u8x8_d_ssd1305.c **** 	u8x8_cad_SendSequence(u8x8, u8x8_d_ssd1305_powersave0_seq);
 116:..\u8g2-master\csrc/u8x8_d_ssd1305.c ****       else
 117:..\u8g2-master\csrc/u8x8_d_ssd1305.c **** 	u8x8_cad_SendSequence(u8x8, u8x8_d_ssd1305_powersave1_seq);
 118:..\u8g2-master\csrc/u8x8_d_ssd1305.c ****       break;
 119:..\u8g2-master\csrc/u8x8_d_ssd1305.c **** #ifdef U8X8_WITH_SET_CONTRAST
 120:..\u8g2-master\csrc/u8x8_d_ssd1305.c ****     case U8X8_MSG_DISPLAY_SET_CONTRAST:
 121:..\u8g2-master\csrc/u8x8_d_ssd1305.c ****       u8x8_cad_StartTransfer(u8x8);
 122:..\u8g2-master\csrc/u8x8_d_ssd1305.c ****       u8x8_cad_SendCmd(u8x8, 0x081 );
 123:..\u8g2-master\csrc/u8x8_d_ssd1305.c ****       u8x8_cad_SendArg(u8x8, arg_int );	/* ssd1305 has range from 0 to 255 */
 124:..\u8g2-master\csrc/u8x8_d_ssd1305.c ****       u8x8_cad_EndTransfer(u8x8);
 125:..\u8g2-master\csrc/u8x8_d_ssd1305.c ****       break;
 126:..\u8g2-master\csrc/u8x8_d_ssd1305.c **** #endif
 127:..\u8g2-master\csrc/u8x8_d_ssd1305.c ****     default:
 128:..\u8g2-master\csrc/u8x8_d_ssd1305.c ****       return 0;
 129:..\u8g2-master\csrc/u8x8_d_ssd1305.c ****   }
 130:..\u8g2-master\csrc/u8x8_d_ssd1305.c ****   return 1;
 131:..\u8g2-master\csrc/u8x8_d_ssd1305.c **** }
 132:..\u8g2-master\csrc/u8x8_d_ssd1305.c **** 
 133:..\u8g2-master\csrc/u8x8_d_ssd1305.c **** /* timing from SSD1306 */
 134:..\u8g2-master\csrc/u8x8_d_ssd1305.c **** static const u8x8_display_info_t u8x8_ssd1305_128x32_noname_display_info =
 135:..\u8g2-master\csrc/u8x8_d_ssd1305.c **** {
 136:..\u8g2-master\csrc/u8x8_d_ssd1305.c ****   /* chip_enable_level = */ 0,
 137:..\u8g2-master\csrc/u8x8_d_ssd1305.c ****   /* chip_disable_level = */ 1,
 138:..\u8g2-master\csrc/u8x8_d_ssd1305.c ****   
 139:..\u8g2-master\csrc/u8x8_d_ssd1305.c ****   /* post_chip_enable_wait_ns = */ 20,
 140:..\u8g2-master\csrc/u8x8_d_ssd1305.c ****   /* pre_chip_disable_wait_ns = */ 10,
 141:..\u8g2-master\csrc/u8x8_d_ssd1305.c ****   /* reset_pulse_width_ms = */ 100, 	/* SSD1306: 3 us */
 142:..\u8g2-master\csrc/u8x8_d_ssd1305.c ****   /* post_reset_wait_ms = */ 100, /* far east OLEDs need much longer setup time */
 143:..\u8g2-master\csrc/u8x8_d_ssd1305.c ****   /* sda_setup_time_ns = */ 50,		/* SSD1306: 15ns, but cycle time is 100ns, so use 100/2 */
 144:..\u8g2-master\csrc/u8x8_d_ssd1305.c ****   /* sck_pulse_width_ns = */ 50,	/* SSD1306: 20ns, but cycle time is 100ns, so use 100/2, AVR: belo
ARM GAS  C:\Users\info\AppData\Local\Temp\ccrI6DV7.s 			page 4


 145:..\u8g2-master\csrc/u8x8_d_ssd1305.c ****   /* sck_clock_hz = */ 4000000UL,	/* since Arduino 1.6.0, the SPI bus speed in Hz. Should be  10000
 146:..\u8g2-master\csrc/u8x8_d_ssd1305.c ****   /* spi_mode = */ 0,		/* active high, rising edge */
 147:..\u8g2-master\csrc/u8x8_d_ssd1305.c ****   /* i2c_bus_clock_100kHz = */ 4,
 148:..\u8g2-master\csrc/u8x8_d_ssd1305.c ****   /* data_setup_time_ns = */ 40,
 149:..\u8g2-master\csrc/u8x8_d_ssd1305.c ****   /* write_pulse_width_ns = */ 150,	/* SSD1306: cycle time is 300ns, so use 300/2 = 150 */
 150:..\u8g2-master\csrc/u8x8_d_ssd1305.c ****   /* tile_width = */ 16,
 151:..\u8g2-master\csrc/u8x8_d_ssd1305.c ****   /* tile_hight = */ 4,
 152:..\u8g2-master\csrc/u8x8_d_ssd1305.c ****   /* default_x_offset = */ 2,
 153:..\u8g2-master\csrc/u8x8_d_ssd1305.c ****   /* flipmode_x_offset = */ 2,
 154:..\u8g2-master\csrc/u8x8_d_ssd1305.c ****   /* pixel_width = */ 128,
 155:..\u8g2-master\csrc/u8x8_d_ssd1305.c ****   /* pixel_height = */ 32
 156:..\u8g2-master\csrc/u8x8_d_ssd1305.c **** };
 157:..\u8g2-master\csrc/u8x8_d_ssd1305.c **** 
 158:..\u8g2-master\csrc/u8x8_d_ssd1305.c **** 
 159:..\u8g2-master\csrc/u8x8_d_ssd1305.c **** static const uint8_t u8x8_d_ssd1305_128x32_noname_init_seq[] = {
 160:..\u8g2-master\csrc/u8x8_d_ssd1305.c ****     
 161:..\u8g2-master\csrc/u8x8_d_ssd1305.c ****   U8X8_START_TRANSFER(),             	/* enable chip, delay is part of the transfer start */
 162:..\u8g2-master\csrc/u8x8_d_ssd1305.c ****   
 163:..\u8g2-master\csrc/u8x8_d_ssd1305.c ****   
 164:..\u8g2-master\csrc/u8x8_d_ssd1305.c ****   U8X8_C(0x0ae),		                /* display off */
 165:..\u8g2-master\csrc/u8x8_d_ssd1305.c ****   U8X8_CA(0x0d5, 0x080),		/* clock divide ratio (0x00=1) and oscillator frequency (0x8) */
 166:..\u8g2-master\csrc/u8x8_d_ssd1305.c ****   U8X8_CA(0x0a8, 0x03f),		/* multiplex ratio */
 167:..\u8g2-master\csrc/u8x8_d_ssd1305.c ****   U8X8_CA(0x0d3, 32),			/* display offset to 32 */
 168:..\u8g2-master\csrc/u8x8_d_ssd1305.c ****   U8X8_C(0x040),		        	/* set display start line to 0 */
 169:..\u8g2-master\csrc/u8x8_d_ssd1305.c ****   U8X8_CA(0x020, 0x000),		/* page addressing mode */
 170:..\u8g2-master\csrc/u8x8_d_ssd1305.c ****   
 171:..\u8g2-master\csrc/u8x8_d_ssd1305.c ****   U8X8_C(0x0a1),				/* segment remap a0/a1*/
 172:..\u8g2-master\csrc/u8x8_d_ssd1305.c ****   U8X8_C(0x0c8),				/* c0: scan dir normal, c8: reverse */
 173:..\u8g2-master\csrc/u8x8_d_ssd1305.c ****   // Flipmode
 174:..\u8g2-master\csrc/u8x8_d_ssd1305.c ****   // U8X8_C(0x0a0),				/* segment remap a0/a1*/
 175:..\u8g2-master\csrc/u8x8_d_ssd1305.c ****   // U8X8_C(0x0c0),				/* c0: scan dir normal, c8: reverse */
 176:..\u8g2-master\csrc/u8x8_d_ssd1305.c ****   
 177:..\u8g2-master\csrc/u8x8_d_ssd1305.c ****   U8X8_CA(0x0da, 0x012),		/* com pin HW config, sequential com pin config (bit 4), disable left/rig
 178:..\u8g2-master\csrc/u8x8_d_ssd1305.c **** 
 179:..\u8g2-master\csrc/u8x8_d_ssd1305.c ****   U8X8_CA(0x081, 0x0cf), 		/* [2] set contrast control */
 180:..\u8g2-master\csrc/u8x8_d_ssd1305.c ****   U8X8_CA(0x0d9, 0x0f1), 		/* [2] pre-charge period 0x022/f1*/
 181:..\u8g2-master\csrc/u8x8_d_ssd1305.c ****   U8X8_CA(0x0db, 0x040), 		/* vcomh deselect level */  
 182:..\u8g2-master\csrc/u8x8_d_ssd1305.c ****   // if vcomh is 0, then this will give the biggest range for contrast control issue #98
 183:..\u8g2-master\csrc/u8x8_d_ssd1305.c ****   // restored the old values for the noname constructor, because vcomh=0 will not work for all OLED
 184:..\u8g2-master\csrc/u8x8_d_ssd1305.c ****   
 185:..\u8g2-master\csrc/u8x8_d_ssd1305.c ****   U8X8_C(0x02e),				/* Deactivate scroll */ 
 186:..\u8g2-master\csrc/u8x8_d_ssd1305.c ****   U8X8_C(0x0a4),				/* output ram to display */
 187:..\u8g2-master\csrc/u8x8_d_ssd1305.c ****   U8X8_C(0x0a6),				/* none inverted normal display mode */
 188:..\u8g2-master\csrc/u8x8_d_ssd1305.c ****     
 189:..\u8g2-master\csrc/u8x8_d_ssd1305.c ****   U8X8_END_TRANSFER(),             	/* disable chip */
 190:..\u8g2-master\csrc/u8x8_d_ssd1305.c ****   U8X8_END()             			/* end of sequence */
 191:..\u8g2-master\csrc/u8x8_d_ssd1305.c **** };
 192:..\u8g2-master\csrc/u8x8_d_ssd1305.c **** 
 193:..\u8g2-master\csrc/u8x8_d_ssd1305.c **** 
 194:..\u8g2-master\csrc/u8x8_d_ssd1305.c **** uint8_t u8x8_d_ssd1305_128x32_noname(u8x8_t *u8x8, uint8_t msg, uint8_t arg_int, void *arg_ptr)
 195:..\u8g2-master\csrc/u8x8_d_ssd1305.c **** {
  28              		.loc 1 195 0
  29              		.cfi_startproc
  30              		@ args = 0, pretend = 0, frame = 0
  31              		@ frame_needed = 0, uses_anonymous_args = 0
  32              	.LVL0:
  33              	.LBB6:
ARM GAS  C:\Users\info\AppData\Local\Temp\ccrI6DV7.s 			page 5


  34              	.LBB7:
  80:..\u8g2-master\csrc/u8x8_d_ssd1305.c ****   {
  35              		.loc 1 80 0
  36 0000 0E29     		cmp	r1, #14
  37              	.LBE7:
  38              	.LBE6:
  39              		.loc 1 195 0
  40 0002 F8B5     		push	{r3, r4, r5, r6, r7, lr}
  41              		.cfi_def_cfa_offset 24
  42              		.cfi_offset 3, -24
  43              		.cfi_offset 4, -20
  44              		.cfi_offset 5, -16
  45              		.cfi_offset 6, -12
  46              		.cfi_offset 7, -8
  47              		.cfi_offset 14, -4
  48              		.loc 1 195 0
  49 0004 1446     		mov	r4, r2
  50 0006 0646     		mov	r6, r0
  51              	.LVL1:
  52              	.LBB15:
  53              	.LBB10:
  80:..\u8g2-master\csrc/u8x8_d_ssd1305.c ****   {
  54              		.loc 1 80 0
  55 0008 42D0     		beq	.L3
  56 000a 0F29     		cmp	r1, #15
  57 000c 10D0     		beq	.L4
  58 000e 0B29     		cmp	r1, #11
  59 0010 07D0     		beq	.L24
  60              	.LVL2:
  61              	.LBE10:
  62              	.LBE15:
 196:..\u8g2-master\csrc/u8x8_d_ssd1305.c ****     
 197:..\u8g2-master\csrc/u8x8_d_ssd1305.c ****   if ( u8x8_d_ssd1305_generic(u8x8, msg, arg_int, arg_ptr) != 0 )
 198:..\u8g2-master\csrc/u8x8_d_ssd1305.c ****     return 1;
 199:..\u8g2-master\csrc/u8x8_d_ssd1305.c ****   
 200:..\u8g2-master\csrc/u8x8_d_ssd1305.c ****   switch(msg)
  63              		.loc 1 200 0
  64 0012 0A29     		cmp	r1, #10
  65 0014 47D0     		beq	.L12
  66 0016 0D29     		cmp	r1, #13
  67 0018 57D0     		beq	.L9
  68 001a 0929     		cmp	r1, #9
  69 001c 50D0     		beq	.L25
 201:..\u8g2-master\csrc/u8x8_d_ssd1305.c ****   {
 202:..\u8g2-master\csrc/u8x8_d_ssd1305.c ****     case U8X8_MSG_DISPLAY_SET_FLIP_MODE:
 203:..\u8g2-master\csrc/u8x8_d_ssd1305.c ****       if ( arg_int == 0 )
 204:..\u8g2-master\csrc/u8x8_d_ssd1305.c ****       {
 205:..\u8g2-master\csrc/u8x8_d_ssd1305.c **** 	u8x8_cad_SendSequence(u8x8, u8x8_d_ssd1305_128x32_flip0_seq);
 206:..\u8g2-master\csrc/u8x8_d_ssd1305.c **** 	u8x8->x_offset = u8x8->display_info->default_x_offset;
 207:..\u8g2-master\csrc/u8x8_d_ssd1305.c ****       }
 208:..\u8g2-master\csrc/u8x8_d_ssd1305.c ****       else
 209:..\u8g2-master\csrc/u8x8_d_ssd1305.c ****       {
 210:..\u8g2-master\csrc/u8x8_d_ssd1305.c **** 	u8x8_cad_SendSequence(u8x8, u8x8_d_ssd1305_128x32_flip1_seq);
 211:..\u8g2-master\csrc/u8x8_d_ssd1305.c **** 	u8x8->x_offset = u8x8->display_info->flipmode_x_offset;
 212:..\u8g2-master\csrc/u8x8_d_ssd1305.c ****       }
 213:..\u8g2-master\csrc/u8x8_d_ssd1305.c ****       break;
 214:..\u8g2-master\csrc/u8x8_d_ssd1305.c ****     case U8X8_MSG_DISPLAY_INIT:
ARM GAS  C:\Users\info\AppData\Local\Temp\ccrI6DV7.s 			page 6


 215:..\u8g2-master\csrc/u8x8_d_ssd1305.c ****       u8x8_d_helper_display_init(u8x8);
 216:..\u8g2-master\csrc/u8x8_d_ssd1305.c ****       u8x8_cad_SendSequence(u8x8, u8x8_d_ssd1305_128x32_noname_init_seq);    
 217:..\u8g2-master\csrc/u8x8_d_ssd1305.c ****       break;
 218:..\u8g2-master\csrc/u8x8_d_ssd1305.c ****     case U8X8_MSG_DISPLAY_SETUP_MEMORY:
 219:..\u8g2-master\csrc/u8x8_d_ssd1305.c ****       u8x8_d_helper_display_setup_memory(u8x8, &u8x8_ssd1305_128x32_noname_display_info);
 220:..\u8g2-master\csrc/u8x8_d_ssd1305.c ****       break;
 221:..\u8g2-master\csrc/u8x8_d_ssd1305.c ****     default:
 222:..\u8g2-master\csrc/u8x8_d_ssd1305.c ****       return 0;
  70              		.loc 1 222 0
  71 001e 0020     		movs	r0, #0
  72              	.LVL3:
  73 0020 F8BD     		pop	{r3, r4, r5, r6, r7, pc}
  74              	.LVL4:
  75              	.L24:
  76              	.LBB16:
  77              	.LBB11:
 114:..\u8g2-master\csrc/u8x8_d_ssd1305.c **** 	u8x8_cad_SendSequence(u8x8, u8x8_d_ssd1305_powersave0_seq);
  78              		.loc 1 114 0
  79 0022 002A     		cmp	r2, #0
  80 0024 47D1     		bne	.L8
 115:..\u8g2-master\csrc/u8x8_d_ssd1305.c ****       else
  81              		.loc 1 115 0
  82 0026 3249     		ldr	r1, .L26
  83              	.LVL5:
  84 0028 FFF7FEFF 		bl	u8x8_cad_SendSequence
  85              	.LVL6:
  86              	.LBE11:
  87              	.LBE16:
 198:..\u8g2-master\csrc/u8x8_d_ssd1305.c ****   
  88              		.loc 1 198 0
  89 002c 0120     		movs	r0, #1
  90 002e F8BD     		pop	{r3, r4, r5, r6, r7, pc}
  91              	.LVL7:
  92              	.L4:
  93 0030 1D46     		mov	r5, r3
  94              	.LVL8:
  95              	.LBB17:
  96              	.LBB12:
  97              	.LBB8:
  98              	.LBB9:
  83:..\u8g2-master\csrc/u8x8_d_ssd1305.c ****       x = ((u8x8_tile_t *)arg_ptr)->x_pos;    
  99              		.loc 1 83 0
 100 0032 FFF7FEFF 		bl	u8x8_cad_StartTransfer
 101              	.LVL9:
  86:..\u8g2-master\csrc/u8x8_d_ssd1305.c ****     
 102              		.loc 1 86 0
 103 0036 96F82230 		ldrb	r3, [r6, #34]	@ zero_extendqisi2
  84:..\u8g2-master\csrc/u8x8_d_ssd1305.c ****       x *= 8;
 104              		.loc 1 84 0
 105 003a 6F79     		ldrb	r7, [r5, #5]	@ zero_extendqisi2
 106              	.LVL10:
  88:..\u8g2-master\csrc/u8x8_d_ssd1305.c ****     
 107              		.loc 1 88 0
 108 003c 4021     		movs	r1, #64
  86:..\u8g2-master\csrc/u8x8_d_ssd1305.c ****     
 109              		.loc 1 86 0
 110 003e 03EBC707 		add	r7, r3, r7, lsl #3
ARM GAS  C:\Users\info\AppData\Local\Temp\ccrI6DV7.s 			page 7


 111              	.LVL11:
 112 0042 07F0FF07 		and	r7, r7, #255
 113              	.LVL12:
  88:..\u8g2-master\csrc/u8x8_d_ssd1305.c ****     
 114              		.loc 1 88 0
 115 0046 3046     		mov	r0, r6
 116 0048 FFF7FEFF 		bl	u8x8_cad_SendCmd
 117              	.LVL13:
  90:..\u8g2-master\csrc/u8x8_d_ssd1305.c ****       u8x8_cad_SendArg(u8x8, 0x000 | ((x&15)));
 118              		.loc 1 90 0
 119 004c 3909     		lsrs	r1, r7, #4
 120 004e 41F01001 		orr	r1, r1, #16
 121 0052 3046     		mov	r0, r6
 122 0054 FFF7FEFF 		bl	u8x8_cad_SendCmd
 123              	.LVL14:
  91:..\u8g2-master\csrc/u8x8_d_ssd1305.c ****       u8x8_cad_SendArg(u8x8, 0x0b0 | (((u8x8_tile_t *)arg_ptr)->y_pos)   );
 124              		.loc 1 91 0
 125 0058 07F00F01 		and	r1, r7, #15
 126 005c 3046     		mov	r0, r6
 127 005e FFF7FEFF 		bl	u8x8_cad_SendArg
 128              	.LVL15:
  92:..\u8g2-master\csrc/u8x8_d_ssd1305.c **** 
 129              		.loc 1 92 0
 130 0062 A979     		ldrb	r1, [r5, #6]	@ zero_extendqisi2
 131 0064 3046     		mov	r0, r6
 132 0066 41F0B001 		orr	r1, r1, #176
 133 006a FFF7FEFF 		bl	u8x8_cad_SendArg
 134              	.LVL16:
 135              	.L6:
  99:..\u8g2-master\csrc/u8x8_d_ssd1305.c **** 	/*
 136              		.loc 1 99 0
 137 006e 2979     		ldrb	r1, [r5, #4]	@ zero_extendqisi2
 138 0070 2A68     		ldr	r2, [r5]
 139 0072 C900     		lsls	r1, r1, #3
 140 0074 01F0F801 		and	r1, r1, #248
 141 0078 3046     		mov	r0, r6
 142 007a FFF7FEFF 		bl	u8x8_cad_SendData
 143              	.LVL17:
 108:..\u8g2-master\csrc/u8x8_d_ssd1305.c ****       } while( arg_int > 0 );
 144              		.loc 1 108 0
 145 007e 621E     		subs	r2, r4, #1
 146              	.LVL18:
 109:..\u8g2-master\csrc/u8x8_d_ssd1305.c ****       
 147              		.loc 1 109 0
 148 0080 12F0FF04 		ands	r4, r2, #255
 149 0084 F3D1     		bne	.L6
 150              	.LVL19:
 151              	.L20:
 152              	.LBE9:
 153              	.LBE8:
 124:..\u8g2-master\csrc/u8x8_d_ssd1305.c ****       break;
 154              		.loc 1 124 0
 155 0086 3046     		mov	r0, r6
 156 0088 FFF7FEFF 		bl	u8x8_cad_EndTransfer
 157              	.LVL20:
 158              	.LBE12:
 159              	.LBE17:
ARM GAS  C:\Users\info\AppData\Local\Temp\ccrI6DV7.s 			page 8


 198:..\u8g2-master\csrc/u8x8_d_ssd1305.c ****   
 160              		.loc 1 198 0
 161 008c 0120     		movs	r0, #1
 162 008e F8BD     		pop	{r3, r4, r5, r6, r7, pc}
 163              	.LVL21:
 164              	.L3:
 165              	.LBB18:
 166              	.LBB13:
 121:..\u8g2-master\csrc/u8x8_d_ssd1305.c ****       u8x8_cad_SendCmd(u8x8, 0x081 );
 167              		.loc 1 121 0
 168 0090 FFF7FEFF 		bl	u8x8_cad_StartTransfer
 169              	.LVL22:
 122:..\u8g2-master\csrc/u8x8_d_ssd1305.c ****       u8x8_cad_SendArg(u8x8, arg_int );	/* ssd1305 has range from 0 to 255 */
 170              		.loc 1 122 0
 171 0094 8121     		movs	r1, #129
 172 0096 3046     		mov	r0, r6
 173 0098 FFF7FEFF 		bl	u8x8_cad_SendCmd
 174              	.LVL23:
 123:..\u8g2-master\csrc/u8x8_d_ssd1305.c ****       u8x8_cad_EndTransfer(u8x8);
 175              		.loc 1 123 0
 176 009c 2146     		mov	r1, r4
 177 009e 3046     		mov	r0, r6
 178 00a0 FFF7FEFF 		bl	u8x8_cad_SendArg
 179              	.LVL24:
 180 00a4 EFE7     		b	.L20
 181              	.LVL25:
 182              	.L12:
 183              	.LBE13:
 184              	.LBE18:
 215:..\u8g2-master\csrc/u8x8_d_ssd1305.c ****       u8x8_cad_SendSequence(u8x8, u8x8_d_ssd1305_128x32_noname_init_seq);    
 185              		.loc 1 215 0
 186 00a6 FFF7FEFF 		bl	u8x8_d_helper_display_init
 187              	.LVL26:
 216:..\u8g2-master\csrc/u8x8_d_ssd1305.c ****       break;
 188              		.loc 1 216 0
 189 00aa 3046     		mov	r0, r6
 190 00ac 1149     		ldr	r1, .L26+4
 191 00ae FFF7FEFF 		bl	u8x8_cad_SendSequence
 192              	.LVL27:
 223:..\u8g2-master\csrc/u8x8_d_ssd1305.c ****   }
 224:..\u8g2-master\csrc/u8x8_d_ssd1305.c ****   return 1;
 193              		.loc 1 224 0
 194 00b2 0120     		movs	r0, #1
 217:..\u8g2-master\csrc/u8x8_d_ssd1305.c ****     case U8X8_MSG_DISPLAY_SETUP_MEMORY:
 195              		.loc 1 217 0
 196 00b4 F8BD     		pop	{r3, r4, r5, r6, r7, pc}
 197              	.LVL28:
 198              	.L8:
 199              	.LBB19:
 200              	.LBB14:
 117:..\u8g2-master\csrc/u8x8_d_ssd1305.c ****       break;
 201              		.loc 1 117 0
 202 00b6 1049     		ldr	r1, .L26+8
 203              	.LVL29:
 204 00b8 FFF7FEFF 		bl	u8x8_cad_SendSequence
 205              	.LVL30:
 206              	.LBE14:
ARM GAS  C:\Users\info\AppData\Local\Temp\ccrI6DV7.s 			page 9


 207              	.LBE19:
 198:..\u8g2-master\csrc/u8x8_d_ssd1305.c ****   
 208              		.loc 1 198 0
 209 00bc 0120     		movs	r0, #1
 210 00be F8BD     		pop	{r3, r4, r5, r6, r7, pc}
 211              	.LVL31:
 212              	.L25:
 219:..\u8g2-master\csrc/u8x8_d_ssd1305.c ****       break;
 213              		.loc 1 219 0
 214 00c0 0E49     		ldr	r1, .L26+12
 215              	.LVL32:
 216 00c2 FFF7FEFF 		bl	u8x8_d_helper_display_setup_memory
 217              	.LVL33:
 218              		.loc 1 224 0
 219 00c6 0120     		movs	r0, #1
 220:..\u8g2-master\csrc/u8x8_d_ssd1305.c ****     default:
 220              		.loc 1 220 0
 221 00c8 F8BD     		pop	{r3, r4, r5, r6, r7, pc}
 222              	.LVL34:
 223              	.L9:
 203:..\u8g2-master\csrc/u8x8_d_ssd1305.c ****       {
 224              		.loc 1 203 0
 225 00ca 44B9     		cbnz	r4, .L10
 205:..\u8g2-master\csrc/u8x8_d_ssd1305.c **** 	u8x8->x_offset = u8x8->display_info->default_x_offset;
 226              		.loc 1 205 0
 227 00cc 0C49     		ldr	r1, .L26+16
 228              	.LVL35:
 229 00ce FFF7FEFF 		bl	u8x8_cad_SendSequence
 230              	.LVL36:
 206:..\u8g2-master\csrc/u8x8_d_ssd1305.c ****       }
 231              		.loc 1 206 0
 232 00d2 3368     		ldr	r3, [r6]
 233              		.loc 1 224 0
 234 00d4 0120     		movs	r0, #1
 206:..\u8g2-master\csrc/u8x8_d_ssd1305.c ****       }
 235              		.loc 1 206 0
 236 00d6 9B7C     		ldrb	r3, [r3, #18]	@ zero_extendqisi2
 237 00d8 86F82230 		strb	r3, [r6, #34]
 238 00dc F8BD     		pop	{r3, r4, r5, r6, r7, pc}
 239              	.LVL37:
 240              	.L10:
 210:..\u8g2-master\csrc/u8x8_d_ssd1305.c **** 	u8x8->x_offset = u8x8->display_info->flipmode_x_offset;
 241              		.loc 1 210 0
 242 00de 0949     		ldr	r1, .L26+20
 243              	.LVL38:
 244 00e0 FFF7FEFF 		bl	u8x8_cad_SendSequence
 245              	.LVL39:
 211:..\u8g2-master\csrc/u8x8_d_ssd1305.c ****       }
 246              		.loc 1 211 0
 247 00e4 3368     		ldr	r3, [r6]
 248              		.loc 1 224 0
 249 00e6 0120     		movs	r0, #1
 211:..\u8g2-master\csrc/u8x8_d_ssd1305.c ****       }
 250              		.loc 1 211 0
 251 00e8 DB7C     		ldrb	r3, [r3, #19]	@ zero_extendqisi2
 252 00ea 86F82230 		strb	r3, [r6, #34]
 253 00ee F8BD     		pop	{r3, r4, r5, r6, r7, pc}
ARM GAS  C:\Users\info\AppData\Local\Temp\ccrI6DV7.s 			page 10


 254              	.LVL40:
 255              	.L27:
 256              		.align	2
 257              	.L26:
 258 00f0 00000000 		.word	.LANCHOR0
 259 00f4 28000000 		.word	.LANCHOR0+40
 260 00f8 08000000 		.word	.LANCHOR0+8
 261 00fc 5C000000 		.word	.LANCHOR0+92
 262 0100 10000000 		.word	.LANCHOR0+16
 263 0104 1C000000 		.word	.LANCHOR0+28
 264              		.cfi_endproc
 265              	.LFE1:
 266              		.size	u8x8_d_ssd1305_128x32_noname, .-u8x8_d_ssd1305_128x32_noname
 267              		.section	.text.u8x8_d_ssd1305_128x32_adafruit,"ax",%progbits
 268              		.align	2
 269              		.global	u8x8_d_ssd1305_128x32_adafruit
 270              		.thumb
 271              		.thumb_func
 272              		.type	u8x8_d_ssd1305_128x32_adafruit, %function
 273              	u8x8_d_ssd1305_128x32_adafruit:
 274              	.LFB2:
 225:..\u8g2-master\csrc/u8x8_d_ssd1305.c **** }
 226:..\u8g2-master\csrc/u8x8_d_ssd1305.c **** 
 227:..\u8g2-master\csrc/u8x8_d_ssd1305.c **** /*================================================*/
 228:..\u8g2-master\csrc/u8x8_d_ssd1305.c **** /* adafruit 128x32 SSD1305 OLED, https://www.adafruit.com/product/2675 */
 229:..\u8g2-master\csrc/u8x8_d_ssd1305.c **** /* issue 724 */
 230:..\u8g2-master\csrc/u8x8_d_ssd1305.c **** 
 231:..\u8g2-master\csrc/u8x8_d_ssd1305.c **** /* timing from SSD1306 */
 232:..\u8g2-master\csrc/u8x8_d_ssd1305.c **** static const u8x8_display_info_t u8x8_ssd1305_128x32_adafruit_display_info =
 233:..\u8g2-master\csrc/u8x8_d_ssd1305.c **** {
 234:..\u8g2-master\csrc/u8x8_d_ssd1305.c ****   /* chip_enable_level = */ 0,
 235:..\u8g2-master\csrc/u8x8_d_ssd1305.c ****   /* chip_disable_level = */ 1,
 236:..\u8g2-master\csrc/u8x8_d_ssd1305.c ****   
 237:..\u8g2-master\csrc/u8x8_d_ssd1305.c ****   /* post_chip_enable_wait_ns = */ 20,
 238:..\u8g2-master\csrc/u8x8_d_ssd1305.c ****   /* pre_chip_disable_wait_ns = */ 10,
 239:..\u8g2-master\csrc/u8x8_d_ssd1305.c ****   /* reset_pulse_width_ms = */ 100, 	/* SSD1306: 3 us */
 240:..\u8g2-master\csrc/u8x8_d_ssd1305.c ****   /* post_reset_wait_ms = */ 100, /* far east OLEDs need much longer setup time */
 241:..\u8g2-master\csrc/u8x8_d_ssd1305.c ****   /* sda_setup_time_ns = */ 50,		/* SSD1306: 15ns, but cycle time is 100ns, so use 100/2 */
 242:..\u8g2-master\csrc/u8x8_d_ssd1305.c ****   /* sck_pulse_width_ns = */ 50,	/* SSD1306: 20ns, but cycle time is 100ns, so use 100/2, AVR: belo
 243:..\u8g2-master\csrc/u8x8_d_ssd1305.c ****   /* sck_clock_hz = */ 4000000UL,	/* since Arduino 1.6.0, the SPI bus speed in Hz. Should be  10000
 244:..\u8g2-master\csrc/u8x8_d_ssd1305.c ****   /* spi_mode = */ 0,		/* active high, rising edge */
 245:..\u8g2-master\csrc/u8x8_d_ssd1305.c ****   /* i2c_bus_clock_100kHz = */ 4,
 246:..\u8g2-master\csrc/u8x8_d_ssd1305.c ****   /* data_setup_time_ns = */ 40,
 247:..\u8g2-master\csrc/u8x8_d_ssd1305.c ****   /* write_pulse_width_ns = */ 150,	/* SSD1306: cycle time is 300ns, so use 300/2 = 150 */
 248:..\u8g2-master\csrc/u8x8_d_ssd1305.c ****   /* tile_width = */ 16,
 249:..\u8g2-master\csrc/u8x8_d_ssd1305.c ****   /* tile_hight = */ 4,
 250:..\u8g2-master\csrc/u8x8_d_ssd1305.c ****   /* default_x_offset = */ 4,
 251:..\u8g2-master\csrc/u8x8_d_ssd1305.c ****   /* flipmode_x_offset = */ 0,
 252:..\u8g2-master\csrc/u8x8_d_ssd1305.c ****   /* pixel_width = */ 128,
 253:..\u8g2-master\csrc/u8x8_d_ssd1305.c ****   /* pixel_height = */ 32
 254:..\u8g2-master\csrc/u8x8_d_ssd1305.c **** };
 255:..\u8g2-master\csrc/u8x8_d_ssd1305.c **** 
 256:..\u8g2-master\csrc/u8x8_d_ssd1305.c **** 
 257:..\u8g2-master\csrc/u8x8_d_ssd1305.c **** uint8_t u8x8_d_ssd1305_128x32_adafruit(u8x8_t *u8x8, uint8_t msg, uint8_t arg_int, void *arg_ptr)
 258:..\u8g2-master\csrc/u8x8_d_ssd1305.c **** {
 275              		.loc 1 258 0
 276              		.cfi_startproc
ARM GAS  C:\Users\info\AppData\Local\Temp\ccrI6DV7.s 			page 11


 277              		@ args = 0, pretend = 0, frame = 0
 278              		@ frame_needed = 0, uses_anonymous_args = 0
 279              	.LVL41:
 280              	.LBB24:
 281              	.LBB25:
  80:..\u8g2-master\csrc/u8x8_d_ssd1305.c ****   {
 282              		.loc 1 80 0
 283 0000 0E29     		cmp	r1, #14
 284              	.LBE25:
 285              	.LBE24:
 286              		.loc 1 258 0
 287 0002 F8B5     		push	{r3, r4, r5, r6, r7, lr}
 288              		.cfi_def_cfa_offset 24
 289              		.cfi_offset 3, -24
 290              		.cfi_offset 4, -20
 291              		.cfi_offset 5, -16
 292              		.cfi_offset 6, -12
 293              		.cfi_offset 7, -8
 294              		.cfi_offset 14, -4
 295              		.loc 1 258 0
 296 0004 1446     		mov	r4, r2
 297 0006 0646     		mov	r6, r0
 298              	.LVL42:
 299              	.LBB33:
 300              	.LBB28:
  80:..\u8g2-master\csrc/u8x8_d_ssd1305.c ****   {
 301              		.loc 1 80 0
 302 0008 42D0     		beq	.L30
 303 000a 0F29     		cmp	r1, #15
 304 000c 10D0     		beq	.L31
 305 000e 0B29     		cmp	r1, #11
 306 0010 07D0     		beq	.L50
 307              	.LVL43:
 308              	.LBE28:
 309              	.LBE33:
 259:..\u8g2-master\csrc/u8x8_d_ssd1305.c ****     
 260:..\u8g2-master\csrc/u8x8_d_ssd1305.c ****   if ( u8x8_d_ssd1305_generic(u8x8, msg, arg_int, arg_ptr) != 0 )
 261:..\u8g2-master\csrc/u8x8_d_ssd1305.c ****     return 1;
 262:..\u8g2-master\csrc/u8x8_d_ssd1305.c ****   
 263:..\u8g2-master\csrc/u8x8_d_ssd1305.c ****   switch(msg)
 310              		.loc 1 263 0
 311 0012 0A29     		cmp	r1, #10
 312 0014 47D0     		beq	.L39
 313 0016 0D29     		cmp	r1, #13
 314 0018 57D0     		beq	.L36
 315 001a 0929     		cmp	r1, #9
 316 001c 50D0     		beq	.L51
 264:..\u8g2-master\csrc/u8x8_d_ssd1305.c ****   {
 265:..\u8g2-master\csrc/u8x8_d_ssd1305.c ****     case U8X8_MSG_DISPLAY_SET_FLIP_MODE:
 266:..\u8g2-master\csrc/u8x8_d_ssd1305.c ****       if ( arg_int == 0 )
 267:..\u8g2-master\csrc/u8x8_d_ssd1305.c ****       {
 268:..\u8g2-master\csrc/u8x8_d_ssd1305.c **** 	u8x8_cad_SendSequence(u8x8, u8x8_d_ssd1305_128x32_flip0_seq);
 269:..\u8g2-master\csrc/u8x8_d_ssd1305.c **** 	u8x8->x_offset = u8x8->display_info->default_x_offset;
 270:..\u8g2-master\csrc/u8x8_d_ssd1305.c ****       }
 271:..\u8g2-master\csrc/u8x8_d_ssd1305.c ****       else
 272:..\u8g2-master\csrc/u8x8_d_ssd1305.c ****       {
 273:..\u8g2-master\csrc/u8x8_d_ssd1305.c **** 	u8x8_cad_SendSequence(u8x8, u8x8_d_ssd1305_128x32_flip1_seq);
ARM GAS  C:\Users\info\AppData\Local\Temp\ccrI6DV7.s 			page 12


 274:..\u8g2-master\csrc/u8x8_d_ssd1305.c **** 	u8x8->x_offset = u8x8->display_info->flipmode_x_offset;
 275:..\u8g2-master\csrc/u8x8_d_ssd1305.c ****       }
 276:..\u8g2-master\csrc/u8x8_d_ssd1305.c ****       break;
 277:..\u8g2-master\csrc/u8x8_d_ssd1305.c ****     case U8X8_MSG_DISPLAY_INIT:
 278:..\u8g2-master\csrc/u8x8_d_ssd1305.c ****       u8x8_d_helper_display_init(u8x8);
 279:..\u8g2-master\csrc/u8x8_d_ssd1305.c ****       u8x8_cad_SendSequence(u8x8, u8x8_d_ssd1305_128x32_noname_init_seq);    
 280:..\u8g2-master\csrc/u8x8_d_ssd1305.c ****       break;
 281:..\u8g2-master\csrc/u8x8_d_ssd1305.c ****     case U8X8_MSG_DISPLAY_SETUP_MEMORY:
 282:..\u8g2-master\csrc/u8x8_d_ssd1305.c ****       u8x8_d_helper_display_setup_memory(u8x8, &u8x8_ssd1305_128x32_adafruit_display_info);
 283:..\u8g2-master\csrc/u8x8_d_ssd1305.c ****       break;
 284:..\u8g2-master\csrc/u8x8_d_ssd1305.c ****     default:
 285:..\u8g2-master\csrc/u8x8_d_ssd1305.c ****       return 0;
 317              		.loc 1 285 0
 318 001e 0020     		movs	r0, #0
 319              	.LVL44:
 320 0020 F8BD     		pop	{r3, r4, r5, r6, r7, pc}
 321              	.LVL45:
 322              	.L50:
 323              	.LBB34:
 324              	.LBB29:
 114:..\u8g2-master\csrc/u8x8_d_ssd1305.c **** 	u8x8_cad_SendSequence(u8x8, u8x8_d_ssd1305_powersave0_seq);
 325              		.loc 1 114 0
 326 0022 002A     		cmp	r2, #0
 327 0024 47D1     		bne	.L35
 115:..\u8g2-master\csrc/u8x8_d_ssd1305.c ****       else
 328              		.loc 1 115 0
 329 0026 3249     		ldr	r1, .L52
 330              	.LVL46:
 331 0028 FFF7FEFF 		bl	u8x8_cad_SendSequence
 332              	.LVL47:
 333              	.LBE29:
 334              	.LBE34:
 261:..\u8g2-master\csrc/u8x8_d_ssd1305.c ****   
 335              		.loc 1 261 0
 336 002c 0120     		movs	r0, #1
 337 002e F8BD     		pop	{r3, r4, r5, r6, r7, pc}
 338              	.LVL48:
 339              	.L31:
 340 0030 1D46     		mov	r5, r3
 341              	.LVL49:
 342              	.LBB35:
 343              	.LBB30:
 344              	.LBB26:
 345              	.LBB27:
  83:..\u8g2-master\csrc/u8x8_d_ssd1305.c ****       x = ((u8x8_tile_t *)arg_ptr)->x_pos;    
 346              		.loc 1 83 0
 347 0032 FFF7FEFF 		bl	u8x8_cad_StartTransfer
 348              	.LVL50:
  86:..\u8g2-master\csrc/u8x8_d_ssd1305.c ****     
 349              		.loc 1 86 0
 350 0036 96F82230 		ldrb	r3, [r6, #34]	@ zero_extendqisi2
  84:..\u8g2-master\csrc/u8x8_d_ssd1305.c ****       x *= 8;
 351              		.loc 1 84 0
 352 003a 6F79     		ldrb	r7, [r5, #5]	@ zero_extendqisi2
 353              	.LVL51:
  88:..\u8g2-master\csrc/u8x8_d_ssd1305.c ****     
 354              		.loc 1 88 0
ARM GAS  C:\Users\info\AppData\Local\Temp\ccrI6DV7.s 			page 13


 355 003c 4021     		movs	r1, #64
  86:..\u8g2-master\csrc/u8x8_d_ssd1305.c ****     
 356              		.loc 1 86 0
 357 003e 03EBC707 		add	r7, r3, r7, lsl #3
 358              	.LVL52:
 359 0042 07F0FF07 		and	r7, r7, #255
 360              	.LVL53:
  88:..\u8g2-master\csrc/u8x8_d_ssd1305.c ****     
 361              		.loc 1 88 0
 362 0046 3046     		mov	r0, r6
 363 0048 FFF7FEFF 		bl	u8x8_cad_SendCmd
 364              	.LVL54:
  90:..\u8g2-master\csrc/u8x8_d_ssd1305.c ****       u8x8_cad_SendArg(u8x8, 0x000 | ((x&15)));
 365              		.loc 1 90 0
 366 004c 3909     		lsrs	r1, r7, #4
 367 004e 41F01001 		orr	r1, r1, #16
 368 0052 3046     		mov	r0, r6
 369 0054 FFF7FEFF 		bl	u8x8_cad_SendCmd
 370              	.LVL55:
  91:..\u8g2-master\csrc/u8x8_d_ssd1305.c ****       u8x8_cad_SendArg(u8x8, 0x0b0 | (((u8x8_tile_t *)arg_ptr)->y_pos)   );
 371              		.loc 1 91 0
 372 0058 07F00F01 		and	r1, r7, #15
 373 005c 3046     		mov	r0, r6
 374 005e FFF7FEFF 		bl	u8x8_cad_SendArg
 375              	.LVL56:
  92:..\u8g2-master\csrc/u8x8_d_ssd1305.c **** 
 376              		.loc 1 92 0
 377 0062 A979     		ldrb	r1, [r5, #6]	@ zero_extendqisi2
 378 0064 3046     		mov	r0, r6
 379 0066 41F0B001 		orr	r1, r1, #176
 380 006a FFF7FEFF 		bl	u8x8_cad_SendArg
 381              	.LVL57:
 382              	.L33:
  99:..\u8g2-master\csrc/u8x8_d_ssd1305.c **** 	/*
 383              		.loc 1 99 0
 384 006e 2979     		ldrb	r1, [r5, #4]	@ zero_extendqisi2
 385 0070 2A68     		ldr	r2, [r5]
 386 0072 C900     		lsls	r1, r1, #3
 387 0074 01F0F801 		and	r1, r1, #248
 388 0078 3046     		mov	r0, r6
 389 007a FFF7FEFF 		bl	u8x8_cad_SendData
 390              	.LVL58:
 108:..\u8g2-master\csrc/u8x8_d_ssd1305.c ****       } while( arg_int > 0 );
 391              		.loc 1 108 0
 392 007e 621E     		subs	r2, r4, #1
 393              	.LVL59:
 109:..\u8g2-master\csrc/u8x8_d_ssd1305.c ****       
 394              		.loc 1 109 0
 395 0080 12F0FF04 		ands	r4, r2, #255
 396 0084 F3D1     		bne	.L33
 397              	.LVL60:
 398              	.L47:
 399              	.LBE27:
 400              	.LBE26:
 124:..\u8g2-master\csrc/u8x8_d_ssd1305.c ****       break;
 401              		.loc 1 124 0
 402 0086 3046     		mov	r0, r6
ARM GAS  C:\Users\info\AppData\Local\Temp\ccrI6DV7.s 			page 14


 403 0088 FFF7FEFF 		bl	u8x8_cad_EndTransfer
 404              	.LVL61:
 405              	.LBE30:
 406              	.LBE35:
 261:..\u8g2-master\csrc/u8x8_d_ssd1305.c ****   
 407              		.loc 1 261 0
 408 008c 0120     		movs	r0, #1
 409 008e F8BD     		pop	{r3, r4, r5, r6, r7, pc}
 410              	.LVL62:
 411              	.L30:
 412              	.LBB36:
 413              	.LBB31:
 121:..\u8g2-master\csrc/u8x8_d_ssd1305.c ****       u8x8_cad_SendCmd(u8x8, 0x081 );
 414              		.loc 1 121 0
 415 0090 FFF7FEFF 		bl	u8x8_cad_StartTransfer
 416              	.LVL63:
 122:..\u8g2-master\csrc/u8x8_d_ssd1305.c ****       u8x8_cad_SendArg(u8x8, arg_int );	/* ssd1305 has range from 0 to 255 */
 417              		.loc 1 122 0
 418 0094 8121     		movs	r1, #129
 419 0096 3046     		mov	r0, r6
 420 0098 FFF7FEFF 		bl	u8x8_cad_SendCmd
 421              	.LVL64:
 123:..\u8g2-master\csrc/u8x8_d_ssd1305.c ****       u8x8_cad_EndTransfer(u8x8);
 422              		.loc 1 123 0
 423 009c 2146     		mov	r1, r4
 424 009e 3046     		mov	r0, r6
 425 00a0 FFF7FEFF 		bl	u8x8_cad_SendArg
 426              	.LVL65:
 427 00a4 EFE7     		b	.L47
 428              	.LVL66:
 429              	.L39:
 430              	.LBE31:
 431              	.LBE36:
 278:..\u8g2-master\csrc/u8x8_d_ssd1305.c ****       u8x8_cad_SendSequence(u8x8, u8x8_d_ssd1305_128x32_noname_init_seq);    
 432              		.loc 1 278 0
 433 00a6 FFF7FEFF 		bl	u8x8_d_helper_display_init
 434              	.LVL67:
 279:..\u8g2-master\csrc/u8x8_d_ssd1305.c ****       break;
 435              		.loc 1 279 0
 436 00aa 3046     		mov	r0, r6
 437 00ac 1149     		ldr	r1, .L52+4
 438 00ae FFF7FEFF 		bl	u8x8_cad_SendSequence
 439              	.LVL68:
 286:..\u8g2-master\csrc/u8x8_d_ssd1305.c ****   }
 287:..\u8g2-master\csrc/u8x8_d_ssd1305.c ****   return 1;
 440              		.loc 1 287 0
 441 00b2 0120     		movs	r0, #1
 280:..\u8g2-master\csrc/u8x8_d_ssd1305.c ****     case U8X8_MSG_DISPLAY_SETUP_MEMORY:
 442              		.loc 1 280 0
 443 00b4 F8BD     		pop	{r3, r4, r5, r6, r7, pc}
 444              	.LVL69:
 445              	.L35:
 446              	.LBB37:
 447              	.LBB32:
 117:..\u8g2-master\csrc/u8x8_d_ssd1305.c ****       break;
 448              		.loc 1 117 0
 449 00b6 1049     		ldr	r1, .L52+8
ARM GAS  C:\Users\info\AppData\Local\Temp\ccrI6DV7.s 			page 15


 450              	.LVL70:
 451 00b8 FFF7FEFF 		bl	u8x8_cad_SendSequence
 452              	.LVL71:
 453              	.LBE32:
 454              	.LBE37:
 261:..\u8g2-master\csrc/u8x8_d_ssd1305.c ****   
 455              		.loc 1 261 0
 456 00bc 0120     		movs	r0, #1
 457 00be F8BD     		pop	{r3, r4, r5, r6, r7, pc}
 458              	.LVL72:
 459              	.L51:
 282:..\u8g2-master\csrc/u8x8_d_ssd1305.c ****       break;
 460              		.loc 1 282 0
 461 00c0 0E49     		ldr	r1, .L52+12
 462              	.LVL73:
 463 00c2 FFF7FEFF 		bl	u8x8_d_helper_display_setup_memory
 464              	.LVL74:
 465              		.loc 1 287 0
 466 00c6 0120     		movs	r0, #1
 283:..\u8g2-master\csrc/u8x8_d_ssd1305.c ****     default:
 467              		.loc 1 283 0
 468 00c8 F8BD     		pop	{r3, r4, r5, r6, r7, pc}
 469              	.LVL75:
 470              	.L36:
 266:..\u8g2-master\csrc/u8x8_d_ssd1305.c ****       {
 471              		.loc 1 266 0
 472 00ca 44B9     		cbnz	r4, .L37
 268:..\u8g2-master\csrc/u8x8_d_ssd1305.c **** 	u8x8->x_offset = u8x8->display_info->default_x_offset;
 473              		.loc 1 268 0
 474 00cc 0C49     		ldr	r1, .L52+16
 475              	.LVL76:
 476 00ce FFF7FEFF 		bl	u8x8_cad_SendSequence
 477              	.LVL77:
 269:..\u8g2-master\csrc/u8x8_d_ssd1305.c ****       }
 478              		.loc 1 269 0
 479 00d2 3368     		ldr	r3, [r6]
 480              		.loc 1 287 0
 481 00d4 0120     		movs	r0, #1
 269:..\u8g2-master\csrc/u8x8_d_ssd1305.c ****       }
 482              		.loc 1 269 0
 483 00d6 9B7C     		ldrb	r3, [r3, #18]	@ zero_extendqisi2
 484 00d8 86F82230 		strb	r3, [r6, #34]
 485 00dc F8BD     		pop	{r3, r4, r5, r6, r7, pc}
 486              	.LVL78:
 487              	.L37:
 273:..\u8g2-master\csrc/u8x8_d_ssd1305.c **** 	u8x8->x_offset = u8x8->display_info->flipmode_x_offset;
 488              		.loc 1 273 0
 489 00de 0949     		ldr	r1, .L52+20
 490              	.LVL79:
 491 00e0 FFF7FEFF 		bl	u8x8_cad_SendSequence
 492              	.LVL80:
 274:..\u8g2-master\csrc/u8x8_d_ssd1305.c ****       }
 493              		.loc 1 274 0
 494 00e4 3368     		ldr	r3, [r6]
 495              		.loc 1 287 0
 496 00e6 0120     		movs	r0, #1
 274:..\u8g2-master\csrc/u8x8_d_ssd1305.c ****       }
ARM GAS  C:\Users\info\AppData\Local\Temp\ccrI6DV7.s 			page 16


 497              		.loc 1 274 0
 498 00e8 DB7C     		ldrb	r3, [r3, #19]	@ zero_extendqisi2
 499 00ea 86F82230 		strb	r3, [r6, #34]
 500 00ee F8BD     		pop	{r3, r4, r5, r6, r7, pc}
 501              	.LVL81:
 502              	.L53:
 503              		.align	2
 504              	.L52:
 505 00f0 00000000 		.word	.LANCHOR0
 506 00f4 28000000 		.word	.LANCHOR0+40
 507 00f8 08000000 		.word	.LANCHOR0+8
 508 00fc 74000000 		.word	.LANCHOR0+116
 509 0100 10000000 		.word	.LANCHOR0+16
 510 0104 1C000000 		.word	.LANCHOR0+28
 511              		.cfi_endproc
 512              	.LFE2:
 513              		.size	u8x8_d_ssd1305_128x32_adafruit, .-u8x8_d_ssd1305_128x32_adafruit
 514              		.section	.text.u8x8_d_ssd1305_128x64_adafruit,"ax",%progbits
 515              		.align	2
 516              		.global	u8x8_d_ssd1305_128x64_adafruit
 517              		.thumb
 518              		.thumb_func
 519              		.type	u8x8_d_ssd1305_128x64_adafruit, %function
 520              	u8x8_d_ssd1305_128x64_adafruit:
 521              	.LFB3:
 288:..\u8g2-master\csrc/u8x8_d_ssd1305.c **** }
 289:..\u8g2-master\csrc/u8x8_d_ssd1305.c **** 
 290:..\u8g2-master\csrc/u8x8_d_ssd1305.c **** 
 291:..\u8g2-master\csrc/u8x8_d_ssd1305.c **** 
 292:..\u8g2-master\csrc/u8x8_d_ssd1305.c **** 
 293:..\u8g2-master\csrc/u8x8_d_ssd1305.c **** /*================================================*/
 294:..\u8g2-master\csrc/u8x8_d_ssd1305.c **** /* adafruit SSD1305 OLED */
 295:..\u8g2-master\csrc/u8x8_d_ssd1305.c **** 
 296:..\u8g2-master\csrc/u8x8_d_ssd1305.c **** /* timing from SSD1306 */
 297:..\u8g2-master\csrc/u8x8_d_ssd1305.c **** static const u8x8_display_info_t u8x8_ssd1305_128x64_adafruit_display_info =
 298:..\u8g2-master\csrc/u8x8_d_ssd1305.c **** {
 299:..\u8g2-master\csrc/u8x8_d_ssd1305.c ****   /* chip_enable_level = */ 0,
 300:..\u8g2-master\csrc/u8x8_d_ssd1305.c ****   /* chip_disable_level = */ 1,
 301:..\u8g2-master\csrc/u8x8_d_ssd1305.c ****   
 302:..\u8g2-master\csrc/u8x8_d_ssd1305.c ****   /* post_chip_enable_wait_ns = */ 20,
 303:..\u8g2-master\csrc/u8x8_d_ssd1305.c ****   /* pre_chip_disable_wait_ns = */ 10,
 304:..\u8g2-master\csrc/u8x8_d_ssd1305.c ****   /* reset_pulse_width_ms = */ 100, 	/* SSD1306: 3 us */
 305:..\u8g2-master\csrc/u8x8_d_ssd1305.c ****   /* post_reset_wait_ms = */ 100, /* far east OLEDs need much longer setup time */
 306:..\u8g2-master\csrc/u8x8_d_ssd1305.c ****   /* sda_setup_time_ns = */ 50,		/* SSD1306: 15ns, but cycle time is 100ns, so use 100/2 */
 307:..\u8g2-master\csrc/u8x8_d_ssd1305.c ****   /* sck_pulse_width_ns = */ 50,	/* SSD1306: 20ns, but cycle time is 100ns, so use 100/2, AVR: belo
 308:..\u8g2-master\csrc/u8x8_d_ssd1305.c ****   /* sck_clock_hz = */ 4000000UL,	/* since Arduino 1.6.0, the SPI bus speed in Hz. Should be  10000
 309:..\u8g2-master\csrc/u8x8_d_ssd1305.c ****   /* spi_mode = */ 0,		/* active high, rising edge */
 310:..\u8g2-master\csrc/u8x8_d_ssd1305.c ****   /* i2c_bus_clock_100kHz = */ 4,
 311:..\u8g2-master\csrc/u8x8_d_ssd1305.c ****   /* data_setup_time_ns = */ 40,
 312:..\u8g2-master\csrc/u8x8_d_ssd1305.c ****   /* write_pulse_width_ns = */ 150,	/* SSD1306: cycle time is 300ns, so use 300/2 = 150 */
 313:..\u8g2-master\csrc/u8x8_d_ssd1305.c ****   /* tile_width = */ 16,
 314:..\u8g2-master\csrc/u8x8_d_ssd1305.c ****   /* tile_hight = */ 8,
 315:..\u8g2-master\csrc/u8x8_d_ssd1305.c ****   /* default_x_offset = */ 2,
 316:..\u8g2-master\csrc/u8x8_d_ssd1305.c ****   /* flipmode_x_offset = */ 2,
 317:..\u8g2-master\csrc/u8x8_d_ssd1305.c ****   /* pixel_width = */ 128,
 318:..\u8g2-master\csrc/u8x8_d_ssd1305.c ****   /* pixel_height = */ 64
 319:..\u8g2-master\csrc/u8x8_d_ssd1305.c **** };
ARM GAS  C:\Users\info\AppData\Local\Temp\ccrI6DV7.s 			page 17


 320:..\u8g2-master\csrc/u8x8_d_ssd1305.c **** 
 321:..\u8g2-master\csrc/u8x8_d_ssd1305.c **** 
 322:..\u8g2-master\csrc/u8x8_d_ssd1305.c **** static const uint8_t u8x8_d_ssd1305_128x64_adafruit_init_seq[] = {
 323:..\u8g2-master\csrc/u8x8_d_ssd1305.c ****     
 324:..\u8g2-master\csrc/u8x8_d_ssd1305.c ****   U8X8_START_TRANSFER(),             	/* enable chip, delay is part of the transfer start */
 325:..\u8g2-master\csrc/u8x8_d_ssd1305.c ****   
 326:..\u8g2-master\csrc/u8x8_d_ssd1305.c ****   
 327:..\u8g2-master\csrc/u8x8_d_ssd1305.c ****   U8X8_C(0x0ae),		                /* display off */
 328:..\u8g2-master\csrc/u8x8_d_ssd1305.c ****   U8X8_CA(0x0d5, 0x0f0),		/* clock divide ratio (0x00=1) and oscillator frequency */
 329:..\u8g2-master\csrc/u8x8_d_ssd1305.c ****   U8X8_CA(0x0a8, 0x03f),		/* multiplex ratio */
 330:..\u8g2-master\csrc/u8x8_d_ssd1305.c ****   U8X8_CA(0x0d3, 0x040),		/* display offset to 32 */
 331:..\u8g2-master\csrc/u8x8_d_ssd1305.c ****   U8X8_C(0x040),		        	/* set display start line to 0 */
 332:..\u8g2-master\csrc/u8x8_d_ssd1305.c ****   U8X8_CA(0x020, 0x000),		/* page addressing mode */
 333:..\u8g2-master\csrc/u8x8_d_ssd1305.c ****   
 334:..\u8g2-master\csrc/u8x8_d_ssd1305.c ****   U8X8_C(0x0a1),				/* segment remap a0/a1*/
 335:..\u8g2-master\csrc/u8x8_d_ssd1305.c ****   U8X8_C(0x0c8),				/* c0: scan dir normal, c8: reverse */
 336:..\u8g2-master\csrc/u8x8_d_ssd1305.c ****   // Flipmode
 337:..\u8g2-master\csrc/u8x8_d_ssd1305.c ****   // U8X8_C(0x0a0),				/* segment remap a0/a1*/
 338:..\u8g2-master\csrc/u8x8_d_ssd1305.c ****   // U8X8_C(0x0c0),				/* c0: scan dir normal, c8: reverse */
 339:..\u8g2-master\csrc/u8x8_d_ssd1305.c ****   
 340:..\u8g2-master\csrc/u8x8_d_ssd1305.c ****   U8X8_CA(0x0da, 0x012),		/* com pin HW config, sequential com pin config (bit 4), disable left/rig
 341:..\u8g2-master\csrc/u8x8_d_ssd1305.c **** 
 342:..\u8g2-master\csrc/u8x8_d_ssd1305.c ****   U8X8_CA(0x081, 0x032), 		/* [2] set contrast control */
 343:..\u8g2-master\csrc/u8x8_d_ssd1305.c ****   U8X8_CA(0x082, 0x080), 		/* set area brightness (reset=0x080) */
 344:..\u8g2-master\csrc/u8x8_d_ssd1305.c ****   U8X8_CA(0x0d9, 0x0f1), 		/* [2] pre-charge period 0x022/f1*/
 345:..\u8g2-master\csrc/u8x8_d_ssd1305.c ****   U8X8_CA(0x0db, 0x040), 		/* vcomh deselect level */  
 346:..\u8g2-master\csrc/u8x8_d_ssd1305.c ****   // if vcomh is 0, then this will give the biggest range for contrast control issue #98
 347:..\u8g2-master\csrc/u8x8_d_ssd1305.c ****   // restored the old values for the noname constructor, because vcomh=0 will not work for all OLED
 348:..\u8g2-master\csrc/u8x8_d_ssd1305.c ****   
 349:..\u8g2-master\csrc/u8x8_d_ssd1305.c ****   U8X8_C(0x02e),				/* Deactivate scroll */ 
 350:..\u8g2-master\csrc/u8x8_d_ssd1305.c ****   U8X8_C(0x0a4),				/* output ram to display */
 351:..\u8g2-master\csrc/u8x8_d_ssd1305.c ****   U8X8_C(0x0a6),				/* none inverted normal display mode */
 352:..\u8g2-master\csrc/u8x8_d_ssd1305.c ****     
 353:..\u8g2-master\csrc/u8x8_d_ssd1305.c ****   U8X8_END_TRANSFER(),             	/* disable chip */
 354:..\u8g2-master\csrc/u8x8_d_ssd1305.c ****   U8X8_END()             			/* end of sequence */
 355:..\u8g2-master\csrc/u8x8_d_ssd1305.c **** };
 356:..\u8g2-master\csrc/u8x8_d_ssd1305.c **** 
 357:..\u8g2-master\csrc/u8x8_d_ssd1305.c **** 
 358:..\u8g2-master\csrc/u8x8_d_ssd1305.c **** uint8_t u8x8_d_ssd1305_128x64_adafruit(u8x8_t *u8x8, uint8_t msg, uint8_t arg_int, void *arg_ptr)
 359:..\u8g2-master\csrc/u8x8_d_ssd1305.c **** {
 522              		.loc 1 359 0
 523              		.cfi_startproc
 524              		@ args = 0, pretend = 0, frame = 0
 525              		@ frame_needed = 0, uses_anonymous_args = 0
 526              	.LVL82:
 527              	.LBB42:
 528              	.LBB43:
  80:..\u8g2-master\csrc/u8x8_d_ssd1305.c ****   {
 529              		.loc 1 80 0
 530 0000 0E29     		cmp	r1, #14
 531              	.LBE43:
 532              	.LBE42:
 533              		.loc 1 359 0
 534 0002 F8B5     		push	{r3, r4, r5, r6, r7, lr}
 535              		.cfi_def_cfa_offset 24
 536              		.cfi_offset 3, -24
 537              		.cfi_offset 4, -20
ARM GAS  C:\Users\info\AppData\Local\Temp\ccrI6DV7.s 			page 18


 538              		.cfi_offset 5, -16
 539              		.cfi_offset 6, -12
 540              		.cfi_offset 7, -8
 541              		.cfi_offset 14, -4
 542              		.loc 1 359 0
 543 0004 1446     		mov	r4, r2
 544 0006 0646     		mov	r6, r0
 545              	.LVL83:
 546              	.LBB51:
 547              	.LBB46:
  80:..\u8g2-master\csrc/u8x8_d_ssd1305.c ****   {
 548              		.loc 1 80 0
 549 0008 42D0     		beq	.L56
 550 000a 0F29     		cmp	r1, #15
 551 000c 10D0     		beq	.L57
 552 000e 0B29     		cmp	r1, #11
 553 0010 07D0     		beq	.L76
 554              	.LVL84:
 555              	.LBE46:
 556              	.LBE51:
 360:..\u8g2-master\csrc/u8x8_d_ssd1305.c ****     
 361:..\u8g2-master\csrc/u8x8_d_ssd1305.c ****   if ( u8x8_d_ssd1305_generic(u8x8, msg, arg_int, arg_ptr) != 0 )
 362:..\u8g2-master\csrc/u8x8_d_ssd1305.c ****     return 1;
 363:..\u8g2-master\csrc/u8x8_d_ssd1305.c ****   
 364:..\u8g2-master\csrc/u8x8_d_ssd1305.c ****   switch(msg)
 557              		.loc 1 364 0
 558 0012 0A29     		cmp	r1, #10
 559 0014 47D0     		beq	.L65
 560 0016 0D29     		cmp	r1, #13
 561 0018 57D0     		beq	.L62
 562 001a 0929     		cmp	r1, #9
 563 001c 50D0     		beq	.L77
 365:..\u8g2-master\csrc/u8x8_d_ssd1305.c ****   {
 366:..\u8g2-master\csrc/u8x8_d_ssd1305.c ****     case U8X8_MSG_DISPLAY_SET_FLIP_MODE:
 367:..\u8g2-master\csrc/u8x8_d_ssd1305.c ****       if ( arg_int == 0 )
 368:..\u8g2-master\csrc/u8x8_d_ssd1305.c ****       {
 369:..\u8g2-master\csrc/u8x8_d_ssd1305.c **** 	u8x8_cad_SendSequence(u8x8, u8x8_d_ssd1305_128x32_flip0_seq);
 370:..\u8g2-master\csrc/u8x8_d_ssd1305.c **** 	u8x8->x_offset = u8x8->display_info->default_x_offset;
 371:..\u8g2-master\csrc/u8x8_d_ssd1305.c ****       }
 372:..\u8g2-master\csrc/u8x8_d_ssd1305.c ****       else
 373:..\u8g2-master\csrc/u8x8_d_ssd1305.c ****       {
 374:..\u8g2-master\csrc/u8x8_d_ssd1305.c **** 	u8x8_cad_SendSequence(u8x8, u8x8_d_ssd1305_128x32_flip1_seq);
 375:..\u8g2-master\csrc/u8x8_d_ssd1305.c **** 	u8x8->x_offset = u8x8->display_info->flipmode_x_offset;
 376:..\u8g2-master\csrc/u8x8_d_ssd1305.c ****       }
 377:..\u8g2-master\csrc/u8x8_d_ssd1305.c ****       break;
 378:..\u8g2-master\csrc/u8x8_d_ssd1305.c ****     case U8X8_MSG_DISPLAY_INIT:
 379:..\u8g2-master\csrc/u8x8_d_ssd1305.c ****       u8x8_d_helper_display_init(u8x8);
 380:..\u8g2-master\csrc/u8x8_d_ssd1305.c ****       u8x8_cad_SendSequence(u8x8, u8x8_d_ssd1305_128x64_adafruit_init_seq);
 381:..\u8g2-master\csrc/u8x8_d_ssd1305.c ****       break;
 382:..\u8g2-master\csrc/u8x8_d_ssd1305.c ****     case U8X8_MSG_DISPLAY_SETUP_MEMORY:
 383:..\u8g2-master\csrc/u8x8_d_ssd1305.c ****       u8x8_d_helper_display_setup_memory(u8x8, &u8x8_ssd1305_128x64_adafruit_display_info);
 384:..\u8g2-master\csrc/u8x8_d_ssd1305.c ****       break;
 385:..\u8g2-master\csrc/u8x8_d_ssd1305.c ****     default:
 386:..\u8g2-master\csrc/u8x8_d_ssd1305.c ****       return 0;
 564              		.loc 1 386 0
 565 001e 0020     		movs	r0, #0
 566              	.LVL85:
ARM GAS  C:\Users\info\AppData\Local\Temp\ccrI6DV7.s 			page 19


 567 0020 F8BD     		pop	{r3, r4, r5, r6, r7, pc}
 568              	.LVL86:
 569              	.L76:
 570              	.LBB52:
 571              	.LBB47:
 114:..\u8g2-master\csrc/u8x8_d_ssd1305.c **** 	u8x8_cad_SendSequence(u8x8, u8x8_d_ssd1305_powersave0_seq);
 572              		.loc 1 114 0
 573 0022 002A     		cmp	r2, #0
 574 0024 47D1     		bne	.L61
 115:..\u8g2-master\csrc/u8x8_d_ssd1305.c ****       else
 575              		.loc 1 115 0
 576 0026 3249     		ldr	r1, .L78
 577              	.LVL87:
 578 0028 FFF7FEFF 		bl	u8x8_cad_SendSequence
 579              	.LVL88:
 580              	.LBE47:
 581              	.LBE52:
 362:..\u8g2-master\csrc/u8x8_d_ssd1305.c ****   
 582              		.loc 1 362 0
 583 002c 0120     		movs	r0, #1
 584 002e F8BD     		pop	{r3, r4, r5, r6, r7, pc}
 585              	.LVL89:
 586              	.L57:
 587 0030 1D46     		mov	r5, r3
 588              	.LVL90:
 589              	.LBB53:
 590              	.LBB48:
 591              	.LBB44:
 592              	.LBB45:
  83:..\u8g2-master\csrc/u8x8_d_ssd1305.c ****       x = ((u8x8_tile_t *)arg_ptr)->x_pos;    
 593              		.loc 1 83 0
 594 0032 FFF7FEFF 		bl	u8x8_cad_StartTransfer
 595              	.LVL91:
  86:..\u8g2-master\csrc/u8x8_d_ssd1305.c ****     
 596              		.loc 1 86 0
 597 0036 96F82230 		ldrb	r3, [r6, #34]	@ zero_extendqisi2
  84:..\u8g2-master\csrc/u8x8_d_ssd1305.c ****       x *= 8;
 598              		.loc 1 84 0
 599 003a 6F79     		ldrb	r7, [r5, #5]	@ zero_extendqisi2
 600              	.LVL92:
  88:..\u8g2-master\csrc/u8x8_d_ssd1305.c ****     
 601              		.loc 1 88 0
 602 003c 4021     		movs	r1, #64
  86:..\u8g2-master\csrc/u8x8_d_ssd1305.c ****     
 603              		.loc 1 86 0
 604 003e 03EBC707 		add	r7, r3, r7, lsl #3
 605              	.LVL93:
 606 0042 07F0FF07 		and	r7, r7, #255
 607              	.LVL94:
  88:..\u8g2-master\csrc/u8x8_d_ssd1305.c ****     
 608              		.loc 1 88 0
 609 0046 3046     		mov	r0, r6
 610 0048 FFF7FEFF 		bl	u8x8_cad_SendCmd
 611              	.LVL95:
  90:..\u8g2-master\csrc/u8x8_d_ssd1305.c ****       u8x8_cad_SendArg(u8x8, 0x000 | ((x&15)));
 612              		.loc 1 90 0
 613 004c 3909     		lsrs	r1, r7, #4
ARM GAS  C:\Users\info\AppData\Local\Temp\ccrI6DV7.s 			page 20


 614 004e 41F01001 		orr	r1, r1, #16
 615 0052 3046     		mov	r0, r6
 616 0054 FFF7FEFF 		bl	u8x8_cad_SendCmd
 617              	.LVL96:
  91:..\u8g2-master\csrc/u8x8_d_ssd1305.c ****       u8x8_cad_SendArg(u8x8, 0x0b0 | (((u8x8_tile_t *)arg_ptr)->y_pos)   );
 618              		.loc 1 91 0
 619 0058 07F00F01 		and	r1, r7, #15
 620 005c 3046     		mov	r0, r6
 621 005e FFF7FEFF 		bl	u8x8_cad_SendArg
 622              	.LVL97:
  92:..\u8g2-master\csrc/u8x8_d_ssd1305.c **** 
 623              		.loc 1 92 0
 624 0062 A979     		ldrb	r1, [r5, #6]	@ zero_extendqisi2
 625 0064 3046     		mov	r0, r6
 626 0066 41F0B001 		orr	r1, r1, #176
 627 006a FFF7FEFF 		bl	u8x8_cad_SendArg
 628              	.LVL98:
 629              	.L59:
  99:..\u8g2-master\csrc/u8x8_d_ssd1305.c **** 	/*
 630              		.loc 1 99 0
 631 006e 2979     		ldrb	r1, [r5, #4]	@ zero_extendqisi2
 632 0070 2A68     		ldr	r2, [r5]
 633 0072 C900     		lsls	r1, r1, #3
 634 0074 01F0F801 		and	r1, r1, #248
 635 0078 3046     		mov	r0, r6
 636 007a FFF7FEFF 		bl	u8x8_cad_SendData
 637              	.LVL99:
 108:..\u8g2-master\csrc/u8x8_d_ssd1305.c ****       } while( arg_int > 0 );
 638              		.loc 1 108 0
 639 007e 621E     		subs	r2, r4, #1
 640              	.LVL100:
 109:..\u8g2-master\csrc/u8x8_d_ssd1305.c ****       
 641              		.loc 1 109 0
 642 0080 12F0FF04 		ands	r4, r2, #255
 643 0084 F3D1     		bne	.L59
 644              	.LVL101:
 645              	.L73:
 646              	.LBE45:
 647              	.LBE44:
 124:..\u8g2-master\csrc/u8x8_d_ssd1305.c ****       break;
 648              		.loc 1 124 0
 649 0086 3046     		mov	r0, r6
 650 0088 FFF7FEFF 		bl	u8x8_cad_EndTransfer
 651              	.LVL102:
 652              	.LBE48:
 653              	.LBE53:
 362:..\u8g2-master\csrc/u8x8_d_ssd1305.c ****   
 654              		.loc 1 362 0
 655 008c 0120     		movs	r0, #1
 656 008e F8BD     		pop	{r3, r4, r5, r6, r7, pc}
 657              	.LVL103:
 658              	.L56:
 659              	.LBB54:
 660              	.LBB49:
 121:..\u8g2-master\csrc/u8x8_d_ssd1305.c ****       u8x8_cad_SendCmd(u8x8, 0x081 );
 661              		.loc 1 121 0
 662 0090 FFF7FEFF 		bl	u8x8_cad_StartTransfer
ARM GAS  C:\Users\info\AppData\Local\Temp\ccrI6DV7.s 			page 21


 663              	.LVL104:
 122:..\u8g2-master\csrc/u8x8_d_ssd1305.c ****       u8x8_cad_SendArg(u8x8, arg_int );	/* ssd1305 has range from 0 to 255 */
 664              		.loc 1 122 0
 665 0094 8121     		movs	r1, #129
 666 0096 3046     		mov	r0, r6
 667 0098 FFF7FEFF 		bl	u8x8_cad_SendCmd
 668              	.LVL105:
 123:..\u8g2-master\csrc/u8x8_d_ssd1305.c ****       u8x8_cad_EndTransfer(u8x8);
 669              		.loc 1 123 0
 670 009c 2146     		mov	r1, r4
 671 009e 3046     		mov	r0, r6
 672 00a0 FFF7FEFF 		bl	u8x8_cad_SendArg
 673              	.LVL106:
 674 00a4 EFE7     		b	.L73
 675              	.LVL107:
 676              	.L65:
 677              	.LBE49:
 678              	.LBE54:
 379:..\u8g2-master\csrc/u8x8_d_ssd1305.c ****       u8x8_cad_SendSequence(u8x8, u8x8_d_ssd1305_128x64_adafruit_init_seq);
 679              		.loc 1 379 0
 680 00a6 FFF7FEFF 		bl	u8x8_d_helper_display_init
 681              	.LVL108:
 380:..\u8g2-master\csrc/u8x8_d_ssd1305.c ****       break;
 682              		.loc 1 380 0
 683 00aa 3046     		mov	r0, r6
 684 00ac 1149     		ldr	r1, .L78+4
 685 00ae FFF7FEFF 		bl	u8x8_cad_SendSequence
 686              	.LVL109:
 387:..\u8g2-master\csrc/u8x8_d_ssd1305.c ****   }
 388:..\u8g2-master\csrc/u8x8_d_ssd1305.c ****   return 1;
 687              		.loc 1 388 0
 688 00b2 0120     		movs	r0, #1
 381:..\u8g2-master\csrc/u8x8_d_ssd1305.c ****     case U8X8_MSG_DISPLAY_SETUP_MEMORY:
 689              		.loc 1 381 0
 690 00b4 F8BD     		pop	{r3, r4, r5, r6, r7, pc}
 691              	.LVL110:
 692              	.L61:
 693              	.LBB55:
 694              	.LBB50:
 117:..\u8g2-master\csrc/u8x8_d_ssd1305.c ****       break;
 695              		.loc 1 117 0
 696 00b6 1049     		ldr	r1, .L78+8
 697              	.LVL111:
 698 00b8 FFF7FEFF 		bl	u8x8_cad_SendSequence
 699              	.LVL112:
 700              	.LBE50:
 701              	.LBE55:
 362:..\u8g2-master\csrc/u8x8_d_ssd1305.c ****   
 702              		.loc 1 362 0
 703 00bc 0120     		movs	r0, #1
 704 00be F8BD     		pop	{r3, r4, r5, r6, r7, pc}
 705              	.LVL113:
 706              	.L77:
 383:..\u8g2-master\csrc/u8x8_d_ssd1305.c ****       break;
 707              		.loc 1 383 0
 708 00c0 0E49     		ldr	r1, .L78+12
 709              	.LVL114:
ARM GAS  C:\Users\info\AppData\Local\Temp\ccrI6DV7.s 			page 22


 710 00c2 FFF7FEFF 		bl	u8x8_d_helper_display_setup_memory
 711              	.LVL115:
 712              		.loc 1 388 0
 713 00c6 0120     		movs	r0, #1
 384:..\u8g2-master\csrc/u8x8_d_ssd1305.c ****     default:
 714              		.loc 1 384 0
 715 00c8 F8BD     		pop	{r3, r4, r5, r6, r7, pc}
 716              	.LVL116:
 717              	.L62:
 367:..\u8g2-master\csrc/u8x8_d_ssd1305.c ****       {
 718              		.loc 1 367 0
 719 00ca 44B9     		cbnz	r4, .L63
 369:..\u8g2-master\csrc/u8x8_d_ssd1305.c **** 	u8x8->x_offset = u8x8->display_info->default_x_offset;
 720              		.loc 1 369 0
 721 00cc 0C49     		ldr	r1, .L78+16
 722              	.LVL117:
 723 00ce FFF7FEFF 		bl	u8x8_cad_SendSequence
 724              	.LVL118:
 370:..\u8g2-master\csrc/u8x8_d_ssd1305.c ****       }
 725              		.loc 1 370 0
 726 00d2 3368     		ldr	r3, [r6]
 727              		.loc 1 388 0
 728 00d4 0120     		movs	r0, #1
 370:..\u8g2-master\csrc/u8x8_d_ssd1305.c ****       }
 729              		.loc 1 370 0
 730 00d6 9B7C     		ldrb	r3, [r3, #18]	@ zero_extendqisi2
 731 00d8 86F82230 		strb	r3, [r6, #34]
 732 00dc F8BD     		pop	{r3, r4, r5, r6, r7, pc}
 733              	.LVL119:
 734              	.L63:
 374:..\u8g2-master\csrc/u8x8_d_ssd1305.c **** 	u8x8->x_offset = u8x8->display_info->flipmode_x_offset;
 735              		.loc 1 374 0
 736 00de 0949     		ldr	r1, .L78+20
 737              	.LVL120:
 738 00e0 FFF7FEFF 		bl	u8x8_cad_SendSequence
 739              	.LVL121:
 375:..\u8g2-master\csrc/u8x8_d_ssd1305.c ****       }
 740              		.loc 1 375 0
 741 00e4 3368     		ldr	r3, [r6]
 742              		.loc 1 388 0
 743 00e6 0120     		movs	r0, #1
 375:..\u8g2-master\csrc/u8x8_d_ssd1305.c ****       }
 744              		.loc 1 375 0
 745 00e8 DB7C     		ldrb	r3, [r3, #19]	@ zero_extendqisi2
 746 00ea 86F82230 		strb	r3, [r6, #34]
 747 00ee F8BD     		pop	{r3, r4, r5, r6, r7, pc}
 748              	.LVL122:
 749              	.L79:
 750              		.align	2
 751              	.L78:
 752 00f0 00000000 		.word	.LANCHOR0
 753 00f4 8C000000 		.word	.LANCHOR0+140
 754 00f8 08000000 		.word	.LANCHOR0+8
 755 00fc C4000000 		.word	.LANCHOR0+196
 756 0100 10000000 		.word	.LANCHOR0+16
 757 0104 1C000000 		.word	.LANCHOR0+28
 758              		.cfi_endproc
ARM GAS  C:\Users\info\AppData\Local\Temp\ccrI6DV7.s 			page 23


 759              	.LFE3:
 760              		.size	u8x8_d_ssd1305_128x64_adafruit, .-u8x8_d_ssd1305_128x64_adafruit
 761              		.section	.rodata
 762              		.align	2
 763              		.set	.LANCHOR0,. + 0
 764              		.type	u8x8_d_ssd1305_powersave0_seq, %object
 765              		.size	u8x8_d_ssd1305_powersave0_seq, 5
 766              	u8x8_d_ssd1305_powersave0_seq:
 767 0000 18       		.byte	24
 768 0001 15       		.byte	21
 769 0002 AF       		.byte	-81
 770 0003 19       		.byte	25
 771 0004 FF       		.byte	-1
 772 0005 000000   		.space	3
 773              		.type	u8x8_d_ssd1305_powersave1_seq, %object
 774              		.size	u8x8_d_ssd1305_powersave1_seq, 5
 775              	u8x8_d_ssd1305_powersave1_seq:
 776 0008 18       		.byte	24
 777 0009 15       		.byte	21
 778 000a AE       		.byte	-82
 779 000b 19       		.byte	25
 780 000c FF       		.byte	-1
 781 000d 000000   		.space	3
 782              		.type	u8x8_d_ssd1305_128x32_flip0_seq, %object
 783              		.size	u8x8_d_ssd1305_128x32_flip0_seq, 11
 784              	u8x8_d_ssd1305_128x32_flip0_seq:
 785 0010 18       		.byte	24
 786 0011 15       		.byte	21
 787 0012 D3       		.byte	-45
 788 0013 16       		.byte	22
 789 0014 20       		.byte	32
 790 0015 15       		.byte	21
 791 0016 A1       		.byte	-95
 792 0017 15       		.byte	21
 793 0018 C8       		.byte	-56
 794 0019 19       		.byte	25
 795 001a FF       		.byte	-1
 796 001b 00       		.space	1
 797              		.type	u8x8_d_ssd1305_128x32_flip1_seq, %object
 798              		.size	u8x8_d_ssd1305_128x32_flip1_seq, 11
 799              	u8x8_d_ssd1305_128x32_flip1_seq:
 800 001c 18       		.byte	24
 801 001d 15       		.byte	21
 802 001e D3       		.byte	-45
 803 001f 16       		.byte	22
 804 0020 00       		.byte	0
 805 0021 15       		.byte	21
 806 0022 A0       		.byte	-96
 807 0023 15       		.byte	21
 808 0024 C0       		.byte	-64
 809 0025 19       		.byte	25
 810 0026 FF       		.byte	-1
 811 0027 00       		.space	1
 812              		.type	u8x8_d_ssd1305_128x32_noname_init_seq, %object
 813              		.size	u8x8_d_ssd1305_128x32_noname_init_seq, 49
 814              	u8x8_d_ssd1305_128x32_noname_init_seq:
 815 0028 18       		.byte	24
ARM GAS  C:\Users\info\AppData\Local\Temp\ccrI6DV7.s 			page 24


 816 0029 15       		.byte	21
 817 002a AE       		.byte	-82
 818 002b 15       		.byte	21
 819 002c D5       		.byte	-43
 820 002d 16       		.byte	22
 821 002e 80       		.byte	-128
 822 002f 15       		.byte	21
 823 0030 A8       		.byte	-88
 824 0031 16       		.byte	22
 825 0032 3F       		.byte	63
 826 0033 15       		.byte	21
 827 0034 D3       		.byte	-45
 828 0035 16       		.byte	22
 829 0036 20       		.byte	32
 830 0037 15       		.byte	21
 831 0038 40       		.byte	64
 832 0039 15       		.byte	21
 833 003a 20       		.byte	32
 834 003b 16       		.byte	22
 835 003c 00       		.byte	0
 836 003d 15       		.byte	21
 837 003e A1       		.byte	-95
 838 003f 15       		.byte	21
 839 0040 C8       		.byte	-56
 840 0041 15       		.byte	21
 841 0042 DA       		.byte	-38
 842 0043 16       		.byte	22
 843 0044 12       		.byte	18
 844 0045 15       		.byte	21
 845 0046 81       		.byte	-127
 846 0047 16       		.byte	22
 847 0048 CF       		.byte	-49
 848 0049 15       		.byte	21
 849 004a D9       		.byte	-39
 850 004b 16       		.byte	22
 851 004c F1       		.byte	-15
 852 004d 15       		.byte	21
 853 004e DB       		.byte	-37
 854 004f 16       		.byte	22
 855 0050 40       		.byte	64
 856 0051 15       		.byte	21
 857 0052 2E       		.byte	46
 858 0053 15       		.byte	21
 859 0054 A4       		.byte	-92
 860 0055 15       		.byte	21
 861 0056 A6       		.byte	-90
 862 0057 19       		.byte	25
 863 0058 FF       		.byte	-1
 864 0059 000000   		.space	3
 865              		.type	u8x8_ssd1305_128x32_noname_display_info, %object
 866              		.size	u8x8_ssd1305_128x32_noname_display_info, 24
 867              	u8x8_ssd1305_128x32_noname_display_info:
 868 005c 00       		.byte	0
 869 005d 01       		.byte	1
 870 005e 14       		.byte	20
 871 005f 0A       		.byte	10
 872 0060 64       		.byte	100
ARM GAS  C:\Users\info\AppData\Local\Temp\ccrI6DV7.s 			page 25


 873 0061 64       		.byte	100
 874 0062 32       		.byte	50
 875 0063 32       		.byte	50
 876 0064 00093D00 		.word	4000000
 877 0068 00       		.byte	0
 878 0069 04       		.byte	4
 879 006a 28       		.byte	40
 880 006b 96       		.byte	-106
 881 006c 10       		.byte	16
 882 006d 04       		.byte	4
 883 006e 02       		.byte	2
 884 006f 02       		.byte	2
 885 0070 8000     		.short	128
 886 0072 2000     		.short	32
 887              		.type	u8x8_ssd1305_128x32_adafruit_display_info, %object
 888              		.size	u8x8_ssd1305_128x32_adafruit_display_info, 24
 889              	u8x8_ssd1305_128x32_adafruit_display_info:
 890 0074 00       		.byte	0
 891 0075 01       		.byte	1
 892 0076 14       		.byte	20
 893 0077 0A       		.byte	10
 894 0078 64       		.byte	100
 895 0079 64       		.byte	100
 896 007a 32       		.byte	50
 897 007b 32       		.byte	50
 898 007c 00093D00 		.word	4000000
 899 0080 00       		.byte	0
 900 0081 04       		.byte	4
 901 0082 28       		.byte	40
 902 0083 96       		.byte	-106
 903 0084 10       		.byte	16
 904 0085 04       		.byte	4
 905 0086 04       		.byte	4
 906 0087 00       		.byte	0
 907 0088 8000     		.short	128
 908 008a 2000     		.short	32
 909              		.type	u8x8_d_ssd1305_128x64_adafruit_init_seq, %object
 910              		.size	u8x8_d_ssd1305_128x64_adafruit_init_seq, 53
 911              	u8x8_d_ssd1305_128x64_adafruit_init_seq:
 912 008c 18       		.byte	24
 913 008d 15       		.byte	21
 914 008e AE       		.byte	-82
 915 008f 15       		.byte	21
 916 0090 D5       		.byte	-43
 917 0091 16       		.byte	22
 918 0092 F0       		.byte	-16
 919 0093 15       		.byte	21
 920 0094 A8       		.byte	-88
 921 0095 16       		.byte	22
 922 0096 3F       		.byte	63
 923 0097 15       		.byte	21
 924 0098 D3       		.byte	-45
 925 0099 16       		.byte	22
 926 009a 40       		.byte	64
 927 009b 15       		.byte	21
 928 009c 40       		.byte	64
 929 009d 15       		.byte	21
ARM GAS  C:\Users\info\AppData\Local\Temp\ccrI6DV7.s 			page 26


 930 009e 20       		.byte	32
 931 009f 16       		.byte	22
 932 00a0 00       		.byte	0
 933 00a1 15       		.byte	21
 934 00a2 A1       		.byte	-95
 935 00a3 15       		.byte	21
 936 00a4 C8       		.byte	-56
 937 00a5 15       		.byte	21
 938 00a6 DA       		.byte	-38
 939 00a7 16       		.byte	22
 940 00a8 12       		.byte	18
 941 00a9 15       		.byte	21
 942 00aa 81       		.byte	-127
 943 00ab 16       		.byte	22
 944 00ac 32       		.byte	50
 945 00ad 15       		.byte	21
 946 00ae 82       		.byte	-126
 947 00af 16       		.byte	22
 948 00b0 80       		.byte	-128
 949 00b1 15       		.byte	21
 950 00b2 D9       		.byte	-39
 951 00b3 16       		.byte	22
 952 00b4 F1       		.byte	-15
 953 00b5 15       		.byte	21
 954 00b6 DB       		.byte	-37
 955 00b7 16       		.byte	22
 956 00b8 40       		.byte	64
 957 00b9 15       		.byte	21
 958 00ba 2E       		.byte	46
 959 00bb 15       		.byte	21
 960 00bc A4       		.byte	-92
 961 00bd 15       		.byte	21
 962 00be A6       		.byte	-90
 963 00bf 19       		.byte	25
 964 00c0 FF       		.byte	-1
 965 00c1 000000   		.space	3
 966              		.type	u8x8_ssd1305_128x64_adafruit_display_info, %object
 967              		.size	u8x8_ssd1305_128x64_adafruit_display_info, 24
 968              	u8x8_ssd1305_128x64_adafruit_display_info:
 969 00c4 00       		.byte	0
 970 00c5 01       		.byte	1
 971 00c6 14       		.byte	20
 972 00c7 0A       		.byte	10
 973 00c8 64       		.byte	100
 974 00c9 64       		.byte	100
 975 00ca 32       		.byte	50
 976 00cb 32       		.byte	50
 977 00cc 00093D00 		.word	4000000
 978 00d0 00       		.byte	0
 979 00d1 04       		.byte	4
 980 00d2 28       		.byte	40
 981 00d3 96       		.byte	-106
 982 00d4 10       		.byte	16
 983 00d5 08       		.byte	8
 984 00d6 02       		.byte	2
 985 00d7 02       		.byte	2
 986 00d8 8000     		.short	128
ARM GAS  C:\Users\info\AppData\Local\Temp\ccrI6DV7.s 			page 27


 987 00da 4000     		.short	64
 988              		.text
 989              	.Letext0:
 990              		.file 2 "c:\\program files (x86)\\cypress\\psoc creator\\4.2\\psoc creator\\import\\gnu\\arm\\5.4.
 991              		.file 3 "c:\\program files (x86)\\cypress\\psoc creator\\4.2\\psoc creator\\import\\gnu\\arm\\5.4.
 992              		.file 4 "..\\u8g2-master\\csrc\\u8x8.h"