ARM GAS  C:\Users\info\AppData\Local\Temp\ccKENOtx.s 			page 1


   1              		.syntax unified
   2              		.cpu cortex-m3
   3              		.fpu softvfp
   4              		.eabi_attribute 20, 1
   5              		.eabi_attribute 21, 1
   6              		.eabi_attribute 23, 3
   7              		.eabi_attribute 24, 1
   8              		.eabi_attribute 25, 1
   9              		.eabi_attribute 26, 1
  10              		.eabi_attribute 30, 2
  11              		.eabi_attribute 34, 1
  12              		.eabi_attribute 18, 4
  13              		.thumb
  14              		.syntax unified
  15              		.file	"VERT_PM.c"
  16              		.text
  17              	.Ltext0:
  18              		.cfi_sections	.debug_frame
  19              		.section	.text.VERT_SaveConfig,"ax",%progbits
  20              		.align	2
  21              		.global	VERT_SaveConfig
  22              		.thumb
  23              		.thumb_func
  24              		.type	VERT_SaveConfig, %function
  25              	VERT_SaveConfig:
  26              	.LFB0:
  27              		.file 1 "Generated_Source\\PSoC5\\VERT_PM.c"
   1:Generated_Source\PSoC5/VERT_PM.c **** /*******************************************************************************
   2:Generated_Source\PSoC5/VERT_PM.c **** * File Name: VERT_PM.c
   3:Generated_Source\PSoC5/VERT_PM.c **** * Version 3.30
   4:Generated_Source\PSoC5/VERT_PM.c **** *
   5:Generated_Source\PSoC5/VERT_PM.c **** * Description:
   6:Generated_Source\PSoC5/VERT_PM.c **** *  This file provides the power management source code to API for the
   7:Generated_Source\PSoC5/VERT_PM.c **** *  PWM.
   8:Generated_Source\PSoC5/VERT_PM.c **** *
   9:Generated_Source\PSoC5/VERT_PM.c **** * Note:
  10:Generated_Source\PSoC5/VERT_PM.c **** *
  11:Generated_Source\PSoC5/VERT_PM.c **** ********************************************************************************
  12:Generated_Source\PSoC5/VERT_PM.c **** * Copyright 2008-2014, Cypress Semiconductor Corporation.  All rights reserved.
  13:Generated_Source\PSoC5/VERT_PM.c **** * You may use this file only in accordance with the license, terms, conditions,
  14:Generated_Source\PSoC5/VERT_PM.c **** * disclaimers, and limitations in the end user license agreement accompanying
  15:Generated_Source\PSoC5/VERT_PM.c **** * the software package with which this file was provided.
  16:Generated_Source\PSoC5/VERT_PM.c **** *******************************************************************************/
  17:Generated_Source\PSoC5/VERT_PM.c **** 
  18:Generated_Source\PSoC5/VERT_PM.c **** #include "VERT.h"
  19:Generated_Source\PSoC5/VERT_PM.c **** 
  20:Generated_Source\PSoC5/VERT_PM.c **** static VERT_backupStruct VERT_backup;
  21:Generated_Source\PSoC5/VERT_PM.c **** 
  22:Generated_Source\PSoC5/VERT_PM.c **** 
  23:Generated_Source\PSoC5/VERT_PM.c **** /*******************************************************************************
  24:Generated_Source\PSoC5/VERT_PM.c **** * Function Name: VERT_SaveConfig
  25:Generated_Source\PSoC5/VERT_PM.c **** ********************************************************************************
  26:Generated_Source\PSoC5/VERT_PM.c **** *
  27:Generated_Source\PSoC5/VERT_PM.c **** * Summary:
  28:Generated_Source\PSoC5/VERT_PM.c **** *  Saves the current user configuration of the component.
  29:Generated_Source\PSoC5/VERT_PM.c **** *
  30:Generated_Source\PSoC5/VERT_PM.c **** * Parameters:
ARM GAS  C:\Users\info\AppData\Local\Temp\ccKENOtx.s 			page 2


  31:Generated_Source\PSoC5/VERT_PM.c **** *  None
  32:Generated_Source\PSoC5/VERT_PM.c **** *
  33:Generated_Source\PSoC5/VERT_PM.c **** * Return:
  34:Generated_Source\PSoC5/VERT_PM.c **** *  None
  35:Generated_Source\PSoC5/VERT_PM.c **** *
  36:Generated_Source\PSoC5/VERT_PM.c **** * Global variables:
  37:Generated_Source\PSoC5/VERT_PM.c **** *  VERT_backup:  Variables of this global structure are modified to
  38:Generated_Source\PSoC5/VERT_PM.c **** *  store the values of non retention configuration registers when Sleep() API is
  39:Generated_Source\PSoC5/VERT_PM.c **** *  called.
  40:Generated_Source\PSoC5/VERT_PM.c **** *
  41:Generated_Source\PSoC5/VERT_PM.c **** *******************************************************************************/
  42:Generated_Source\PSoC5/VERT_PM.c **** void VERT_SaveConfig(void) 
  43:Generated_Source\PSoC5/VERT_PM.c **** {
  28              		.loc 1 43 0
  29              		.cfi_startproc
  30              		@ args = 0, pretend = 0, frame = 0
  31              		@ frame_needed = 0, uses_anonymous_args = 0
  32 0000 10B5     		push	{r4, lr}
  33              		.cfi_def_cfa_offset 8
  34              		.cfi_offset 4, -8
  35              		.cfi_offset 14, -4
  44:Generated_Source\PSoC5/VERT_PM.c **** 
  45:Generated_Source\PSoC5/VERT_PM.c ****     #if(!VERT_UsingFixedFunction)
  46:Generated_Source\PSoC5/VERT_PM.c ****         #if(!VERT_PWMModeIsCenterAligned)
  47:Generated_Source\PSoC5/VERT_PM.c ****             VERT_backup.PWMPeriod = VERT_ReadPeriod();
  36              		.loc 1 47 0
  37 0002 FFF7FEFF 		bl	VERT_ReadPeriod
  38              	.LVL0:
  39 0006 044C     		ldr	r4, .L3
  40 0008 A080     		strh	r0, [r4, #4]	@ movhi
  48:Generated_Source\PSoC5/VERT_PM.c ****         #endif /* (!VERT_PWMModeIsCenterAligned) */
  49:Generated_Source\PSoC5/VERT_PM.c ****         VERT_backup.PWMUdb = VERT_ReadCounter();
  41              		.loc 1 49 0
  42 000a FFF7FEFF 		bl	VERT_ReadCounter
  43              	.LVL1:
  44 000e 6080     		strh	r0, [r4, #2]	@ movhi
  50:Generated_Source\PSoC5/VERT_PM.c ****         #if (VERT_UseStatus)
  51:Generated_Source\PSoC5/VERT_PM.c ****             VERT_backup.InterruptMaskValue = VERT_STATUS_MASK;
  52:Generated_Source\PSoC5/VERT_PM.c ****         #endif /* (VERT_UseStatus) */
  53:Generated_Source\PSoC5/VERT_PM.c **** 
  54:Generated_Source\PSoC5/VERT_PM.c ****         #if(VERT_DeadBandMode == VERT__B_PWM__DBM_256_CLOCKS || \
  55:Generated_Source\PSoC5/VERT_PM.c ****             VERT_DeadBandMode == VERT__B_PWM__DBM_2_4_CLOCKS)
  56:Generated_Source\PSoC5/VERT_PM.c ****             VERT_backup.PWMdeadBandValue = VERT_ReadDeadTime();
  57:Generated_Source\PSoC5/VERT_PM.c ****         #endif /*  deadband count is either 2-4 clocks or 256 clocks */
  58:Generated_Source\PSoC5/VERT_PM.c **** 
  59:Generated_Source\PSoC5/VERT_PM.c ****         #if(VERT_KillModeMinTime)
  60:Generated_Source\PSoC5/VERT_PM.c ****              VERT_backup.PWMKillCounterPeriod = VERT_ReadKillTime();
  61:Generated_Source\PSoC5/VERT_PM.c ****         #endif /* (VERT_KillModeMinTime) */
  62:Generated_Source\PSoC5/VERT_PM.c **** 
  63:Generated_Source\PSoC5/VERT_PM.c ****         #if(VERT_UseControl)
  64:Generated_Source\PSoC5/VERT_PM.c ****             VERT_backup.PWMControlRegister = VERT_ReadControlRegister();
  45              		.loc 1 64 0
  46 0010 FFF7FEFF 		bl	VERT_ReadControlRegister
  47              	.LVL2:
  48 0014 A071     		strb	r0, [r4, #6]
  49 0016 10BD     		pop	{r4, pc}
  50              	.L4:
ARM GAS  C:\Users\info\AppData\Local\Temp\ccKENOtx.s 			page 3


  51              		.align	2
  52              	.L3:
  53 0018 00000000 		.word	.LANCHOR0
  54              		.cfi_endproc
  55              	.LFE0:
  56              		.size	VERT_SaveConfig, .-VERT_SaveConfig
  57              		.section	.text.VERT_RestoreConfig,"ax",%progbits
  58              		.align	2
  59              		.global	VERT_RestoreConfig
  60              		.thumb
  61              		.thumb_func
  62              		.type	VERT_RestoreConfig, %function
  63              	VERT_RestoreConfig:
  64              	.LFB1:
  65:Generated_Source\PSoC5/VERT_PM.c ****         #endif /* (VERT_UseControl) */
  66:Generated_Source\PSoC5/VERT_PM.c ****     #endif  /* (!VERT_UsingFixedFunction) */
  67:Generated_Source\PSoC5/VERT_PM.c **** }
  68:Generated_Source\PSoC5/VERT_PM.c **** 
  69:Generated_Source\PSoC5/VERT_PM.c **** 
  70:Generated_Source\PSoC5/VERT_PM.c **** /*******************************************************************************
  71:Generated_Source\PSoC5/VERT_PM.c **** * Function Name: VERT_RestoreConfig
  72:Generated_Source\PSoC5/VERT_PM.c **** ********************************************************************************
  73:Generated_Source\PSoC5/VERT_PM.c **** *
  74:Generated_Source\PSoC5/VERT_PM.c **** * Summary:
  75:Generated_Source\PSoC5/VERT_PM.c **** *  Restores the current user configuration of the component.
  76:Generated_Source\PSoC5/VERT_PM.c **** *
  77:Generated_Source\PSoC5/VERT_PM.c **** * Parameters:
  78:Generated_Source\PSoC5/VERT_PM.c **** *  None
  79:Generated_Source\PSoC5/VERT_PM.c **** *
  80:Generated_Source\PSoC5/VERT_PM.c **** * Return:
  81:Generated_Source\PSoC5/VERT_PM.c **** *  None
  82:Generated_Source\PSoC5/VERT_PM.c **** *
  83:Generated_Source\PSoC5/VERT_PM.c **** * Global variables:
  84:Generated_Source\PSoC5/VERT_PM.c **** *  VERT_backup:  Variables of this global structure are used to
  85:Generated_Source\PSoC5/VERT_PM.c **** *  restore the values of non retention registers on wakeup from sleep mode.
  86:Generated_Source\PSoC5/VERT_PM.c **** *
  87:Generated_Source\PSoC5/VERT_PM.c **** *******************************************************************************/
  88:Generated_Source\PSoC5/VERT_PM.c **** void VERT_RestoreConfig(void) 
  89:Generated_Source\PSoC5/VERT_PM.c **** {
  65              		.loc 1 89 0
  66              		.cfi_startproc
  67              		@ args = 0, pretend = 0, frame = 0
  68              		@ frame_needed = 0, uses_anonymous_args = 0
  69 0000 10B5     		push	{r4, lr}
  70              		.cfi_def_cfa_offset 8
  71              		.cfi_offset 4, -8
  72              		.cfi_offset 14, -4
  90:Generated_Source\PSoC5/VERT_PM.c ****         #if(!VERT_UsingFixedFunction)
  91:Generated_Source\PSoC5/VERT_PM.c ****             #if(!VERT_PWMModeIsCenterAligned)
  92:Generated_Source\PSoC5/VERT_PM.c ****                 VERT_WritePeriod(VERT_backup.PWMPeriod);
  73              		.loc 1 92 0
  74 0002 064C     		ldr	r4, .L7
  75 0004 A088     		ldrh	r0, [r4, #4]
  76 0006 FFF7FEFF 		bl	VERT_WritePeriod
  77              	.LVL3:
  93:Generated_Source\PSoC5/VERT_PM.c ****             #endif /* (!VERT_PWMModeIsCenterAligned) */
  94:Generated_Source\PSoC5/VERT_PM.c **** 
ARM GAS  C:\Users\info\AppData\Local\Temp\ccKENOtx.s 			page 4


  95:Generated_Source\PSoC5/VERT_PM.c ****             VERT_WriteCounter(VERT_backup.PWMUdb);
  78              		.loc 1 95 0
  79 000a 6088     		ldrh	r0, [r4, #2]
  80 000c FFF7FEFF 		bl	VERT_WriteCounter
  81              	.LVL4:
  96:Generated_Source\PSoC5/VERT_PM.c **** 
  97:Generated_Source\PSoC5/VERT_PM.c ****             #if (VERT_UseStatus)
  98:Generated_Source\PSoC5/VERT_PM.c ****                 VERT_STATUS_MASK = VERT_backup.InterruptMaskValue;
  99:Generated_Source\PSoC5/VERT_PM.c ****             #endif /* (VERT_UseStatus) */
 100:Generated_Source\PSoC5/VERT_PM.c **** 
 101:Generated_Source\PSoC5/VERT_PM.c ****             #if(VERT_DeadBandMode == VERT__B_PWM__DBM_256_CLOCKS || \
 102:Generated_Source\PSoC5/VERT_PM.c ****                 VERT_DeadBandMode == VERT__B_PWM__DBM_2_4_CLOCKS)
 103:Generated_Source\PSoC5/VERT_PM.c ****                 VERT_WriteDeadTime(VERT_backup.PWMdeadBandValue);
 104:Generated_Source\PSoC5/VERT_PM.c ****             #endif /* deadband count is either 2-4 clocks or 256 clocks */
 105:Generated_Source\PSoC5/VERT_PM.c **** 
 106:Generated_Source\PSoC5/VERT_PM.c ****             #if(VERT_KillModeMinTime)
 107:Generated_Source\PSoC5/VERT_PM.c ****                 VERT_WriteKillTime(VERT_backup.PWMKillCounterPeriod);
 108:Generated_Source\PSoC5/VERT_PM.c ****             #endif /* (VERT_KillModeMinTime) */
 109:Generated_Source\PSoC5/VERT_PM.c **** 
 110:Generated_Source\PSoC5/VERT_PM.c ****             #if(VERT_UseControl)
 111:Generated_Source\PSoC5/VERT_PM.c ****                 VERT_WriteControlRegister(VERT_backup.PWMControlRegister);
  82              		.loc 1 111 0
  83 0010 A079     		ldrb	r0, [r4, #6]	@ zero_extendqisi2
 112:Generated_Source\PSoC5/VERT_PM.c ****             #endif /* (VERT_UseControl) */
 113:Generated_Source\PSoC5/VERT_PM.c ****         #endif  /* (!VERT_UsingFixedFunction) */
 114:Generated_Source\PSoC5/VERT_PM.c ****     }
  84              		.loc 1 114 0
  85 0012 BDE81040 		pop	{r4, lr}
  86              		.cfi_restore 14
  87              		.cfi_restore 4
  88              		.cfi_def_cfa_offset 0
 111:Generated_Source\PSoC5/VERT_PM.c ****             #endif /* (VERT_UseControl) */
  89              		.loc 1 111 0
  90 0016 FFF7FEBF 		b	VERT_WriteControlRegister
  91              	.LVL5:
  92              	.L8:
  93 001a 00BF     		.align	2
  94              	.L7:
  95 001c 00000000 		.word	.LANCHOR0
  96              		.cfi_endproc
  97              	.LFE1:
  98              		.size	VERT_RestoreConfig, .-VERT_RestoreConfig
  99              		.section	.text.VERT_Sleep,"ax",%progbits
 100              		.align	2
 101              		.global	VERT_Sleep
 102              		.thumb
 103              		.thumb_func
 104              		.type	VERT_Sleep, %function
 105              	VERT_Sleep:
 106              	.LFB2:
 115:Generated_Source\PSoC5/VERT_PM.c **** 
 116:Generated_Source\PSoC5/VERT_PM.c **** 
 117:Generated_Source\PSoC5/VERT_PM.c **** /*******************************************************************************
 118:Generated_Source\PSoC5/VERT_PM.c **** * Function Name: VERT_Sleep
 119:Generated_Source\PSoC5/VERT_PM.c **** ********************************************************************************
 120:Generated_Source\PSoC5/VERT_PM.c **** *
 121:Generated_Source\PSoC5/VERT_PM.c **** * Summary:
ARM GAS  C:\Users\info\AppData\Local\Temp\ccKENOtx.s 			page 5


 122:Generated_Source\PSoC5/VERT_PM.c **** *  Disables block's operation and saves the user configuration. Should be called
 123:Generated_Source\PSoC5/VERT_PM.c **** *  just prior to entering sleep.
 124:Generated_Source\PSoC5/VERT_PM.c **** *
 125:Generated_Source\PSoC5/VERT_PM.c **** * Parameters:
 126:Generated_Source\PSoC5/VERT_PM.c **** *  None
 127:Generated_Source\PSoC5/VERT_PM.c **** *
 128:Generated_Source\PSoC5/VERT_PM.c **** * Return:
 129:Generated_Source\PSoC5/VERT_PM.c **** *  None
 130:Generated_Source\PSoC5/VERT_PM.c **** *
 131:Generated_Source\PSoC5/VERT_PM.c **** * Global variables:
 132:Generated_Source\PSoC5/VERT_PM.c **** *  VERT_backup.PWMEnableState:  Is modified depending on the enable
 133:Generated_Source\PSoC5/VERT_PM.c **** *  state of the block before entering sleep mode.
 134:Generated_Source\PSoC5/VERT_PM.c **** *
 135:Generated_Source\PSoC5/VERT_PM.c **** *******************************************************************************/
 136:Generated_Source\PSoC5/VERT_PM.c **** void VERT_Sleep(void) 
 137:Generated_Source\PSoC5/VERT_PM.c **** {
 107              		.loc 1 137 0
 108              		.cfi_startproc
 109              		@ args = 0, pretend = 0, frame = 0
 110              		@ frame_needed = 0, uses_anonymous_args = 0
 111 0000 10B5     		push	{r4, lr}
 112              		.cfi_def_cfa_offset 8
 113              		.cfi_offset 4, -8
 114              		.cfi_offset 14, -4
 138:Generated_Source\PSoC5/VERT_PM.c ****     #if(VERT_UseControl)
 139:Generated_Source\PSoC5/VERT_PM.c ****         if(VERT_CTRL_ENABLE == (VERT_CONTROL & VERT_CTRL_ENABLE))
 115              		.loc 1 139 0
 116 0002 084B     		ldr	r3, .L11
 117 0004 084C     		ldr	r4, .L11+4
 118 0006 1B78     		ldrb	r3, [r3]	@ zero_extendqisi2
 119 0008 DB09     		lsrs	r3, r3, #7
 120 000a 2370     		strb	r3, [r4]
 140:Generated_Source\PSoC5/VERT_PM.c ****         {
 141:Generated_Source\PSoC5/VERT_PM.c ****             /*Component is enabled */
 142:Generated_Source\PSoC5/VERT_PM.c ****             VERT_backup.PWMEnableState = 1u;
 143:Generated_Source\PSoC5/VERT_PM.c ****         }
 144:Generated_Source\PSoC5/VERT_PM.c ****         else
 145:Generated_Source\PSoC5/VERT_PM.c ****         {
 146:Generated_Source\PSoC5/VERT_PM.c ****             /* Component is disabled */
 147:Generated_Source\PSoC5/VERT_PM.c ****             VERT_backup.PWMEnableState = 0u;
 148:Generated_Source\PSoC5/VERT_PM.c ****         }
 149:Generated_Source\PSoC5/VERT_PM.c ****     #endif /* (VERT_UseControl) */
 150:Generated_Source\PSoC5/VERT_PM.c **** 
 151:Generated_Source\PSoC5/VERT_PM.c ****     /* Stop component */
 152:Generated_Source\PSoC5/VERT_PM.c ****     VERT_Stop();
 121              		.loc 1 152 0
 122 000c FFF7FEFF 		bl	VERT_Stop
 123              	.LVL6:
 124              	.LBB4:
 125              	.LBB5:
  47:Generated_Source\PSoC5/VERT_PM.c ****         #endif /* (!VERT_PWMModeIsCenterAligned) */
 126              		.loc 1 47 0
 127 0010 FFF7FEFF 		bl	VERT_ReadPeriod
 128              	.LVL7:
 129 0014 A080     		strh	r0, [r4, #4]	@ movhi
  49:Generated_Source\PSoC5/VERT_PM.c ****         #if (VERT_UseStatus)
 130              		.loc 1 49 0
ARM GAS  C:\Users\info\AppData\Local\Temp\ccKENOtx.s 			page 6


 131 0016 FFF7FEFF 		bl	VERT_ReadCounter
 132              	.LVL8:
 133 001a 6080     		strh	r0, [r4, #2]	@ movhi
  64:Generated_Source\PSoC5/VERT_PM.c ****         #endif /* (VERT_UseControl) */
 134              		.loc 1 64 0
 135 001c FFF7FEFF 		bl	VERT_ReadControlRegister
 136              	.LVL9:
 137 0020 A071     		strb	r0, [r4, #6]
 138 0022 10BD     		pop	{r4, pc}
 139              	.L12:
 140              		.align	2
 141              	.L11:
 142 0024 7D640040 		.word	1073767549
 143 0028 00000000 		.word	.LANCHOR0
 144              	.LBE5:
 145              	.LBE4:
 146              		.cfi_endproc
 147              	.LFE2:
 148              		.size	VERT_Sleep, .-VERT_Sleep
 149              		.section	.text.VERT_Wakeup,"ax",%progbits
 150              		.align	2
 151              		.global	VERT_Wakeup
 152              		.thumb
 153              		.thumb_func
 154              		.type	VERT_Wakeup, %function
 155              	VERT_Wakeup:
 156              	.LFB3:
 153:Generated_Source\PSoC5/VERT_PM.c **** 
 154:Generated_Source\PSoC5/VERT_PM.c ****     /* Save registers configuration */
 155:Generated_Source\PSoC5/VERT_PM.c ****     VERT_SaveConfig();
 156:Generated_Source\PSoC5/VERT_PM.c **** }
 157:Generated_Source\PSoC5/VERT_PM.c **** 
 158:Generated_Source\PSoC5/VERT_PM.c **** 
 159:Generated_Source\PSoC5/VERT_PM.c **** /*******************************************************************************
 160:Generated_Source\PSoC5/VERT_PM.c **** * Function Name: VERT_Wakeup
 161:Generated_Source\PSoC5/VERT_PM.c **** ********************************************************************************
 162:Generated_Source\PSoC5/VERT_PM.c **** *
 163:Generated_Source\PSoC5/VERT_PM.c **** * Summary:
 164:Generated_Source\PSoC5/VERT_PM.c **** *  Restores and enables the user configuration. Should be called just after
 165:Generated_Source\PSoC5/VERT_PM.c **** *  awaking from sleep.
 166:Generated_Source\PSoC5/VERT_PM.c **** *
 167:Generated_Source\PSoC5/VERT_PM.c **** * Parameters:
 168:Generated_Source\PSoC5/VERT_PM.c **** *  None
 169:Generated_Source\PSoC5/VERT_PM.c **** *
 170:Generated_Source\PSoC5/VERT_PM.c **** * Return:
 171:Generated_Source\PSoC5/VERT_PM.c **** *  None
 172:Generated_Source\PSoC5/VERT_PM.c **** *
 173:Generated_Source\PSoC5/VERT_PM.c **** * Global variables:
 174:Generated_Source\PSoC5/VERT_PM.c **** *  VERT_backup.pwmEnable:  Is used to restore the enable state of
 175:Generated_Source\PSoC5/VERT_PM.c **** *  block on wakeup from sleep mode.
 176:Generated_Source\PSoC5/VERT_PM.c **** *
 177:Generated_Source\PSoC5/VERT_PM.c **** *******************************************************************************/
 178:Generated_Source\PSoC5/VERT_PM.c **** void VERT_Wakeup(void) 
 179:Generated_Source\PSoC5/VERT_PM.c **** {
 157              		.loc 1 179 0
 158              		.cfi_startproc
 159              		@ args = 0, pretend = 0, frame = 0
ARM GAS  C:\Users\info\AppData\Local\Temp\ccKENOtx.s 			page 7


 160              		@ frame_needed = 0, uses_anonymous_args = 0
 161 0000 10B5     		push	{r4, lr}
 162              		.cfi_def_cfa_offset 8
 163              		.cfi_offset 4, -8
 164              		.cfi_offset 14, -4
 165              	.LBB8:
 166              	.LBB9:
  92:Generated_Source\PSoC5/VERT_PM.c ****             #endif /* (!VERT_PWMModeIsCenterAligned) */
 167              		.loc 1 92 0
 168 0002 084C     		ldr	r4, .L18
 169 0004 A088     		ldrh	r0, [r4, #4]
 170 0006 FFF7FEFF 		bl	VERT_WritePeriod
 171              	.LVL10:
  95:Generated_Source\PSoC5/VERT_PM.c **** 
 172              		.loc 1 95 0
 173 000a 6088     		ldrh	r0, [r4, #2]
 174 000c FFF7FEFF 		bl	VERT_WriteCounter
 175              	.LVL11:
 111:Generated_Source\PSoC5/VERT_PM.c ****             #endif /* (VERT_UseControl) */
 176              		.loc 1 111 0
 177 0010 A079     		ldrb	r0, [r4, #6]	@ zero_extendqisi2
 178 0012 FFF7FEFF 		bl	VERT_WriteControlRegister
 179              	.LVL12:
 180              	.LBE9:
 181              	.LBE8:
 180:Generated_Source\PSoC5/VERT_PM.c ****      /* Restore registers values */
 181:Generated_Source\PSoC5/VERT_PM.c ****     VERT_RestoreConfig();
 182:Generated_Source\PSoC5/VERT_PM.c **** 
 183:Generated_Source\PSoC5/VERT_PM.c ****     if(VERT_backup.PWMEnableState != 0u)
 182              		.loc 1 183 0
 183 0016 2378     		ldrb	r3, [r4]	@ zero_extendqisi2
 184 0018 03B9     		cbnz	r3, .L17
 185 001a 10BD     		pop	{r4, pc}
 186              	.L17:
 184:Generated_Source\PSoC5/VERT_PM.c ****     {
 185:Generated_Source\PSoC5/VERT_PM.c ****         /* Enable component's operation */
 186:Generated_Source\PSoC5/VERT_PM.c ****         VERT_Enable();
 187:Generated_Source\PSoC5/VERT_PM.c ****     } /* Do nothing if component's block was disabled before */
 188:Generated_Source\PSoC5/VERT_PM.c **** 
 189:Generated_Source\PSoC5/VERT_PM.c **** }
 187              		.loc 1 189 0
 188 001c BDE81040 		pop	{r4, lr}
 189              		.cfi_restore 14
 190              		.cfi_restore 4
 191              		.cfi_def_cfa_offset 0
 186:Generated_Source\PSoC5/VERT_PM.c ****     } /* Do nothing if component's block was disabled before */
 192              		.loc 1 186 0
 193 0020 FFF7FEBF 		b	VERT_Enable
 194              	.LVL13:
 195              	.L19:
 196              		.align	2
 197              	.L18:
 198 0024 00000000 		.word	.LANCHOR0
 199              		.cfi_endproc
 200              	.LFE3:
 201              		.size	VERT_Wakeup, .-VERT_Wakeup
 202              		.bss
ARM GAS  C:\Users\info\AppData\Local\Temp\ccKENOtx.s 			page 8


 203              		.align	2
 204              		.set	.LANCHOR0,. + 0
 205              		.type	VERT_backup, %object
 206              		.size	VERT_backup, 8
 207              	VERT_backup:
 208 0000 00000000 		.space	8
 208      00000000 
 209              		.text
 210              	.Letext0:
 211              		.file 2 "Generated_Source\\PSoC5\\cytypes.h"
 212              		.file 3 "Generated_Source\\PSoC5\\VERT.h"