ARM GAS  C:\Users\info\AppData\Local\Temp\cchcOyYs.s 			page 1


   1              		.syntax unified
   2              		.cpu cortex-m3
   3              		.fpu softvfp
   4              		.eabi_attribute 20, 1
   5              		.eabi_attribute 21, 1
   6              		.eabi_attribute 23, 3
   7              		.eabi_attribute 24, 1
   8              		.eabi_attribute 25, 1
   9              		.eabi_attribute 26, 1
  10              		.eabi_attribute 30, 2
  11              		.eabi_attribute 34, 1
  12              		.eabi_attribute 18, 4
  13              		.thumb
  14              		.syntax unified
  15              		.file	"video.c"
  16              		.text
  17              	.Ltext0:
  18              		.cfi_sections	.debug_frame
  19              		.section	.text.newline_handler,"ax",%progbits
  20              		.align	2
  21              		.global	newline_handler
  22              		.thumb
  23              		.thumb_func
  24              		.type	newline_handler, %function
  25              	newline_handler:
  26              	.LFB63:
  27              		.file 1 "video.c"
   1:video.c       **** #include "project.h"
   2:video.c       **** #include "chip8.h"
   3:video.c       **** 
   4:video.c       **** /*
   5:video.c       ****    Video buffer gets its own SRAM to prevent bus contention.
   6:video.c       ****    The user-facing buffer is in regular system RAM.
   7:video.c       ****    This is set in the custom linker script (custom.ld).
   8:video.c       **** */
   9:video.c       **** uint8_t vbuf[96][128] __attribute__ ((section(".vram")));
  10:video.c       **** 
  11:video.c       **** /* 
  12:video.c       ****    Now we set up the DMA to copy pixels from vbuf to the screen.
  13:video.c       ****    For timing, we rely on the fact that it takes the DMA exactly
  14:video.c       ****    8 clocks to move each byte. After each line the DMA is updated
  15:video.c       ****    to point to the next line in vbuf.
  16:video.c       **** */
  17:video.c       **** 
  18:video.c       **** void newline_handler(uint8_t* dma_chan, uint8_t* dma_td, 
  19:video.c       ****     volatile uint8_t* vga_update_flag, uint64_t vram[]) {
  28              		.loc 1 19 0
  29              		.cfi_startproc
  30              		@ args = 0, pretend = 0, frame = 16
  31              		@ frame_needed = 0, uses_anonymous_args = 0
  32              	.LVL0:
  33 0000 2DE9F04F 		push	{r4, r5, r6, r7, r8, r9, r10, fp, lr}
  34              		.cfi_def_cfa_offset 36
  35              		.cfi_offset 4, -36
  36              		.cfi_offset 5, -32
  37              		.cfi_offset 6, -28
  38              		.cfi_offset 7, -24
ARM GAS  C:\Users\info\AppData\Local\Temp\cchcOyYs.s 			page 2


  39              		.cfi_offset 8, -20
  40              		.cfi_offset 9, -16
  41              		.cfi_offset 10, -12
  42              		.cfi_offset 11, -8
  43              		.cfi_offset 14, -4
  44 0004 85B0     		sub	sp, sp, #20
  45              		.cfi_def_cfa_offset 56
  46              		.loc 1 19 0
  47 0006 0390     		str	r0, [sp, #12]
  48 0008 0F46     		mov	r7, r1
  49 000a 0292     		str	r2, [sp, #8]
  50 000c 1E46     		mov	r6, r3
  20:video.c       ****     uint16 line = 805 - VERT_ReadCounter();
  51              		.loc 1 20 0
  52 000e FFF7FEFF 		bl	VERT_ReadCounter
  53              	.LVL1:
  54 0012 C0F54970 		rsb	r0, r0, #804
  55 0016 0130     		adds	r0, r0, #1
  56 0018 80B2     		uxth	r0, r0
  57              	.LVL2:
  21:video.c       ****     if (line % 8 == 0) {
  58              		.loc 1 21 0
  59 001a 10F00708 		ands	r8, r0, #7
  60 001e 03D1     		bne	.L1
  22:video.c       ****         if (line < 768) {
  61              		.loc 1 22 0
  62 0020 B0F5407F 		cmp	r0, #768
  63 0024 03D3     		bcc	.L20
  23:video.c       ****             CY_SET_REG16(CY_DMA_TDMEM_STRUCT_PTR[*dma_td].TD1,
  24:video.c       ****                          LO16((uint32) vbuf[line / 8]));
  25:video.c       ****         } else if (line == 768 && *vga_update_flag) {
  64              		.loc 1 25 0
  65 0026 11D0     		beq	.L21
  66              	.L1:
  26:video.c       ****             /* Refresh buffer during vsync */
  27:video.c       ****             CyDmaChDisable(*dma_chan);
  28:video.c       ****             if (*vga_update_flag) {
  29:video.c       ****                 uint8_t pixel;
  30:video.c       ****                 uint64_t temprow;
  31:video.c       ****                 for (uint8_t x = 0; x < 64; x++){
  32:video.c       ****                     for (uint8_t y = 0; y < 48; y++){
  33:video.c       ****                         if (y < 8 || y >= 40) {
  34:video.c       ****                             pixel = 0;
  35:video.c       ****                         } else {
  36:video.c       ****                             temprow = vram[y - 8] & (((uint64_t)1) << (63-x));
  37:video.c       ****                             pixel = (temprow) ? 1 : 0;
  38:video.c       ****                         }
  39:video.c       ****                         vbuf[2*y][2*x] = pixel;
  40:video.c       ****                         vbuf[2*y+1][2*x] = pixel;
  41:video.c       ****                         vbuf[2*y][2*x+1] = pixel;
  42:video.c       ****                         vbuf[2*y+1][2*x+1] = pixel;
  43:video.c       ****                     }
  44:video.c       ****                 }
  45:video.c       ****                 *vga_update_flag = 0;
  46:video.c       ****             }
  47:video.c       ****             CyDmaChEnable(*dma_chan, 1);
  48:video.c       ****         }
ARM GAS  C:\Users\info\AppData\Local\Temp\cchcOyYs.s 			page 3


  49:video.c       ****     }
  50:video.c       **** }
  67              		.loc 1 50 0
  68 0028 05B0     		add	sp, sp, #20
  69              		.cfi_remember_state
  70              		.cfi_def_cfa_offset 36
  71              		@ sp needed
  72 002a BDE8F08F 		pop	{r4, r5, r6, r7, r8, r9, r10, fp, pc}
  73              	.LVL3:
  74              	.L20:
  75              		.cfi_restore_state
  23:video.c       ****             CY_SET_REG16(CY_DMA_TDMEM_STRUCT_PTR[*dma_td].TD1,
  76              		.loc 1 23 0
  77 002e 3B78     		ldrb	r3, [r7]	@ zero_extendqisi2
  78 0030 364A     		ldr	r2, .L22
  79 0032 DB00     		lsls	r3, r3, #3
  80 0034 C008     		lsrs	r0, r0, #3
  81              	.LVL4:
  82 0036 02EBC010 		add	r0, r2, r0, lsl #7
  83 003a 03F18043 		add	r3, r3, #1073741824
  84 003e 03F5F043 		add	r3, r3, #30720
  85 0042 82B2     		uxth	r2, r0
  86 0044 9A80     		strh	r2, [r3, #4]	@ movhi
  87              		.loc 1 50 0
  88 0046 05B0     		add	sp, sp, #20
  89              		.cfi_remember_state
  90              		.cfi_def_cfa_offset 36
  91              		@ sp needed
  92 0048 BDE8F08F 		pop	{r4, r5, r6, r7, r8, r9, r10, fp, pc}
  93              	.LVL5:
  94              	.L21:
  95              		.cfi_restore_state
  25:video.c       ****             /* Refresh buffer during vsync */
  96              		.loc 1 25 0 discriminator 1
  97 004c 029B     		ldr	r3, [sp, #8]
  98 004e 1B78     		ldrb	r3, [r3]	@ zero_extendqisi2
  99 0050 002B     		cmp	r3, #0
 100 0052 E9D0     		beq	.L1
  27:video.c       ****             if (*vga_update_flag) {
 101              		.loc 1 27 0
 102 0054 039B     		ldr	r3, [sp, #12]
 103 0056 1878     		ldrb	r0, [r3]	@ zero_extendqisi2
 104              	.LVL6:
 105 0058 FFF7FEFF 		bl	CyDmaChDisable
 106              	.LVL7:
  28:video.c       ****                 uint8_t pixel;
 107              		.loc 1 28 0
 108 005c 029B     		ldr	r3, [sp, #8]
 109 005e 1B78     		ldrb	r3, [r3]	@ zero_extendqisi2
 110 0060 002B     		cmp	r3, #0
 111 0062 49D0     		beq	.L5
 112 0064 4FF0010C 		mov	ip, #1
 113              	.LBB2:
 114              	.LBB3:
 115              	.LBB4:
  36:video.c       ****                             pixel = (temprow) ? 1 : 0;
 116              		.loc 1 36 0
ARM GAS  C:\Users\info\AppData\Local\Temp\cchcOyYs.s 			page 4


 117 0068 E146     		mov	r9, ip
 118 006a A6F13803 		sub	r3, r6, #56
 119 006e DFF89CA0 		ldr	r10, .L22
 120              	.LBE4:
 121              	.LBE3:
 122              	.LBE2:
 123 0072 C646     		mov	lr, r8
 124 0074 0193     		str	r3, [sp, #4]
 125 0076 4FF03F08 		mov	r8, #63
 126              	.LVL8:
 127              	.L8:
 128              	.LBB9:
 129              	.LBB7:
 130              	.LBB5:
 131 007a A8F12002 		sub	r2, r8, #32
 132 007e C8F12003 		rsb	r3, r8, #32
 133 0082 09FA02F5 		lsl	r5, r9, r2
 134 0086 29FA03F3 		lsr	r3, r9, r3
 135 008a 0CF17F02 		add	r2, ip, #127
 136 008e 1D43     		orrs	r5, r5, r3
 137 0090 09FA08F4 		lsl	r4, r9, r8
 138 0094 5244     		add	r2, r2, r10
 139 0096 0AEB0E06 		add	r6, r10, lr
 140 009a 019F     		ldr	r7, [sp, #4]
 141 009c F923     		movs	r3, #249
  34:video.c       ****                         } else {
 142              		.loc 1 34 0
 143 009e 0021     		movs	r1, #0
 144 00a0 10E0     		b	.L10
 145              	.LVL9:
 146              	.L7:
  33:video.c       ****                             pixel = 0;
 147              		.loc 1 33 0
 148 00a2 1F2B     		cmp	r3, #31
 149 00a4 30D8     		bhi	.L11
  37:video.c       ****                         }
 150              		.loc 1 37 0
 151 00a6 D7E90001 		ldrd	r0, [r7]
 152 00aa 2940     		ands	r1, r1, r5
 153              	.LVL10:
 154 00ac 2040     		ands	r0, r0, r4
 155 00ae 0143     		orrs	r1, r0, r1
 156 00b0 14BF     		ite	ne
 157 00b2 0121     		movne	r1, #1
 158 00b4 0021     		moveq	r1, #0
 159              	.LVL11:
 160              	.L6:
 161 00b6 0133     		adds	r3, r3, #1
 162              	.LVL12:
 163 00b8 DBB2     		uxtb	r3, r3
 164 00ba 06F58076 		add	r6, r6, #256
 165 00be 02F58072 		add	r2, r2, #256
 166 00c2 0837     		adds	r7, r7, #8
 167              	.L10:
 168              	.LVL13:
  41:video.c       ****                         vbuf[2*y+1][2*x+1] = pixel;
 169              		.loc 1 41 0 discriminator 2
ARM GAS  C:\Users\info\AppData\Local\Temp\cchcOyYs.s 			page 5


 170 00c4 CEEB060B 		rsb	fp, lr, r6
  42:video.c       ****                     }
 171              		.loc 1 42 0 discriminator 2
 172 00c8 CEEB0200 		rsb	r0, lr, r2
  32:video.c       ****                         if (y < 8 || y >= 40) {
 173              		.loc 1 32 0 discriminator 2
 174 00cc 282B     		cmp	r3, #40
  39:video.c       ****                         vbuf[2*y+1][2*x] = pixel;
 175              		.loc 1 39 0 discriminator 2
 176 00ce 02F8801C 		strb	r1, [r2, #-128]
 177              	.LVL14:
  40:video.c       ****                         vbuf[2*y][2*x+1] = pixel;
 178              		.loc 1 40 0 discriminator 2
 179 00d2 86F88010 		strb	r1, [r6, #128]
  41:video.c       ****                         vbuf[2*y+1][2*x+1] = pixel;
 180              		.loc 1 41 0 discriminator 2
 181 00d6 0BF80C10 		strb	r1, [fp, ip]
  42:video.c       ****                     }
 182              		.loc 1 42 0 discriminator 2
 183 00da 00F80C10 		strb	r1, [r0, ip]
 184              	.LVL15:
  32:video.c       ****                         if (y < 8 || y >= 40) {
 185              		.loc 1 32 0 discriminator 2
 186 00de E0D1     		bne	.L7
 187              	.LVL16:
 188 00e0 0EF1020E 		add	lr, lr, #2
 189              	.LBE5:
  31:video.c       ****                     for (uint8_t y = 0; y < 48; y++){
 190              		.loc 1 31 0 discriminator 2
 191 00e4 BEF1800F 		cmp	lr, #128
 192 00e8 08F1FF38 		add	r8, r8, #-1
 193              	.LVL17:
 194 00ec 0CF1020C 		add	ip, ip, #2
 195 00f0 C3D1     		bne	.L8
 196              	.LBE7:
  45:video.c       ****             }
 197              		.loc 1 45 0
 198 00f2 029A     		ldr	r2, [sp, #8]
 199 00f4 0023     		movs	r3, #0
 200              	.LVL18:
 201 00f6 1370     		strb	r3, [r2]
 202              	.LVL19:
 203              	.L5:
 204              	.LBE9:
  47:video.c       ****         }
 205              		.loc 1 47 0
 206 00f8 039B     		ldr	r3, [sp, #12]
 207 00fa 0121     		movs	r1, #1
 208 00fc 1878     		ldrb	r0, [r3]	@ zero_extendqisi2
 209              		.loc 1 50 0
 210 00fe 05B0     		add	sp, sp, #20
 211              		.cfi_remember_state
 212              		.cfi_def_cfa_offset 36
 213              		@ sp needed
 214 0100 BDE8F04F 		pop	{r4, r5, r6, r7, r8, r9, r10, fp, lr}
 215              		.cfi_restore 14
 216              		.cfi_restore 11
ARM GAS  C:\Users\info\AppData\Local\Temp\cchcOyYs.s 			page 6


 217              		.cfi_restore 10
 218              		.cfi_restore 9
 219              		.cfi_restore 8
 220              		.cfi_restore 7
 221              		.cfi_restore 6
 222              		.cfi_restore 5
 223              		.cfi_restore 4
 224              		.cfi_def_cfa_offset 0
 225              	.LVL20:
  47:video.c       ****         }
 226              		.loc 1 47 0
 227 0104 FFF7FEBF 		b	CyDmaChEnable
 228              	.LVL21:
 229              	.L11:
 230              		.cfi_restore_state
 231              	.LBB10:
 232              	.LBB8:
 233              	.LBB6:
  34:video.c       ****                         } else {
 234              		.loc 1 34 0
 235 0108 0021     		movs	r1, #0
 236              	.LVL22:
 237 010a D4E7     		b	.L6
 238              	.L23:
 239              		.align	2
 240              	.L22:
 241 010c 00000000 		.word	.LANCHOR0
 242              	.LBE6:
 243              	.LBE8:
 244              	.LBE10:
 245              		.cfi_endproc
 246              	.LFE63:
 247              		.size	newline_handler, .-newline_handler
 248              		.global	vbuf
 249              		.section	.vram,"aw",%progbits
 250              		.align	2
 251              		.set	.LANCHOR0,. + 0
 252              		.type	vbuf, %object
 253              		.size	vbuf, 12288
 254              	vbuf:
 255 0000 00000000 		.space	12288
 255      00000000 
 255      00000000 
 255      00000000 
 255      00000000 
 256              		.text
 257              	.Letext0:
 258              		.file 2 "c:\\program files (x86)\\cypress\\psoc creator\\4.2\\psoc creator\\import\\gnu\\arm\\5.4.
 259              		.file 3 "c:\\program files (x86)\\cypress\\psoc creator\\4.2\\psoc creator\\import\\gnu\\arm\\5.4.
 260              		.file 4 "Generated_Source\\PSoC5/cytypes.h"
 261              		.file 5 "Generated_Source\\PSoC5/CYDMAC.H"
 262              		.file 6 "Generated_Source\\PSoC5/core_cm3.h"
 263              		.file 7 "Generated_Source\\PSoC5/VERT.h"